ARM GAS  /tmp/cc9k88qc.s 			page 1


   1              		.syntax unified
   2              		.cpu cortex-m3
   3              		.fpu softvfp
   4              		.eabi_attribute 20, 1
   5              		.eabi_attribute 21, 1
   6              		.eabi_attribute 23, 3
   7              		.eabi_attribute 24, 1
   8              		.eabi_attribute 25, 1
   9              		.eabi_attribute 26, 1
  10              		.eabi_attribute 30, 2
  11              		.eabi_attribute 34, 1
  12              		.eabi_attribute 18, 4
  13              		.thumb
  14              		.file	"chcore_v7m.c"
  15              		.text
  16              	.Ltext0:
  17              		.section	.gnu.lto_.jmpfuncs.2971ae781138494a,"",%progbits
  18 0000 789C6362 		.ascii	"x\234cb`d`g\300\016\270\24043\030\263\000I\000\002\320"
  18      60646067 
  18      C00EB8A0 
  18      343318B3 
  18      00490002 
  19 0015 001F     		.ascii	"\000\037"
  20              		.text
  21              		.section	.gnu.lto_.inline.2971ae781138494a,"",%progbits
  22 0000 789C6362 		.ascii	"x\234cb`d\340e\300\016l\24143\003\003\277\030#\003\223"
  22      6064E065 
  22      C00E6CA1 
  22      34330303 
  22      BF182303 
  23 0015 C8851E46 		.ascii	"\310\205\036F\006\266\005\362L\014L\334`aN\016\240("
  23      06B605F2 
  23      4C0C4CDC 
  23      60614E0E 
  23      A028
  24 0027 CF835888 		.ascii	"\317\203X\210 \013\003\0277\210?'\022\302g\344\002i"
  24      200B0317 
  24      37883F27 
  24      12C267E4 
  24      0269
  25 0039 0600E6A8 		.ascii	"\006\000\346\250\006\324"
  25      06D4
  26              		.text
  27              		.section	.gnu.lto_.pureconst.2971ae781138494a,"",%progbits
  28 0000 789C6362 		.ascii	"x\234cb`d`f```g\200\000f\006+f+\026+\000\003/\000\306"
  28      60646066 
  28      60606067 
  28      80006606 
  28      2B662B16 
  29              		.text
  30              		.section	.gnu.lto__port_irq_epilogue.part.0.2971ae781138494a,"",%progbits
  31 0000 789CA553 		.ascii	"x\234\245SMh\023Q\020\236yow\023c\253=\211\012\325P"
  31      4D681351 
  31      109E796F 
  31      771363AB 
  31      3D890AD5 
  32 0015 90FA13B2 		.ascii	"\220\372\023\262=\251\027A\251\210\036\2026\301c,\262"
ARM GAS  /tmp/cc9k88qc.s 			page 2


  32      3DA91741 
  32      A9881E82 
  32      36C1632C 
  32      B2
  33 0026 6EA99836 		.ascii	"n\251\2306a\263\225\222\203\331\246=\004A(\236\252b"
  33      61B39592 
  33      83D9A63D 
  33      0441289E 
  33      AA62
  34 0038 B541A10D 		.ascii	"\265A\241\015\355\275\267\202\177\024\033\012\202'+"
  34      EDBDB782 
  34      7F141B0A 
  34      82272B
  35 0047 D8438908 		.ascii	"\330C\211\010\265x\360R\024\342\274\267\233?[J\321\227"
  35      B578F052 
  35      14E2BCB7 
  35      9B3F5B4A 
  35      D197
  36 0059 F4CDE4CD 		.ascii	"\364\315\344\315|\363\315\373\346\225\001\322g\353\272"
  36      7CF3CDFB 
  36      E69501D2 
  36      67EBBA
  37 0068 487F9F14 		.ascii	"H\177\237\024\200)\262\350\003\324\306\227\311\321\220"
  37      8029B2E8 
  37      03D4C697 
  37      C9D190
  38 0077 49CB18CF 		.ascii	"I\313\030\317w\202s\\\021{\027GU\234\216\004\225\252"
  38      7782735C 
  38      117B1747 
  38      559C8E04 
  38      95AA
  39 0089 A3220A87 		.ascii	"\243\"\012\207*g5\306\025\025\263\327%\211\326\001S"
  39      2A6735C6 
  39      1515B3D7 
  39      2589D601 
  39      53
  40 009a 8EF3707C 		.ascii	"\216\363p|\324Yl\313\255V*GM\004\006\014\241\027\241"
  40      D4596CCB 
  40      AD562A47 
  40      4D04060C 
  40      A117A1
  41 00ad 3CBDF29D 		.ascii	"<\275\362\235\035\002\023\021\202 ,\003\245\271\247"
  41      1D021311 
  41      82202C03 
  41      A5B9A7
  42 00bc 1AF8B287 		.ascii	"\032\370\262\207\345\014NK\354\306\312B\211\357\002"
  42      E50C4E4B 
  42      ECC6CA42 
  42      89EF02
  43 00cb FBE355EE 		.ascii	"\373\343U\356\240\207\2458\001?\317\024=N\277\207\303"
  43      A087A538 
  43      013FCF14 
  43      3D4EBF87 
  43      C3
  44 00dc 6D395FE7 		.ascii	"m9_\347\252\234*\2434\001]\233\316\354\246\333\006\244"
  44      AA9C2AA3 
  44      34015D9B 
ARM GAS  /tmp/cc9k88qc.s 			page 3


  44      CEECA6DB 
  44      06A4
  45 00ee 64FCF8AC 		.ascii	"d\374\370\254\210\377\202\233\337\371~\2706\247-0g\265"
  45      88FF829B 
  45      DFF97EB8 
  45      36A72D30 
  45      67B5
  46 0100 92056841 		.ascii	"\222\005hA\210\343s\354 i\343X \313=\253\220}IV%\373"
  46      88E373EC 
  46      2069E358 
  46      20CB3DAB 
  46      907D4956 
  47 0116 822C2D15 		.ascii	"\202,-\025\306\034\247M\020\310\325#\254\030]\017j\322"
  47      C61CA74D 
  47      10C8D523 
  47      AC185D0F 
  47      6AD2
  48 0128 E151E292 		.ascii	"\341Q\342\222\316\022\214`yq\245\335E\240\313\340\301"
  48      CE128C60 
  48      7971A5DD 
  48      45A0CBE0 
  48      C1
  49 0139 6B678225 		.ascii	"kg\202%\2163\242\347\277\026\025Np\352\010\344\006p"
  49      8E33A2E7 
  49      BF16154E 
  49      70EA08E4 
  49      0670
  50 014b 04324F9D 		.ascii	"\0042O\235\211\363\246\340\001\003%\377;\331q\021U\257"
  50      89F3A6E0 
  50      010325FF 
  50      3BD97111 
  50      55AF
  51 015d 7F79FC1E 		.ascii	"\177y\374\036r\337\270\034p\034g)d \223\347n\362\254"
  51      72DFB81C 
  51      701C6729 
  51      642093E7 
  51      6EF2AC
  52 0170 4C2EC864 		.ascii	"L.\310d&\222G\357\363\322t_5\225\323\251\253\027i\351"
  52      269247EF 
  52      F3D2745F 
  52      3595D3A9 
  52      AB1769E9 
  53 0184 2EACD4BC 		.ascii	".\254\324\274\355\212p\311\270\316i\274\325\"\212<\255"
  53      ED8A70C9 
  53      B8CE69BC 
  53      D5228A3C 
  53      AD
  54 0195 A76E7987 		.ascii	"\247ny\207\024\271'\336\004\376\236<\274\343\224\014"
  54      14B927DE 
  54      04FE9E3C 
  54      BCE3940C 
  55 01a5 F1EC9620 		.ascii	"\361\354\226 \207\345\211/\355M\332y\245\033\365Bx\200"
  55      87E5892F 
  55      ED4DDA79 
  55      A51BF542 
  55      7880
  56 01b7 CD8A3D41 		.ascii	"\315\212=AW2_\265T-2\211u1\345\005\316n\374\372\360"
ARM GAS  /tmp/cc9k88qc.s 			page 4


  56      57325FB5 
  56      542D3289 
  56      7531E505 
  56      CE6EFCFA 
  57 01cc 86B9454F 		.ascii	"\206\271EO\301I\023\375\3741<B\023\3670O\022.%\331/"
  57      C14913FD 
  57      FC313C42 
  57      13F7304F 
  57      122E25D9 
  58 01e1 1FFC0DB1 		.ascii	"\037\374\015\261M\320%e\333\001p\034\307O?J\300\305"
  58      4DD02565 
  58      DB01701C 
  58      C74F3F4A 
  58      C0C5
  59 01f3 3F485507 		.ascii	"?HU\0075\003\233\216\337\304\275\330\213\314}0&\266"
  59      35039B8E 
  59      DFC4BDD8 
  59      8BCC7D30 
  59      26B6
  60 0205 00BC85B1 		.ascii	"\000\274\205\261\257\230\257\215G\0255\232/\036\025"
  60      AF98AF8D 
  60      4715359A 
  60      2F1E15
  61 0214 02E63B39 		.ascii	"\002\346;95\266\311\327g\012\270\373\306h\237\027\215"
  61      35B6C9D7 
  61      670AB8FB 
  61      C6689F17 
  61      8D
  62 0225 79DCADC4 		.ascii	"y\334\255\304\315\027}\015\225\225z\345\237\305\377"
  62      CD177D0D 
  62      95957AE5 
  62      9FC5FF
  63 0234 ACAC3455 		.ascii	"\254\2544UV\335\207\277\014X\232;\320<\237\036\201\246"
  63      56DD87BF 
  63      0C589A3B 
  63      D03C9F1E 
  63      81A6
  64 0246 A0905FB3 		.ascii	"\240\220_\263\314\364P\302\016\205\303\272\373M\246"
  64      CCF450C2 
  64      0E85C3BA 
  64      FB4DA6
  65 0255 7573D8D6 		.ascii	"us\330\326\273#\261+1\375\366\240\221\030\272e\352F"
  65      BB23B12B 
  65      31FDF6A0 
  65      9118BA65 
  65      EA46
  66 0267 D2327B8D 		.ascii	"\3222{\215\201KC\203F\270\037\024\303\036N\235hDX\266"
  66      814B4383 
  66      46B81F14 
  66      C31E4E9D 
  66      684458B6 
  67 027b 9E4A5A76 		.ascii	"\236JZvZ\277\020\215tG\206u\243_\"\356\236\031\010\033"
  67      5ABF108D 
  67      74478675 
  67      A35F22EE 
  67      9E19081B 
  68 028f A089F470 		.ascii	"\240\211\364pWk$\032\013\036\353\012\005S\351T\000\370"
ARM GAS  /tmp/cc9k88qc.s 			page 5


  68      576B241A 
  68      0B1EEB0A 
  68      0553E954 
  68      00F8
  69 02a1 390BF6D9 		.ascii	"9\013\366\331\311\324\325\276kV\322\210\3317\215;\255"
  69      C9D4D5BE 
  69      6B56D288 
  69      D9378D3B 
  69      AD
  70 02b2 91585404 		.ascii	"\221XT\004C\224\025\000f\001O\247\340\017E\340?U"
  70      43941500 
  70      66014FA7 
  70      E00F45E0 
  70      3F55
  71              		.text
  72              		.section	.gnu.lto_SVC_Handler.2971ae781138494a,"",%progbits
  73 0000 789C8D52 		.ascii	"x\234\215RKh\023Q\024=\367\275$\245\245\225l\013ZC\301"
  73      4B681351 
  73      143DF7BD 
  73      24A5A595 
  73      6C0B5A43 
  74 0015 8510328A 		.ascii	"\205\0202\212\013\335\010JAt\021\264\011.%\324q$\305"
  74      0BDD084A 
  74      417411B4 
  74      092E25D4 
  74      7124C5
  75 0028 A433CC4C 		.ascii	"\2443\314LJta\322\324\225 \024\027\222X\024\015R\205"
  75      4A7461D2 
  75      D4952014 
  75      17925814 
  75      0D5285
  76 003b 0A2212DC 		.ascii	"\012\"\022\334\251 \0241\322\205\010.\012ZTB\225\272"
  76      A9201431 
  76      D285082E 
  76      0A5A5442 
  76      95BA
  77 004d EB5212DF 		.ascii	"\353R\022\337{\223O\323\224\320\371\335\231{\3579\357"
  77      7B934FD3 
  77      94D0F9DD 
  77      997BEF39 
  77      EF
  78 005e 9E338F81 		.ascii	"\2363\217\201\304\331{\214\212\273\304\201?\"\022\007"
  78      C4D97B8C 
  78      8ABBC481 
  78      3F221207 
  79 006e B1855560 		.ascii	"\261\205U`.\304\210\344\213\200\344\030\345.*$\037\307"
  79      2EC488E4 
  79      8B80E418 
  79      E52E2A24 
  79      1FC7
  80 0080 E37CFEEE 		.ascii	"\343|\376\356\302\373\302\331\302z\243q\320 00B\202"
  80      C2FBC2D9 
  80      C27AA371 
  80      D0203030 
  80      4282
  81 0092 50DB78F5 		.ascii	"P\333x\365\213Fa\020!\004\031\031|\335\3534\261\363"
  81      8B466110 
ARM GAS  /tmp/cc9k88qc.s 			page 6


  81      21041919 
  81      7CDDEB34 
  81      B1F3
  82 00a4 F9169633 		.ascii	"\371\026\2263\034S\330O\3057{\204~\0106\261>\206\023"
  82      1C53D84F 
  82      C5377B84 
  82      7E0836B1 
  82      3E8613
  83 00b7 0A5B5F5E 		.ascii	"\012[_^\373\313\372\202k\033/\366\177\271\037x\313\336"
  83      FBCBFA82 
  83      6B1B2FF6 
  83      7FB91F78 
  83      CBDE
  84 00c9 AD3772C0 		.ascii	"\2557r\3000\303%*\3238x3\372D|$\342\240\210OD\024\207"
  84      30C3252A 
  84      D3387833 
  84      FA447C24 
  84      E2A0884F 
  85 00e0 1FB7F2F9 		.ascii	"\037\267\362\371 y\365D\323\264I\031\245%1\261\206|"
  85      2079F544 
  85      D3B44919 
  85      A52531B1 
  85      867C
  86 00f2 E155CC51 		.ascii	"\341U\314Q\275\272v\240\335.\341\336\207\340Z\"\377"
  86      BDBA76A0 
  86      DD2EE1DE 
  86      87E05A22 
  86      FF
  87 0103 F631043A 		.ascii	"\3661\004:\305\205]P\017`\0147\036\344\213\247\014\325"
  87      C5855D50 
  87      0F600C37 
  87      1EE48BA7 
  87      0CD5
  88 0115 A5D3A0CC 		.ascii	"\245\323\240\314\255@\016\367T\244<.\225\376\210\302"
  88      AD400EF7 
  88      54A43C2E 
  88      95FE88C2 
  89 0125 6F5E2BBE 		.ascii	"o^+\276\374\307<N\235\230\312{\315K\252\271\254\232"
  89      FCC73C4E 
  89      9D98CA7B 
  89      CD4BAAB9 
  89      AC9A
  90 0137 996C9EBF 		.ascii	"\231l\236\277\3157\213c\255V.\262\236+!\354\006\341"
  90      CD378B63 
  90      AD562EB2 
  90      9E2B21EC 
  90      06E1
  91 0149 8A7F936F 		.ascii	"\212\177\223o\225\354\026\304\247\262\235\326\236\377"
  91      95EC16C4 
  91      A7B29DD6 
  91      9EFF
  92 0157 26BCBFA9 		.ascii	"&\274\277\251\274\337\372\332\377\267\011.\240\212\002"
  92      BCDFFADA 
  92      FFB7092E 
  92      A08A02
  93 0166 D517BF37 		.ascii	"\325\027\2777M\352X\373\\\254\277\323$\271A\357P\267"
  93      4DEA58FB 
ARM GAS  /tmp/cc9k88qc.s 			page 7


  93      5CACBFD3 
  93      24B941EF 
  93      50B7
  94 0178 4B8BE4D9 		.ascii	"K\213\344\331\024h\021\266+\017\251c\240\032\230\272"
  94      146811B6 
  94      2B0FA963 
  94      A01A98BA 
  95 0188 D6E861DF 		.ascii	"\326\350a\337MH\231\224\222\037\367*\337\302}\265\310"
  95      4D489994 
  95      921FF72A 
  95      DFC27DB5 
  95      C8
  96 0199 A4975282 		.ascii	"\244\227R\202\226K+|\247\242\327JQ\245G\321\347>\212"
  96      964B2B7C 
  96      A7A2D74A 
  96      51A547D1 
  96      E73E8A
  97 01ac 3AB4EDF2 		.ascii	":\264\355\362\317fy@\245WA\265g\225\341n-\223bN\271"
  97      CF667940 
  97      A55741B5 
  97      6795E16E 
  97      2D93624E 
  98 01c1 032522A0 		.ascii	"\003%\"\240\273Y+r\364p$\242y\227\351h\266\253Y\246"
  98      BB592B72 
  98      F47024A2 
  98      7997E968 
  98      B6AB59A6 
  99 01d5 ED3ADAE9 		.ascii	"\355:\332\351Xt\"\232\325\364\244n\332Fb\366x:\242\303"
  99      5874229A 
  99      D5F4A46E 
  99      DA4662F6 
  99      783AA2C3 
 100 01e9 270101DB 		.ascii	"'\001\001\333p2)7\274\035ed]m\"\032?\027\327\246g\364"
 100      70322937 
 100      BC1D6564 
 100      5D6D221A 
 100      3F17D7A6 
 101 01ff 54E68AA1 		.ascii	"T\346\212\241)\224\236>\223\231\321#I\214Dc\361\320"
 101      29949E3E 
 101      9399D123 
 101      498C4463 
 101      F1D0
 102 0211 A123E190 		.ascii	"\241#\341\220\345XC\340'm\354sM\353\374\325\013\266"
 102      E55843E0 
 102      276DEC73 
 102      4DEBFCD5 
 102      0BB6
 103 0223 A9C7DD29 		.ascii	"\251\307\335)\375\332H4\036\223\305\260\350\032\002"
 103      FDDA4834 
 103      1E93C5B0 
 103      E81A02
 104 0232 B3C11D0B 		.ascii	"\263\301\035\013\376\331\251T\306\330\353xI\004%\311"
 104      FED9A954 
 104      C6D8EB78 
 104      490425C9 
 105 0242 E529C7B0 		.ascii	"\345)\307\260\354iI\204\201\264\2216\355\353\370\017"
 105      EC694984 
ARM GAS  /tmp/cc9k88qc.s 			page 8


 105      81B49136 
 105      EDEBF80F 
 106 0252 D52FFA6F 		.ascii	"\325/\372o"
 107              		.text
 108              		.section	.gnu.lto__port_irq_epilogue.2971ae781138494a,"",%progbits
 109 0000 789C9D52 		.ascii	"x\234\235RMh\023A\024\376\336\314nZ\025\245\247\212"
 109      4D681341 
 109      14FEDECC 
 109      6E5A15A5 
 109      A78A
 110 0012 971A0A82 		.ascii	"\227\032\012\202b\310\366\026\301\213R\020=\344`\202"
 110      62C8F616 
 110      C18B5210 
 110      3DE46082 
 111 0022 17610D75 		.ascii	"\027a\015u\035H\241i\302&)\321K\246I.\036\204\"\010"
 111      1D48A169 
 111      C22629D1 
 111      4BA6492E 
 111      1E842208 
 112 0036 5AA85AA5 		.ascii	"Z\250Z\245R#=\210'\241\240(zH\245\247^\364b\241V/\236"
 112      52233D88 
 112      27A1A028 
 112      7A48A5A7 
 112      5EF462A1 
 113 004d F4A488E9 		.ascii	"\364\244\210\351\314\356\246M\014\015\305\267?ox\357"
 113      CCEEA64D 
 113      0C0DC5B7 
 113      3F6F78EF 
 114 005d CD37DFBC 		.ascii	"\3157\337\274\3571\220z\272\355\264\372*\034x\252<\205"
 114      EF31907A 
 114      BAEDB4FA 
 114      2A1C78AA 
 114      3C85
 115 006f 406C6615 		.ascii	"@lf\025\230\0163\306\327\006!\217\033\3131\310\021N"
 115      980E33C6 
 115      D706218F 
 115      1BCB31C8 
 115      114E
 116 0081 A60E93E1 		.ascii	"\246\016\223\341\373\351\260I\244\027\012\261\314\270"
 116      FBE9B049 
 116      A4170AB1 
 116      CCB8
 117 008f 6152F992 		.ascii	"aR\371\222\207\315\2061/\345\355\231\267\225\363\225"
 117      87CD8631 
 117      2FE5ED99 
 117      B795F395 
 118 009f F566F3A8 		.ascii	"\365f\363\250\320\321\024\241\361{\343\340\021\010\""
 118      D0D114A1 
 118      F17BE3E0 
 118      110822
 119 00ae 84A13D83 		.ascii	"\204\241=\203\321\311b\227}\213f\317]\177\356\377\245"
 119      D1C96297 
 119      7D8B66CF 
 119      5D7FEEFF 
 119      A5
 120 00bf 2F4BA157 		.ascii	"/K\241W\354\365z\263\014\034f\260\351!\015\203+?\257"
 120      ECF57AB3 
ARM GAS  /tmp/cc9k88qc.s 			page 9


 120      0C1C66B0 
 120      E9210D83 
 120      2B3FAF
 121 00d2 BC321335 		.ascii	"\2742\0235)\0074\226g\027\265\327\314\023\012M/\370"
 121      29073496 
 121      6717B5D7 
 121      CC130A4D 
 121      2FF8
 122 00e4 7B300A8A 		.ascii	"{0\012\212\002g\323#\025\351\342V\225-n\234!B\032\262"
 122      0267D323 
 122      15E9E256 
 122      952D6E9C 
 122      21421AB2 
 123 00f8 BEF27993 		.ascii	"\276\362y\223\365d\250\203\\%\201\025T\350\307\255;"
 123      F564A883 
 123      5C258115 
 123      54E8C7AD 
 123      3B
 124 0109 1BA73A0E 		.ascii	"\033\247:\016#\233\026\024Q\233\036w\034\251\245\272"
 124      239B1614 
 124      519B1E77 
 124      1CA9A5BA 
 125 0119 A9362A8E 		.ascii	"\2516*\216\336\017\030\302,\315\311\273g\004\031\035"
 125      DE0F18C2 
 125      2CCDC9BB 
 125      6704191D 
 126 0129 B0DBE9B9 		.ascii	"\260\333\351\271 \355\3034\360\346\262n\272\177\027"
 126      20EDC334 
 126      F0E6B26E 
 126      BA7F17
 127 0138 87D849D4 		.ascii	"\207\330I\324e\215\004\205\370,\356)\337\347\361\356"
 127      658D0485 
 127      F82CEE29 
 127      DFE7F1EE 
 128 0148 87FC5495 		.ascii	"\207\374T\225\207\340\257}\273\2623%\015T_\362E\263"
 128      87E0AF7D 
 128      BBB23325 
 128      0D545FF2 
 128      45B3
 129 015a 05C2158E 		.ascii	"\005\302\025\216\256\004\024\177\340\035j\337(\275\235"
 129      AE04147F 
 129      E01D6ADF 
 129      28BD9D
 130 0169 F433ED96 		.ascii	"\3643\355\226P\034\2616\310?\200S\253\2517\360K\366"
 130      501CB136 
 130      C83F8053 
 130      ABA937F0 
 130      4BF6
 131 017b 0BDA4729 		.ascii	"\013\332G)\"\277\\\320\376V\271\272\332r\354\277\024"
 131      22BF5CD0 
 131      FE56B9BA 
 131      DA72ECBF 
 131      14
 132 018c B1E9896A 		.ascii	"\261\351\211j\276\226\344\331\317=I\202^\222\274\360"
 132      BE96E4D9 
 132      CF3D4982 
 132      5E92BCF0 
ARM GAS  /tmp/cc9k88qc.s 			page 10


 133 019c 2479BE9B 		.ascii	"$y\276\233$6\325\325b\007'\320\300\246%\032j\273\274"
 133      2436D5D5 
 133      620727D0 
 133      C0A6251A 
 133      6ABBBC
 134 01af E90FD82A 		.ascii	"\351\017\330*\250\361q\223\005\340]\324\0170,\2207M"
 134      A8F17193 
 134      05E05DD4 
 134      0F302C90 
 134      374D
 135 01c1 DF1F7CA5 		.ascii	"\337\037|\245\236\314\377m\003\364<\223w\212&p\"\032"
 135      9ECCFF6D 
 135      03F43C93 
 135      778A2670 
 135      221A
 136 01d3 B5FC379B 		.ascii	"\265\3747\233\267\334\202\225\313\272\205\274u6\021"
 136      B7DC8295 
 136      CBBA85BC 
 136      753611
 137 01e2 1F8D972C 		.ascii	"\037\215\227,'\355d]\221\232\212e\242\016\314\251\261"
 137      27ED645D 
 137      919A8A65 
 137      A20ECCA9 
 137      B1
 138 01f3 89A2D86B 		.ascii	"\211\242\330k}\032\221\366JQ*X\243\361\344\205\2445"
 138      7D1A91F6 
 138      4A512A58 
 138      A3F1E485 
 138      A435
 139 0205 3EE94C14 		.ascii	">\351L\024\257\011\313\253t2\347\212\223\216*\036\210"
 139      AF09CBAB 
 139      7432E78A 
 139      938E2A1E 
 139      88
 140 0216 2713E1AB 		.ascii	"'\023\341\253cy\221s\307#\341c#`.\3722\"\223u\257\303"
 140      63799173 
 140      C723E163 
 140      23602EFA 
 140      32229375 
 141 022c 700AA5DC 		.ascii	"p\012\245\334\026J\306\341\265"
 141      164AC6E1 
 141      B5
 142              		.text
 143              		.section	.gnu.lto_.cgraph.2971ae781138494a,"",%progbits
 144 0000 789C3DCA 		.ascii	"x\234=\312\271\015\2000\024\004\321\335o\273\0162\012"
 144      B90D8030 
 144      1404D1DD 
 144      6FBB0E32 
 144      0A
 145 0011 A3913509 		.ascii	"\243\2215\011rH\003\020 q8\241\011r*\241\010$\014L\366"
 145      72480310 
 145      207138A1 
 145      09722AA1 
 145      08240C4C 
 146 0026 A431100E 		.ascii	"\2441\020\016@\2037\333)\240?!\015\211\334(>\212-\231"
 146      408337DB 
 146      29A03F21 
ARM GAS  /tmp/cc9k88qc.s 			page 11


 146      0D89DC28 
 146      3E8A2D99 
 147 003a 29FB6033 		.ascii	")\373`3\345\3127&\332B\371_\\\251P\306H\207\200\243"
 147      E5CA3726 
 147      DA42F95F 
 147      5CA950C6 
 147      488780A3 
 148 004e BB2AE781 		.ascii	"\273*\347\201)\327\270\001\021\001\036j"
 148      29D7B801 
 148      11011E6A 
 149              		.text
 150              		.section	.gnu.lto_.vars.2971ae781138494a,"",%progbits
 151 0000 789C6362 		.ascii	"x\234cb`d`f`\000\222P\000\000\000r\000\010"
 151      60646066 
 151      60009250 
 151      00000072 
 151      0008
 152              		.text
 153              		.section	.gnu.lto_.refs.2971ae781138494a,"",%progbits
 154 0000 789C6362 		.ascii	"x\234cb`d`f``\340`\200\000&\006\026F\026&\006\006\000"
 154      60646066 
 154      6060E060 
 154      80002606 
 154      16461626 
 155 0017 015D001C 		.ascii	"\001]\000\034"
 156              		.text
 157              		.section	.gnu.lto_.statics.2971ae781138494a,"",%progbits
 158 0000 789C6362 		.ascii	"x\234cb`d`b\300\016@\342\214\020&\000\000\375\000\011"
 158      60646062 
 158      C00E40E2 
 158      8C102600 
 158      00FD0009 
 159              		.text
 160              		.section	.gnu.lto_.decls.2971ae781138494a,"",%progbits
 161 0000 789CAD58 		.ascii	"x\234\255X}LSW\024\277\367\265@\011\204\251\033\246"
 161      7D4C5357 
 161      14BFF7B5 
 161      400984A9 
 161      1BA6
 162 0012 6466D63F 		.ascii	"df\326?\\\246\011\024\201D\223E#\026]\371\203\215\274"
 162      5CA60914 
 162      81449345 
 162      23165DF9 
 162      838DBC
 163 0025 AAC9469A 		.ascii	"\252\311F\232\212\245\332&\320\226\327\307\306\376{"
 163      8AA5DA26 
 163      D096D7C7 
 163      C6FE7B
 164 0034 C89C6E4E 		.ascii	"\310\234nN\207\013F\227\031S\334\324\251\001\247\213"
 164      870B4697 
 164      1953DCD4 
 164      A901A78B 
 165 0044 185D642C 		.ascii	"\030]d,3dq\306H\202(\312&3d1\206lqq\337\032v\356\355"
 165      336471C6 
 165      488228CA 
 165      26336431 
 165      866C7171 
ARM GAS  /tmp/cc9k88qc.s 			page 12


 166 005d 7BF77DB4 		.ascii	"{\367}\264\257\037d7\234\323\373\332s~\347w\317=\367"
 166      AF1F6437 
 166      9CD3FBDA 
 166      737EE777 
 166      CF3DF7
 167 0070 DC160E61 		.ascii	"\334\026\016aDF#\274\314\302\370\265\024\241\235\034"
 167      444623BC 
 167      CCC2F8B5 
 167      14A19D1C 
 168 0080 4256786F 		.ascii	"BVxo5RG>H\034\344\030\310\347 \247@\372A\276@\311\203"
 168      3552473E 
 168      481CE418 
 168      C8E720A7 
 168      40FA41BE 
 169 0097 D895800C 		.ascii	"\330\225\200\014\312\257\305 \027A\316\201\024\200\334"
 169      CAAFC520 
 169      1741CE81 
 169      1480DC
 170 00a6 00B90932 		.ascii	"\000\271\0112\004r\011d\015\310-\220\263 \267A <\272"
 170      04720964 
 170      0DC82D90 
 170      B320B741 
 170      203CBA
 171 00b9 0E720D24 		.ascii	"\016r\015$O\306Sb)\361\215\203\360\261\311\370\332\230"
 171      4FC65362 
 171      29F18D83 
 171      F0B1C9F8 
 171      DA98
 172 00cb 839A7813 		.ascii	"\203\232x\023\262-\226\355\215\243_\366\323b\014j|\357"
 172      B22D96ED 
 172      8DA35FF6 
 172      D3620C6A 
 172      7CEF
 173 00dd 824C823C 		.ascii	"\202L\202<\017\000\213@\372\344\030\004oZ\346\335/\363"
 173      0F008B40 
 173      FAE41804 
 173      6F5AE6DD 
 173      2FF3
 174 00ef 358EC5E8 		.ascii	"5\216\305\350\2104<\325\323\275\303\375\327\354l\301"
 174      88343CD5 
 174      D3BDC3FD 
 174      D7EC6CC1 
 175 00ff 42744082 		.ascii	"Bt@\202\021\177W\222\260\350\305\253KQ\031\362\342\222"
 175      117F5792 
 175      B0E8C5AB 
 175      4B5119F2 
 175      E292
 176 0111 42841C74 		.ascii	"B\204\034tV\\\230\330\001\004\363>\274P\236m\264$\260"
 176      565C98D8 
 176      0104F33E 
 176      BC509E6D 
 176      B424B0
 177 0124 38C461B4 		.ascii	"8\304a\264\034\235\224\350\300\352\242`,B\003\377\\"
 177      1C9D94E8 
 177      C0EAA260 
 177      2C4203FF 
 177      5C
ARM GAS  /tmp/cc9k88qc.s 			page 13


 178 0135 AE51A2BE 		.ascii	"\256Q\242\276\210\216IR\2174\274\303N\203\020\2208^"
 178      888E4952 
 178      8F34BCC3 
 178      4E831090 
 178      385E
 179 0147 AC23E6C5 		.ascii	"\254#\346\305G1gd:\325\323\323\035\317\231\351\361\024"
 179      47316764 
 179      3AD5D3D3 
 179      1DCF99E9 
 179      F114
 180 0159 4C1B303C 		.ascii	"L\0330<~\212\227\243\201}_\336\262\353\003\237H\027"
 180      7E8A97A3 
 180      817D5FDE 
 180      B2EB039F 
 180      4817
 181 016b 3801C7A1 		.ascii	"8\001\307\241\275XA\030\363\352\335O&\273\307!\303\222"
 181      BD584118 
 181      F3EADD4F 
 181      26BBC721 
 181      C392
 182 017d CEBD8FB9 		.ascii	"\316\275\217\271\017<<c\321\345E\322\345\345TR^N\247"
 182      0F3C3C63 
 182      D1E545D2 
 182      E5E55452 
 182      5E4EA7
 183 0190 C1DF354F 		.ascii	"\301\3375O\011\320\317\002<y!\015|\177\022\374@\326"
 183      09D0CF02 
 183      3C79210D 
 183      7C7F12FC 
 183      40D6
 184 01a2 69B7A15D 		.ascii	"i\267\241]\222\264C\232\332)u\341v\3046\300\3066\200"
 184      92B4439A 
 184      DA2975E1 
 184      76C436C0 
 184      C63680
 185 01b5 ECFD52F4 		.ascii	"\354\375R\364\231\\\017^|\016\333\200\3310&\357c\224"
 185      995C0F5E 
 185      7C0EDB80 
 185      D93026EF 
 185      6394
 186 01c7 3C121664 		.ascii	"<\022\026d\224\251s6\305(\315\036\237M\261\307#,\005"
 186      94A97336 
 186      C528CD1E 
 186      9F4DB1C7 
 186      232C05
 187 01da 478F3CBA 		.ascii	"G\217<\272c\330\344\363\372e\026\242\335d-\2600\367"
 187      63D8E4F3 
 187      FA6516A2 
 187      DD642DB0 
 187      30F7
 188 01ec 77256681 		.ascii	"w%f\201\350Zz\022k\031\304\205\020\242\213SB<\374lt"
 188      E85A7A12 
 188      6B19C485 
 188      10A28B53 
 188      423CFC6C 
 189 0201 C4A98017 		.ascii	"\304\251\200\027\024\352\203\301s\302*\201\234\370X"
 189      14EA83C1 
ARM GAS  /tmp/cc9k88qc.s 			page 14


 189      73C22A81 
 189      9CF858
 190 0210 9991F6F6 		.ascii	"\231\221\366\366\014BE\350}\225\301\002\264\237\344"
 190      0C4245E8 
 190      7D95C102 
 190      B49FE4
 191 021f CCA1E522 		.ascii	"\314\241\345\"q\214\214\203\256o\226\006\277\204\027"
 191      718C8C83 
 191      AE6F9606 
 191      BF8417
 192 022e C8E0DA54 		.ascii	"\310\340\332T\223w\021+\361\037\256\353V/\017\333\022"
 192      9377112B 
 192      F11FAEEB 
 192      562F0FDB 
 192      12
 193 023f 148790A4 		.ascii	"\024\207\220\244t\362u\321\323\234'm\012\206p\021\260"
 193      74F275D1 
 193      D39C276D 
 193      0A867011 
 193      B0
 194 0250 D8635152 		.ascii	"\330cQRp\356\374\327W\027+K^S\244O\001<+)\240\344/Y"
 194      70EEFCD7 
 194      57172B4B 
 194      5E53A44F 
 194      013C2B29 
 195 0268 14F203FB 		.ascii	"\024\362\003\373\356]_\226:\2322G\254(J\324\314j\330"
 195      EE5D5F96 
 195      3A9A3247 
 195      AC284AD4 
 195      CC6AD8
 196 027b 2B5C2E33 		.ascii	"+\\.3\320+/\347\202\3500E\034f\210\3272 \332\262\344"
 196      D02B2FE7 
 196      82E83045 
 196      1C6688D7 
 196      3220DAB2 
 197 0290 F82D431C 		.ascii	"\370-C\034\313\011\321\234\343\010C\234\314\2008/K\216"
 197      CB09D19C 
 197      E308439C 
 197      CC80382F 
 197      4B8E
 198 02a2 5719E274 		.ascii	"W\031\342tN\210\346\034G\031\342L\006D{\226\034\307"
 198      4E88E61C 
 198      4719E24C 
 198      06447B96 
 198      1CC7
 199 02b4 18E2E39C 		.ascii	"\030\342\343\234\020\035\2723`\336Q.bV\301\363Q\017"
 199      101DBA33 
 199      60DE512E 
 199      6256C1F3 
 199      510F
 200 02c6 3D8D874A 		.ascii	"=\215\207J\34461uL\262\333\263\351x\243\264KLX\314;"
 200      E4363175 
 200      4CB2DBB3 
 200      E978A3B4 
 200      4B4C58CC 
 201 02db 1EB15088 		.ascii	"\036\261P\210\310s6\235\325\264<;\213a\221=o\340\371"
 201      C873369D 
ARM GAS  /tmp/cc9k88qc.s 			page 15


 201      D5B43C3B 
 201      8B61913D 
 201      6FE0F9
 202 02ee 74463949 		.ascii	"tF9I\354\350\202\211\371\242\3064\321\212\013\2653\245"
 202      ECE88289 
 202      F9A2C634 
 202      D18A0BB5 
 202      33A5
 203 0300 1BCA6B8D 		.ascii	"\033\312k\215\257=T\222`\241\200\3153\230z\361\3159"
 203      AF3D5492 
 203      60A180CD 
 203      33987AF1 
 203      CD39
 204 0312 10183725 		.ascii	"\020\0307%\240\244\307\320\211Hc7\207\273\245n\222\301"
 204      A0A4C7D0 
 204      89486337 
 204      87BBA56E 
 204      92C1
 205 0324 EF785ABF 		.ascii	"\357xZ\277\333\2516W\277\336U\314\251@v\232\230\303"
 205      DBA93657 
 205      BFDE55CC 
 205      A940769A 
 205      98C3
 206 0336 7AEF98AE 		.ascii	"z\357\230\2567_\216O\321\2723\334<^|\001/\315\362\""
 206      375F8E4F 
 206      D1BA33DC 
 206      3C5E7C01 
 206      2FCDF222 
 207 034a 4975774C 		.ascii	"IuwL\251%\372\001\253Q\271\215O\302\021\342\320\217"
 207      A925FA01 
 207      AB51B98D 
 207      4FC211E2 
 207      D08F
 208 035c AC8D0F0D 		.ascii	"\254\215\017\015\315\216\313wh6P\204\334\275\224w\320"
 208      CD8ECB77 
 208      68365084 
 208      DCBD9477 
 208      D0
 209 036d 3DCD1D74 		.ascii	"=\315\035teb[\212\362/%\347\272\267\233\236k\226\207"
 209      65625B8A 
 209      F22F25E7 
 209      BAB79B9E 
 209      6B9687
 210 0380 E1FF290F 		.ascii	"\341\377)\017\034\332o\3052\271\261\211\343x\216W\314"
 210      1CDA6FC5 
 210      32B9B189 
 210      E3788E57 
 210      CC
 211 0391 3BDD72DB 		.ascii	";\335r\333\271K\317\362A\2069\371\372\034\257\030\003"
 211      B94BCFF2 
 211      418639F9 
 211      FA1CAF18 
 211      03
 212 03a2 E2618638 		.ascii	"\342a\2068\235\001\321\364\2121 \3661\304\231\234\020"
 212      9D01D1F4 
 212      8A3120F6 
 212      31C4999C 
ARM GAS  /tmp/cc9k88qc.s 			page 16


 212      10
 213 03b3 CD399E60 		.ascii	"\3159\236`\210\2173 \232^1\006\304\323\014\361IN\210"
 213      888F3320 
 213      9A5E3106 
 213      C4D30CF1 
 213      494E88
 214 03c6 5A8E5D50 		.ascii	"Z\216]P\301\366|Cw\356\246\335\371\220\246\204R\264"
 214      C1F67C43 
 214      77EEA6DD 
 214      F990A684 
 214      52B4
 215 03d8 675AFA9A 		.ascii	"gZ\372\232fnn\356\305\217h\305a}\305\251\235Zi\324\034"
 215      666E6EEE 
 215      C58F68C5 
 215      617DC5A9 
 215      9D5A69D4 
 216 03ed 3A6355BF 		.ascii	":cU\277\014\236\177*7T\305T\031Y )D\2660\"\305\324U"
 216      0C9E7F2A 
 216      3754C554 
 216      19592029 
 216      44B63022 
 217 0404 DBA97ED3 		.ascii	"\333\251~\323t*\243\235\027?\236C\247\372\335\264S\025"
 217      742AA39D 
 217      173F9E43 
 217      A7FADDB4 
 217      5315
 218 0416 E9E82B76 		.ascii	"\351\350+v\260\340\013l\017\207\206F\307\227\245\346"
 218      B0E00B6C 
 218      0F878646 
 218      C797A5E6 
 219 0426 93F15E37 		.ascii	"\223\361^7\024\306W\014\364\332\033\351\013\303\221"
 219      14C6570C 
 219      F4DA1BE9 
 219      0BC391
 220 0435 65F17EA3 		.ascii	"e\361~\243\266\201\014\210/e\311qDm\0029!\232s\374^"
 220      B6810C88 
 220      2F65C971 
 220      446D0239 
 220      219A73FC 
 221 044a 6D021910 		.ascii	"m\002\031\020+\263\344xCm\0029!\232s\034W\233@\006\304"
 221      2BB3E478 
 221      436D0239 
 221      219A731C 
 221      579B4006 
 222 045f 555972BC 		.ascii	"UYr\274\2536\201\234\0205\034{I\023p\347\263\257-\244"
 222      AB36819C 
 222      10351C7B 
 222      491370E7 
 222      B3AF2DA4 
 223 0473 CEEF6B0E 		.ascii	"\316\357k\016\307ZC\257\323\031\016\2461\364\342]\334"
 223      C75A43AF 
 223      D3190EA6 
 223      31F4E25D 
 223      DC
 224 0484 7C7936AE 		.ascii	"|y6\256=\303\232G\016M\261\025\\iJ\215\244\314\327\232"
 224      3DC39A47 
 224      0E4DB115 
ARM GAS  /tmp/cc9k88qc.s 			page 17


 224      5C694A8D 
 224      A4CCD79A 
 225 0498 E5A457C9 		.ascii	"\345\244W\311\311}\232\223i\265\376\233\322\347\304"
 225      C97D9A93 
 225      69B5FE9B 
 225      D2E7C4
 226 04a7 9D25E203 		.ascii	"\235%\342\003\265\376sB4\315\262\303\230d\011\033\272"
 226      B5FE7342 
 226      34CDB2C3 
 226      9864091B 
 226      BA
 227 04b8 B5D67030 		.ascii	"\265\326p0\235\241\027\177\310\345\336\253z8\263^\305"
 227      9DA1177F 
 227      C8E5DEAB 
 227      7A38B35E 
 227      C5
 228 04c9 FE95A2B3 		.ascii	"\376\225\242\263\203$\314\250G\266\311\204\2152o4\315"
 228      8324CCA8 
 228      47B6C984 
 228      8D326F34 
 228      CD
 229 04da 6BFA2CC4 		.ascii	"k\372,\304U\270\347\322f!\311\320\213{\347\220\205\003"
 229      55B8E7D2 
 229      6621C9D0 
 229      8B7BE790 
 229      8503
 230 04ec A659B0EA 		.ascii	"\246Y\260\352\262p@\315\302#\265\3154\231\260Q\346["
 230      B27040CD 
 230      C223B5CD 
 230      3499B051 
 230      E65B
 231 04fe CCB2406F 		.ascii	"\314\262@oOR]\2043\207\376P\373L&\310\250Yy\031\332"
 231      4F525D84 
 231      3387FE50 
 231      FB4C26C8 
 231      A8597919 
 232 0513 8294C71A 		.ascii	"\202\224\307\032M\206\202\335\215S\261L\036\332\257"
 232      4D8682DD 
 232      8D53B14C 
 232      1EDAAF
 233 0522 A85E3C05 		.ascii	"\250^<\0057z\251\027\377\204\227\300\3034\325?S\375"
 233      377AA917 
 233      FF8497C0 
 233      C334D53F 
 233      53FD
 234 0534 80EA8754 		.ascii	"\200\352\207T\317P\375\013\325\177R\3757\325\377R\375"
 234      CF50FD0B 
 234      D57F52FD 
 234      37D5FF52 
 234      FD
 235 0545 94EA59AA 		.ascii	"\224\352Y\252\2738\242\273\251\336I\365{T\357\241z/"
 235      BB38A2BB 
 235      A9DE49F5 
 235      7B54EFA1 
 235      7A2F
 236 0557 D51F517D 		.ascii	"\325\037Q}\220\352\217A\313\303\360\243\205|\0257\337"
 236      90EA8F41 
ARM GAS  /tmp/cc9k88qc.s 			page 18


 236      CBC3F0A3 
 236      857C1537 
 236      DF
 237 0568 EF4F38B3 		.ascii	"\357O8\263\037;}i\177\354\034V\375P\231/\032\021D_H"
 237      1F3B7D69 
 237      7FEC1C56 
 237      FD50992F 
 237      1A11445F 
 238 057d 68F705A2 		.ascii	"h\367\005\242\241\326\310\366\216@E\264Y\020+*\363_"
 238      A1D6C8F6 
 238      8E4045B4 
 238      59102B2A 
 238      F35F
 239 058f 797593C3 		.ascii	"yu\223\303\205\226UT8\023\177\221\230S\020\235\304<"
 239      85965554 
 239      38137F91 
 239      9853109D 
 239      C43C
 240 05a1 E6ACE51B 		.ascii	"\346\254\345\033\\\015\235N\177\320\037\021\002\276"
 240      5C0D9D4E 
 240      7FD01F11 
 240      02BE
 241 05af 3757B655 		.ascii	"7W\266U\370Qi\002*\366VH\364\007}\333\204H\233/\024"
 241      F8516902 
 241      2AF65648 
 241      F4077DDB 
 241      84489B2F 
 242 05c4 13B2F50F 		.ascii	"\023\262\365\017\242g\023\376\201\316\220\310\274\213"
 242      A26713FE 
 242      81CE90C8 
 242      BC8B
 243 05d2 3C9B5D3E 		.ascii	"<\233]>ws\270\2455 ,H\246\232\347[\027\211\264\226\371"
 243      7773B8A5 
 243      35202C48 
 243      A69AE75B 
 243      1789B496 
 244 05e7 831E7FB0 		.ascii	"\203\036\177\260>\326(\004\002mQ1\024\011\363\201\366"
 244      3ED62804 
 244      026D5131 
 244      1409F381 
 244      F6
 245 05f8 8E901068 		.ascii	"\216\220\020hq\030\202\207\302\376\326\216\226\000\304"
 245      71188287 
 245      C2FED68E 
 245      9600C4
 246 0607 8DF9832D 		.ascii	"\215\371\203-\020\323\326\021\012\213\325U>QtF\242\""
 246      10D3D611 
 246      0A8BD555 
 246      3E517446 
 246      A222
 247 0619 A1E5DCEE 		.ascii	"\241\345\334\356\367\2277\013m\345\341H8P\036h\336\032"
 247      F797370B 
 247      6DE5E148 
 247      38501E68 
 247      DE1A
 248 062b 2AAFF1AD 		.ascii	"*\257\361\255,\257\252\\Q\335^\355\334\032\012\023\264"
 248      2CAFAA5C 
ARM GAS  /tmp/cc9k88qc.s 			page 19


 248      51DD5EED 
 248      DC1A0A13 
 248      B4
 249 063c D6D05662 		.ascii	"\326\320Vb\347\324\3319k*VV\3248YH\370\323\177\256D"
 249      E7D4D939 
 249      6B2A5656 
 249      D4385948 
 249      F8D37FAE 
 250 0651 8F892D10 		.ascii	"\217\211-\020\025\242\027\311\013\026\375b\247M\010"
 250      15A217C9 
 250      0B16FD62 
 250      A74D08
 251 0660 6C07739F 		.ascii	"l\007s\237\2704s\302\300\225\023*9a\005'TqB\265EXQ\225"
 251      B83473C2 
 251      C095132A 
 251      39610527 
 251      547142B5 
 252 0678 DF2AF8C4 		.ascii	"\337*\370\304`\013\027\365[;\2431\301\352\0176\0136"
 252      600B17F5 
 252      5B3BA331 
 252      C1EA0F36 
 252      0B36
 253 068a 8F6B9D6F 		.ascii	"\217k\235o\343\333\321\200n\017 \234\323\325\340\251"
 253      E3DBD180 
 253      6E0F209C 
 253      D3D5E0A9 
 254 069a F7A8D920 		.ascii	"\367\250\331 {\340o\253\006\330<W\343\246\372:k\275"
 254      7BE06FAB 
 254      06D83C57 
 254      E3A6FA3A 
 254      6BBD
 255 06ac CBC35B37 		.ascii	"\313\303[7o|\215\317\253\255\347]\274\305\003\342r\361"
 255      6F7C8DCF 
 255      ABADE75D 
 255      BCC503E2 
 255      72F1
 256 06be 05245BAB 		.ascii	"\005$[\253|\242\305\343n\314\363\270\211\221k\003(7"
 256      7CA2C5E3 
 256      6ECCF3B8 
 256      89916B03 
 256      2837
 257 06d0 5175A0F2 		.ascii	"Qu\240\362\032\0326\324\362\326uD\325\302\263\245q\003"
 257      1A1A36D4 
 257      F2D67544 
 257      D5C2B3A5 
 257      7103
 258 06e2 6FA903A9 		.ascii	"o\251\003\251\255\343\255\360\031o\255\367\324\362\205"
 258      ADE3ADF0 
 258      196FADF7 
 258      D4F285
 259 06f1 FC7ACF7A 		.ascii	"\374z\317z~\363\372\272J\010W\353\342\377\0036\261B"
 259      7EF3FABA 
 259      4A0857EB 
 259      E2FF0336 
 259      B142
 260 0703 10       		.ascii	"\020"
 261              		.text
ARM GAS  /tmp/cc9k88qc.s 			page 20


 262              		.section	.gnu.lto_.symtab.2971ae781138494a,"",%progbits
 263 0000 5356435F 		.ascii	"SVC_Handler\000\000\000\000\000\000\000\000\000\000"
 263      48616E64 
 263      6C657200 
 263      00000000 
 263      00000000 
 264 0015 0000AA00 		.ascii	"\000\000\252\000\000\000_port_irq_epilogue\000\000\000"
 264      00005F70 
 264      6F72745F 
 264      6972715F 
 264      6570696C 
 265 0030 00000000 		.ascii	"\000\000\000\000\000\000\000\000\000\255\000\000\000"
 265      00000000 
 265      00AD0000 
 265      00
 266 003d 5F706F72 		.ascii	"_port_switch_from_isr\000\000\002\000\000\000\000\000"
 266      745F7377 
 266      69746368 
 266      5F66726F 
 266      6D5F6973 
 267 005a 00000000 		.ascii	"\000\000\000\000\245\000\000\000_port_exit_from_isr"
 267      A5000000 
 267      5F706F72 
 267      745F6578 
 267      69745F66 
 268 0075 00000200 		.ascii	"\000\000\002\000\000\000\000\000\000\000\000\000\250"
 268      00000000 
 268      00000000 
 268      A8
 269 0082 00000063 		.ascii	"\000\000\000chSchIsPreemptionRequired\000\000\002\000"
 269      68536368 
 269      49735072 
 269      65656D70 
 269      74696F6E 
 270 00a2 00000000 		.ascii	"\000\000\000\000\000\000\000\000\260\000\000\000"
 270      00000000 
 270      B0000000 
 271              		.text
 272              		.section	.gnu.lto_.opts,"",%progbits
 273 0000 272D6D63 		.ascii	"'-mcpu=cortex-m3''-mno-thumb-interwork''-mthumb''-g"
 273      70753D63 
 273      6F727465 
 273      782D6D33 
 273      27272D6D 
 274 0033 67646227 		.ascii	"gdb''-O2''-fomit-frame-pointer''-falign-functions=1"
 274      272D4F32 
 274      27272D66 
 274      6F6D6974 
 274      2D667261 
 275 0066 3627272D 		.ascii	"6''-ffunction-sections''-fdata-sections''-fno-commo"
 275      6666756E 
 275      6374696F 
 275      6E2D7365 
 275      6374696F 
 276 0099 6E27272D 		.ascii	"n''-flto'\000"
 276      666C746F 
 276      2700
ARM GAS  /tmp/cc9k88qc.s 			page 21


 277              		.text
 278              		.cfi_sections	.debug_frame
 279              		.section	.text.SVC_Handler,"ax",%progbits
 280              		.align	2
 281              		.p2align 4,,15
 282              		.global	SVC_Handler
 283              		.thumb
 284              		.thumb_func
 285              		.type	SVC_Handler, %function
 286              	SVC_Handler:
 287              	.LFB165:
 288              		.file 1 "../../../os/rt/ports/ARMCMx/chcore_v7m.c"
 289              		.loc 1 62 0
 290              		.cfi_startproc
 291              		@ args = 0, pretend = 0, frame = 0
 292              		@ frame_needed = 0, uses_anonymous_args = 0
 293              		@ link register save eliminated.
 294              	.LBB51:
 295              	.LBB52:
 296              		.file 2 "../../../os/ext/CMSIS/include/core_cmFunc.h"
 297              		.loc 2 428 0
 298              	@ 428 "../../../os/ext/CMSIS/include/core_cmFunc.h" 1
 299 0000 EFF30983 		MRS r3, psp
 300              	
 301              	@ 0 "" 2
 302              	.LVL0:
 303              		.thumb
 304              	.LBE52:
 305              	.LBE51:
 306              		.loc 1 69 0
 307 0004 2033     		adds	r3, r3, #32
 308              	.LVL1:
 309              	.LBB53:
 310              	.LBB54:
 311              		.loc 2 441 0
 312              	@ 441 "../../../os/ext/CMSIS/include/core_cmFunc.h" 1
 313 0006 83F30988 		MSR psp, r3
 314              	
 315              	@ 0 "" 2
 316              	.LVL2:
 317              		.thumb
 318              	.LBE54:
 319              	.LBE53:
 320              	.LBB55:
 321              	.LBB56:
 322              	.LBB57:
 323              	.LBB58:
 324              		.loc 2 546 0
 325 000a 0020     		movs	r0, #0
 326              	@ 546 "../../../os/ext/CMSIS/include/core_cmFunc.h" 1
 327 000c 80F31188 		MSR basepri, r0
 328              	@ 0 "" 2
 329              		.thumb
 330 0010 7047     		bx	lr
 331              	.LBE58:
 332              	.LBE57:
 333              	.LBE56:
ARM GAS  /tmp/cc9k88qc.s 			page 22


 334              	.LBE55:
 335              		.cfi_endproc
 336              	.LFE165:
 337              		.size	SVC_Handler, .-SVC_Handler
 338 0012 00BFAFF3 		.section	.text._port_irq_epilogue,"ax",%progbits
 338      0080AFF3 
 338      0080AFF3 
 338      0080
 339              		.align	2
 340              		.p2align 4,,15
 341              		.global	_port_irq_epilogue
 342              		.thumb
 343              		.thumb_func
 344              		.type	_port_irq_epilogue, %function
 345              	_port_irq_epilogue:
 346              	.LFB166:
 347              		.loc 1 119 0
 348              		.cfi_startproc
 349              		@ args = 0, pretend = 0, frame = 0
 350              		@ frame_needed = 0, uses_anonymous_args = 0
 351              	.LVL3:
 352 0000 10B5     		push	{r4, lr}
 353              	.LCFI0:
 354              		.cfi_def_cfa_offset 8
 355              		.cfi_offset 4, -8
 356              		.cfi_offset 14, -4
 357              	.LBB83:
 358              	.LBB84:
 359              	.LBB85:
 360              	.LBB86:
 361              		.loc 2 546 0
 362 0002 2023     		movs	r3, #32
 363              	@ 546 "../../../os/ext/CMSIS/include/core_cmFunc.h" 1
 364 0004 83F31188 		MSR basepri, r3
 365              	@ 0 "" 2
 366              		.thumb
 367              	.LBE86:
 368              	.LBE85:
 369              	.LBE84:
 370              	.LBE83:
 371              		.loc 1 122 0
 372 0008 4FF46D40 		mov	r0, #60672
 373 000c CEF20000 		movt	r0, 57344
 374 0010 4168     		ldr	r1, [r0, #4]
 375 0012 11F40062 		ands	r2, r1, #2048
 376 0016 02D1     		bne	.L7
 377              	.LVL4:
 378              	.LBB87:
 379              	.LBB88:
 380              	.LBB89:
 381              	.LBB90:
 382              		.loc 2 546 0
 383              	@ 546 "../../../os/ext/CMSIS/include/core_cmFunc.h" 1
 384 0018 82F31188 		MSR basepri, r2
 385              	@ 0 "" 2
 386              		.thumb
 387 001c 10BD     		pop	{r4, pc}
ARM GAS  /tmp/cc9k88qc.s 			page 23


 388              	.LVL5:
 389              	.L7:
 390              	.LBE90:
 391              	.LBE89:
 392              	.LBE88:
 393              	.LBE87:
 394              	.LBB91:
 395              	.LBB92:
 396              	.LBB93:
 397              	.LBB94:
 398              		.loc 2 428 0
 399              	@ 428 "../../../os/ext/CMSIS/include/core_cmFunc.h" 1
 400 001e EFF30984 		MRS r4, psp
 401              	
 402              	@ 0 "" 2
 403              	.LVL6:
 404              		.thumb
 405              	.LBE94:
 406              	.LBE93:
 407              		.loc 1 129 0
 408 0022 A4F12003 		sub	r3, r4, #32
 409              	.LVL7:
 410              	.LBB95:
 411              	.LBB96:
 412              		.loc 2 441 0
 413              	@ 441 "../../../os/ext/CMSIS/include/core_cmFunc.h" 1
 414 0026 83F30988 		MSR psp, r3
 415              	
 416              	@ 0 "" 2
 417              		.thumb
 418              	.LBE96:
 419              	.LBE95:
 420              		.loc 1 135 0
 421 002a 4FF08070 		mov	r0, #16777216
 422 002e 44F8040C 		str	r0, [r4, #-4]
 423              		.loc 1 139 0
 424 0032 FFF7FEFF 		bl	chSchIsPreemptionRequired
 425              	.LVL8:
 426 0036 18B1     		cbz	r0, .L4
 427              		.loc 1 141 0
 428 0038 034A     		ldr	r2, .L8
 429 003a 44F8082C 		str	r2, [r4, #-8]
 430 003e 10BD     		pop	{r4, pc}
 431              	.L4:
 432              		.loc 1 150 0
 433 0040 0249     		ldr	r1, .L8+4
 434 0042 44F8081C 		str	r1, [r4, #-8]
 435 0046 10BD     		pop	{r4, pc}
 436              	.L9:
 437              		.align	2
 438              	.L8:
 439 0048 00000000 		.word	_port_switch_from_isr
 440 004c 00000000 		.word	_port_exit_from_isr
 441              	.LBE92:
 442              	.LBE91:
 443              		.cfi_endproc
 444              	.LFE166:
ARM GAS  /tmp/cc9k88qc.s 			page 24


 445              		.size	_port_irq_epilogue, .-_port_irq_epilogue
 446              		.text
 447              	.Letext0:
 448              		.file 3 "../../../os/rt/include/chschd.h"
 449              		.file 4 "/opt/ARM/gcc-arm-none-eabi-4_7-2013q3/bin/../lib/gcc/arm-none-eabi/4.7.4/../../../../arm-
 450              		.file 5 "../../../os/rt/ports/ARMCMx/compilers/GCC/chtypes.h"
 451              		.file 6 "../../../os/ext/CMSIS/include/core_cm3.h"
 452              		.file 7 "../../../os/rt/ports/ARMCMx/chcore.h"
 453              		.file 8 "../../../os/rt/ports/ARMCMx/chcore_v7m.h"
 454              		.file 9 "../../../os/rt/include/chmtx.h"
 455              		.section	.debug_info,"",%progbits
 456              	.Ldebug_info0:
 457 0000 E3090000 		.4byte	0x9e3
 458 0004 0200     		.2byte	0x2
 459 0006 00000000 		.4byte	.Ldebug_abbrev0
 460 000a 04       		.byte	0x4
 461 000b 01       		.uleb128 0x1
 462 000c AF000000 		.4byte	.LASF108
 463 0010 01       		.byte	0x1
 464 0011 14010000 		.4byte	.LASF109
 465 0015 DC030000 		.4byte	.LASF110
 466 0019 00000000 		.4byte	.Ldebug_ranges0+0
 467 001d 00000000 		.4byte	0
 468 0021 00000000 		.4byte	0
 469 0025 00000000 		.4byte	.Ldebug_line0
 470 0029 02       		.uleb128 0x2
 471 002a 3D010000 		.4byte	.LASF56
 472 002e 44       		.byte	0x44
 473 002f 03       		.byte	0x3
 474 0030 79       		.byte	0x79
 475 0031 32010000 		.4byte	0x132
 476 0035 03       		.uleb128 0x3
 477 0036 23030000 		.4byte	.LASF0
 478 003a 03       		.byte	0x3
 479 003b 7A       		.byte	0x7a
 480 003c 1F050000 		.4byte	0x51f
 481 0040 02       		.byte	0x2
 482 0041 23       		.byte	0x23
 483 0042 00       		.uleb128 0
 484 0043 03       		.uleb128 0x3
 485 0044 B0020000 		.4byte	.LASF1
 486 0048 03       		.byte	0x3
 487 0049 7C       		.byte	0x7c
 488 004a 1F050000 		.4byte	0x51f
 489 004e 02       		.byte	0x2
 490 004f 23       		.byte	0x23
 491 0050 04       		.uleb128 0x4
 492 0051 03       		.uleb128 0x3
 493 0052 6D000000 		.4byte	.LASF2
 494 0056 03       		.byte	0x3
 495 0057 7E       		.byte	0x7e
 496 0058 DA010000 		.4byte	0x1da
 497 005c 02       		.byte	0x2
 498 005d 23       		.byte	0x23
 499 005e 08       		.uleb128 0x8
 500 005f 03       		.uleb128 0x3
 501 0060 EE040000 		.4byte	.LASF3
ARM GAS  /tmp/cc9k88qc.s 			page 25


 502 0064 03       		.byte	0x3
 503 0065 7F       		.byte	0x7f
 504 0066 D4030000 		.4byte	0x3d4
 505 006a 02       		.byte	0x2
 506 006b 23       		.byte	0x23
 507 006c 0C       		.uleb128 0xc
 508 006d 03       		.uleb128 0x3
 509 006e 67010000 		.4byte	.LASF4
 510 0072 03       		.byte	0x3
 511 0073 81       		.byte	0x81
 512 0074 1F050000 		.4byte	0x51f
 513 0078 02       		.byte	0x2
 514 0079 23       		.byte	0x23
 515 007a 10       		.uleb128 0x10
 516 007b 03       		.uleb128 0x3
 517 007c 5D020000 		.4byte	.LASF5
 518 0080 03       		.byte	0x3
 519 0081 82       		.byte	0x82
 520 0082 1F050000 		.4byte	0x51f
 521 0086 02       		.byte	0x2
 522 0087 23       		.byte	0x23
 523 0088 14       		.uleb128 0x14
 524 0089 03       		.uleb128 0x3
 525 008a C7040000 		.4byte	.LASF6
 526 008e 03       		.byte	0x3
 527 008f 89       		.byte	0x89
 528 0090 EF050000 		.4byte	0x5ef
 529 0094 02       		.byte	0x2
 530 0095 23       		.byte	0x23
 531 0096 18       		.uleb128 0x18
 532 0097 03       		.uleb128 0x3
 533 0098 08030000 		.4byte	.LASF7
 534 009c 03       		.byte	0x3
 535 009d 94       		.byte	0x94
 536 009e C4010000 		.4byte	0x1c4
 537 00a2 02       		.byte	0x2
 538 00a3 23       		.byte	0x23
 539 00a4 1C       		.uleb128 0x1c
 540 00a5 03       		.uleb128 0x3
 541 00a6 2A030000 		.4byte	.LASF8
 542 00aa 03       		.byte	0x3
 543 00ab 98       		.byte	0x98
 544 00ac B9010000 		.4byte	0x1b9
 545 00b0 02       		.byte	0x2
 546 00b1 23       		.byte	0x23
 547 00b2 1D       		.uleb128 0x1d
 548 00b3 03       		.uleb128 0x3
 549 00b4 A6040000 		.4byte	.LASF9
 550 00b8 03       		.byte	0x3
 551 00b9 9D       		.byte	0x9d
 552 00ba CF010000 		.4byte	0x1cf
 553 00be 02       		.byte	0x2
 554 00bf 23       		.byte	0x23
 555 00c0 1E       		.uleb128 0x1e
 556 00c1 04       		.uleb128 0x4
 557 00c2 705F7500 		.ascii	"p_u\000"
 558 00c6 03       		.byte	0x3
ARM GAS  /tmp/cc9k88qc.s 			page 26


 559 00c7 CF       		.byte	0xcf
 560 00c8 BA050000 		.4byte	0x5ba
 561 00cc 02       		.byte	0x2
 562 00cd 23       		.byte	0x23
 563 00ce 20       		.uleb128 0x20
 564 00cf 03       		.uleb128 0x3
 565 00d0 39020000 		.4byte	.LASF10
 566 00d4 03       		.byte	0x3
 567 00d5 D4       		.byte	0xd4
 568 00d6 47050000 		.4byte	0x547
 569 00da 02       		.byte	0x2
 570 00db 23       		.byte	0x23
 571 00dc 24       		.uleb128 0x24
 572 00dd 03       		.uleb128 0x3
 573 00de C8010000 		.4byte	.LASF11
 574 00e2 03       		.byte	0x3
 575 00e3 DA       		.byte	0xda
 576 00e4 25050000 		.4byte	0x525
 577 00e8 02       		.byte	0x2
 578 00e9 23       		.byte	0x23
 579 00ea 28       		.uleb128 0x28
 580 00eb 03       		.uleb128 0x3
 581 00ec CE040000 		.4byte	.LASF12
 582 00f0 03       		.byte	0x3
 583 00f1 DE       		.byte	0xde
 584 00f2 E5010000 		.4byte	0x1e5
 585 00f6 02       		.byte	0x2
 586 00f7 23       		.byte	0x23
 587 00f8 30       		.uleb128 0x30
 588 00f9 03       		.uleb128 0x3
 589 00fa 58030000 		.4byte	.LASF13
 590 00fe 03       		.byte	0x3
 591 00ff E4       		.byte	0xe4
 592 0100 F0010000 		.4byte	0x1f0
 593 0104 02       		.byte	0x2
 594 0105 23       		.byte	0x23
 595 0106 34       		.uleb128 0x34
 596 0107 03       		.uleb128 0x3
 597 0108 F4020000 		.4byte	.LASF14
 598 010c 03       		.byte	0x3
 599 010d EB       		.byte	0xeb
 600 010e 38060000 		.4byte	0x638
 601 0112 02       		.byte	0x2
 602 0113 23       		.byte	0x23
 603 0114 38       		.uleb128 0x38
 604 0115 03       		.uleb128 0x3
 605 0116 BA030000 		.4byte	.LASF15
 606 011a 03       		.byte	0x3
 607 011b EF       		.byte	0xef
 608 011c DA010000 		.4byte	0x1da
 609 0120 02       		.byte	0x2
 610 0121 23       		.byte	0x23
 611 0122 3C       		.uleb128 0x3c
 612 0123 03       		.uleb128 0x3
 613 0124 93000000 		.4byte	.LASF16
 614 0128 03       		.byte	0x3
 615 0129 F5       		.byte	0xf5
ARM GAS  /tmp/cc9k88qc.s 			page 27


 616 012a D2030000 		.4byte	0x3d2
 617 012e 02       		.byte	0x2
 618 012f 23       		.byte	0x23
 619 0130 40       		.uleb128 0x40
 620 0131 00       		.byte	0
 621 0132 05       		.uleb128 0x5
 622 0133 04       		.byte	0x4
 623 0134 05       		.byte	0x5
 624 0135 696E7400 		.ascii	"int\000"
 625 0139 06       		.uleb128 0x6
 626 013a 04       		.byte	0x4
 627 013b 07       		.byte	0x7
 628 013c A9010000 		.4byte	.LASF17
 629 0140 06       		.uleb128 0x6
 630 0141 01       		.byte	0x1
 631 0142 06       		.byte	0x6
 632 0143 87000000 		.4byte	.LASF18
 633 0147 07       		.uleb128 0x7
 634 0148 B8040000 		.4byte	.LASF21
 635 014c 04       		.byte	0x4
 636 014d 2A       		.byte	0x2a
 637 014e 52010000 		.4byte	0x152
 638 0152 06       		.uleb128 0x6
 639 0153 01       		.byte	0x1
 640 0154 08       		.byte	0x8
 641 0155 D3020000 		.4byte	.LASF19
 642 0159 06       		.uleb128 0x6
 643 015a 02       		.byte	0x2
 644 015b 05       		.byte	0x5
 645 015c FE020000 		.4byte	.LASF20
 646 0160 07       		.uleb128 0x7
 647 0161 44010000 		.4byte	.LASF22
 648 0165 04       		.byte	0x4
 649 0166 36       		.byte	0x36
 650 0167 6B010000 		.4byte	0x16b
 651 016b 06       		.uleb128 0x6
 652 016c 02       		.byte	0x2
 653 016d 07       		.byte	0x7
 654 016e 32030000 		.4byte	.LASF23
 655 0172 07       		.uleb128 0x7
 656 0173 CB020000 		.4byte	.LASF24
 657 0177 04       		.byte	0x4
 658 0178 4F       		.byte	0x4f
 659 0179 7D010000 		.4byte	0x17d
 660 017d 06       		.uleb128 0x6
 661 017e 04       		.byte	0x4
 662 017f 05       		.byte	0x5
 663 0180 02010000 		.4byte	.LASF25
 664 0184 07       		.uleb128 0x7
 665 0185 63030000 		.4byte	.LASF26
 666 0189 04       		.byte	0x4
 667 018a 50       		.byte	0x50
 668 018b 8F010000 		.4byte	0x18f
 669 018f 06       		.uleb128 0x6
 670 0190 04       		.byte	0x4
 671 0191 07       		.byte	0x7
 672 0192 7D030000 		.4byte	.LASF27
ARM GAS  /tmp/cc9k88qc.s 			page 28


 673 0196 06       		.uleb128 0x6
 674 0197 08       		.byte	0x8
 675 0198 05       		.byte	0x5
 676 0199 79000000 		.4byte	.LASF28
 677 019d 06       		.uleb128 0x6
 678 019e 08       		.byte	0x8
 679 019f 07       		.byte	0x7
 680 01a0 31000000 		.4byte	.LASF29
 681 01a4 08       		.uleb128 0x8
 682 01a5 72010000 		.4byte	0x172
 683 01a9 08       		.uleb128 0x8
 684 01aa 84010000 		.4byte	0x184
 685 01ae 07       		.uleb128 0x7
 686 01af 49040000 		.4byte	.LASF30
 687 01b3 05       		.byte	0x5
 688 01b4 46       		.byte	0x46
 689 01b5 84010000 		.4byte	0x184
 690 01b9 07       		.uleb128 0x7
 691 01ba 07020000 		.4byte	.LASF31
 692 01be 05       		.byte	0x5
 693 01bf 49       		.byte	0x49
 694 01c0 47010000 		.4byte	0x147
 695 01c4 07       		.uleb128 0x7
 696 01c5 0B010000 		.4byte	.LASF32
 697 01c9 05       		.byte	0x5
 698 01ca 4A       		.byte	0x4a
 699 01cb 47010000 		.4byte	0x147
 700 01cf 07       		.uleb128 0x7
 701 01d0 89020000 		.4byte	.LASF33
 702 01d4 05       		.byte	0x5
 703 01d5 4B       		.byte	0x4b
 704 01d6 47010000 		.4byte	0x147
 705 01da 07       		.uleb128 0x7
 706 01db B7020000 		.4byte	.LASF34
 707 01df 05       		.byte	0x5
 708 01e0 4D       		.byte	0x4d
 709 01e1 84010000 		.4byte	0x184
 710 01e5 07       		.uleb128 0x7
 711 01e6 DD010000 		.4byte	.LASF35
 712 01ea 05       		.byte	0x5
 713 01eb 4E       		.byte	0x4e
 714 01ec 72010000 		.4byte	0x172
 715 01f0 07       		.uleb128 0x7
 716 01f1 0F020000 		.4byte	.LASF36
 717 01f5 05       		.byte	0x5
 718 01f6 50       		.byte	0x50
 719 01f7 84010000 		.4byte	0x184
 720 01fb 06       		.uleb128 0x6
 721 01fc 04       		.byte	0x4
 722 01fd 07       		.byte	0x7
 723 01fe 43020000 		.4byte	.LASF37
 724 0202 09       		.uleb128 0x9
 725 0203 8C       		.byte	0x8c
 726 0204 06       		.byte	0x6
 727 0205 4801     		.2byte	0x148
 728 0207 48030000 		.4byte	0x348
 729 020b 0A       		.uleb128 0xa
ARM GAS  /tmp/cc9k88qc.s 			page 29


 730 020c 67000000 		.4byte	.LASF38
 731 0210 06       		.byte	0x6
 732 0211 4A01     		.2byte	0x14a
 733 0213 48030000 		.4byte	0x348
 734 0217 02       		.byte	0x2
 735 0218 23       		.byte	0x23
 736 0219 00       		.uleb128 0
 737 021a 0A       		.uleb128 0xa
 738 021b D8010000 		.4byte	.LASF39
 739 021f 06       		.byte	0x6
 740 0220 4B01     		.2byte	0x14b
 741 0222 A9010000 		.4byte	0x1a9
 742 0226 02       		.byte	0x2
 743 0227 23       		.byte	0x23
 744 0228 04       		.uleb128 0x4
 745 0229 0A       		.uleb128 0xa
 746 022a D3010000 		.4byte	.LASF40
 747 022e 06       		.byte	0x6
 748 022f 4C01     		.2byte	0x14c
 749 0231 A9010000 		.4byte	0x1a9
 750 0235 02       		.byte	0x2
 751 0236 23       		.byte	0x23
 752 0237 08       		.uleb128 0x8
 753 0238 0A       		.uleb128 0xa
 754 0239 E3010000 		.4byte	.LASF41
 755 023d 06       		.byte	0x6
 756 023e 4D01     		.2byte	0x14d
 757 0240 A9010000 		.4byte	0x1a9
 758 0244 02       		.byte	0x2
 759 0245 23       		.byte	0x23
 760 0246 0C       		.uleb128 0xc
 761 0247 0B       		.uleb128 0xb
 762 0248 53435200 		.ascii	"SCR\000"
 763 024c 06       		.byte	0x6
 764 024d 4E01     		.2byte	0x14e
 765 024f A9010000 		.4byte	0x1a9
 766 0253 02       		.byte	0x2
 767 0254 23       		.byte	0x23
 768 0255 10       		.uleb128 0x10
 769 0256 0B       		.uleb128 0xb
 770 0257 43435200 		.ascii	"CCR\000"
 771 025b 06       		.byte	0x6
 772 025c 4F01     		.2byte	0x14f
 773 025e A9010000 		.4byte	0x1a9
 774 0262 02       		.byte	0x2
 775 0263 23       		.byte	0x23
 776 0264 14       		.uleb128 0x14
 777 0265 0B       		.uleb128 0xb
 778 0266 53485000 		.ascii	"SHP\000"
 779 026a 06       		.byte	0x6
 780 026b 5001     		.2byte	0x150
 781 026d 5D030000 		.4byte	0x35d
 782 0271 02       		.byte	0x2
 783 0272 23       		.byte	0x23
 784 0273 18       		.uleb128 0x18
 785 0274 0A       		.uleb128 0xa
 786 0275 E1020000 		.4byte	.LASF42
ARM GAS  /tmp/cc9k88qc.s 			page 30


 787 0279 06       		.byte	0x6
 788 027a 5101     		.2byte	0x151
 789 027c A9010000 		.4byte	0x1a9
 790 0280 02       		.byte	0x2
 791 0281 23       		.byte	0x23
 792 0282 24       		.uleb128 0x24
 793 0283 0A       		.uleb128 0xa
 794 0284 4C020000 		.4byte	.LASF43
 795 0288 06       		.byte	0x6
 796 0289 5201     		.2byte	0x152
 797 028b A9010000 		.4byte	0x1a9
 798 028f 02       		.byte	0x2
 799 0290 23       		.byte	0x23
 800 0291 28       		.uleb128 0x28
 801 0292 0A       		.uleb128 0xa
 802 0293 DA040000 		.4byte	.LASF44
 803 0297 06       		.byte	0x6
 804 0298 5301     		.2byte	0x153
 805 029a A9010000 		.4byte	0x1a9
 806 029e 02       		.byte	0x2
 807 029f 23       		.byte	0x23
 808 02a0 2C       		.uleb128 0x2c
 809 02a1 0A       		.uleb128 0xa
 810 02a2 E9010000 		.4byte	.LASF45
 811 02a6 06       		.byte	0x6
 812 02a7 5401     		.2byte	0x154
 813 02a9 A9010000 		.4byte	0x1a9
 814 02ad 02       		.byte	0x2
 815 02ae 23       		.byte	0x23
 816 02af 30       		.uleb128 0x30
 817 02b0 0A       		.uleb128 0xa
 818 02b1 EE010000 		.4byte	.LASF46
 819 02b5 06       		.byte	0x6
 820 02b6 5501     		.2byte	0x155
 821 02b8 A9010000 		.4byte	0x1a9
 822 02bc 02       		.byte	0x2
 823 02bd 23       		.byte	0x23
 824 02be 34       		.uleb128 0x34
 825 02bf 0A       		.uleb128 0xa
 826 02c0 6F010000 		.4byte	.LASF47
 827 02c4 06       		.byte	0x6
 828 02c5 5601     		.2byte	0x156
 829 02c7 A9010000 		.4byte	0x1a9
 830 02cb 02       		.byte	0x2
 831 02cc 23       		.byte	0x23
 832 02cd 38       		.uleb128 0x38
 833 02ce 0A       		.uleb128 0xa
 834 02cf 74010000 		.4byte	.LASF48
 835 02d3 06       		.byte	0x6
 836 02d4 5701     		.2byte	0x157
 837 02d6 A9010000 		.4byte	0x1a9
 838 02da 02       		.byte	0x2
 839 02db 23       		.byte	0x23
 840 02dc 3C       		.uleb128 0x3c
 841 02dd 0B       		.uleb128 0xb
 842 02de 50465200 		.ascii	"PFR\000"
 843 02e2 06       		.byte	0x6
ARM GAS  /tmp/cc9k88qc.s 			page 31


 844 02e3 5801     		.2byte	0x158
 845 02e5 72030000 		.4byte	0x372
 846 02e9 02       		.byte	0x2
 847 02ea 23       		.byte	0x23
 848 02eb 40       		.uleb128 0x40
 849 02ec 0B       		.uleb128 0xb
 850 02ed 44465200 		.ascii	"DFR\000"
 851 02f1 06       		.byte	0x6
 852 02f2 5901     		.2byte	0x159
 853 02f4 48030000 		.4byte	0x348
 854 02f8 02       		.byte	0x2
 855 02f9 23       		.byte	0x23
 856 02fa 48       		.uleb128 0x48
 857 02fb 0B       		.uleb128 0xb
 858 02fc 41445200 		.ascii	"ADR\000"
 859 0300 06       		.byte	0x6
 860 0301 5A01     		.2byte	0x15a
 861 0303 48030000 		.4byte	0x348
 862 0307 02       		.byte	0x2
 863 0308 23       		.byte	0x23
 864 0309 4C       		.uleb128 0x4c
 865 030a 0A       		.uleb128 0xa
 866 030b AD040000 		.4byte	.LASF49
 867 030f 06       		.byte	0x6
 868 0310 5B01     		.2byte	0x15b
 869 0312 8C030000 		.4byte	0x38c
 870 0316 02       		.byte	0x2
 871 0317 23       		.byte	0x23
 872 0318 50       		.uleb128 0x50
 873 0319 0A       		.uleb128 0xa
 874 031a 74000000 		.4byte	.LASF50
 875 031e 06       		.byte	0x6
 876 031f 5C01     		.2byte	0x15c
 877 0321 A6030000 		.4byte	0x3a6
 878 0325 02       		.byte	0x2
 879 0326 23       		.byte	0x23
 880 0327 60       		.uleb128 0x60
 881 0328 0A       		.uleb128 0xa
 882 0329 91020000 		.4byte	.LASF51
 883 032d 06       		.byte	0x6
 884 032e 5D01     		.2byte	0x15d
 885 0330 96030000 		.4byte	0x396
 886 0334 02       		.byte	0x2
 887 0335 23       		.byte	0x23
 888 0336 74       		.uleb128 0x74
 889 0337 0A       		.uleb128 0xa
 890 0338 D4040000 		.4byte	.LASF52
 891 033c 06       		.byte	0x6
 892 033d 5E01     		.2byte	0x15e
 893 033f A9010000 		.4byte	0x1a9
 894 0343 03       		.byte	0x3
 895 0344 23       		.byte	0x23
 896 0345 8801     		.uleb128 0x88
 897 0347 00       		.byte	0
 898 0348 0C       		.uleb128 0xc
 899 0349 A9010000 		.4byte	0x1a9
 900 034d 0D       		.uleb128 0xd
ARM GAS  /tmp/cc9k88qc.s 			page 32


 901 034e 47010000 		.4byte	0x147
 902 0352 5D030000 		.4byte	0x35d
 903 0356 0E       		.uleb128 0xe
 904 0357 FB010000 		.4byte	0x1fb
 905 035b 0B       		.byte	0xb
 906 035c 00       		.byte	0
 907 035d 08       		.uleb128 0x8
 908 035e 4D030000 		.4byte	0x34d
 909 0362 0D       		.uleb128 0xd
 910 0363 84010000 		.4byte	0x184
 911 0367 72030000 		.4byte	0x372
 912 036b 0E       		.uleb128 0xe
 913 036c FB010000 		.4byte	0x1fb
 914 0370 01       		.byte	0x1
 915 0371 00       		.byte	0
 916 0372 0C       		.uleb128 0xc
 917 0373 77030000 		.4byte	0x377
 918 0377 08       		.uleb128 0x8
 919 0378 62030000 		.4byte	0x362
 920 037c 0D       		.uleb128 0xd
 921 037d 84010000 		.4byte	0x184
 922 0381 8C030000 		.4byte	0x38c
 923 0385 0E       		.uleb128 0xe
 924 0386 FB010000 		.4byte	0x1fb
 925 038a 03       		.byte	0x3
 926 038b 00       		.byte	0
 927 038c 0C       		.uleb128 0xc
 928 038d 91030000 		.4byte	0x391
 929 0391 08       		.uleb128 0x8
 930 0392 7C030000 		.4byte	0x37c
 931 0396 0D       		.uleb128 0xd
 932 0397 84010000 		.4byte	0x184
 933 039b A6030000 		.4byte	0x3a6
 934 039f 0E       		.uleb128 0xe
 935 03a0 FB010000 		.4byte	0x1fb
 936 03a4 04       		.byte	0x4
 937 03a5 00       		.byte	0
 938 03a6 0C       		.uleb128 0xc
 939 03a7 AB030000 		.4byte	0x3ab
 940 03ab 08       		.uleb128 0x8
 941 03ac 96030000 		.4byte	0x396
 942 03b0 0F       		.uleb128 0xf
 943 03b1 92010000 		.4byte	.LASF53
 944 03b5 06       		.byte	0x6
 945 03b6 5F01     		.2byte	0x15f
 946 03b8 02020000 		.4byte	0x202
 947 03bc 07       		.uleb128 0x7
 948 03bd B0030000 		.4byte	.LASF54
 949 03c1 07       		.byte	0x7
 950 03c2 89       		.byte	0x89
 951 03c3 60010000 		.4byte	0x160
 952 03c7 07       		.uleb128 0x7
 953 03c8 81010000 		.4byte	.LASF55
 954 03cc 07       		.byte	0x7
 955 03cd 8F       		.byte	0x8f
 956 03ce D2030000 		.4byte	0x3d2
 957 03d2 10       		.uleb128 0x10
ARM GAS  /tmp/cc9k88qc.s 			page 33


 958 03d3 04       		.byte	0x4
 959 03d4 02       		.uleb128 0x2
 960 03d5 35040000 		.4byte	.LASF57
 961 03d9 04       		.byte	0x4
 962 03da 07       		.byte	0x7
 963 03db B3       		.byte	0xb3
 964 03dc EF030000 		.4byte	0x3ef
 965 03e0 04       		.uleb128 0x4
 966 03e1 72313300 		.ascii	"r13\000"
 967 03e5 07       		.byte	0x7
 968 03e6 B4       		.byte	0xb4
 969 03e7 7C040000 		.4byte	0x47c
 970 03eb 02       		.byte	0x2
 971 03ec 23       		.byte	0x23
 972 03ed 00       		.uleb128 0
 973 03ee 00       		.byte	0
 974 03ef 02       		.uleb128 0x2
 975 03f0 14000000 		.4byte	.LASF58
 976 03f4 24       		.byte	0x24
 977 03f5 08       		.byte	0x8
 978 03f6 F5       		.byte	0xf5
 979 03f7 7C040000 		.4byte	0x47c
 980 03fb 0B       		.uleb128 0xb
 981 03fc 723400   		.ascii	"r4\000"
 982 03ff 08       		.byte	0x8
 983 0400 0801     		.2byte	0x108
 984 0402 C7030000 		.4byte	0x3c7
 985 0406 02       		.byte	0x2
 986 0407 23       		.byte	0x23
 987 0408 00       		.uleb128 0
 988 0409 0B       		.uleb128 0xb
 989 040a 723500   		.ascii	"r5\000"
 990 040d 08       		.byte	0x8
 991 040e 0901     		.2byte	0x109
 992 0410 C7030000 		.4byte	0x3c7
 993 0414 02       		.byte	0x2
 994 0415 23       		.byte	0x23
 995 0416 04       		.uleb128 0x4
 996 0417 0B       		.uleb128 0xb
 997 0418 723600   		.ascii	"r6\000"
 998 041b 08       		.byte	0x8
 999 041c 0A01     		.2byte	0x10a
 1000 041e C7030000 		.4byte	0x3c7
 1001 0422 02       		.byte	0x2
 1002 0423 23       		.byte	0x23
 1003 0424 08       		.uleb128 0x8
 1004 0425 0B       		.uleb128 0xb
 1005 0426 723700   		.ascii	"r7\000"
 1006 0429 08       		.byte	0x8
 1007 042a 0B01     		.2byte	0x10b
 1008 042c C7030000 		.4byte	0x3c7
 1009 0430 02       		.byte	0x2
 1010 0431 23       		.byte	0x23
 1011 0432 0C       		.uleb128 0xc
 1012 0433 0B       		.uleb128 0xb
 1013 0434 723800   		.ascii	"r8\000"
 1014 0437 08       		.byte	0x8
ARM GAS  /tmp/cc9k88qc.s 			page 34


 1015 0438 0C01     		.2byte	0x10c
 1016 043a C7030000 		.4byte	0x3c7
 1017 043e 02       		.byte	0x2
 1018 043f 23       		.byte	0x23
 1019 0440 10       		.uleb128 0x10
 1020 0441 0B       		.uleb128 0xb
 1021 0442 723900   		.ascii	"r9\000"
 1022 0445 08       		.byte	0x8
 1023 0446 0D01     		.2byte	0x10d
 1024 0448 C7030000 		.4byte	0x3c7
 1025 044c 02       		.byte	0x2
 1026 044d 23       		.byte	0x23
 1027 044e 14       		.uleb128 0x14
 1028 044f 0B       		.uleb128 0xb
 1029 0450 72313000 		.ascii	"r10\000"
 1030 0454 08       		.byte	0x8
 1031 0455 0E01     		.2byte	0x10e
 1032 0457 C7030000 		.4byte	0x3c7
 1033 045b 02       		.byte	0x2
 1034 045c 23       		.byte	0x23
 1035 045d 18       		.uleb128 0x18
 1036 045e 0B       		.uleb128 0xb
 1037 045f 72313100 		.ascii	"r11\000"
 1038 0463 08       		.byte	0x8
 1039 0464 0F01     		.2byte	0x10f
 1040 0466 C7030000 		.4byte	0x3c7
 1041 046a 02       		.byte	0x2
 1042 046b 23       		.byte	0x23
 1043 046c 1C       		.uleb128 0x1c
 1044 046d 0B       		.uleb128 0xb
 1045 046e 6C7200   		.ascii	"lr\000"
 1046 0471 08       		.byte	0x8
 1047 0472 1001     		.2byte	0x110
 1048 0474 C7030000 		.4byte	0x3c7
 1049 0478 02       		.byte	0x2
 1050 0479 23       		.byte	0x23
 1051 047a 20       		.uleb128 0x20
 1052 047b 00       		.byte	0
 1053 047c 11       		.uleb128 0x11
 1054 047d 04       		.byte	0x4
 1055 047e EF030000 		.4byte	0x3ef
 1056 0482 02       		.uleb128 0x2
 1057 0483 6B020000 		.4byte	.LASF59
 1058 0487 20       		.byte	0x20
 1059 0488 08       		.byte	0x8
 1060 0489 D6       		.byte	0xd6
 1061 048a FA040000 		.4byte	0x4fa
 1062 048e 04       		.uleb128 0x4
 1063 048f 723000   		.ascii	"r0\000"
 1064 0492 08       		.byte	0x8
 1065 0493 D7       		.byte	0xd7
 1066 0494 C7030000 		.4byte	0x3c7
 1067 0498 02       		.byte	0x2
 1068 0499 23       		.byte	0x23
 1069 049a 00       		.uleb128 0
 1070 049b 04       		.uleb128 0x4
 1071 049c 723100   		.ascii	"r1\000"
ARM GAS  /tmp/cc9k88qc.s 			page 35


 1072 049f 08       		.byte	0x8
 1073 04a0 D8       		.byte	0xd8
 1074 04a1 C7030000 		.4byte	0x3c7
 1075 04a5 02       		.byte	0x2
 1076 04a6 23       		.byte	0x23
 1077 04a7 04       		.uleb128 0x4
 1078 04a8 04       		.uleb128 0x4
 1079 04a9 723200   		.ascii	"r2\000"
 1080 04ac 08       		.byte	0x8
 1081 04ad D9       		.byte	0xd9
 1082 04ae C7030000 		.4byte	0x3c7
 1083 04b2 02       		.byte	0x2
 1084 04b3 23       		.byte	0x23
 1085 04b4 08       		.uleb128 0x8
 1086 04b5 04       		.uleb128 0x4
 1087 04b6 723300   		.ascii	"r3\000"
 1088 04b9 08       		.byte	0x8
 1089 04ba DA       		.byte	0xda
 1090 04bb C7030000 		.4byte	0x3c7
 1091 04bf 02       		.byte	0x2
 1092 04c0 23       		.byte	0x23
 1093 04c1 0C       		.uleb128 0xc
 1094 04c2 04       		.uleb128 0x4
 1095 04c3 72313200 		.ascii	"r12\000"
 1096 04c7 08       		.byte	0x8
 1097 04c8 DB       		.byte	0xdb
 1098 04c9 C7030000 		.4byte	0x3c7
 1099 04cd 02       		.byte	0x2
 1100 04ce 23       		.byte	0x23
 1101 04cf 10       		.uleb128 0x10
 1102 04d0 03       		.uleb128 0x3
 1103 04d1 45030000 		.4byte	.LASF60
 1104 04d5 08       		.byte	0x8
 1105 04d6 DC       		.byte	0xdc
 1106 04d7 C7030000 		.4byte	0x3c7
 1107 04db 02       		.byte	0x2
 1108 04dc 23       		.byte	0x23
 1109 04dd 14       		.uleb128 0x14
 1110 04de 04       		.uleb128 0x4
 1111 04df 706300   		.ascii	"pc\000"
 1112 04e2 08       		.byte	0x8
 1113 04e3 DD       		.byte	0xdd
 1114 04e4 C7030000 		.4byte	0x3c7
 1115 04e8 02       		.byte	0x2
 1116 04e9 23       		.byte	0x23
 1117 04ea 18       		.uleb128 0x18
 1118 04eb 03       		.uleb128 0x3
 1119 04ec 10030000 		.4byte	.LASF61
 1120 04f0 08       		.byte	0x8
 1121 04f1 DE       		.byte	0xde
 1122 04f2 C7030000 		.4byte	0x3c7
 1123 04f6 02       		.byte	0x2
 1124 04f7 23       		.byte	0x23
 1125 04f8 1C       		.uleb128 0x1c
 1126 04f9 00       		.byte	0
 1127 04fa 12       		.uleb128 0x12
 1128 04fb 08       		.byte	0x8
ARM GAS  /tmp/cc9k88qc.s 			page 36


 1129 04fc 03       		.byte	0x3
 1130 04fd 53       		.byte	0x53
 1131 04fe 1F050000 		.4byte	0x51f
 1132 0502 03       		.uleb128 0x3
 1133 0503 23030000 		.4byte	.LASF0
 1134 0507 03       		.byte	0x3
 1135 0508 54       		.byte	0x54
 1136 0509 1F050000 		.4byte	0x51f
 1137 050d 02       		.byte	0x2
 1138 050e 23       		.byte	0x23
 1139 050f 00       		.uleb128 0
 1140 0510 03       		.uleb128 0x3
 1141 0511 B0020000 		.4byte	.LASF1
 1142 0515 03       		.byte	0x3
 1143 0516 55       		.byte	0x55
 1144 0517 1F050000 		.4byte	0x51f
 1145 051b 02       		.byte	0x2
 1146 051c 23       		.byte	0x23
 1147 051d 04       		.uleb128 0x4
 1148 051e 00       		.byte	0
 1149 051f 11       		.uleb128 0x11
 1150 0520 04       		.byte	0x4
 1151 0521 29000000 		.4byte	0x29
 1152 0525 07       		.uleb128 0x7
 1153 0526 96040000 		.4byte	.LASF62
 1154 052a 03       		.byte	0x3
 1155 052b 56       		.byte	0x56
 1156 052c FA040000 		.4byte	0x4fa
 1157 0530 12       		.uleb128 0x12
 1158 0531 04       		.byte	0x4
 1159 0532 03       		.byte	0x3
 1160 0533 5B       		.byte	0x5b
 1161 0534 47050000 		.4byte	0x547
 1162 0538 03       		.uleb128 0x3
 1163 0539 23030000 		.4byte	.LASF0
 1164 053d 03       		.byte	0x3
 1165 053e 5C       		.byte	0x5c
 1166 053f 1F050000 		.4byte	0x51f
 1167 0543 02       		.byte	0x2
 1168 0544 23       		.byte	0x23
 1169 0545 00       		.uleb128 0
 1170 0546 00       		.byte	0
 1171 0547 07       		.uleb128 0x7
 1172 0548 2A020000 		.4byte	.LASF63
 1173 054c 03       		.byte	0x3
 1174 054d 5D       		.byte	0x5d
 1175 054e 30050000 		.4byte	0x530
 1176 0552 12       		.uleb128 0x12
 1177 0553 1C       		.byte	0x1c
 1178 0554 03       		.byte	0x3
 1179 0555 64       		.byte	0x64
 1180 0556 AF050000 		.4byte	0x5af
 1181 055a 03       		.uleb128 0x3
 1182 055b 6C030000 		.4byte	.LASF64
 1183 055f 03       		.byte	0x3
 1184 0560 65       		.byte	0x65
 1185 0561 25050000 		.4byte	0x525
ARM GAS  /tmp/cc9k88qc.s 			page 37


 1186 0565 02       		.byte	0x2
 1187 0566 23       		.byte	0x23
 1188 0567 00       		.uleb128 0
 1189 0568 03       		.uleb128 0x3
 1190 0569 15030000 		.4byte	.LASF65
 1191 056d 03       		.byte	0x3
 1192 056e 66       		.byte	0x66
 1193 056f DA010000 		.4byte	0x1da
 1194 0573 02       		.byte	0x2
 1195 0574 23       		.byte	0x23
 1196 0575 08       		.uleb128 0x8
 1197 0576 03       		.uleb128 0x3
 1198 0577 65020000 		.4byte	.LASF66
 1199 057b 03       		.byte	0x3
 1200 057c 68       		.byte	0x68
 1201 057d D4030000 		.4byte	0x3d4
 1202 0581 02       		.byte	0x2
 1203 0582 23       		.byte	0x23
 1204 0583 0C       		.uleb128 0xc
 1205 0584 03       		.uleb128 0x3
 1206 0585 79010000 		.4byte	.LASF67
 1207 0589 03       		.byte	0x3
 1208 058a 6B       		.byte	0x6b
 1209 058b 1F050000 		.4byte	0x51f
 1210 058f 02       		.byte	0x2
 1211 0590 23       		.byte	0x23
 1212 0591 10       		.uleb128 0x10
 1213 0592 03       		.uleb128 0x3
 1214 0593 81020000 		.4byte	.LASF68
 1215 0597 03       		.byte	0x3
 1216 0598 6C       		.byte	0x6c
 1217 0599 1F050000 		.4byte	0x51f
 1218 059d 02       		.byte	0x2
 1219 059e 23       		.byte	0x23
 1220 059f 14       		.uleb128 0x14
 1221 05a0 03       		.uleb128 0x3
 1222 05a1 77020000 		.4byte	.LASF69
 1223 05a5 03       		.byte	0x3
 1224 05a6 6F       		.byte	0x6f
 1225 05a7 1F050000 		.4byte	0x51f
 1226 05ab 02       		.byte	0x2
 1227 05ac 23       		.byte	0x23
 1228 05ad 18       		.uleb128 0x18
 1229 05ae 00       		.byte	0
 1230 05af 07       		.uleb128 0x7
 1231 05b0 00000000 		.4byte	.LASF70
 1232 05b4 03       		.byte	0x3
 1233 05b5 71       		.byte	0x71
 1234 05b6 52050000 		.4byte	0x552
 1235 05ba 13       		.uleb128 0x13
 1236 05bb 04       		.byte	0x4
 1237 05bc 03       		.byte	0x3
 1238 05bd B1       		.byte	0xb1
 1239 05be EF050000 		.4byte	0x5ef
 1240 05c2 14       		.uleb128 0x14
 1241 05c3 0D000000 		.4byte	.LASF71
 1242 05c7 03       		.byte	0x3
ARM GAS  /tmp/cc9k88qc.s 			page 38


 1243 05c8 B8       		.byte	0xb8
 1244 05c9 E5010000 		.4byte	0x1e5
 1245 05cd 14       		.uleb128 0x14
 1246 05ce 48000000 		.4byte	.LASF72
 1247 05d2 03       		.byte	0x3
 1248 05d3 BF       		.byte	0xbf
 1249 05d4 E5010000 		.4byte	0x1e5
 1250 05d8 14       		.uleb128 0x14
 1251 05d9 C0040000 		.4byte	.LASF73
 1252 05dd 03       		.byte	0x3
 1253 05de C6       		.byte	0xc6
 1254 05df D2030000 		.4byte	0x3d2
 1255 05e3 14       		.uleb128 0x14
 1256 05e4 1C030000 		.4byte	.LASF74
 1257 05e8 03       		.byte	0x3
 1258 05e9 CD       		.byte	0xcd
 1259 05ea F0010000 		.4byte	0x1f0
 1260 05ee 00       		.byte	0
 1261 05ef 11       		.uleb128 0x11
 1262 05f0 04       		.byte	0x4
 1263 05f1 F5050000 		.4byte	0x5f5
 1264 05f5 0C       		.uleb128 0xc
 1265 05f6 FA050000 		.4byte	0x5fa
 1266 05fa 06       		.uleb128 0x6
 1267 05fb 01       		.byte	0x1
 1268 05fc 08       		.byte	0x8
 1269 05fd 8F030000 		.4byte	.LASF75
 1270 0601 02       		.uleb128 0x2
 1271 0602 BF020000 		.4byte	.LASF76
 1272 0606 10       		.byte	0x10
 1273 0607 09       		.byte	0x9
 1274 0608 3A       		.byte	0x3a
 1275 0609 38060000 		.4byte	0x638
 1276 060d 03       		.uleb128 0x3
 1277 060e 9B000000 		.4byte	.LASF77
 1278 0612 09       		.byte	0x9
 1279 0613 3B       		.byte	0x3b
 1280 0614 25050000 		.4byte	0x525
 1281 0618 02       		.byte	0x2
 1282 0619 23       		.byte	0x23
 1283 061a 00       		.uleb128 0
 1284 061b 03       		.uleb128 0x3
 1285 061c DF040000 		.4byte	.LASF78
 1286 0620 09       		.byte	0x9
 1287 0621 3D       		.byte	0x3d
 1288 0622 1F050000 		.4byte	0x51f
 1289 0626 02       		.byte	0x2
 1290 0627 23       		.byte	0x23
 1291 0628 08       		.uleb128 0x8
 1292 0629 03       		.uleb128 0x3
 1293 062a A9030000 		.4byte	.LASF79
 1294 062e 09       		.byte	0x9
 1295 062f 3F       		.byte	0x3f
 1296 0630 6B070000 		.4byte	0x76b
 1297 0634 02       		.byte	0x2
 1298 0635 23       		.byte	0x23
 1299 0636 0C       		.uleb128 0xc
ARM GAS  /tmp/cc9k88qc.s 			page 39


 1300 0637 00       		.byte	0
 1301 0638 11       		.uleb128 0x11
 1302 0639 04       		.byte	0x4
 1303 063a 01060000 		.4byte	0x601
 1304 063e 0F       		.uleb128 0xf
 1305 063f C5030000 		.4byte	.LASF80
 1306 0643 03       		.byte	0x3
 1307 0644 0301     		.2byte	0x103
 1308 0646 4A060000 		.4byte	0x64a
 1309 064a 11       		.uleb128 0x11
 1310 064b 04       		.byte	0x4
 1311 064c 50060000 		.4byte	0x650
 1312 0650 15       		.uleb128 0x15
 1313 0651 01       		.byte	0x1
 1314 0652 5C060000 		.4byte	0x65c
 1315 0656 16       		.uleb128 0x16
 1316 0657 D2030000 		.4byte	0x3d2
 1317 065b 00       		.byte	0
 1318 065c 0F       		.uleb128 0xf
 1319 065d A0020000 		.4byte	.LASF81
 1320 0661 03       		.byte	0x3
 1321 0662 0801     		.2byte	0x108
 1322 0664 68060000 		.4byte	0x668
 1323 0668 17       		.uleb128 0x17
 1324 0669 64040000 		.4byte	.LASF82
 1325 066d 14       		.byte	0x14
 1326 066e 03       		.byte	0x3
 1327 066f 0F01     		.2byte	0x10f
 1328 0671 C1060000 		.4byte	0x6c1
 1329 0675 0A       		.uleb128 0xa
 1330 0676 C0010000 		.4byte	.LASF83
 1331 067a 03       		.byte	0x3
 1332 067b 1001     		.2byte	0x110
 1333 067d C1060000 		.4byte	0x6c1
 1334 0681 02       		.byte	0x2
 1335 0682 23       		.byte	0x23
 1336 0683 00       		.uleb128 0
 1337 0684 0A       		.uleb128 0xa
 1338 0685 8A010000 		.4byte	.LASF84
 1339 0689 03       		.byte	0x3
 1340 068a 1101     		.2byte	0x111
 1341 068c C1060000 		.4byte	0x6c1
 1342 0690 02       		.byte	0x2
 1343 0691 23       		.byte	0x23
 1344 0692 04       		.uleb128 0x4
 1345 0693 0A       		.uleb128 0xa
 1346 0694 74030000 		.4byte	.LASF85
 1347 0698 03       		.byte	0x3
 1348 0699 1201     		.2byte	0x112
 1349 069b BC030000 		.4byte	0x3bc
 1350 069f 02       		.byte	0x2
 1351 06a0 23       		.byte	0x23
 1352 06a1 08       		.uleb128 0x8
 1353 06a2 0A       		.uleb128 0xa
 1354 06a3 F4040000 		.4byte	.LASF86
 1355 06a7 03       		.byte	0x3
 1356 06a8 1301     		.2byte	0x113
ARM GAS  /tmp/cc9k88qc.s 			page 40


 1357 06aa 3E060000 		.4byte	0x63e
 1358 06ae 02       		.byte	0x2
 1359 06af 23       		.byte	0x23
 1360 06b0 0C       		.uleb128 0xc
 1361 06b1 0A       		.uleb128 0xa
 1362 06b2 7C040000 		.4byte	.LASF87
 1363 06b6 03       		.byte	0x3
 1364 06b7 1501     		.2byte	0x115
 1365 06b9 D2030000 		.4byte	0x3d2
 1366 06bd 02       		.byte	0x2
 1367 06be 23       		.byte	0x23
 1368 06bf 10       		.uleb128 0x10
 1369 06c0 00       		.byte	0
 1370 06c1 11       		.uleb128 0x11
 1371 06c2 04       		.byte	0x4
 1372 06c3 5C060000 		.4byte	0x65c
 1373 06c7 09       		.uleb128 0x9
 1374 06c8 0C       		.byte	0xc
 1375 06c9 03       		.byte	0x3
 1376 06ca 1F01     		.2byte	0x11f
 1377 06cc 0D070000 		.4byte	0x70d
 1378 06d0 0A       		.uleb128 0xa
 1379 06d1 C0010000 		.4byte	.LASF83
 1380 06d5 03       		.byte	0x3
 1381 06d6 2001     		.2byte	0x120
 1382 06d8 C1060000 		.4byte	0x6c1
 1383 06dc 02       		.byte	0x2
 1384 06dd 23       		.byte	0x23
 1385 06de 00       		.uleb128 0
 1386 06df 0A       		.uleb128 0xa
 1387 06e0 8A010000 		.4byte	.LASF84
 1388 06e4 03       		.byte	0x3
 1389 06e5 2201     		.2byte	0x122
 1390 06e7 C1060000 		.4byte	0x6c1
 1391 06eb 02       		.byte	0x2
 1392 06ec 23       		.byte	0x23
 1393 06ed 04       		.uleb128 0x4
 1394 06ee 0A       		.uleb128 0xa
 1395 06ef 74030000 		.4byte	.LASF85
 1396 06f3 03       		.byte	0x3
 1397 06f4 2401     		.2byte	0x124
 1398 06f6 BC030000 		.4byte	0x3bc
 1399 06fa 02       		.byte	0x2
 1400 06fb 23       		.byte	0x23
 1401 06fc 08       		.uleb128 0x8
 1402 06fd 0A       		.uleb128 0xa
 1403 06fe 51020000 		.4byte	.LASF88
 1404 0702 03       		.byte	0x3
 1405 0703 2C01     		.2byte	0x12c
 1406 0705 BC030000 		.4byte	0x3bc
 1407 0709 02       		.byte	0x2
 1408 070a 23       		.byte	0x23
 1409 070b 0A       		.uleb128 0xa
 1410 070c 00       		.byte	0
 1411 070d 0F       		.uleb128 0xf
 1412 070e 51000000 		.4byte	.LASF89
 1413 0712 03       		.byte	0x3
ARM GAS  /tmp/cc9k88qc.s 			page 41


 1414 0713 2F01     		.2byte	0x12f
 1415 0715 C7060000 		.4byte	0x6c7
 1416 0719 17       		.uleb128 0x17
 1417 071a F8000000 		.4byte	.LASF90
 1418 071e 2C       		.byte	0x2c
 1419 071f 03       		.byte	0x3
 1420 0720 3601     		.2byte	0x136
 1421 0722 54070000 		.4byte	0x754
 1422 0726 0A       		.uleb128 0xa
 1423 0727 B2040000 		.4byte	.LASF91
 1424 072b 03       		.byte	0x3
 1425 072c 3A01     		.2byte	0x13a
 1426 072e AF050000 		.4byte	0x5af
 1427 0732 02       		.byte	0x2
 1428 0733 23       		.byte	0x23
 1429 0734 00       		.uleb128 0
 1430 0735 0A       		.uleb128 0xa
 1431 0736 20000000 		.4byte	.LASF92
 1432 073a 03       		.byte	0x3
 1433 073b 3E01     		.2byte	0x13e
 1434 073d 0D070000 		.4byte	0x70d
 1435 0741 02       		.byte	0x2
 1436 0742 23       		.byte	0x23
 1437 0743 1C       		.uleb128 0x1c
 1438 0744 0A       		.uleb128 0xa
 1439 0745 83040000 		.4byte	.LASF93
 1440 0749 03       		.byte	0x3
 1441 074a 4301     		.2byte	0x143
 1442 074c AE010000 		.4byte	0x1ae
 1443 0750 02       		.byte	0x2
 1444 0751 23       		.byte	0x23
 1445 0752 28       		.uleb128 0x28
 1446 0753 00       		.byte	0
 1447 0754 0F       		.uleb128 0xf
 1448 0755 3D040000 		.4byte	.LASF94
 1449 0759 03       		.byte	0x3
 1450 075a 6501     		.2byte	0x165
 1451 075c 19070000 		.4byte	0x719
 1452 0760 07       		.uleb128 0x7
 1453 0761 9B010000 		.4byte	.LASF95
 1454 0765 09       		.byte	0x9
 1455 0766 35       		.byte	0x35
 1456 0767 01060000 		.4byte	0x601
 1457 076b 11       		.uleb128 0x11
 1458 076c 04       		.byte	0x4
 1459 076d 60070000 		.4byte	0x760
 1460 0771 18       		.uleb128 0x18
 1461 0772 CE030000 		.4byte	.LASF98
 1462 0776 02       		.byte	0x2
 1463 0777 2002     		.2byte	0x220
 1464 0779 01       		.byte	0x1
 1465 077a 03       		.byte	0x3
 1466 077b 8C070000 		.4byte	0x78c
 1467 077f 19       		.uleb128 0x19
 1468 0780 A3010000 		.4byte	.LASF100
 1469 0784 02       		.byte	0x2
 1470 0785 2002     		.2byte	0x220
ARM GAS  /tmp/cc9k88qc.s 			page 42


 1471 0787 84010000 		.4byte	0x184
 1472 078b 00       		.byte	0
 1473 078c 1A       		.uleb128 0x1a
 1474 078d 27000000 		.4byte	.LASF96
 1475 0791 08       		.byte	0x8
 1476 0792 BC01     		.2byte	0x1bc
 1477 0794 01       		.byte	0x1
 1478 0795 03       		.byte	0x3
 1479 0796 1A       		.uleb128 0x1a
 1480 0797 A3000000 		.4byte	.LASF97
 1481 079b 08       		.byte	0x8
 1482 079c CA01     		.2byte	0x1ca
 1483 079e 01       		.byte	0x1
 1484 079f 03       		.byte	0x3
 1485 07a0 1B       		.uleb128 0x1b
 1486 07a1 72040000 		.4byte	.LASF111
 1487 07a5 02       		.byte	0x2
 1488 07a6 A801     		.2byte	0x1a8
 1489 07a8 01       		.byte	0x1
 1490 07a9 84010000 		.4byte	0x184
 1491 07ad 03       		.byte	0x3
 1492 07ae BF070000 		.4byte	0x7bf
 1493 07b2 1C       		.uleb128 0x1c
 1494 07b3 E7040000 		.4byte	.LASF104
 1495 07b7 02       		.byte	0x2
 1496 07b8 AA01     		.2byte	0x1aa
 1497 07ba 84010000 		.4byte	0x184
 1498 07be 00       		.byte	0
 1499 07bf 18       		.uleb128 0x18
 1500 07c0 B6010000 		.4byte	.LASF99
 1501 07c4 02       		.byte	0x2
 1502 07c5 B701     		.2byte	0x1b7
 1503 07c7 01       		.byte	0x1
 1504 07c8 03       		.byte	0x3
 1505 07c9 DA070000 		.4byte	0x7da
 1506 07cd 19       		.uleb128 0x19
 1507 07ce 1B020000 		.4byte	.LASF101
 1508 07d2 02       		.byte	0x2
 1509 07d3 B701     		.2byte	0x1b7
 1510 07d5 84010000 		.4byte	0x184
 1511 07d9 00       		.byte	0
 1512 07da 1A       		.uleb128 0x1a
 1513 07db 94030000 		.4byte	.LASF102
 1514 07df 08       		.byte	0x8
 1515 07e0 E401     		.2byte	0x1e4
 1516 07e2 01       		.byte	0x1
 1517 07e3 03       		.byte	0x3
 1518 07e4 1A       		.uleb128 0x1a
 1519 07e5 51040000 		.4byte	.LASF103
 1520 07e9 08       		.byte	0x8
 1521 07ea D901     		.2byte	0x1d9
 1522 07ec 01       		.byte	0x1
 1523 07ed 03       		.byte	0x3
 1524 07ee 1D       		.uleb128 0x1d
 1525 07ef 01       		.byte	0x1
 1526 07f0 F4010000 		.4byte	.LASF112
 1527 07f4 01       		.byte	0x1
ARM GAS  /tmp/cc9k88qc.s 			page 43


 1528 07f5 77       		.byte	0x77
 1529 07f6 01       		.byte	0x1
 1530 07f7 01       		.byte	0x1
 1531 07f8 0A080000 		.4byte	0x80a
 1532 07fc 1E       		.uleb128 0x1e
 1533 07fd 1F       		.uleb128 0x1f
 1534 07fe 9B020000 		.4byte	.LASF105
 1535 0802 01       		.byte	0x1
 1536 0803 7D       		.byte	0x7d
 1537 0804 0A080000 		.4byte	0x80a
 1538 0808 00       		.byte	0
 1539 0809 00       		.byte	0
 1540 080a 11       		.uleb128 0x11
 1541 080b 04       		.byte	0x4
 1542 080c 82040000 		.4byte	0x482
 1543 0810 20       		.uleb128 0x20
 1544 0811 01       		.byte	0x1
 1545 0812 4C030000 		.4byte	.LASF113
 1546 0816 01       		.byte	0x1
 1547 0817 3E       		.byte	0x3e
 1548 0818 01       		.byte	0x1
 1549 0819 00000000 		.4byte	.LFB165
 1550 081d 12000000 		.4byte	.LFE165
 1551 0821 02       		.byte	0x2
 1552 0822 7D       		.byte	0x7d
 1553 0823 00       		.sleb128 0
 1554 0824 01       		.byte	0x1
 1555 0825 B5080000 		.4byte	0x8b5
 1556 0829 21       		.uleb128 0x21
 1557 082a 9B020000 		.4byte	.LASF105
 1558 082e 01       		.byte	0x1
 1559 082f 41       		.byte	0x41
 1560 0830 0A080000 		.4byte	0x80a
 1561 0834 00000000 		.4byte	.LLST0
 1562 0838 22       		.uleb128 0x22
 1563 0839 A0070000 		.4byte	0x7a0
 1564 083d 00000000 		.4byte	.LBB51
 1565 0841 04000000 		.4byte	.LBE51
 1566 0845 01       		.byte	0x1
 1567 0846 41       		.byte	0x41
 1568 0847 5F080000 		.4byte	0x85f
 1569 084b 23       		.uleb128 0x23
 1570 084c 00000000 		.4byte	.LBB52
 1571 0850 04000000 		.4byte	.LBE52
 1572 0854 24       		.uleb128 0x24
 1573 0855 B2070000 		.4byte	0x7b2
 1574 0859 20000000 		.4byte	.LLST1
 1575 085d 00       		.byte	0
 1576 085e 00       		.byte	0
 1577 085f 22       		.uleb128 0x22
 1578 0860 BF070000 		.4byte	0x7bf
 1579 0864 06000000 		.4byte	.LBB53
 1580 0868 0A000000 		.4byte	.LBE53
 1581 086c 01       		.byte	0x1
 1582 086d 4E       		.byte	0x4e
 1583 086e 7C080000 		.4byte	0x87c
 1584 0872 25       		.uleb128 0x25
ARM GAS  /tmp/cc9k88qc.s 			page 44


 1585 0873 CD070000 		.4byte	0x7cd
 1586 0877 00000000 		.4byte	.LLST0
 1587 087b 00       		.byte	0
 1588 087c 26       		.uleb128 0x26
 1589 087d DA070000 		.4byte	0x7da
 1590 0881 0A000000 		.4byte	.LBB55
 1591 0885 12000000 		.4byte	.LBE55
 1592 0889 01       		.byte	0x1
 1593 088a 51       		.byte	0x51
 1594 088b 27       		.uleb128 0x27
 1595 088c 96070000 		.4byte	0x796
 1596 0890 0A000000 		.4byte	.LBB56
 1597 0894 12000000 		.4byte	.LBE56
 1598 0898 08       		.byte	0x8
 1599 0899 E601     		.2byte	0x1e6
 1600 089b 27       		.uleb128 0x27
 1601 089c 71070000 		.4byte	0x771
 1602 08a0 0A000000 		.4byte	.LBB57
 1603 08a4 12000000 		.4byte	.LBE57
 1604 08a8 08       		.byte	0x8
 1605 08a9 CD01     		.2byte	0x1cd
 1606 08ab 28       		.uleb128 0x28
 1607 08ac 7F070000 		.4byte	0x77f
 1608 08b0 00       		.byte	0
 1609 08b1 00       		.byte	0
 1610 08b2 00       		.byte	0
 1611 08b3 00       		.byte	0
 1612 08b4 00       		.byte	0
 1613 08b5 29       		.uleb128 0x29
 1614 08b6 EE070000 		.4byte	0x7ee
 1615 08ba 00000000 		.4byte	.LFB166
 1616 08be 50000000 		.4byte	.LFE166
 1617 08c2 40000000 		.4byte	.LLST3
 1618 08c6 01       		.byte	0x1
 1619 08c7 B5090000 		.4byte	0x9b5
 1620 08cb 22       		.uleb128 0x22
 1621 08cc E4070000 		.4byte	0x7e4
 1622 08d0 02000000 		.4byte	.LBB83
 1623 08d4 08000000 		.4byte	.LBE83
 1624 08d8 01       		.byte	0x1
 1625 08d9 79       		.byte	0x79
 1626 08da 07090000 		.4byte	0x907
 1627 08de 27       		.uleb128 0x27
 1628 08df 8C070000 		.4byte	0x78c
 1629 08e3 02000000 		.4byte	.LBB84
 1630 08e7 08000000 		.4byte	.LBE84
 1631 08eb 08       		.byte	0x8
 1632 08ec DB01     		.2byte	0x1db
 1633 08ee 27       		.uleb128 0x27
 1634 08ef 71070000 		.4byte	0x771
 1635 08f3 02000000 		.4byte	.LBB85
 1636 08f7 08000000 		.4byte	.LBE85
 1637 08fb 08       		.byte	0x8
 1638 08fc BF01     		.2byte	0x1bf
 1639 08fe 28       		.uleb128 0x28
 1640 08ff 7F070000 		.4byte	0x77f
 1641 0903 20       		.byte	0x20
ARM GAS  /tmp/cc9k88qc.s 			page 45


 1642 0904 00       		.byte	0
 1643 0905 00       		.byte	0
 1644 0906 00       		.byte	0
 1645 0907 22       		.uleb128 0x22
 1646 0908 DA070000 		.4byte	0x7da
 1647 090c 18000000 		.4byte	.LBB87
 1648 0910 1E000000 		.4byte	.LBE87
 1649 0914 01       		.byte	0x1
 1650 0915 AB       		.byte	0xab
 1651 0916 46090000 		.4byte	0x946
 1652 091a 27       		.uleb128 0x27
 1653 091b 96070000 		.4byte	0x796
 1654 091f 18000000 		.4byte	.LBB88
 1655 0923 1E000000 		.4byte	.LBE88
 1656 0927 08       		.byte	0x8
 1657 0928 E601     		.2byte	0x1e6
 1658 092a 27       		.uleb128 0x27
 1659 092b 71070000 		.4byte	0x771
 1660 092f 18000000 		.4byte	.LBB89
 1661 0933 1E000000 		.4byte	.LBE89
 1662 0937 08       		.byte	0x8
 1663 0938 CD01     		.2byte	0x1cd
 1664 093a 25       		.uleb128 0x25
 1665 093b 7F070000 		.4byte	0x77f
 1666 093f 60000000 		.4byte	.LLST4
 1667 0943 00       		.byte	0
 1668 0944 00       		.byte	0
 1669 0945 00       		.byte	0
 1670 0946 26       		.uleb128 0x26
 1671 0947 EE070000 		.4byte	0x7ee
 1672 094b 1E000000 		.4byte	.LBB91
 1673 094f 50000000 		.4byte	.LBE91
 1674 0953 01       		.byte	0x1
 1675 0954 77       		.byte	0x77
 1676 0955 23       		.uleb128 0x23
 1677 0956 1E000000 		.4byte	.LBB92
 1678 095a 50000000 		.4byte	.LBE92
 1679 095e 24       		.uleb128 0x24
 1680 095f FD070000 		.4byte	0x7fd
 1681 0963 74000000 		.4byte	.LLST5
 1682 0967 22       		.uleb128 0x22
 1683 0968 A0070000 		.4byte	0x7a0
 1684 096c 1E000000 		.4byte	.LBB93
 1685 0970 22000000 		.4byte	.LBE93
 1686 0974 01       		.byte	0x1
 1687 0975 7D       		.byte	0x7d
 1688 0976 8C090000 		.4byte	0x98c
 1689 097a 23       		.uleb128 0x23
 1690 097b 1E000000 		.4byte	.LBB94
 1691 097f 22000000 		.4byte	.LBE94
 1692 0983 2A       		.uleb128 0x2a
 1693 0984 B2070000 		.4byte	0x7b2
 1694 0988 01       		.byte	0x1
 1695 0989 54       		.byte	0x54
 1696 098a 00       		.byte	0
 1697 098b 00       		.byte	0
 1698 098c 22       		.uleb128 0x22
ARM GAS  /tmp/cc9k88qc.s 			page 46


 1699 098d BF070000 		.4byte	0x7bf
 1700 0991 26000000 		.4byte	.LBB95
 1701 0995 2A000000 		.4byte	.LBE95
 1702 0999 01       		.byte	0x1
 1703 099a 84       		.byte	0x84
 1704 099b A9090000 		.4byte	0x9a9
 1705 099f 25       		.uleb128 0x25
 1706 09a0 CD070000 		.4byte	0x7cd
 1707 09a4 74000000 		.4byte	.LLST5
 1708 09a8 00       		.byte	0
 1709 09a9 2B       		.uleb128 0x2b
 1710 09aa 36000000 		.4byte	.LVL8
 1711 09ae D0090000 		.4byte	0x9d0
 1712 09b2 00       		.byte	0
 1713 09b3 00       		.byte	0
 1714 09b4 00       		.byte	0
 1715 09b5 2C       		.uleb128 0x2c
 1716 09b6 E7020000 		.4byte	.LASF106
 1717 09ba 06       		.byte	0x6
 1718 09bb 1606     		.2byte	0x616
 1719 09bd A4010000 		.4byte	0x1a4
 1720 09c1 01       		.byte	0x1
 1721 09c2 01       		.byte	0x1
 1722 09c3 2D       		.uleb128 0x2d
 1723 09c4 636800   		.ascii	"ch\000"
 1724 09c7 03       		.byte	0x3
 1725 09c8 8901     		.2byte	0x189
 1726 09ca 54070000 		.4byte	0x754
 1727 09ce 01       		.byte	0x1
 1728 09cf 01       		.byte	0x1
 1729 09d0 2E       		.uleb128 0x2e
 1730 09d1 01       		.byte	0x1
 1731 09d2 4D010000 		.4byte	.LASF114
 1732 09d6 03       		.byte	0x3
 1733 09d7 9801     		.2byte	0x198
 1734 09d9 01       		.byte	0x1
 1735 09da DF090000 		.4byte	0x9df
 1736 09de 01       		.byte	0x1
 1737 09df 06       		.uleb128 0x6
 1738 09e0 01       		.byte	0x1
 1739 09e1 02       		.byte	0x2
 1740 09e2 C5020000 		.4byte	.LASF107
 1741 09e6 00       		.byte	0
 1742              		.section	.debug_abbrev,"",%progbits
 1743              	.Ldebug_abbrev0:
 1744 0000 01       		.uleb128 0x1
 1745 0001 11       		.uleb128 0x11
 1746 0002 01       		.byte	0x1
 1747 0003 25       		.uleb128 0x25
 1748 0004 0E       		.uleb128 0xe
 1749 0005 13       		.uleb128 0x13
 1750 0006 0B       		.uleb128 0xb
 1751 0007 03       		.uleb128 0x3
 1752 0008 0E       		.uleb128 0xe
 1753 0009 1B       		.uleb128 0x1b
 1754 000a 0E       		.uleb128 0xe
 1755 000b 55       		.uleb128 0x55
ARM GAS  /tmp/cc9k88qc.s 			page 47


 1756 000c 06       		.uleb128 0x6
 1757 000d 11       		.uleb128 0x11
 1758 000e 01       		.uleb128 0x1
 1759 000f 52       		.uleb128 0x52
 1760 0010 01       		.uleb128 0x1
 1761 0011 10       		.uleb128 0x10
 1762 0012 06       		.uleb128 0x6
 1763 0013 00       		.byte	0
 1764 0014 00       		.byte	0
 1765 0015 02       		.uleb128 0x2
 1766 0016 13       		.uleb128 0x13
 1767 0017 01       		.byte	0x1
 1768 0018 03       		.uleb128 0x3
 1769 0019 0E       		.uleb128 0xe
 1770 001a 0B       		.uleb128 0xb
 1771 001b 0B       		.uleb128 0xb
 1772 001c 3A       		.uleb128 0x3a
 1773 001d 0B       		.uleb128 0xb
 1774 001e 3B       		.uleb128 0x3b
 1775 001f 0B       		.uleb128 0xb
 1776 0020 01       		.uleb128 0x1
 1777 0021 13       		.uleb128 0x13
 1778 0022 00       		.byte	0
 1779 0023 00       		.byte	0
 1780 0024 03       		.uleb128 0x3
 1781 0025 0D       		.uleb128 0xd
 1782 0026 00       		.byte	0
 1783 0027 03       		.uleb128 0x3
 1784 0028 0E       		.uleb128 0xe
 1785 0029 3A       		.uleb128 0x3a
 1786 002a 0B       		.uleb128 0xb
 1787 002b 3B       		.uleb128 0x3b
 1788 002c 0B       		.uleb128 0xb
 1789 002d 49       		.uleb128 0x49
 1790 002e 13       		.uleb128 0x13
 1791 002f 38       		.uleb128 0x38
 1792 0030 0A       		.uleb128 0xa
 1793 0031 00       		.byte	0
 1794 0032 00       		.byte	0
 1795 0033 04       		.uleb128 0x4
 1796 0034 0D       		.uleb128 0xd
 1797 0035 00       		.byte	0
 1798 0036 03       		.uleb128 0x3
 1799 0037 08       		.uleb128 0x8
 1800 0038 3A       		.uleb128 0x3a
 1801 0039 0B       		.uleb128 0xb
 1802 003a 3B       		.uleb128 0x3b
 1803 003b 0B       		.uleb128 0xb
 1804 003c 49       		.uleb128 0x49
 1805 003d 13       		.uleb128 0x13
 1806 003e 38       		.uleb128 0x38
 1807 003f 0A       		.uleb128 0xa
 1808 0040 00       		.byte	0
 1809 0041 00       		.byte	0
 1810 0042 05       		.uleb128 0x5
 1811 0043 24       		.uleb128 0x24
 1812 0044 00       		.byte	0
ARM GAS  /tmp/cc9k88qc.s 			page 48


 1813 0045 0B       		.uleb128 0xb
 1814 0046 0B       		.uleb128 0xb
 1815 0047 3E       		.uleb128 0x3e
 1816 0048 0B       		.uleb128 0xb
 1817 0049 03       		.uleb128 0x3
 1818 004a 08       		.uleb128 0x8
 1819 004b 00       		.byte	0
 1820 004c 00       		.byte	0
 1821 004d 06       		.uleb128 0x6
 1822 004e 24       		.uleb128 0x24
 1823 004f 00       		.byte	0
 1824 0050 0B       		.uleb128 0xb
 1825 0051 0B       		.uleb128 0xb
 1826 0052 3E       		.uleb128 0x3e
 1827 0053 0B       		.uleb128 0xb
 1828 0054 03       		.uleb128 0x3
 1829 0055 0E       		.uleb128 0xe
 1830 0056 00       		.byte	0
 1831 0057 00       		.byte	0
 1832 0058 07       		.uleb128 0x7
 1833 0059 16       		.uleb128 0x16
 1834 005a 00       		.byte	0
 1835 005b 03       		.uleb128 0x3
 1836 005c 0E       		.uleb128 0xe
 1837 005d 3A       		.uleb128 0x3a
 1838 005e 0B       		.uleb128 0xb
 1839 005f 3B       		.uleb128 0x3b
 1840 0060 0B       		.uleb128 0xb
 1841 0061 49       		.uleb128 0x49
 1842 0062 13       		.uleb128 0x13
 1843 0063 00       		.byte	0
 1844 0064 00       		.byte	0
 1845 0065 08       		.uleb128 0x8
 1846 0066 35       		.uleb128 0x35
 1847 0067 00       		.byte	0
 1848 0068 49       		.uleb128 0x49
 1849 0069 13       		.uleb128 0x13
 1850 006a 00       		.byte	0
 1851 006b 00       		.byte	0
 1852 006c 09       		.uleb128 0x9
 1853 006d 13       		.uleb128 0x13
 1854 006e 01       		.byte	0x1
 1855 006f 0B       		.uleb128 0xb
 1856 0070 0B       		.uleb128 0xb
 1857 0071 3A       		.uleb128 0x3a
 1858 0072 0B       		.uleb128 0xb
 1859 0073 3B       		.uleb128 0x3b
 1860 0074 05       		.uleb128 0x5
 1861 0075 01       		.uleb128 0x1
 1862 0076 13       		.uleb128 0x13
 1863 0077 00       		.byte	0
 1864 0078 00       		.byte	0
 1865 0079 0A       		.uleb128 0xa
 1866 007a 0D       		.uleb128 0xd
 1867 007b 00       		.byte	0
 1868 007c 03       		.uleb128 0x3
 1869 007d 0E       		.uleb128 0xe
ARM GAS  /tmp/cc9k88qc.s 			page 49


 1870 007e 3A       		.uleb128 0x3a
 1871 007f 0B       		.uleb128 0xb
 1872 0080 3B       		.uleb128 0x3b
 1873 0081 05       		.uleb128 0x5
 1874 0082 49       		.uleb128 0x49
 1875 0083 13       		.uleb128 0x13
 1876 0084 38       		.uleb128 0x38
 1877 0085 0A       		.uleb128 0xa
 1878 0086 00       		.byte	0
 1879 0087 00       		.byte	0
 1880 0088 0B       		.uleb128 0xb
 1881 0089 0D       		.uleb128 0xd
 1882 008a 00       		.byte	0
 1883 008b 03       		.uleb128 0x3
 1884 008c 08       		.uleb128 0x8
 1885 008d 3A       		.uleb128 0x3a
 1886 008e 0B       		.uleb128 0xb
 1887 008f 3B       		.uleb128 0x3b
 1888 0090 05       		.uleb128 0x5
 1889 0091 49       		.uleb128 0x49
 1890 0092 13       		.uleb128 0x13
 1891 0093 38       		.uleb128 0x38
 1892 0094 0A       		.uleb128 0xa
 1893 0095 00       		.byte	0
 1894 0096 00       		.byte	0
 1895 0097 0C       		.uleb128 0xc
 1896 0098 26       		.uleb128 0x26
 1897 0099 00       		.byte	0
 1898 009a 49       		.uleb128 0x49
 1899 009b 13       		.uleb128 0x13
 1900 009c 00       		.byte	0
 1901 009d 00       		.byte	0
 1902 009e 0D       		.uleb128 0xd
 1903 009f 01       		.uleb128 0x1
 1904 00a0 01       		.byte	0x1
 1905 00a1 49       		.uleb128 0x49
 1906 00a2 13       		.uleb128 0x13
 1907 00a3 01       		.uleb128 0x1
 1908 00a4 13       		.uleb128 0x13
 1909 00a5 00       		.byte	0
 1910 00a6 00       		.byte	0
 1911 00a7 0E       		.uleb128 0xe
 1912 00a8 21       		.uleb128 0x21
 1913 00a9 00       		.byte	0
 1914 00aa 49       		.uleb128 0x49
 1915 00ab 13       		.uleb128 0x13
 1916 00ac 2F       		.uleb128 0x2f
 1917 00ad 0B       		.uleb128 0xb
 1918 00ae 00       		.byte	0
 1919 00af 00       		.byte	0
 1920 00b0 0F       		.uleb128 0xf
 1921 00b1 16       		.uleb128 0x16
 1922 00b2 00       		.byte	0
 1923 00b3 03       		.uleb128 0x3
 1924 00b4 0E       		.uleb128 0xe
 1925 00b5 3A       		.uleb128 0x3a
 1926 00b6 0B       		.uleb128 0xb
ARM GAS  /tmp/cc9k88qc.s 			page 50


 1927 00b7 3B       		.uleb128 0x3b
 1928 00b8 05       		.uleb128 0x5
 1929 00b9 49       		.uleb128 0x49
 1930 00ba 13       		.uleb128 0x13
 1931 00bb 00       		.byte	0
 1932 00bc 00       		.byte	0
 1933 00bd 10       		.uleb128 0x10
 1934 00be 0F       		.uleb128 0xf
 1935 00bf 00       		.byte	0
 1936 00c0 0B       		.uleb128 0xb
 1937 00c1 0B       		.uleb128 0xb
 1938 00c2 00       		.byte	0
 1939 00c3 00       		.byte	0
 1940 00c4 11       		.uleb128 0x11
 1941 00c5 0F       		.uleb128 0xf
 1942 00c6 00       		.byte	0
 1943 00c7 0B       		.uleb128 0xb
 1944 00c8 0B       		.uleb128 0xb
 1945 00c9 49       		.uleb128 0x49
 1946 00ca 13       		.uleb128 0x13
 1947 00cb 00       		.byte	0
 1948 00cc 00       		.byte	0
 1949 00cd 12       		.uleb128 0x12
 1950 00ce 13       		.uleb128 0x13
 1951 00cf 01       		.byte	0x1
 1952 00d0 0B       		.uleb128 0xb
 1953 00d1 0B       		.uleb128 0xb
 1954 00d2 3A       		.uleb128 0x3a
 1955 00d3 0B       		.uleb128 0xb
 1956 00d4 3B       		.uleb128 0x3b
 1957 00d5 0B       		.uleb128 0xb
 1958 00d6 01       		.uleb128 0x1
 1959 00d7 13       		.uleb128 0x13
 1960 00d8 00       		.byte	0
 1961 00d9 00       		.byte	0
 1962 00da 13       		.uleb128 0x13
 1963 00db 17       		.uleb128 0x17
 1964 00dc 01       		.byte	0x1
 1965 00dd 0B       		.uleb128 0xb
 1966 00de 0B       		.uleb128 0xb
 1967 00df 3A       		.uleb128 0x3a
 1968 00e0 0B       		.uleb128 0xb
 1969 00e1 3B       		.uleb128 0x3b
 1970 00e2 0B       		.uleb128 0xb
 1971 00e3 01       		.uleb128 0x1
 1972 00e4 13       		.uleb128 0x13
 1973 00e5 00       		.byte	0
 1974 00e6 00       		.byte	0
 1975 00e7 14       		.uleb128 0x14
 1976 00e8 0D       		.uleb128 0xd
 1977 00e9 00       		.byte	0
 1978 00ea 03       		.uleb128 0x3
 1979 00eb 0E       		.uleb128 0xe
 1980 00ec 3A       		.uleb128 0x3a
 1981 00ed 0B       		.uleb128 0xb
 1982 00ee 3B       		.uleb128 0x3b
 1983 00ef 0B       		.uleb128 0xb
ARM GAS  /tmp/cc9k88qc.s 			page 51


 1984 00f0 49       		.uleb128 0x49
 1985 00f1 13       		.uleb128 0x13
 1986 00f2 00       		.byte	0
 1987 00f3 00       		.byte	0
 1988 00f4 15       		.uleb128 0x15
 1989 00f5 15       		.uleb128 0x15
 1990 00f6 01       		.byte	0x1
 1991 00f7 27       		.uleb128 0x27
 1992 00f8 0C       		.uleb128 0xc
 1993 00f9 01       		.uleb128 0x1
 1994 00fa 13       		.uleb128 0x13
 1995 00fb 00       		.byte	0
 1996 00fc 00       		.byte	0
 1997 00fd 16       		.uleb128 0x16
 1998 00fe 05       		.uleb128 0x5
 1999 00ff 00       		.byte	0
 2000 0100 49       		.uleb128 0x49
 2001 0101 13       		.uleb128 0x13
 2002 0102 00       		.byte	0
 2003 0103 00       		.byte	0
 2004 0104 17       		.uleb128 0x17
 2005 0105 13       		.uleb128 0x13
 2006 0106 01       		.byte	0x1
 2007 0107 03       		.uleb128 0x3
 2008 0108 0E       		.uleb128 0xe
 2009 0109 0B       		.uleb128 0xb
 2010 010a 0B       		.uleb128 0xb
 2011 010b 3A       		.uleb128 0x3a
 2012 010c 0B       		.uleb128 0xb
 2013 010d 3B       		.uleb128 0x3b
 2014 010e 05       		.uleb128 0x5
 2015 010f 01       		.uleb128 0x1
 2016 0110 13       		.uleb128 0x13
 2017 0111 00       		.byte	0
 2018 0112 00       		.byte	0
 2019 0113 18       		.uleb128 0x18
 2020 0114 2E       		.uleb128 0x2e
 2021 0115 01       		.byte	0x1
 2022 0116 03       		.uleb128 0x3
 2023 0117 0E       		.uleb128 0xe
 2024 0118 3A       		.uleb128 0x3a
 2025 0119 0B       		.uleb128 0xb
 2026 011a 3B       		.uleb128 0x3b
 2027 011b 05       		.uleb128 0x5
 2028 011c 27       		.uleb128 0x27
 2029 011d 0C       		.uleb128 0xc
 2030 011e 20       		.uleb128 0x20
 2031 011f 0B       		.uleb128 0xb
 2032 0120 01       		.uleb128 0x1
 2033 0121 13       		.uleb128 0x13
 2034 0122 00       		.byte	0
 2035 0123 00       		.byte	0
 2036 0124 19       		.uleb128 0x19
 2037 0125 05       		.uleb128 0x5
 2038 0126 00       		.byte	0
 2039 0127 03       		.uleb128 0x3
 2040 0128 0E       		.uleb128 0xe
ARM GAS  /tmp/cc9k88qc.s 			page 52


 2041 0129 3A       		.uleb128 0x3a
 2042 012a 0B       		.uleb128 0xb
 2043 012b 3B       		.uleb128 0x3b
 2044 012c 05       		.uleb128 0x5
 2045 012d 49       		.uleb128 0x49
 2046 012e 13       		.uleb128 0x13
 2047 012f 00       		.byte	0
 2048 0130 00       		.byte	0
 2049 0131 1A       		.uleb128 0x1a
 2050 0132 2E       		.uleb128 0x2e
 2051 0133 00       		.byte	0
 2052 0134 03       		.uleb128 0x3
 2053 0135 0E       		.uleb128 0xe
 2054 0136 3A       		.uleb128 0x3a
 2055 0137 0B       		.uleb128 0xb
 2056 0138 3B       		.uleb128 0x3b
 2057 0139 05       		.uleb128 0x5
 2058 013a 27       		.uleb128 0x27
 2059 013b 0C       		.uleb128 0xc
 2060 013c 20       		.uleb128 0x20
 2061 013d 0B       		.uleb128 0xb
 2062 013e 00       		.byte	0
 2063 013f 00       		.byte	0
 2064 0140 1B       		.uleb128 0x1b
 2065 0141 2E       		.uleb128 0x2e
 2066 0142 01       		.byte	0x1
 2067 0143 03       		.uleb128 0x3
 2068 0144 0E       		.uleb128 0xe
 2069 0145 3A       		.uleb128 0x3a
 2070 0146 0B       		.uleb128 0xb
 2071 0147 3B       		.uleb128 0x3b
 2072 0148 05       		.uleb128 0x5
 2073 0149 27       		.uleb128 0x27
 2074 014a 0C       		.uleb128 0xc
 2075 014b 49       		.uleb128 0x49
 2076 014c 13       		.uleb128 0x13
 2077 014d 20       		.uleb128 0x20
 2078 014e 0B       		.uleb128 0xb
 2079 014f 01       		.uleb128 0x1
 2080 0150 13       		.uleb128 0x13
 2081 0151 00       		.byte	0
 2082 0152 00       		.byte	0
 2083 0153 1C       		.uleb128 0x1c
 2084 0154 34       		.uleb128 0x34
 2085 0155 00       		.byte	0
 2086 0156 03       		.uleb128 0x3
 2087 0157 0E       		.uleb128 0xe
 2088 0158 3A       		.uleb128 0x3a
 2089 0159 0B       		.uleb128 0xb
 2090 015a 3B       		.uleb128 0x3b
 2091 015b 05       		.uleb128 0x5
 2092 015c 49       		.uleb128 0x49
 2093 015d 13       		.uleb128 0x13
 2094 015e 00       		.byte	0
 2095 015f 00       		.byte	0
 2096 0160 1D       		.uleb128 0x1d
 2097 0161 2E       		.uleb128 0x2e
ARM GAS  /tmp/cc9k88qc.s 			page 53


 2098 0162 01       		.byte	0x1
 2099 0163 3F       		.uleb128 0x3f
 2100 0164 0C       		.uleb128 0xc
 2101 0165 03       		.uleb128 0x3
 2102 0166 0E       		.uleb128 0xe
 2103 0167 3A       		.uleb128 0x3a
 2104 0168 0B       		.uleb128 0xb
 2105 0169 3B       		.uleb128 0x3b
 2106 016a 0B       		.uleb128 0xb
 2107 016b 27       		.uleb128 0x27
 2108 016c 0C       		.uleb128 0xc
 2109 016d 20       		.uleb128 0x20
 2110 016e 0B       		.uleb128 0xb
 2111 016f 01       		.uleb128 0x1
 2112 0170 13       		.uleb128 0x13
 2113 0171 00       		.byte	0
 2114 0172 00       		.byte	0
 2115 0173 1E       		.uleb128 0x1e
 2116 0174 0B       		.uleb128 0xb
 2117 0175 01       		.byte	0x1
 2118 0176 00       		.byte	0
 2119 0177 00       		.byte	0
 2120 0178 1F       		.uleb128 0x1f
 2121 0179 34       		.uleb128 0x34
 2122 017a 00       		.byte	0
 2123 017b 03       		.uleb128 0x3
 2124 017c 0E       		.uleb128 0xe
 2125 017d 3A       		.uleb128 0x3a
 2126 017e 0B       		.uleb128 0xb
 2127 017f 3B       		.uleb128 0x3b
 2128 0180 0B       		.uleb128 0xb
 2129 0181 49       		.uleb128 0x49
 2130 0182 13       		.uleb128 0x13
 2131 0183 00       		.byte	0
 2132 0184 00       		.byte	0
 2133 0185 20       		.uleb128 0x20
 2134 0186 2E       		.uleb128 0x2e
 2135 0187 01       		.byte	0x1
 2136 0188 3F       		.uleb128 0x3f
 2137 0189 0C       		.uleb128 0xc
 2138 018a 03       		.uleb128 0x3
 2139 018b 0E       		.uleb128 0xe
 2140 018c 3A       		.uleb128 0x3a
 2141 018d 0B       		.uleb128 0xb
 2142 018e 3B       		.uleb128 0x3b
 2143 018f 0B       		.uleb128 0xb
 2144 0190 27       		.uleb128 0x27
 2145 0191 0C       		.uleb128 0xc
 2146 0192 11       		.uleb128 0x11
 2147 0193 01       		.uleb128 0x1
 2148 0194 12       		.uleb128 0x12
 2149 0195 01       		.uleb128 0x1
 2150 0196 40       		.uleb128 0x40
 2151 0197 0A       		.uleb128 0xa
 2152 0198 9742     		.uleb128 0x2117
 2153 019a 0C       		.uleb128 0xc
 2154 019b 01       		.uleb128 0x1
ARM GAS  /tmp/cc9k88qc.s 			page 54


 2155 019c 13       		.uleb128 0x13
 2156 019d 00       		.byte	0
 2157 019e 00       		.byte	0
 2158 019f 21       		.uleb128 0x21
 2159 01a0 34       		.uleb128 0x34
 2160 01a1 00       		.byte	0
 2161 01a2 03       		.uleb128 0x3
 2162 01a3 0E       		.uleb128 0xe
 2163 01a4 3A       		.uleb128 0x3a
 2164 01a5 0B       		.uleb128 0xb
 2165 01a6 3B       		.uleb128 0x3b
 2166 01a7 0B       		.uleb128 0xb
 2167 01a8 49       		.uleb128 0x49
 2168 01a9 13       		.uleb128 0x13
 2169 01aa 02       		.uleb128 0x2
 2170 01ab 06       		.uleb128 0x6
 2171 01ac 00       		.byte	0
 2172 01ad 00       		.byte	0
 2173 01ae 22       		.uleb128 0x22
 2174 01af 1D       		.uleb128 0x1d
 2175 01b0 01       		.byte	0x1
 2176 01b1 31       		.uleb128 0x31
 2177 01b2 13       		.uleb128 0x13
 2178 01b3 11       		.uleb128 0x11
 2179 01b4 01       		.uleb128 0x1
 2180 01b5 12       		.uleb128 0x12
 2181 01b6 01       		.uleb128 0x1
 2182 01b7 58       		.uleb128 0x58
 2183 01b8 0B       		.uleb128 0xb
 2184 01b9 59       		.uleb128 0x59
 2185 01ba 0B       		.uleb128 0xb
 2186 01bb 01       		.uleb128 0x1
 2187 01bc 13       		.uleb128 0x13
 2188 01bd 00       		.byte	0
 2189 01be 00       		.byte	0
 2190 01bf 23       		.uleb128 0x23
 2191 01c0 0B       		.uleb128 0xb
 2192 01c1 01       		.byte	0x1
 2193 01c2 11       		.uleb128 0x11
 2194 01c3 01       		.uleb128 0x1
 2195 01c4 12       		.uleb128 0x12
 2196 01c5 01       		.uleb128 0x1
 2197 01c6 00       		.byte	0
 2198 01c7 00       		.byte	0
 2199 01c8 24       		.uleb128 0x24
 2200 01c9 34       		.uleb128 0x34
 2201 01ca 00       		.byte	0
 2202 01cb 31       		.uleb128 0x31
 2203 01cc 13       		.uleb128 0x13
 2204 01cd 02       		.uleb128 0x2
 2205 01ce 06       		.uleb128 0x6
 2206 01cf 00       		.byte	0
 2207 01d0 00       		.byte	0
 2208 01d1 25       		.uleb128 0x25
 2209 01d2 05       		.uleb128 0x5
 2210 01d3 00       		.byte	0
 2211 01d4 31       		.uleb128 0x31
ARM GAS  /tmp/cc9k88qc.s 			page 55


 2212 01d5 13       		.uleb128 0x13
 2213 01d6 02       		.uleb128 0x2
 2214 01d7 06       		.uleb128 0x6
 2215 01d8 00       		.byte	0
 2216 01d9 00       		.byte	0
 2217 01da 26       		.uleb128 0x26
 2218 01db 1D       		.uleb128 0x1d
 2219 01dc 01       		.byte	0x1
 2220 01dd 31       		.uleb128 0x31
 2221 01de 13       		.uleb128 0x13
 2222 01df 11       		.uleb128 0x11
 2223 01e0 01       		.uleb128 0x1
 2224 01e1 12       		.uleb128 0x12
 2225 01e2 01       		.uleb128 0x1
 2226 01e3 58       		.uleb128 0x58
 2227 01e4 0B       		.uleb128 0xb
 2228 01e5 59       		.uleb128 0x59
 2229 01e6 0B       		.uleb128 0xb
 2230 01e7 00       		.byte	0
 2231 01e8 00       		.byte	0
 2232 01e9 27       		.uleb128 0x27
 2233 01ea 1D       		.uleb128 0x1d
 2234 01eb 01       		.byte	0x1
 2235 01ec 31       		.uleb128 0x31
 2236 01ed 13       		.uleb128 0x13
 2237 01ee 11       		.uleb128 0x11
 2238 01ef 01       		.uleb128 0x1
 2239 01f0 12       		.uleb128 0x12
 2240 01f1 01       		.uleb128 0x1
 2241 01f2 58       		.uleb128 0x58
 2242 01f3 0B       		.uleb128 0xb
 2243 01f4 59       		.uleb128 0x59
 2244 01f5 05       		.uleb128 0x5
 2245 01f6 00       		.byte	0
 2246 01f7 00       		.byte	0
 2247 01f8 28       		.uleb128 0x28
 2248 01f9 05       		.uleb128 0x5
 2249 01fa 00       		.byte	0
 2250 01fb 31       		.uleb128 0x31
 2251 01fc 13       		.uleb128 0x13
 2252 01fd 1C       		.uleb128 0x1c
 2253 01fe 0B       		.uleb128 0xb
 2254 01ff 00       		.byte	0
 2255 0200 00       		.byte	0
 2256 0201 29       		.uleb128 0x29
 2257 0202 2E       		.uleb128 0x2e
 2258 0203 01       		.byte	0x1
 2259 0204 31       		.uleb128 0x31
 2260 0205 13       		.uleb128 0x13
 2261 0206 11       		.uleb128 0x11
 2262 0207 01       		.uleb128 0x1
 2263 0208 12       		.uleb128 0x12
 2264 0209 01       		.uleb128 0x1
 2265 020a 40       		.uleb128 0x40
 2266 020b 06       		.uleb128 0x6
 2267 020c 9742     		.uleb128 0x2117
 2268 020e 0C       		.uleb128 0xc
ARM GAS  /tmp/cc9k88qc.s 			page 56


 2269 020f 01       		.uleb128 0x1
 2270 0210 13       		.uleb128 0x13
 2271 0211 00       		.byte	0
 2272 0212 00       		.byte	0
 2273 0213 2A       		.uleb128 0x2a
 2274 0214 34       		.uleb128 0x34
 2275 0215 00       		.byte	0
 2276 0216 31       		.uleb128 0x31
 2277 0217 13       		.uleb128 0x13
 2278 0218 02       		.uleb128 0x2
 2279 0219 0A       		.uleb128 0xa
 2280 021a 00       		.byte	0
 2281 021b 00       		.byte	0
 2282 021c 2B       		.uleb128 0x2b
 2283 021d 898201   		.uleb128 0x4109
 2284 0220 00       		.byte	0
 2285 0221 11       		.uleb128 0x11
 2286 0222 01       		.uleb128 0x1
 2287 0223 31       		.uleb128 0x31
 2288 0224 13       		.uleb128 0x13
 2289 0225 00       		.byte	0
 2290 0226 00       		.byte	0
 2291 0227 2C       		.uleb128 0x2c
 2292 0228 34       		.uleb128 0x34
 2293 0229 00       		.byte	0
 2294 022a 03       		.uleb128 0x3
 2295 022b 0E       		.uleb128 0xe
 2296 022c 3A       		.uleb128 0x3a
 2297 022d 0B       		.uleb128 0xb
 2298 022e 3B       		.uleb128 0x3b
 2299 022f 05       		.uleb128 0x5
 2300 0230 49       		.uleb128 0x49
 2301 0231 13       		.uleb128 0x13
 2302 0232 3F       		.uleb128 0x3f
 2303 0233 0C       		.uleb128 0xc
 2304 0234 3C       		.uleb128 0x3c
 2305 0235 0C       		.uleb128 0xc
 2306 0236 00       		.byte	0
 2307 0237 00       		.byte	0
 2308 0238 2D       		.uleb128 0x2d
 2309 0239 34       		.uleb128 0x34
 2310 023a 00       		.byte	0
 2311 023b 03       		.uleb128 0x3
 2312 023c 08       		.uleb128 0x8
 2313 023d 3A       		.uleb128 0x3a
 2314 023e 0B       		.uleb128 0xb
 2315 023f 3B       		.uleb128 0x3b
 2316 0240 05       		.uleb128 0x5
 2317 0241 49       		.uleb128 0x49
 2318 0242 13       		.uleb128 0x13
 2319 0243 3F       		.uleb128 0x3f
 2320 0244 0C       		.uleb128 0xc
 2321 0245 3C       		.uleb128 0x3c
 2322 0246 0C       		.uleb128 0xc
 2323 0247 00       		.byte	0
 2324 0248 00       		.byte	0
 2325 0249 2E       		.uleb128 0x2e
ARM GAS  /tmp/cc9k88qc.s 			page 57


 2326 024a 2E       		.uleb128 0x2e
 2327 024b 00       		.byte	0
 2328 024c 3F       		.uleb128 0x3f
 2329 024d 0C       		.uleb128 0xc
 2330 024e 03       		.uleb128 0x3
 2331 024f 0E       		.uleb128 0xe
 2332 0250 3A       		.uleb128 0x3a
 2333 0251 0B       		.uleb128 0xb
 2334 0252 3B       		.uleb128 0x3b
 2335 0253 05       		.uleb128 0x5
 2336 0254 27       		.uleb128 0x27
 2337 0255 0C       		.uleb128 0xc
 2338 0256 49       		.uleb128 0x49
 2339 0257 13       		.uleb128 0x13
 2340 0258 3C       		.uleb128 0x3c
 2341 0259 0C       		.uleb128 0xc
 2342 025a 00       		.byte	0
 2343 025b 00       		.byte	0
 2344 025c 00       		.byte	0
 2345              		.section	.debug_loc,"",%progbits
 2346              	.Ldebug_loc0:
 2347              	.LLST0:
 2348 0000 04000000 		.4byte	.LVL0
 2349 0004 06000000 		.4byte	.LVL1
 2350 0008 0300     		.2byte	0x3
 2351 000a 73       		.byte	0x73
 2352 000b 20       		.sleb128 32
 2353 000c 9F       		.byte	0x9f
 2354 000d 06000000 		.4byte	.LVL1
 2355 0011 12000000 		.4byte	.LFE165
 2356 0015 0100     		.2byte	0x1
 2357 0017 53       		.byte	0x53
 2358 0018 00000000 		.4byte	0
 2359 001c 00000000 		.4byte	0
 2360              	.LLST1:
 2361 0020 04000000 		.4byte	.LVL0
 2362 0024 06000000 		.4byte	.LVL1
 2363 0028 0100     		.2byte	0x1
 2364 002a 53       		.byte	0x53
 2365 002b 06000000 		.4byte	.LVL1
 2366 002f 12000000 		.4byte	.LFE165
 2367 0033 0300     		.2byte	0x3
 2368 0035 73       		.byte	0x73
 2369 0036 60       		.sleb128 -32
 2370 0037 9F       		.byte	0x9f
 2371 0038 00000000 		.4byte	0
 2372 003c 00000000 		.4byte	0
 2373              	.LLST3:
 2374 0040 00000000 		.4byte	.LFB166
 2375 0044 02000000 		.4byte	.LCFI0
 2376 0048 0200     		.2byte	0x2
 2377 004a 7D       		.byte	0x7d
 2378 004b 00       		.sleb128 0
 2379 004c 02000000 		.4byte	.LCFI0
 2380 0050 50000000 		.4byte	.LFE166
 2381 0054 0200     		.2byte	0x2
 2382 0056 7D       		.byte	0x7d
ARM GAS  /tmp/cc9k88qc.s 			page 58


 2383 0057 08       		.sleb128 8
 2384 0058 00000000 		.4byte	0
 2385 005c 00000000 		.4byte	0
 2386              	.LLST4:
 2387 0060 18000000 		.4byte	.LVL4
 2388 0064 1E000000 		.4byte	.LVL5
 2389 0068 0200     		.2byte	0x2
 2390 006a 30       		.byte	0x30
 2391 006b 9F       		.byte	0x9f
 2392 006c 00000000 		.4byte	0
 2393 0070 00000000 		.4byte	0
 2394              	.LLST5:
 2395 0074 22000000 		.4byte	.LVL6
 2396 0078 26000000 		.4byte	.LVL7
 2397 007c 0300     		.2byte	0x3
 2398 007e 74       		.byte	0x74
 2399 007f 60       		.sleb128 -32
 2400 0080 9F       		.byte	0x9f
 2401 0081 26000000 		.4byte	.LVL7
 2402 0085 35000000 		.4byte	.LVL8-1
 2403 0089 0100     		.2byte	0x1
 2404 008b 53       		.byte	0x53
 2405 008c 35000000 		.4byte	.LVL8-1
 2406 0090 50000000 		.4byte	.LFE166
 2407 0094 0300     		.2byte	0x3
 2408 0096 74       		.byte	0x74
 2409 0097 60       		.sleb128 -32
 2410 0098 9F       		.byte	0x9f
 2411 0099 00000000 		.4byte	0
 2412 009d 00000000 		.4byte	0
 2413              		.section	.debug_aranges,"",%progbits
 2414 0000 24000000 		.4byte	0x24
 2415 0004 0200     		.2byte	0x2
 2416 0006 00000000 		.4byte	.Ldebug_info0
 2417 000a 04       		.byte	0x4
 2418 000b 00       		.byte	0
 2419 000c 0000     		.2byte	0
 2420 000e 0000     		.2byte	0
 2421 0010 00000000 		.4byte	.LFB165
 2422 0014 12000000 		.4byte	.LFE165-.LFB165
 2423 0018 00000000 		.4byte	.LFB166
 2424 001c 50000000 		.4byte	.LFE166-.LFB166
 2425 0020 00000000 		.4byte	0
 2426 0024 00000000 		.4byte	0
 2427              		.section	.debug_ranges,"",%progbits
 2428              	.Ldebug_ranges0:
 2429 0000 00000000 		.4byte	.LFB165
 2430 0004 12000000 		.4byte	.LFE165
 2431 0008 00000000 		.4byte	.LFB166
 2432 000c 50000000 		.4byte	.LFE166
 2433 0010 00000000 		.4byte	0
 2434 0014 00000000 		.4byte	0
 2435              		.section	.debug_line,"",%progbits
 2436              	.Ldebug_line0:
 2437 0000 DC010000 		.section	.debug_str,"MS",%progbits,1
 2437      02007401 
 2437      00000201 
ARM GAS  /tmp/cc9k88qc.s 			page 59


 2437      FB0E0D00 
 2437      01010101 
 2438              	.LASF70:
 2439 0000 72656164 		.ascii	"ready_list_t\000"
 2439      795F6C69 
 2439      73745F74 
 2439      00
 2440              	.LASF71:
 2441 000d 7264796D 		.ascii	"rdymsg\000"
 2441      736700
 2442              	.LASF58:
 2443 0014 706F7274 		.ascii	"port_intctx\000"
 2443      5F696E74 
 2443      63747800 
 2444              	.LASF92:
 2445 0020 76746C69 		.ascii	"vtlist\000"
 2445      737400
 2446              	.LASF96:
 2447 0027 706F7274 		.ascii	"port_lock\000"
 2447      5F6C6F63 
 2447      6B00
 2448              	.LASF29:
 2449 0031 6C6F6E67 		.ascii	"long long unsigned int\000"
 2449      206C6F6E 
 2449      6720756E 
 2449      7369676E 
 2449      65642069 
 2450              	.LASF72:
 2451 0048 65786974 		.ascii	"exitcode\000"
 2451      636F6465 
 2451      00
 2452              	.LASF89:
 2453 0051 76697274 		.ascii	"virtual_timers_list_t\000"
 2453      75616C5F 
 2453      74696D65 
 2453      72735F6C 
 2453      6973745F 
 2454              	.LASF38:
 2455 0067 43505549 		.ascii	"CPUID\000"
 2455      4400
 2456              	.LASF2:
 2457 006d 705F7072 		.ascii	"p_prio\000"
 2457      696F00
 2458              	.LASF50:
 2459 0074 49534152 		.ascii	"ISAR\000"
 2459      00
 2460              	.LASF28:
 2461 0079 6C6F6E67 		.ascii	"long long int\000"
 2461      206C6F6E 
 2461      6720696E 
 2461      7400
 2462              	.LASF18:
 2463 0087 7369676E 		.ascii	"signed char\000"
 2463      65642063 
 2463      68617200 
 2464              	.LASF16:
 2465 0093 705F6D70 		.ascii	"p_mpool\000"
ARM GAS  /tmp/cc9k88qc.s 			page 60


 2465      6F6F6C00 
 2466              	.LASF77:
 2467 009b 6D5F7175 		.ascii	"m_queue\000"
 2467      65756500 
 2468              	.LASF97:
 2469 00a3 706F7274 		.ascii	"port_unlock\000"
 2469      5F756E6C 
 2469      6F636B00 
 2470              	.LASF108:
 2471 00af 474E5520 		.ascii	"GNU C 4.7.4 20130913 (release) [ARM/embedded-4_7-br"
 2471      4320342E 
 2471      372E3420 
 2471      32303133 
 2471      30393133 
 2472 00e2 616E6368 		.ascii	"anch revision 202601]\000"
 2472      20726576 
 2472      6973696F 
 2472      6E203230 
 2472      32363031 
 2473              	.LASF90:
 2474 00f8 63685F73 		.ascii	"ch_system\000"
 2474      79737465 
 2474      6D00
 2475              	.LASF25:
 2476 0102 6C6F6E67 		.ascii	"long int\000"
 2476      20696E74 
 2476      00
 2477              	.LASF32:
 2478 010b 74737461 		.ascii	"tstate_t\000"
 2478      74655F74 
 2478      00
 2479              	.LASF109:
 2480 0114 2E2E2F2E 		.ascii	"../../../os/rt/ports/ARMCMx/chcore_v7m.c\000"
 2480      2E2F2E2E 
 2480      2F6F732F 
 2480      72742F70 
 2480      6F727473 
 2481              	.LASF56:
 2482 013d 74687265 		.ascii	"thread\000"
 2482      616400
 2483              	.LASF22:
 2484 0144 75696E74 		.ascii	"uint16_t\000"
 2484      31365F74 
 2484      00
 2485              	.LASF114:
 2486 014d 63685363 		.ascii	"chSchIsPreemptionRequired\000"
 2486      68497350 
 2486      7265656D 
 2486      7074696F 
 2486      6E526571 
 2487              	.LASF4:
 2488 0167 705F6E65 		.ascii	"p_newer\000"
 2488      77657200 
 2489              	.LASF47:
 2490 016f 42464152 		.ascii	"BFAR\000"
 2490      00
 2491              	.LASF48:
ARM GAS  /tmp/cc9k88qc.s 			page 61


 2492 0174 41465352 		.ascii	"AFSR\000"
 2492      00
 2493              	.LASF67:
 2494 0179 725F6E65 		.ascii	"r_newer\000"
 2494      77657200 
 2495              	.LASF55:
 2496 0181 72656761 		.ascii	"regarm_t\000"
 2496      726D5F74 
 2496      00
 2497              	.LASF84:
 2498 018a 76745F70 		.ascii	"vt_prev\000"
 2498      72657600 
 2499              	.LASF53:
 2500 0192 5343425F 		.ascii	"SCB_Type\000"
 2500      54797065 
 2500      00
 2501              	.LASF95:
 2502 019b 6D757465 		.ascii	"mutex_t\000"
 2502      785F7400 
 2503              	.LASF100:
 2504 01a3 76616C75 		.ascii	"value\000"
 2504      6500
 2505              	.LASF17:
 2506 01a9 756E7369 		.ascii	"unsigned int\000"
 2506      676E6564 
 2506      20696E74 
 2506      00
 2507              	.LASF99:
 2508 01b6 5F5F7365 		.ascii	"__set_PSP\000"
 2508      745F5053 
 2508      5000
 2509              	.LASF83:
 2510 01c0 76745F6E 		.ascii	"vt_next\000"
 2510      65787400 
 2511              	.LASF11:
 2512 01c8 705F6D73 		.ascii	"p_msgqueue\000"
 2512      67717565 
 2512      756500
 2513              	.LASF40:
 2514 01d3 56544F52 		.ascii	"VTOR\000"
 2514      00
 2515              	.LASF39:
 2516 01d8 49435352 		.ascii	"ICSR\000"
 2516      00
 2517              	.LASF35:
 2518 01dd 6D73675F 		.ascii	"msg_t\000"
 2518      7400
 2519              	.LASF41:
 2520 01e3 41495243 		.ascii	"AIRCR\000"
 2520      5200
 2521              	.LASF45:
 2522 01e9 44465352 		.ascii	"DFSR\000"
 2522      00
 2523              	.LASF46:
 2524 01ee 4D4D4641 		.ascii	"MMFAR\000"
 2524      5200
 2525              	.LASF112:
ARM GAS  /tmp/cc9k88qc.s 			page 62


 2526 01f4 5F706F72 		.ascii	"_port_irq_epilogue\000"
 2526      745F6972 
 2526      715F6570 
 2526      696C6F67 
 2526      756500
 2527              	.LASF31:
 2528 0207 746D6F64 		.ascii	"tmode_t\000"
 2528      655F7400 
 2529              	.LASF36:
 2530 020f 6576656E 		.ascii	"eventmask_t\000"
 2530      746D6173 
 2530      6B5F7400 
 2531              	.LASF101:
 2532 021b 746F704F 		.ascii	"topOfProcStack\000"
 2532      6650726F 
 2532      63537461 
 2532      636B00
 2533              	.LASF63:
 2534 022a 74687265 		.ascii	"threads_list_t\000"
 2534      6164735F 
 2534      6C697374 
 2534      5F7400
 2535              	.LASF10:
 2536 0239 705F7761 		.ascii	"p_waiting\000"
 2536      6974696E 
 2536      6700
 2537              	.LASF37:
 2538 0243 73697A65 		.ascii	"sizetype\000"
 2538      74797065 
 2538      00
 2539              	.LASF43:
 2540 024c 43465352 		.ascii	"CFSR\000"
 2540      00
 2541              	.LASF88:
 2542 0251 76745F6C 		.ascii	"vt_lasttime\000"
 2542      61737474 
 2542      696D6500 
 2543              	.LASF5:
 2544 025d 705F6F6C 		.ascii	"p_older\000"
 2544      64657200 
 2545              	.LASF66:
 2546 0265 725F6374 		.ascii	"r_ctx\000"
 2546      7800
 2547              	.LASF59:
 2548 026b 706F7274 		.ascii	"port_extctx\000"
 2548      5F657874 
 2548      63747800 
 2549              	.LASF69:
 2550 0277 725F6375 		.ascii	"r_current\000"
 2550      7272656E 
 2550      7400
 2551              	.LASF68:
 2552 0281 725F6F6C 		.ascii	"r_older\000"
 2552      64657200 
 2553              	.LASF33:
 2554 0289 74726566 		.ascii	"trefs_t\000"
 2554      735F7400 
ARM GAS  /tmp/cc9k88qc.s 			page 63


 2555              	.LASF51:
 2556 0291 52455345 		.ascii	"RESERVED0\000"
 2556      52564544 
 2556      3000
 2557              	.LASF105:
 2558 029b 63747870 		.ascii	"ctxp\000"
 2558      00
 2559              	.LASF81:
 2560 02a0 76697274 		.ascii	"virtual_timer_t\000"
 2560      75616C5F 
 2560      74696D65 
 2560      725F7400 
 2561              	.LASF1:
 2562 02b0 705F7072 		.ascii	"p_prev\000"
 2562      657600
 2563              	.LASF34:
 2564 02b7 74707269 		.ascii	"tprio_t\000"
 2564      6F5F7400 
 2565              	.LASF76:
 2566 02bf 6D757465 		.ascii	"mutex\000"
 2566      7800
 2567              	.LASF107:
 2568 02c5 5F426F6F 		.ascii	"_Bool\000"
 2568      6C00
 2569              	.LASF24:
 2570 02cb 696E7433 		.ascii	"int32_t\000"
 2570      325F7400 
 2571              	.LASF19:
 2572 02d3 756E7369 		.ascii	"unsigned char\000"
 2572      676E6564 
 2572      20636861 
 2572      7200
 2573              	.LASF42:
 2574 02e1 53484353 		.ascii	"SHCSR\000"
 2574      5200
 2575              	.LASF106:
 2576 02e7 49544D5F 		.ascii	"ITM_RxBuffer\000"
 2576      52784275 
 2576      66666572 
 2576      00
 2577              	.LASF14:
 2578 02f4 705F6D74 		.ascii	"p_mtxlist\000"
 2578      786C6973 
 2578      7400
 2579              	.LASF20:
 2580 02fe 73686F72 		.ascii	"short int\000"
 2580      7420696E 
 2580      7400
 2581              	.LASF7:
 2582 0308 705F7374 		.ascii	"p_state\000"
 2582      61746500 
 2583              	.LASF61:
 2584 0310 78707372 		.ascii	"xpsr\000"
 2584      00
 2585              	.LASF65:
 2586 0315 725F7072 		.ascii	"r_prio\000"
 2586      696F00
ARM GAS  /tmp/cc9k88qc.s 			page 64


 2587              	.LASF74:
 2588 031c 65776D61 		.ascii	"ewmask\000"
 2588      736B00
 2589              	.LASF0:
 2590 0323 705F6E65 		.ascii	"p_next\000"
 2590      787400
 2591              	.LASF8:
 2592 032a 705F666C 		.ascii	"p_flags\000"
 2592      61677300 
 2593              	.LASF23:
 2594 0332 73686F72 		.ascii	"short unsigned int\000"
 2594      7420756E 
 2594      7369676E 
 2594      65642069 
 2594      6E7400
 2595              	.LASF60:
 2596 0345 6C725F74 		.ascii	"lr_thd\000"
 2596      686400
 2597              	.LASF113:
 2598 034c 5356435F 		.ascii	"SVC_Handler\000"
 2598      48616E64 
 2598      6C657200 
 2599              	.LASF13:
 2600 0358 705F6570 		.ascii	"p_epending\000"
 2600      656E6469 
 2600      6E6700
 2601              	.LASF26:
 2602 0363 75696E74 		.ascii	"uint32_t\000"
 2602      33325F74 
 2602      00
 2603              	.LASF64:
 2604 036c 725F7175 		.ascii	"r_queue\000"
 2604      65756500 
 2605              	.LASF85:
 2606 0374 76745F64 		.ascii	"vt_delta\000"
 2606      656C7461 
 2606      00
 2607              	.LASF27:
 2608 037d 6C6F6E67 		.ascii	"long unsigned int\000"
 2608      20756E73 
 2608      69676E65 
 2608      6420696E 
 2608      7400
 2609              	.LASF75:
 2610 038f 63686172 		.ascii	"char\000"
 2610      00
 2611              	.LASF102:
 2612 0394 706F7274 		.ascii	"port_unlock_from_isr\000"
 2612      5F756E6C 
 2612      6F636B5F 
 2612      66726F6D 
 2612      5F697372 
 2613              	.LASF79:
 2614 03a9 6D5F6E65 		.ascii	"m_next\000"
 2614      787400
 2615              	.LASF54:
 2616 03b0 73797374 		.ascii	"systime_t\000"
ARM GAS  /tmp/cc9k88qc.s 			page 65


 2616      696D655F 
 2616      7400
 2617              	.LASF15:
 2618 03ba 705F7265 		.ascii	"p_realprio\000"
 2618      616C7072 
 2618      696F00
 2619              	.LASF80:
 2620 03c5 76746675 		.ascii	"vtfunc_t\000"
 2620      6E635F74 
 2620      00
 2621              	.LASF98:
 2622 03ce 5F5F7365 		.ascii	"__set_BASEPRI\000"
 2622      745F4241 
 2622      53455052 
 2622      4900
 2623              	.LASF110:
 2624 03dc 2F686F6D 		.ascii	"/home/joerg/repos/chibios-projects/ChibiOS-RT/demos"
 2624      652F6A6F 
 2624      6572672F 
 2624      7265706F 
 2624      732F6368 
 2625 040f 2F53544D 		.ascii	"/STM32/RT-STM32F103-OLIMEX_STM32_P103\000"
 2625      33322F52 
 2625      542D5354 
 2625      4D333246 
 2625      3130332D 
 2626              	.LASF57:
 2627 0435 636F6E74 		.ascii	"context\000"
 2627      65787400 
 2628              	.LASF94:
 2629 043d 63685F73 		.ascii	"ch_system_t\000"
 2629      79737465 
 2629      6D5F7400 
 2630              	.LASF30:
 2631 0449 7274636E 		.ascii	"rtcnt_t\000"
 2631      745F7400 
 2632              	.LASF103:
 2633 0451 706F7274 		.ascii	"port_lock_from_isr\000"
 2633      5F6C6F63 
 2633      6B5F6672 
 2633      6F6D5F69 
 2633      737200
 2634              	.LASF82:
 2635 0464 76697274 		.ascii	"virtual_timer\000"
 2635      75616C5F 
 2635      74696D65 
 2635      7200
 2636              	.LASF111:
 2637 0472 5F5F6765 		.ascii	"__get_PSP\000"
 2637      745F5053 
 2637      5000
 2638              	.LASF87:
 2639 047c 76745F70 		.ascii	"vt_par\000"
 2639      617200
 2640              	.LASF93:
 2641 0483 6D656173 		.ascii	"measurement_offset\000"
 2641      7572656D 
ARM GAS  /tmp/cc9k88qc.s 			page 66


 2641      656E745F 
 2641      6F666673 
 2641      657400
 2642              	.LASF62:
 2643 0496 74687265 		.ascii	"threads_queue_t\000"
 2643      6164735F 
 2643      71756575 
 2643      655F7400 
 2644              	.LASF9:
 2645 04a6 705F7265 		.ascii	"p_refs\000"
 2645      667300
 2646              	.LASF49:
 2647 04ad 4D4D4652 		.ascii	"MMFR\000"
 2647      00
 2648              	.LASF91:
 2649 04b2 726C6973 		.ascii	"rlist\000"
 2649      7400
 2650              	.LASF21:
 2651 04b8 75696E74 		.ascii	"uint8_t\000"
 2651      385F7400 
 2652              	.LASF73:
 2653 04c0 77746F62 		.ascii	"wtobjp\000"
 2653      6A7000
 2654              	.LASF6:
 2655 04c7 705F6E61 		.ascii	"p_name\000"
 2655      6D6500
 2656              	.LASF12:
 2657 04ce 705F6D73 		.ascii	"p_msg\000"
 2657      6700
 2658              	.LASF52:
 2659 04d4 43504143 		.ascii	"CPACR\000"
 2659      5200
 2660              	.LASF44:
 2661 04da 48465352 		.ascii	"HFSR\000"
 2661      00
 2662              	.LASF78:
 2663 04df 6D5F6F77 		.ascii	"m_owner\000"
 2663      6E657200 
 2664              	.LASF104:
 2665 04e7 72657375 		.ascii	"result\000"
 2665      6C7400
 2666              	.LASF3:
 2667 04ee 705F6374 		.ascii	"p_ctx\000"
 2667      7800
 2668              	.LASF86:
 2669 04f4 76745F66 		.ascii	"vt_func\000"
 2669      756E6300 
 2670              		.comm	__gnu_lto_v1,1,1
 2671              		.ident	"GCC: (GNU Tools for ARM Embedded Processors) 4.7.4 20130913 (release) [ARM/embedded-4_7-br
ARM GAS  /tmp/cc9k88qc.s 			page 67


DEFINED SYMBOLS
                            *ABS*:00000000 chcore_v7m.c
     /tmp/cc9k88qc.s:280    .text.SVC_Handler:00000000 $t
     /tmp/cc9k88qc.s:286    .text.SVC_Handler:00000000 SVC_Handler
     /tmp/cc9k88qc.s:339    .text._port_irq_epilogue:00000000 $t
     /tmp/cc9k88qc.s:345    .text._port_irq_epilogue:00000000 _port_irq_epilogue
     /tmp/cc9k88qc.s:439    .text._port_irq_epilogue:00000048 $d
                            *COM*:00000001 __gnu_lto_v1
                     .debug_frame:00000010 $d

UNDEFINED SYMBOLS
chSchIsPreemptionRequired
_port_switch_from_isr
_port_exit_from_isr
