ARM GAS  /tmp/ccKFEoRE.s 			page 1


   1              		.syntax unified
   2              		.cpu cortex-m3
   3              		.fpu softvfp
   4              		.eabi_attribute 20, 1
   5              		.eabi_attribute 21, 1
   6              		.eabi_attribute 23, 3
   7              		.eabi_attribute 24, 1
   8              		.eabi_attribute 25, 1
   9              		.eabi_attribute 26, 1
  10              		.eabi_attribute 30, 2
  11              		.eabi_attribute 34, 1
  12              		.eabi_attribute 18, 4
  13              		.thumb
  14              		.file	"chdynamic.c"
  15              		.text
  16              	.Ltext0:
  17              		.section	.gnu.lto_.jmpfuncs.528bfc2a99b116e2,"",%progbits
  18 0000 789C6D8B 		.ascii	"x\234m\2131\016\2000\014\003}n\021#s\247\276\016^\220"
  18      310E8030 
  18      0C037D6E 
  18      112373A7 
  18      BE0E5E90 
  19 0014 FF8BB465 		.ascii	"\377\213\264e\001\221\341b\351l\013\355\372\277\353"
  19      0191E162 
  19      E96C0BED 
  19      FABFEB
  20 0023 F99BB06A 		.ascii	"\371\233\260j\206\000C.J\267\334t\262t:\"\341\2012P"
  20      8600432E 
  20      4AB7DC74 
  20      B2743A22 
  20      E1813250 
  21 0037 C373B0CC 		.ascii	"\303s\260\314\361j\177\353\314\246nT\002\007\001"
  21      F16A7FEB 
  21      CCA66E54 
  21      020701
  22              		.text
  23              		.section	.gnu.lto_.inline.528bfc2a99b116e2,"",%progbits
  24 0000 789C6362 		.ascii	"x\234cb`d\340e\300\016V@iV\006\006\036\021F\006&\216"
  24      6064E065 
  24      C00E5640 
  24      69560606 
  24      1E114606 
  25 0016 03760C5C 		.ascii	"\003v\014\\\007\354\230\030\230y\030\030\230&\370M\360"
  25      07EC9818 
  25      98791818 
  25      9826F84D 
  25      F0
  26 0027 6364E060 		.ascii	"cd\340`\207Jp|\320cb`b\220\343\003\362\325W\264\001"
  26      874A707C 
  26      D0636260 
  26      6290E303 
  26      F2D557B4 
  27 003c 4D9D630E 		.ascii	"M\235c\016\024\340f``\234\340\007\245\230\031\304\364"
  27      14E06660 
  27      609CE007 
  27      A59819C4 
  27      F4
ARM GAS  /tmp/ccKFEoRE.s 			page 2


  28 004d 81D25C7F 		.ascii	"\201\322\\\177\274\031\330\026\310\303\315a`\027\000"
  28      BC19D816 
  28      C8C3CD61 
  28      601700
  29 005c 5A02320F 		.ascii	"Z\0022\017\002Yx\241\306\2630\210\203\324\363\256Jb"
  29      025978A1 
  29      C6B33088 
  29      83D4F3AE 
  29      4A62
  30 006e 60BFA586 		.ascii	"`\277\245\206S=H\030h:\003\000\022\226\035\221"
  30      533D4818 
  30      683A0300 
  30      12961D91 
  31              		.text
  32              		.section	.gnu.lto_.pureconst.528bfc2a99b116e2,"",%progbits
  33 0000 789C6362 		.ascii	"x\234cb`d`f``\340f\200\000V\006)F+&+f+\026+\000\006"
  33      60646066 
  33      6060E066 
  33      80005606 
  33      29462B26 
  34 001b 690123   		.ascii	"i\001#"
  35              		.text
  36              		.section	.gnu.lto_chThdRelease.part.0.528bfc2a99b116e2,"",%progbits
  37 0000 789CAD92 		.ascii	"x\234\255\222=K\003A\020\206gv\3674jc\251\215\221\020"
  37      3D4B0341 
  37      10866776 
  37      F7346A63 
  37      A98D9110 
  38 0014 100D247F 		.ascii	"\020\015$\177CK\005\033A\243\234\347\027\030%\261\321"
  38      434B051B 
  38      41A39CE7 
  38      171825B1 
  38      D1
  39 0025 26E7E90F 		.ascii	"&\347\351\017\010V~F\202\037\225X\330K@-D\304\3122\205"
  39      08567E46 
  39      821F9558 
  39      D84B402D 
  39      44C4CA32 
  40 003a 85888585 		.ascii	"\205\210\205\205\205\210\202\020g\366\356T\222h\242"
  40      85888210 
  40      67F6EE54 
  40      9268A2
  41 0049 7877CBBB 		.ascii	"xw\313\273\267\3143\357\354\316\012@z\313\237\010\215"
  41      B7CC33EF 
  41      ECCE0A40 
  41      7ACB9F08 
  41      8D
  42 005a 6305D049 		.ascii	"c\005\320I\212\006\240\312\\\321D\241\320*P\262.\266"
  42      8A06A0CA 
  42      5CD144A1 
  42      D02A50B2 
  42      2EB6
  43 006c 4B449E50 		.ascii	"KD\236P\212\264\022\022\323\375:WS\010r\266\275\362"
  43      8AB41212 
  43      D3FD3A57 
  43      530872B6 
  43      BDF2
ARM GAS  /tmp/ccKFEoRE.s 			page 3


  44 007e 78E2B438 		.ascii	"x\342\26487\305b\320\342\3258\302E~\274\025,D\010\000"
  44      37C562D0 
  44      E2D538C2 
  44      457EBC15 
  44      2C440800 
  45 0092 AB2875F6 		.ascii	"\253(u\3660\307\3661) \204L\336n$j 3\247N\267G*m\370"
  45      30C7F631 
  45      2920844C 
  45      DE6E246A 
  45      2033A74E 
  46 00ab 90DD4797 		.ascii	"\220\335G\227k\3678U\20534W\330j\373\013\006\325\241"
  46      6BF73855 
  46      85333457 
  46      D86AFB0B 
  46      06D5A1
  47 00be CC17A84E 		.ascii	"\314\027\250NCo\233w5\324X\316\325`V\336\201\027YK\003"
  47      436F9B77 
  47      35D458CE 
  47      D56056DE 
  47      8117594B 
  48 00d3 4AA9A78F 		.ascii	"J\251\247\217\022\177\307\235mN\375\005\273\377\271"
  48      127FC79D 
  48      6D4EFD05 
  48      BBFFB9
  49 00e2 48BCDEAE 		.ascii	"H\274\336\256\313\013\373\246\230\016\303\016\267a\311"
  49      CB0BFBA6 
  49      980EC30E 
  49      B761C9
  50 00f1 EEA60E08 		.ascii	"\356\246\016\010\350\320W\245\260\361\\\351<\271G\215"
  50      E8D057A5 
  50      B0F15CE9 
  50      3CB9478D 
  51 0101 88837880 		.ascii	"\210\203x\200a\0200\210{\030\002I\272K\252<5HwH\351"
  51      61103088 
  51      7B180249 
  51      BA4BAA3C 
  51      35487748 
  52 0116 3160D9B6 		.ascii	"1`\331\266\233)>G\377q\257\204^V\276\360\275|\301h\""
  52      9B293E47 
  52      FF71AF84 
  52      5E56BEF0 
  52      BD7CC168 
  53 012b FB28BF9E 		.ascii	"\373(\277\236\234\003'?$\227a\016\272\000g\240\220m"
  53      9C03273F 
  53      2497610E 
  53      BA0067A0 
  53      906D
  54 013d 73574C14 		.ascii	"sWL\024\021\350\242\012\344:\254\241\205\365\302D]\243"
  54      11E8A20A 
  54      E43AACA1 
  54      85F5C244 
  54      5DA3
  55 014f C1DBA131 		.ascii	"\301\333\2411\364\271E\006\301\307d5\014\277`=\036V"
  55      F4B94506 
  55      C1C76435 
  55      0CBF603D 
  55      1E56
ARM GAS  /tmp/ccKFEoRE.s 			page 4


  56 0161 C6888A0C 		.ascii	"\306\210\212\014e/qS\377\342\246*n\314\344sb\267\207"
  56      652F7153 
  56      FFE2A62A 
  56      6ECCE473 
  56      62B787
  57 0174 EC11FA86 		.ascii	"\354\021\372\206\206\206\325\367\206\3027\274\004c\325"
  57      8686D5F7 
  57      86C237BC 
  57      0463D5
  58 0183 70318005 		.ascii	"p1\200\005x\265\003\026\0060\216^I\224\212X\013\033"
  58      78B50316 
  58      06308E5E 
  58      49948A58 
  58      0B1B
  59 0195 DCE83EDE 		.ascii	"\334\350>\336ZiS(\362J\337\035?\215\337R\324\261l\025"
  59      5A695328 
  59      F24ADF1D 
  59      3F8DDF52 
  59      D4B16C15 
  60 01a9 8C4663EE 		.ascii	"\214Fc\3567\223\212%\347b\251\244\0313'F\347\023#\323"
  60      37938A25 
  60      E762A9A4 
  60      19332746 
  60      E71323D3 
  61 01bd 9366D404 		.ascii	"\223f\324\004\225\264\306Rbn\366\035\365\276\354\325"
  61      95B4C652 
  61      626EF61D 
  61      F5BEECD5 
  62              		.text
  63              		.section	.gnu.lto_chThdAddRef.528bfc2a99b116e2,"",%progbits
  64 0000 789C8D52 		.ascii	"x\234\215R\317k\023A\024\376\336l\333\024\274\364h."
  64      CF6B1341 
  64      14FEDE6C 
  64      DB14BCF4 
  64      682E
  65 0012 6D08ED41 		.ascii	"m\010\355A-YozT\002b\0179\230 \210\260\2268\035h\240"
  65      2D596F7A 
  65      5402620F 
  65      39982088 
  65      B096381D 
  66 0028 9B844D52 		.ascii	"\233\204MR\332S\326\255\327B\251(\211R\260\376F\004"
  66      DA53D6AD 
  66      D742A928 
  66      8952B0FE 
  66      4604
  67 003a 2F528F8A 		.ascii	"/R\217\212\007\017+\364\334\233\205\352\255\210\340"
  67      070F2BF4 
  67      DC9B85EA 
  67      AD88E0
  68 0049 1F10DF4C 		.ascii	"\037\020\337L\326$M\335\322\331\037ox\363}\337\274\367"
  68      D6244DDD 
  68      D2D91F6F 
  68      78F37DDF 
  68      BCF7
  69 005b CD08103F 		.ascii	"\315\010\020?\307G\222\277\254\005lq$\013$6v\201{)A"
  69      C74792BF 
  69      AC056C71 
ARM GAS  /tmp/ccKFEoRE.s 			page 5


  69      240B2436 
  69      76817B29 
  70 0070 A4274C69 		.ascii	"\244'Li\012j\3364L\221\306\266\357o\376\376\022\234"
  70      0A6ADE34 
  70      4C91C6B6 
  70      EF6FFEFE 
  70      129C
  71 0082 0DF63B9D 		.ascii	"\015\366;\235)\245\263\363\204\260} \222PD\030\207\216"
  71      29A5B3F3 
  71      84B07D20 
  71      92504418 
  71      878E
  72 0094 6278A318 		.ascii	"bx\243\030\336\236u\"\353\260\265#~\264\307>\211\317"
  72      DE9E7522 
  72      EBB0B523 
  72      7EB4C73E 
  72      89CF
  73 00a6 FB9DE634 		.ascii	"\373\235\3464\236\263\304\306\232\177]\221%\220&-p\330"
  73      9EB3C4C6 
  73      9A7F5D91 
  73      2590262D 
  73      70D8
  74 00b8 7A156D9C 		.ascii	"z\025m\234\212$F4\221\0218C\344\3203\232\206\200CO)"
  74      8A244634 
  74      91113843 
  74      E4D0339A 
  74      8680434F 
  75 00cd 0D8BE336 		.ascii	"\015\213\3436G\036\243\270\357\373\023T2\032f\334\320"
  75      471EA3B8 
  75      EFFB1354 
  75      321A66DC 
  75      D0
  76 00de 51F79B67 		.ascii	"Q\367\233g\015=\261\276BP\027\027\301\231\376\2023\303"
  76      0D3DB1BE 
  76      42501717 
  76      C199FE82 
  76      33C3
  77 00f0 4DE98AA2 		.ascii	"M\351\212\242\246F\004f\214\344\257\360\373\317\377"
  77      A6460466 
  77      8CE4AFF0 
  77      FBCFFF
  78 00ff D535683A 		.ascii	"\3255h:\303y\021\370\206\200v\326\037\036\\>\262\031"
  78      C37911F8 
  78      868076D6 
  78      1F1E5C3E 
  78      B219
  79 0111 D7FE9A6B 		.ascii	"\327\376\232ku\350\345\221-\365\011\006\334\034\327"
  79      75E8E591 
  79      2DF50906 
  79      DC1CD7
  80 0120 687EC024 		.ascii	"h~\300$\036\320\226\337\272\242\014\256/\333[~\024-"
  80      1ED096DF 
  80      BAA20CAE 
  80      2FDB5B7E 
  80      142D
  81 0132 8F198110 		.ascii	"\217\031\201\020\301m}Z\335^$\211\0138\257(a=F\233\024"
  81      C16D7D5A 
ARM GAS  /tmp/ccKFEoRE.s 			page 6


  81      DD5E2489 
  81      0B38AF28 
  81      613D469B 
  82 0147 8D0B4994 		.ascii	"\215\013I\2244\366u\307\235\376\211\204Xk\356Y\377x"
  82      34F675C7 
  82      9DFE8984 
  82      586BEE59 
  82      FF78
  83 0159 16533530 		.ascii	"\026S50a\316\214U\347\"{\342\365n\015\352I\235:nq\214"
  83      61CE8C55 
  83      E7227BE2 
  83      F56E0DEA 
  83      499D3A6E 
  84 016f D331763B 		.ascii	"\3231v;\364\206\235\325~\277\375s*\277q\222\337\037"
  84      F4869DD5 
  84      7EBFFD73 
  84      2ABF7192 
  84      DF1F
  85 0181 8DDF1FE2 		.ascii	"\215\337\037\342\374v\350\035O\372:\221\301\016\275"
  85      FC76E81D 
  85      4FFA3A91 
  85      C10EBD
  86 0190 A74993D8 		.ascii	"\247I\223\330\005\205Oz\006\365\356\025\231\353\244"
  86      05854F7A 
  86      06F5EE15 
  86      99EBA4
  87 019f B153998C 		.ascii	"\261S\231\214\335}+5\333\253\3335O\332rqa\265\\tK2#"
  87      DD7D2B35 
  87      DBABDB35 
  87      4FDA7271 
  87      61B55C74 
  88 01b6 21EAD5D1 		.ascii	"!\352\325\321\345\342RC\235\033\002V+^\275f_\315\347"
  88      E5E25243 
  88      9D1B0256 
  88      2B5EBD66 
  88      5FCDE7
  89 01c9 B2B91566 		.ascii	"\262\271\025f\310\212\247\346\227/\271\231E\314\016"
  89      C88AA7E6 
  89      972FB999 
  89      45CC0E
  90 01d8 22D54ADD 		.ascii	"\"\325J\335\316\346\012s\005\273T\226K\215\005e\033"
  90      CEE60A73 
  90      05BB5496 
  90      4B8D0565 
  90      1B
  91 01e9 A474AF35 		.ascii	"\244t\2575\312\222\301\023\271B>u\267XSU\2574\233\232"
  91      CA92C113 
  91      B9423E75 
  91      B7585355 
  91      AF349B9A 
  92 01fd B908E121 		.ascii	"\271\010\341!\341*\267\342\255\342/\336]\306\227"
  92      E12AB7E2 
  92      ADE22FDE 
  92      5DC697
  93              		.text
  94              		.section	.gnu.lto_chThdRelease.528bfc2a99b116e2,"",%progbits
  95 0000 789CAD55 		.ascii	"x\234\255U[H\024a\024>\347\377\347\342\245Rz\252\300"
ARM GAS  /tmp/ccKFEoRE.s 			page 7


  95      5B481461 
  95      143EE7FF 
  95      E7E2A552 
  95      7AAAC0
  96 0013 DD4514CA 		.ascii	"\335E\024\312\304\361\255\036\213 \364\301\007\225 "
  96      C4F1AD1E 
  96      8B20F4C1 
  96      079520
  97 0022 844D6D9C 		.ascii	"\204Mm\234PpUv5\264\207\034\327\"\241\002\011\002K\245"
  97      50705576 
  97      35B4871C 
  97      D722A102 
  97      09024BA5 
  98 0036 D432BB50 		.ascii	"\3242\273P\017A\024FE\027\261U|\362Q(\350BD\017A\021"
  98      0F411446 
  98      4517B155 
  98      7CF25128 
  98      E842440F 
  99 004c 04819DFF 		.ascii	"\004\201\235\377\237\031\235\335uM\244\331\313\231\375"
  99      9F199DDD 
  99      754DA4D9 
  99      CB99FD
 100 005b FFF37DDF 		.ascii	"\377\363}\3379\337\231\231e\200\364J?\352\3513\257\003"
 100      39DF9999 
 100      6580F44A 
 100      3FEAE933 
 100      AF03
 101 006d 8C53C42C 		.ascii	"\214S\304,@6\270\000\320\027b\214/\032`\357\326\237"
 101      4036B800 
 101      D017628C 
 101      2F1A60EF 
 101      D69F
 102 007f 06C02EE7 		.ascii	"\006\300.\347L\231)\020\277\022\345\364K\341\372\331"
 102      4C992910 
 102      BF12E5F4 
 102      4BE1FAD9 
 103 008f 5D608754 		.ascii	"]`\207T\371\2559\347\250;@\3159A\035QD\322\354e\\Q5"
 103      F9AD39E7 
 103      A83B40CD 
 103      39411D51 
 103      44D2EC65 
 104 00a6 1D7B8F48 		.ascii	"\035{\217H}\275\020\306l\373\322\367\227\361\035\361"
 104      7DBD10C6 
 104      6CFBD2F7 
 104      97F11DF1 
 105 00b6 F7CBCB41 		.ascii	"\367\313\313AK\254\326#$f'\362v\202\205\010Y \"K-7\003"
 105      4BACD623 
 105      246627F2 
 105      76828508 
 105      5920224B 
 106 00cd 6E8A6F06 		.ascii	"n\212o\006\365s\3443n\006\367g\344\364\006`\203\257"
 106      F573E433 
 106      6E06F767 
 106      E4F40660 
 106      83AF
 107 00df E2152E8C 		.ascii	"\342\025.\214K\330\322h\300\201\205\\\230\262!\030l"
 107      4BD8D268 
ARM GAS  /tmp/ccKFEoRE.s 			page 8


 107      C081855C 
 107      98B22118 
 107      6C
 108 00f0 00945EE2 		.ascii	"\000\224^\342\264\266n\211K\303\223l\361\232\366\234"
 108      B4B66E89 
 108      4BC3936C 
 108      F19AF69C 
 109 0100 BD78BFDC 		.ascii	"\275x\277\334[\004\023B\270\337\256 M\006\205(\253\035"
 109      5B041342 
 109      B8DFAE20 
 109      4D068528 
 109      AB1D
 110 0112 FE856B28 		.ascii	"\376\205k(\213\252B\210a\274\205E\300 \214\327\261\020"
 110      8BAA4288 
 110      61BC8545 
 110      C0208CD7 
 110      B110
 111 0124 38C5318A 		.ascii	"8\3051\212*\305q\212\032\305\011\212\331\024oP\314\241"
 111      2AC5718A 
 111      1AC5098A 
 111      D9146F50 
 111      CCA1
 112 0136 789362AE 		.ascii	"x\223b\256\033\203\024')\322\241\302\031\333\316gn\033"
 112      1B831427 
 112      29D2A1C2 
 112      19DBCE67 
 112      6E1B
 113 0148 71DB6B43 		.ascii	"q\333kCaP,\353\3708\334\266n'-2K\036\325\"\212\013\256"
 113      61502CEB 
 113      F838DCB6 
 113      6E272D32 
 113      4B1ED522 
 114 015f 86D2C409 		.ascii	"\206\322\304\011\237\001\206\216\202+D\302\267i%\315"
 114      9F01868E 
 114      822B44C2 
 114      B76925CD 
 115 016f 74EADD15 		.ascii	"t\352\335\025V\031\224H\312\361\271w\237\330\272\336"
 115      56199448 
 115      CAF1B977 
 115      9FD8BADE 
 116 017f 8B459536 		.ascii	"\213E\2256\001\346 \216_/^\376\260?I\214\\\272O]\206"
 116      01E6208E 
 116      5F2F5EFE 
 116      B03F498C 
 116      5CBA4F5D 
 117 0194 F15E92A4 		.ascii	"\361^\222\244\270\007\317\221\215T\243\374\002\010\300"
 117      B807CF91 
 117      8D54A3FC 
 117      0208C0
 118 01a3 108EDA43 		.ascii	"\020\216\332C\007,\324\222hW\266\207\335m]\022$ ^'\356"
 118      072CD492 
 118      6857B687 
 118      DD6D5D12 
 118      24205E27 
 119 01b8 14A71713 		.ascii	"\024\247\027\023\331^(!\307\370U\270\202\026f1\023\345"
 119      D95E2821 
 119      C7F855B8 
ARM GAS  /tmp/ccKFEoRE.s 			page 9


 119      82166631 
 119      13E5
 120 01ca E4B8AB77 		.ascii	"\344\270\253wl\325\261\004\364\017\360)\356\0019aE\246"
 120      6CD5B104 
 120      F40FF029 
 120      EE013961 
 120      45A6
 121 01dc 224D25DA 		.ascii	"\"M%\332\312\001w/3\343\027\356\2474\305\032\271\354"
 121      CA01772F 
 121      33E317EE 
 121      A734C51A 
 121      B9EC
 122 01ee E1C27887 		.ascii	"\341\302x\207:\366VS\274\3170\202\014s\010\343\003\262"
 122      3AF65653 
 122      BCCF3082 
 122      0C7308E3 
 122      03B2
 123 0200 5C0CE2EE 		.ascii	"\\\014\342\356\217\015\015\002\326\033\30439\210\351"
 123      8F0D0D02 
 123      D61BC433 
 123      3988E9
 124 020f 4C8308E3 		.ascii	"L\203\010\343C:Y\345q\235\017\343#\014\310\2057\360"
 124      433A59E5 
 124      719D0FE3 
 124      230CC885 
 124      37F0
 125 0221 FA332616 		.ascii	"\3723&\026&V\275\023\311\311e\324\210\266\027\015.\346"
 125      2656BD13 
 125      C9C965D4 
 125      88B6170D 
 125      2EE6
 126 0233 33A47B89 		.ascii	"3\244{\211\252\3642;\363tVX\244\306cu\005\350(\344%"
 126      AAF4323B 
 126      F3745658 
 126      A4C66375 
 126      05E828E4 
 127 0248 2950E7FD 		.ascii	")P\347\375\333\245\002=\205\274LMJ\344d\226`\276\013"
 127      DBA5023D 
 127      85BC4C4D 
 127      4AE46496 
 127      60BE0B
 128 025b E0091FD2 		.ascii	"\340\011\037\322\305\340\202\204s\024D\336[P\216zt\301"
 128      C5E08284 
 128      731444DE 
 128      5B508E7A 
 128      74C1
 129 026d 0B70BE4F 		.ascii	"\013p\276O\2610W\332\334 \012\0245\256\254\012\324\026"
 129      B13057DA 
 129      DC200A14 
 129      35AEAC0A 
 129      D416
 130 027f B9D42098 		.ascii	"\271\324 \230\347\013\3227\231\334$\342\371\200\257"
 130      E70BD237 
 130      99DC24E2 
 130      F980AF
 131 028e 78F2B64F 		.ascii	"x\362\266O\343\263 \236\037BJ\302E/\364h\364\304\263"
 131      E3B3209E 
ARM GAS  /tmp/ccKFEoRE.s 			page 10


 131      1F424AC2 
 131      452FF468 
 131      F4C4B3
 132 02a1 652F3C73 		.ascii	"e/<s/|\265\227x\035x\260\234\177\301\024\037\254\022"
 132      2F7CB597 
 132      781D78B0 
 132      9C7FC114 
 132      1FAC12
 133 02b4 7C57B91F 		.ascii	"|W\271\037\223\275&\206\330S\324r\377\213Z\356\232\215"
 133      93BD2686 
 133      D853D472 
 133      FF8B5AEE 
 133      9A8D
 134 02c6 5115641B 		.ascii	"Q\025d\033(\337F'\321\273UN\301o;\313\302\255X\217\356"
 134      28DF4627 
 134      D1BB554E 
 134      C16F3BCB 
 134      C2AD588F 
 135 02db E5428A16 		.ascii	"\345B\212\026n\363\214\325\322\214\345\222#\225 \217"
 135      6EF38CD5 
 135      D28CE592 
 135      2395208F 
 136 02eb 08988F20 		.ascii	"\010\230\217 \337#\320\235\347\245\237\201\322\026\000"
 136      DF23D09D 
 136      E7A59F81 
 136      D21600
 137 02fa E94F22F9 		.ascii	"\351O\"\371~\255\026\033\224+&\034,+3\234w{\314\210"
 137      7EAD161B 
 137      942B261C 
 137      2C2B339C 
 137      777BCC88 
 138 030e 761AB1A8 		.ascii	"v\032\261\250i\230\315M=m\215\221\026\263\314\004\326"
 138      6998CD4D 
 138      3D6D8D91 
 138      16B3CC04 
 138      D6
 139 031f D9A144AD 		.ascii	"\331\241D\255\0231\365dck\227\265'%\273\243=\332\031"
 139      1331F564 
 139      636B97B5 
 139      2725BBA3 
 139      3DDA19
 140 0332 330ED654 		.ascii	"3\016\326T\035\252\352&\230\331\036\265\352O\356\213"
 140      1DAAEA26 
 140      98D91EB5 
 140      EA4FEE8B 
 141 0342 943543A9 		.ascii	"\2245C\251?\323\352\3564\016U\325V\326\032-mfkW\223"
 141      3FD3EAEE 
 141      340E55D5 
 141      56D61A2D 
 141      6D666B57 
 142 0357 65C84C33 		.ascii	"e\310L3r\270\253\315\244\344\374\252\332\232\320\361"
 142      72B8ABCD 
 142      A4E4FCAA 
 142      DA9AD0F1 
 143 0367 C698D511 		.ascii	"\306\230\325\021m)\015\025\227\003\213\202\036\261\""
 143      6D290D15 
 143      97038B82 
ARM GAS  /tmp/ccKFEoRE.s 			page 11


 143      1EB122
 144 0376 EDD11EF8 		.ascii	"\355\321\036\370\013\201\020\222\351"
 144      0B811092 
 144      E9
 145              		.text
 146              		.section	.gnu.lto_chThdCreateFromHeap.528bfc2a99b116e2,"",%progbits
 147 0000 789C8D53 		.ascii	"x\234\215S_HSQ\030\377\276s\3166g\232V\004\331\203\016"
 147      5F485351 
 147      18FFBE73 
 147      CE36679A 
 147      5604D983 
 148 0015 B1C8925D 		.ascii	"\261\310\222]\241 \203\036\014!\352a\017M\202^\326X"
 148      A120831E 
 148      0C21EA61 
 148      0F4D825E 
 148      D658
 149 0027 D7530E9C 		.ascii	"\327S\016\234\033w\323\324\007\275Y\217A\022\004\025"
 149      1B77D3D4 
 149      07BD598F 
 149      41120415 
 150 0037 08657F88 		.ascii	"\010e\177\210\351\244\214(|\310\010\2230\361)\"LBH{"
 150      E9A48C28 
 150      7CC80893 
 150      30F12922 
 150      4C42487B 
 151 004b EEA1878C 		.ascii	"\356\241\207\214\300\276{\356\235m:Gw;\367;\367\234"
 151      C0BE7BEE 
 151      9D6D3A47 
 151      773BF73B 
 151      F79C
 152 005d DFF73BDF 		.ascii	"\337\367;\337\371\375\316a\200\364\333\374\034\246\366"
 152      F9FDCE61 
 152      80F4DBFC 
 152      1CA6F6
 153 006c 4300BCA2 		.ascii	"C\000\274\242\210.@64\017p\305\307\230\230\345`\036"
 153      882E4036 
 153      340F70C5 
 153      C79898E5 
 153      601E
 154 007e E033B300 		.ascii	"\3403\263\000f#Ga\217\013D\253CT\003\214\013\0348\253"
 154      66234761 
 154      8F0B44AB 
 154      4354038C 
 154      0B1C38AB 
 155 0092 38592DDC 		.ascii	"8Y-\3347\315\233CW\315S\203Kkk5\022\201\001C\010#,d"
 155      37CD9B43 
 155      57CD5383 
 155      4B6B6B35 
 155      12810143 
 156 00aa 56CAAA40 		.ascii	"V\312\252@\"\202\017\254\310@\344\027\260)\2253\330"
 156      22820FAC 
 156      C840E417 
 156      B0299533 
 156      D8
 157 00bb AF527FA6 		.ascii	"\257R\177\246\273\213f.\247'\312\0263\356)\366fim\240"
 157      BB8B662E 
 157      A727CA16 
ARM GAS  /tmp/ccKFEoRE.s 			page 12


 157      33EE29F6 
 157      66696DA0 
 158 00cf 0E1E3834 		.ascii	"\016\03684\022\005\203z\305\260\230\376\3156S\210\\"
 158      1205837A 
 158      C5B098FE 
 158      CD365388 
 158      5C
 159 00e0 AC8B81A6 		.ascii	"\254\213\201\246\260\357+\012,F\363\220\213v38\242\320"
 159      B0EF2B0A 
 159      2C46F390 
 159      8B763338 
 159      A2D0
 160 00f2 CBE9D705 		.ascii	"\313\351\327\005\230\251\343\316\303{\030\034S\370\317"
 160      98A9E3CE 
 160      C37B181C 
 160      53F8CF
 161 0101 E505D19E 		.ascii	"\345\005\321\236<4\211v\\\241\177\025\256\305j\002v"
 161      3C348976 
 161      5CA17F15 
 161      AEC56A02 
 161      76
 162 0112 23847004 		.ascii	"#\204p\004kI\340\020>\304:\340\024\037S\0244~\217\306"
 162      6B49E010 
 162      3EC43AE0 
 162      141F5314 
 162      347E8FC6 
 163 0126 DDF4FD84 		.ascii	"\335\364\375\204\276=\024\323\024K(\216Q\364:y\364\270"
 163      BE3D14D3 
 163      144B288E 
 163      51F43A79 
 163      F4B8
 164 0138 E09A6956 		.ascii	"\340\232iV2\033o\217\206\235\323q\306\212\226\307AZ"
 164      321B6F8F 
 164      869DD371 
 164      C68A96C7 
 164      415A
 165 014a D8EAF039 		.ascii	"\330\352\3609pM\217V\207p\234\304\320Q\364\301\252Y"
 165      704D8F56 
 165      87709CC4 
 165      D051F4C1 
 165      AA59
 166 015c 22B104C3 		.ascii	"\"\261\004\303\210v\216\216LG.\321\0130C{\260\22167"
 166      88768E8E 
 166      4C472ED1 
 166      0B30437B 
 166      B0913637 
 167 0170 E101DEC1 		.ascii	"\341\001\336\301\364w\234\033\335\273NQ\2456\223\373"
 167      F4779C1B 
 167      DDBB4E51 
 167      A53693FB 
 168 0180 049153F2 		.ascii	"\004\221S\362,p\"@\273:\247H\207\256\310\201)e\320\254"
 168      2C702240 
 168      BB3AA748 
 168      87AEC881 
 168      2965D0AC 
 169 0194 649BBCBE 		.ascii	"d\233\274\276\372\245\241\350\221\261\006Ki\022\340"
 169      FAA5A1E8 
ARM GAS  /tmp/ccKFEoRE.s 			page 13


 169      91B1064B 
 169      6912E0
 170 01a3 030CE2C8 		.ascii	"\003\014\342\310\215[\337\232\362\026#\245&\224\"O\363"
 170      8D5BDF9A 
 170      F21623A5 
 170      2694224F 
 170      F3
 171 01b4 96B4AECE 		.ascii	"\226\264\256\3160UH\202\250\027@5\214\343\260y\273Y"
 171      30554882 
 171      A8174035 
 171      8CE3B079 
 171      BB59
 172 01c6 E2B63CDA 		.ascii	"\342\266<\332\365\351g\316t\231\"\230\203=\013\363\217"
 172      F5E967CE 
 172      74992298 
 172      833D0BF3 
 172      8F
 173 01d7 785600AF 		.ascii	"xV\000\257\243a9i\310\262\032\012\322PG\267\216\036"
 173      A3613969 
 173      C8B21A0A 
 173      D25047B7 
 173      8E1E
 174 01e9 1D696E7B 		.ascii	"\035in{\276\230#JLRx\026\006\233\376\214\365\333\343"
 174      BE98234A 
 174      4C527816 
 174      069BFE8C 
 174      F5DBE3
 175 01fc 87E0A0C4 		.ascii	"\207\340\240\304\012~\027\356\240\304Jr\301k\225BR\302"
 175      0A7E17EE 
 175      A0C44A72 
 175      C16B9542 
 175      52C2
 176 020e 396AE731 		.ascii	"9j\3471g\333\025\352\372[^f\372\263\222:e\354\2402x"
 176      67DB15EA 
 176      FA5B5E66 
 176      FAB3923A 
 176      65ECA032 
 177 0223 B60CC5B0 		.ascii	"\266\014\305\260S\235\267]\252\204\015vl\341\312\026"
 177      539DB75D 
 177      AA840D76 
 177      6CE1CA16 
 178 0233 D684F039 		.ascii	"\326\204\3609\271\240\274y\361\365\177\274\201b\336"
 178      B9A0BC79 
 178      F1F57FBC 
 178      8162DE
 179 0242 BC55DE4C 		.ascii	"\274U\336Lm\345M\010_R\347\037\217cF\010'\261:\347\244"
 179      6DE54D08 
 179      5F52E71F 
 179      8F634608 
 179      27B13AE7 
 180 0257 09FB58CF 		.ascii	"\011\373X\317\003b\326\020\265\371O\200Y\365\330\302"
 180      0362D610 
 180      B5F94F80 
 180      59F5D8C2 
 181 0267 E48AA526 		.ascii	"\344\212\245&\377\230\331n]\011T)\026\033\277\234L\324"
 181      FF98D96E 
 181      5D095429 
ARM GAS  /tmp/ccKFEoRE.s 			page 14


 181      161BBF9C 
 181      4CD4
 182 0279 F8FD9AFD 		.ascii	"\370\375\232\375\217'5#\245%\015]\323\333\333z;#\261"
 182      8F273523 
 182      A5250D5D 
 182      D3DBDB7A 
 182      3B23B1
 183 028c A8EED781 		.ascii	"\250\356\327\201\245\022\256v\031I$D2\332'E\302\210"
 183      A512AE76 
 183      19492444 
 183      32DA2745 
 183      C288
 184 029e C659E222 		.ascii	"\306Y\342\"\217\030\227\\\335\221\216.Y\277!?\0217R"
 184      8F18975C 
 184      DD918E2E 
 184      59BF213F 
 184      113752
 185 02b1 49ED4430 		.ascii	"I\355D0\320\022\350!\"=n\310p\367\321\230\277\035\032"
 185      D012E821 
 185      223D6EC8 
 185      70F7D198 
 185      BF1D1A
 186 02c4 7291B227 		.ascii	"r\221\262'\245\265\004ZO\267j\321N\275\243\253Mj\012"
 186      A5B5045A 
 186      4FB76AD1 
 186      4EBDA3AB 
 186      4D6A0A
 187 02d7 A9C74E76 		.ascii	"\251\307Nvu\352\004\256\014\264\006}\027\"II\0136\370"
 187      75EA04AE 
 187      0CB4067D 
 187      17224949 
 187      0B36F8
 188 02ea F6350233 		.ascii	"\3665\0023\300\023\223\261\270\321\013\177\0013\356"
 188      C01393B1 
 188      B8D10B7F 
 188      0133EE
 189 02f9 2361     		.ascii	"#a"
 190              		.text
 191              		.section	.gnu.lto_chThdCreateFromMemoryPool.528bfc2a99b116e2,"",%progbits
 192 0000 789C9553 		.ascii	"x\234\225S_HSQ\030\377\276s\356\335\234\245i\177${\320"
 192      5F485351 
 192      18FFBE73 
 192      EEDD9CA5 
 192      697F247B 
 193 0015 211659B2 		.ascii	"!\026Y\262)\005\371X\010Q\304\036\232\004\021,Y\327"
 193      2905F958 
 193      0851C41E 
 193      9A04112C 
 193      59D7
 194 0027 6B8E9C1B 		.ascii	"k\216\234\033\3334\355!o\253\207\236B\002\241\002!\221"
 194      DB34ED21 
 194      6FAB879E 
 194      4202A102 
 194      2191
 195 0039 1291A87C 		.ascii	"\022\221\250|\210\015\037\212\312\220)>EOBRV/>\225D"
 195      880D1F8A 
 195      CA90293E 
ARM GAS  /tmp/ccKFEoRE.s 			page 15


 195      454F4252 
 195      562F3E95 
 196 004e 8560DF39 		.ascii	"\205`\3379\367^\335t\223:\333\275\337\275\347|\277\337"
 196      F75EDD74 
 196      933ADBBD 
 196      DFBDE77C 
 196      BFDF
 197 0060 EFBBBFF3 		.ascii	"\357\273\277\363\035\006H\277\315\343\010]WT\200g\024"
 197      1D0648BF 
 197      CDE3085D 
 197      57548067 
 197      14
 198 0071 51056403 		.ascii	"Q\005d\003s\0007\334\214)\031\016\306A\376.\003`4pT"
 198      730037DC 
 198      8C29190E 
 198      C641FE2E 
 198      03603470 
 199 0086 CC790551 		.ascii	"\314y\005Q<\020U?\343\012\366\237\223\234\274\006\206"
 199      3C10553F 
 199      E30AF69F 
 199      939CBC06 
 199      86
 200 0097 0DE3EEC0 		.ascii	"\015\343\356\300\233\344\251\344\302\352j\265.f[\021"
 200      9BE4A9E4 
 200      C2EA6AB5 
 200      2E665B11 
 201 00a7 32E9D18A 		.ascii	"2\351\321\212J\320\021\301\015\"2Pr\325-\334M\303\306"
 201      4AD011C1 
 201      0D223250 
 201      72D52DDC 
 201      4DC3C6
 202 00ba 71063528 		.ascii	"q\0065(\240\313\251\366\377C*\014\016H\344J\252gK\344"
 202      A0CBA9F6 
 202      FF432A0C 
 202      0E48E44A 
 202      AA674BE4 
 203 00ce 52EA3B5F 		.ascii	"R\352;_\231t\274d\257\026V\373ka\304\242\321QeP'\031"
 203      9974BC64 
 203      AF1656FB 
 203      6B61C4A2 
 203      D1516550 
 204 00e4 1653137C 		.ascii	"\026S\023|3\005\317\316u0\250\227\271\267\033\363\210"
 204      3305CFCE 
 204      7530A897 
 204      B9B71BF3 
 204      88
 205 00f5 D13A6467 		.ascii	"\321:dg;\0314\312\354\245\324O\2267\337\231\223O.\034"
 205      3B1934CA 
 205      ECA5D44F 
 205      9637DF99 
 205      934F2E1C 
 206 0109 95F9BF4A 		.ascii	"\225\371\277J\362fs\272T\250@\010\340\010\326\000\303"
 206      F26673BA 
 206      54A84008 
 206      E008D600 
 206      C3
 207 011a 003EC25A 		.ascii	"\000>\302Z\340\364>L\357*\305\207\024\0354?J\363N\212"
ARM GAS  /tmp/ccKFEoRE.s 			page 16


 207      E0F43E4C 
 207      EF2AC587 
 207      141D343F 
 207      4AF34E8A 
 208 012e 63148B28 		.ascii	"c\024\213(\216StY8\032*\3342\2142n\342\314\331\220T"
 208      8E537459 
 208      381A2ADC 
 208      328C326E 
 208      E2CCD990 
 209 0143 96E3AC88 		.ascii	"\226\343\254\210b\277\375\244-\036\370,(\363\351\252"
 209      62BFFDA4 
 209      2D1EF82C 
 209      28F3E9AA 
 210 0153 003E217D 		.ascii	"\000>!}\015\3715\370m\024\351X\204\255\210&FC\246\243"
 210      0DF935F8 
 210      6D14E958 
 210      84AD8826 
 210      4643A6A3 
 211 0167 0BE01D30 		.ascii	"\013\340\03500\323LnJ\006\230\202\267_q1\275o\015_)"
 211      30D34C6E 
 211      4A069882 
 211      B75F7131 
 211      BD6F0D5F 
 212 017c 3F267BF8 		.ascii	"?&{\370\305;5\035'\0024\253\263\212\264\350\266h\201"
 212      C53B351D 
 212      270234AB 
 212      B38AB4E8 
 212      B66881
 213 018f 62064DB2 		.ascii	"b\006M\262\370?3\037\277\344\363y}\210\311bZ\004\230"
 213      F83F331F 
 213      BFE4F379 
 213      7D88C962 
 213      5A0498
 214 01a2 81247EBA 		.ascii	"\201$~\2723\370\271)G\214\234z.\035y\232#)\316\320 "
 214      33F8B929 
 214      478C9C7A 
 214      2E1D799A 
 214      2329CED0 
 215 01b7 55486EC8 		.ascii	"UHn\310\033@\025<\306!\343\336q\035\267\345\320\256"
 215      1B40153C 
 215      C621E3DE 
 215      711DB7E5 
 215      D0AE
 216 01c9 2D8F59CB 		.ascii	"-\217Y\313\333%A\006\222\027\304\251\260\035P\017\303"
 216      DB254106 
 216      9217C4A9 
 216      B01D500F 
 216      C3
 217 01da 211D4BF8 		.ascii	"!\035K\370\003\270\217:\2262\262\257Rn.\300\264\223"
 217      03B88F3A 
 217      9632B2AF 
 217      526E2EC0 
 217      B493
 218 01ec 6E1785AB 		.ascii	"n\027\205\253\323f\011\263\260\267\303\306\271,\347"
 218      D36609B3 
 218      B0B7C3C6 
 218      B92CE7
ARM GAS  /tmp/ccKFEoRE.s 			page 17


 219 01fb 7790F3CC 		.ascii	"w\220\363\314v\236\023\237\206\016\015\235\032\322Z"
 219      769E139F 
 219      860E0D9D 
 219      1AD25A
 220 020a 59EE2E8C 		.ascii	"Y\356.\214\310]p\311\032\232\336O^7\347\245~\271\245"
 220      C85D70C9 
 220      1A9ADE4F 
 220      5E37E7A5 
 220      7EB9A5
 221 021d BF93F45D 		.ascii	"\277\223\364]B_\270u^\312\343\272_\345\362\223\010}"
 221      425FB875 
 221      5ECAE3BA 
 221      5FE5F293 
 221      087D
 222 022f 663E07CD 		.ascii	"f>\007\315\013\243\031\330M!\312W\027m\034\200U\377"
 222      0BA319D8 
 222      4D21CA57 
 222      176D1C80 
 222      55FF
 223 0241 2EAA9FDB 		.ascii	".\252\237\333\365K\360n\331\341{d\355\033\032\240@\037"
 223      F54BF06E 
 223      D9E17B64 
 223      ED1B1AA0 
 223      401F
 224 0253 14688600 		.ascii	"\024h\206\000N\220\254\350\206\361\037\377\324\015\260"
 224      4E90ACE8 
 224      86F11FFF 
 224      D40DB0
 225 0262 55374CC9 		.ascii	"U7L\311nx]\250\033\002\370\202\036\326y\254\355\017"
 225      6E785DA8 
 225      1B02F882 
 225      1ED679AC 
 225      ED0F
 226 0274 601AABB2 		.ascii	"`\032\253\262z[1O\321\034 \332;)?\376\003\240m\034\313"
 226      7A5B314F 
 226      D11C20DA 
 226      3B293FFE 
 226      03A06D1C 
 227 0289 0C7D1346 		.ascii	"\014}\023F\362\345\311Rq\002QB\004[\265\307\3435\377"
 227      F2E5C952 
 227      71025142 
 227      045BB5C7 
 227      E335FF
 228 029c 91B83796 		.ascii	"\221\2707\226\360\306c\232W\353h\353\353\012\206C\232"
 228      F0C6639A 
 228      57EB68EB 
 228      EB0A8643 
 228      9A
 229 02ad 47037E35 		.ascii	"G\003~5\036e\211(\013G\225h,\024a\321v\036\214]V{\202"
 229      1E658928 
 229      0B479568 
 229      2C1461D1 
 229      761E8C5D 
 230 02c4 9DDD7ADD 		.ascii	"\235\335z\335\006l4\022K\304\275'\374\276f_/\221h\221"
 230      066C3412 
 230      4BC4BD27 
 230      FCBE665F 
ARM GAS  /tmp/ccKFEoRE.s 			page 18


 230      2F916891 
 231 02d8 98DEDA73 		.ascii	"\230\336\332s,\354\351\200\372\354L\2757\341m\366\265"
 231      2CECE980 
 231      FAEC4CBD 
 231      37E16DF6 
 231      B5
 232 02e9 9C6EF186 		.ascii	"\234n\361\206\272\264\316\3566\335+3\265\360\311\356"
 232      BAB4CEEE 
 232      36DD2B33 
 232      B5F0C9EE 
 233 02f9 2E8D92CB 		.ascii	".\215\222\313|-~\367\245`\\'\301z\367\376\006`1p\206"
 233      7C2D7EF7 
 233      A5605C27 
 233      C17AF7FE 
 233      06603170 
 234 030e F57024D6 		.ascii	"\365p$\326\007\177\001\274\2428'"
 234      077F01BC 
 234      A23827
 235              		.text
 236              		.section	.gnu.lto_.cgraph.528bfc2a99b116e2,"",%progbits
 237 0000 789C45C8 		.ascii	"x\234E\310=\012\302@\030\204\341\231\3756\331M\016\341"
 237      3D0AC240 
 237      1884E199 
 237      FD36D94D 
 237      0EE1
 238 0012 55BFC082 		.ascii	"U\277\300\202\0106^@\033\361\037\324\322\332\3649\202"
 238      08365E40 
 238      1BF11FD4 
 238      D2DAF439 
 238      82
 239 0023 28569EC0 		.ascii	"(V\236\300Jqct3\315\360\274\006\204\000\270\3407s\242"
 239      4A716374 
 239      33CDF0BC 
 239      068400B8 
 239      E03773A2 
 240 0037 029306AA 		.ascii	"\002\223\006\252\323\021\315\202\312N\263\250%\325\364"
 240      D311CD82 
 240      CA4EB3A8 
 240      25D5F4
 241 0046 5A51A5D7 		.ascii	"ZQ\245\327\232j\223x\244f_U\025y\240\346\011;\252K\330"
 241      9A6A9378 
 241      A4665F55 
 241      1579A0E6 
 241      093BAA4B 
 242 005b 527DC29E 		.ascii	"R}\302\236Z$l\250\345\037\202\014\367\333\233br\204"
 242      5A246CA8 
 242      E51F820C 
 242      F7DB9B62 
 242      7284
 243 006d 71131F38 		.ascii	"q\023\0378\267/\005\3025v\361\230?\236\361\035\302\360"
 243      B72F05C2 
 243      3576F198 
 243      3F9EF11D 
 243      C2F0
 244 007f 35105B76 		.ascii	"5\020[v\335z\324m\267\016u\354\370\000\206\366Fk"
 244      DD7AD46D 
 244      B70E75EC 
ARM GAS  /tmp/ccKFEoRE.s 			page 19


 244      F80086F6 
 244      466B
 245              		.text
 246              		.section	.gnu.lto_.vars.528bfc2a99b116e2,"",%progbits
 247 0000 789C6362 		.ascii	"x\234cb`d`f`\000\222P\000\000\000r\000\010"
 247      60646066 
 247      60009250 
 247      00000072 
 247      0008
 248              		.text
 249              		.section	.gnu.lto_.refs.528bfc2a99b116e2,"",%progbits
 250 0000 789C6362 		.ascii	"x\234cb`d`f```b\200\001\000\000\204\000\011"
 250      60646066 
 250      60606062 
 250      80010000 
 250      840009
 251              		.text
 252              		.section	.gnu.lto_.statics.528bfc2a99b116e2,"",%progbits
 253 0000 789C6362 		.ascii	"x\234cb`d`b\300\016@\342\214\020&\000\000\375\000\011"
 253      60646062 
 253      C00E40E2 
 253      8C102600 
 253      00FD0009 
 254              		.text
 255              		.section	.gnu.lto_.decls.528bfc2a99b116e2,"",%progbits
 256 0000 789CAD5A 		.ascii	"x\234\255Z\177p\024\325\035\177\273\233\273\313%\020"
 256      7F7014D5 
 256      1D7FBB9B 
 256      BBCB2510 
 257 0010 145B26D2 		.ascii	"\024[&\322\216\304V:\352\0149\020*0U\324\342(v\206N"
 257      8EC4563A 
 257      EA0C3910 
 257      2A3055D4 
 257      E2287686 
 258 0025 47EDB4D3 		.ascii	"G\355\264\323\231\233\363\270lrWs?\274\333\360\303\277"
 258      999BF3B8 
 258      6C725773 
 258      3FBCDBF0 
 258      C3BF
 259 0037 8E304A0A 		.ascii	"\2160J\012\024B\252\355\021\240D\024\241\300\200\014"
 259      1442AAED 
 259      11A04414 
 259      A1C0800C 
 260 0047 3F041188 		.ascii	"?\004\021\210\030\001!U\304(\240\021\"DD\014\014\277"
 260      18012155 
 260      C428A011 
 260      2244440C 
 260      0CBF
 261 0059 048AD1F4 		.ascii	"\004\212\321\364\373\336\356\276}\273\267?\356.\331"
 261      FBDEEEBE 
 261      7DBBB73F 
 261      EE2ED9
 262 0068 C9BB7DB7 		.ascii	"\311\273}\267\373\336\347\373\353\363\276\357G\216G"
 262      FBDEE7FB 
 262      EBF3BEEF 
 262      478E47
 263 0077 1CC2D776 		.ascii	"\034\302\327v\036\241>\270\236\031\213\320B\027Bnx\366"
ARM GAS  /tmp/ccKFEoRE.s 			page 20


 263      1EA13EB8 
 263      9E198BD0 
 263      4217426E 
 263      78F6
 264 0089 2014FCB6 		.ascii	" \024\374\266\005\311W)\224\325P\306\302\303\211P\036"
 264      05C95729 
 264      94D550C6 
 264      C2C38950 
 264      1E
 265 009a 823217CA 		.ascii	"\2022\027\312\353P\326A\331\010e\013\224\267\241\274"
 265      EB50D641 
 265      D908650B 
 265      94B7A1BC 
 266 00aa C3A1AC0B 		.ascii	"\303\241\254\013\367-Q0\313\240\014\202r\005\312$(k"
 266      F72D5130 
 266      CBA00C82 
 266      7205CA24 
 266      286B
 267 00bc A1144159 		.ascii	"\241\024AY\007\345=h\260\032\212\000\365N(\237A\031"
 267      07E53D68 
 267      B01A8A00 
 267      F54E289F 
 267      4119
 268 00ce 05DF7905 		.ascii	"\005\337y\005\343u\245\276\017\356\373\015r\260n^\203"
 268      E375A5BE 
 268      0FEEFB0D 
 268      72B06E5E 
 268      83
 269 00df 0C8CBD0D 		.ascii	"\014\214\275\015\312\001xx\220\223e\256S\332\\V\356"
 269      CA017878 
 269      909365AE 
 269      53DA5C56 
 269      EE
 270 00f0 B81FBEB7 		.ascii	"\270\037\276\267\033\360\260\235\267\232\340]1`b\274"
 270      1BF0B09D 
 270      B79AE05D 
 270      316062BC 
 271 0100 33502E28 		.ascii	"3P.(~\303\266\034\201\347\353\241|\014e\015|w)\362\276"
 271      7EC3B61C 
 271      81E7EBA1 
 271      7C0C650D 
 271      7C7729F2 
 272 0115 82729EB1 		.ascii	"\202r\236\261MP\344`\037\256V\372v@\3758\224\317\240"
 272      4D50E460 
 272      1FAE56FA 
 272      7640FD38 
 272      94CFA0
 273 0128 7C6ED009 		.ascii	"|n\320\011\373\375'\212\337X\235~\013\317\247B\331\014"
 273      FBFD278A 
 273      DF589D7E 
 273      0BCFA742 
 273      D90C
 274 013a F53AB877 		.ascii	"\365:\270wB\331\305\351\365\374\002\312VN\326\023\353"
 274      42D9C5E9 
 274      F5FC02CA 
 274      564ED613 
 274      EB
ARM GAS  /tmp/ccKFEoRE.s 			page 21


 275 014b 7C8293E3 		.ascii	"|\202\223\343\373\206b\377yE\376CJ\034\267(q5^8\356"
 275      FB8662FF 
 275      7945FE43 
 275      4A1CB728 
 275      71355E38 
 276 0160 C3149B54 		.ascii	"\303\024\233T\035\3248\316ct8\011e\257A\007\254\343"
 276      1DD438CE 
 276      63743809 
 276      65AF4107 
 276      ACE3
 277 0172 7C075DB0 		.ascii	"|\007]\260O2\234\254\017\216}\221\"\363\035F'\254V\227"
 277      4F329CAC 
 277      0F8E7D91 
 277      22F31D46 
 277      27AC5697 
 278 0186 41372F6A 		.ascii	"A7/jH\303\325\362bz\312\001\320\353v\344\347\312\200"
 278      48C3D5F2 
 278      627ACA01 
 278      D0EB76E4 
 278      E7CA80
 279 0199 0F15A436 		.ascii	"\017\025\2446\310+\003\215D\257\245\323\215\320\214"
 279      C82B038D 
 279      44AFA5D3 
 279      8DD08C
 280 01a8 F3732D9C 		.ascii	"\363s-\234\027\310\304s\350^\364\2374\271\024D\345V"
 280      17C8C473 
 280      E85EF49F 
 280      34B91444 
 280      E556
 281 01ba 8C7E3CBB 		.ascii	"\214~<\273\271G(\020\3755\202\376(\007\257_\345\356"
 281      B9472810 
 281      FD3582FE 
 281      2807AF5F 
 281      E5EE
 282 01cc 459717EC 		.ascii	"E\227\027\354\3317J\206\362sn/\2538\371.\267\222\201"
 282      D9374A86 
 282      F2736E2F 
 282      AB38F92E 
 282      B79281
 283 01df F16B2CEC 		.ascii	"\361k,\354\006\036\226\\\237zq\352;\374\305\203\006"
 283      061E965C 
 283      9F7A71EA 
 283      3BFCC583 
 283      06
 284 01f0 026204FA 		.ascii	"\002b\004\372w\272\265\253qN\375\024h\350\031\206^V"
 284      77BAB5AB 
 284      714EFD14 
 284      68E81986 
 284      5E56
 285 0202 6C4C7392 		.ascii	"lLs\222\237{\360\247\026fbyk\270a\244&\220\361\010\011"
 285      9F7BF0A7 
 285      16666279 
 285      6BB861A4 
 285      2690F108 
 286 0217 625E3A5D 		.ascii	"b^:]\257\270g(Z\214q*XG\265\024Q\210G\021\036\304\357"
 286      AFB86728 
 286      5A8C712A 
ARM GAS  /tmp/ccKFEoRE.s 			page 22


 286      5847B514 
 286      51884711 
 287 022e 70D835EB 		.ascii	"p\3305\353\270\241\212\336\304wi\331w\370)R\236\237"
 287      B8A18ADE 
 287      C47769D9 
 287      77F82952 
 287      9E9F
 288 0240 5A76657F 		.ascii	"Zve\177y6\013\321\320;Q\013\210l\234\223\236\342\366"
 288      79360BD1 
 288      D03B510B 
 288      886C9C93 
 288      9EE2F6
 289 0253 736BB952 		.ascii	"sk\271R\300\374\206bv\2548\307\231+\257\326\345Km\243"
 289      C0FC8662 
 289      76AC38C7 
 289      992BAFD6 
 289      E54B6DA3 
 290 0267 5C269817 		.ascii	"\\&\230\027)f\367\210|\020+\262\020\011\205\352\363"
 290      2966F788 
 290      7C102BB2 
 290      100985EA 
 290      F3
 291 0278 A0D06642 		.ascii	"\240\320fB\241\353\234\312\241\037\217\351\351\230\017"
 291      A1EB9CCA 
 291      A11F8FE9 
 291      E9980F
 292 0287 D63682D5 		.ascii	"\3266\202\325\307i|\374h\237O%\217\307\300G\217\236"
 292      C7697CFC 
 292      689F4F25 
 292      8FC7C047 
 292      8F9E
 293 0299 4CF26BB5 		.ascii	"L\362k\265\206\2513\004\345\337\201G\015\274\352\312"
 293      86A93304 
 293      E5DF8147 
 293      0DBCEACA 
 294 02a9 53CB7ED8 		.ascii	"S\313~\330?\321\336\233\305\226\361I\023o*$kq[\333\317"
 294      3FD1DE9B 
 294      C596F149 
 294      136F2A24 
 294      6B715BDB 
 295 02be A34544E2 		.ascii	"\243ED\342NS\222\355dH\266{\325\321Cf$\343\230\3609"
 295      4E5392ED 
 295      6448B67B 
 295      D5D14366 
 295      24E398F0 
 296 02d3 539CA7D2 		.ascii	"S\234\247\322\357\"\322w\021\351\255\246\322[\031\351"
 296      EF22D277 
 296      11E9ADA6 
 296      D25B19E9 
 297 02e3 67D67F3E 		.ascii	"g\326\177>\304D\270\327J\270\315\320dC\336F\370{\205"
 297      C444B8D7 
 297      4AB8CDD0 
 297      6443DE46 
 297      F87B85
 298 02f6 E7A8917B 		.ascii	"\347\250\221{\016\216P#6\251T\037A\370\256F\220\350"
 298      0E8E5023 
 298      36A9541F 
ARM GAS  /tmp/ccKFEoRE.s 			page 23


 298      41F8AE46 
 298      90E8
 299 0308 DE4B753F 		.ascii	"\336Ku?\263~\323\221{\372;\226d]\372(h\373\023\375\033"
 299      B37ED391 
 299      7BFA3B96 
 299      645DFA28 
 299      68FB13FD 
 300 031d 4B2A62BD 		.ascii	"K*b\275\240\"v8 Z\363I\217\370\002E\354\314\013\321"
 300      A0227638 
 300      205AF349 
 300      8FF80245 
 300      ECCC0BD1 
 301 0331 5AC7068A 		.ascii	"Z\307\006\212\330\355\200xK\216:\316\247\210=y!Z\353"
 301      D8ED8078 
 301      4B8E3ACE 
 301      A7883D79 
 301      215AEB
 302 0344 B890225E 		.ascii	"\270\220\"^u@,\317Q\307&\212\330\233\027\242\265\216"
 302      75402CCF 
 302      51C7268A 
 302      D89B17A2 
 302      B58E
 303 0356 FFA4886D 		.ascii	"\377\244\210m\277\263G\2540\3231\213S\306)m\017G\307"
 303      BFB347AC 
 303      30D3318B 
 303      53C6296D 
 303      0F47C7
 304 0369 048F9608 		.ascii	"\004\217\226\010j\346\330\275\352\370!_\001\374\247"
 304      6AE6D8BD 
 304      EAF8215F 
 304      01FCA7
 305 0378 50CB052D 		.ascii	"P\313\005-\355\365\345\227\366\314\234!OK\257R\320\366"
 305      EDF5E597 
 305      F6CC9C21 
 305      4F4BAF52 
 305      D0F6
 306 038a 354E539D 		.ascii	"5NS\2353\255d\314u\024\263\343\356\376\321J\227\256"
 306      33AD64CC 
 306      7514B3E3 
 306      EEFED14A 
 306      97AE
 307 039c 94B9AA6B 		.ascii	"\224\271\252kUky\206I\227\305\024\015\257\267\264\334"
 307      556B7986 
 307      4997C514 
 307      0DAFB7B4 
 307      DC
 308 03ad 489BA7CB 		.ascii	"H\233\247\313\313\255Z\373\271/\271\221\360y\212\363"
 308      CBAD5AFB 
 308      B92FB991 
 308      F0798AF3 
 309 03bd 524D943A 		.ascii	"RM\224:\255\366\221\275\302f\001\2677Y\306\346\320\333"
 309      ADF691BD 
 309      C26601B7 
 309      3759C6E6 
 309      D0DB
 310 03cf 9A2A2759 		.ascii	"\232*'Y\252l\327B\341\220'm\306\316\305\372t\271\233"
 310      AA6CD742 
ARM GAS  /tmp/ccKFEoRE.s 			page 24


 310      E190276D 
 310      C6CEC5FA 
 310      74B99B
 311 03e2 31DDC153 		.ascii	"1\335\301SJ\212?Cf\365=\002]!\2541\256\020r\307\372"
 311      4A8A3F43 
 311      66F53D02 
 311      5D21AC31 
 311      AE1072C7 
 312 03f7 86601D10 		.ascii	"\206`\035\020\264\025\302\326\037x\325U\234a\205\300"
 312      B415C2D6 
 312      1F78D555 
 312      9C6185C0 
 313 0407 E9277CCD 		.ascii	"\351'|\315y\252\357\362k\315\243\303\314 9~p\242\271"
 313      79AAEFF2 
 313      6BCDA3C3 
 313      CC20397E 
 313      70A2B9
 314 041a BA39648C 		.ascii	"\2729d\214\302\374x\201\330~L\363c\206\372QvL\276\346"
 314      C2FC7881 
 314      D87E4CF3 
 314      6386FA51 
 314      764CBEE6 
 315 042e 7431E65C 		.ascii	"t1\346\\\312\317\234\273\373o\316\025b\316Y\315\234"
 315      CACF9CBB 
 315      FB6FCE15 
 315      62CE59CD 
 315      9C
 316 043f EDFD34E7 		.ascii	"\355\3754\347\"c\316\367\371\2313\2321G^\271\335\206"
 316      2263CEF7 
 316      F999339A 
 316      31475EB9 
 316      DD86
 317 0451 9A9C566E 		.ascii	"\232\234VnX\255\033\334m({\335\204\237\252\353\246\366"
 317      58AD1BDC 
 317      6D287BDD 
 317      849FAAEB 
 317      A6F6
 318 0463 0D6528FB 		.ascii	"\015e(\373*bD\251\233\274\353D\177\334\267m\343\231"
 318      2A6244A9 
 318      9BBCEB44 
 318      7FDCB76D 
 318      E399
 319 0475 8237067A 		.ascii	"\2027\006z\314\037)fo!\323\203.\377N\302\351wn\221\012"
 319      CC1F2966 
 319      6F21D383 
 319      2EFF4EC2 
 319      E9776E91 
 320 048a 78757B7F 		.ascii	"xu{\177w/y\357\017f\363\330\246\205E\2242\015[5\312"
 320      772F79EF 
 320      0F66F3D8 
 320      A6854594 
 320      320D5B35 
 321 049f 6C335226 		.ascii	"l3R&\267\365~35\350\324\262\235\0378L|\246\026)\027"
 321      B7F57E33 
 321      35E8D4B2 
 321      9D1F384C 
 321      7CA61629 
ARM GAS  /tmp/ccKFEoRE.s 			page 25


 322 04b4 8F5E2952 		.ascii	"\217^)R\011\330\353\200S\341\020\276\034\366\015\254"
 322      09D8EB80 
 322      53E110BE 
 322      1CF60DAC 
 323 04c4 5FE6F243 		.ascii	"_\346\362CA\374*\352\227\236\245\012\347r\300\301\236"
 323      41FC2AEA 
 323      979EA50A 
 323      E772C0C1 
 323      9E
 324 04d5 9AC79BAD 		.ascii	"\232\307\233\255\376\361S\225\305\235K\253MX\314e\315"
 324      FEF15395 
 324      C59D4BAB 
 324      4D58CC65 
 324      CD
 325 04e6 CF7E6E23 		.ascii	"\317~n#\307+\210\335K\013\"H\366\305*\350\347\346\363"
 325      C72B88DD 
 325      4B0B2248 
 325      F6C52AE8 
 325      E7E6F3
 326 04f9 231168B7 		.ascii	"#\021h\267\200\277S\363\374\026\352\371\356\267\234"
 326      80BF53F3 
 326      FC16EAF9 
 326      EEB79C
 327 0508 868EDEF7 		.ascii	"\206\216\336\367\025:\337\247\031\337?\314\372\354a"
 327      153ADFA7 
 327      19DF3FCC 
 327      FAEC61
 328 0517 DDDA87F5 		.ascii	"\335\332\207\365\375\"\342\373\335\324\367W\233\015"
 328      FD22E2FB 
 328      DDD4F757 
 328      9B0D
 329 0525 BEB7C1C1 		.ascii	"\276\267\301\301\2465\231\372\276\211\365}\263\231\357"
 329      A63599FA 
 329      BE89F57D 
 329      B399EF
 330 0534 794BDFE3 		.ascii	"yK\337\343\276\335\315\003s\264\340\3476Q\314\236\341"
 330      BEDDCD03 
 330      73B4E0E7 
 330      3651CC9E 
 330      E1
 331 0545 F9205658 		.ascii	"\371 VXG\263\211\211\346? \232\274\237{\011\314\361"
 331      47B38989 
 331      E63F209A 
 331      BC9F7B09 
 331      CCF1
 332 0557 732FB331 		.ascii	"s/\2631\375\200\306\264c\247\026S\275\003\325\372\335"
 332      FD80C6B4 
 332      63A71653 
 332      BD03D5FA 
 332      DD
 333 0568 96C6E8D3 		.ascii	"\226\306\350\323\341q\212y\3657\366\306\214vt\217\234"
 333      E1718A79 
 333      F537F6C6 
 333      8C76748F 
 333      9C
 334 0579 8C4E6ACC 		.ascii	"\214Nj\314{ \037\304\212,D\307\255{\232\323-myt\216"
 334      7B201FC4 
ARM GAS  /tmp/ccKFEoRE.s 			page 26


 334      8A2C44C7 
 334      AD7B9AD3 
 334      2D6D7974 
 335 058e C85E6E4A 		.ascii	"\310^nJ\240\345\014\201V~\370\321\011\263\203\003\201"
 335      A0E50C81 
 335      567EF8D1 
 335      09B38303 
 335      81
 336 059f 61BD4AE4 		.ascii	"a\275J\344F\227\212\331\371f\231\275\323sc\020\2172"
 336      46978AD9 
 336      F96699BD 
 336      D3736310 
 336      8F32
 337 05b1 14B2E768 		.ascii	"\024\262\347h\231\275\217\234\366\277\371\372\210\035"
 337      99BD8F9C 
 337      F6BFF9FA 
 337      881D
 338 05bf A8AF13FB 		.ascii	"\250\257\023\373Z\\4I~Z\252\022Rv\026\303\320\345\014"
 338      5A5C3449 
 338      7E5AAA12 
 338      527616C3 
 338      D0E50C
 339 05d2 43570043 		.ascii	"CW\000C\005 \020a\350J\362\371\232\306S\353\244\272"
 339      05201061 
 339      E84AF2F9 
 339      9AC653EB 
 339      A4BA
 340 05e4 8A6796DF 		.ascii	"\212g\226\337k\250\017z\363\363A\205.b\326\322\226\261"
 340      6BA80F7A 
 340      F3F34185 
 340      2E62D6D2 
 340      96B1
 341 05f6 D236BAB4 		.ascii	"\3226\272\264\225\320\233C\354\305Mp\214\242|\302\267"
 341      95D09B43 
 341      ECC54D70 
 341      8CA27CC2 
 341      B7
 342 0607 8362F6EE 		.ascii	"\203b\366\356rJ\261\023\014\312fc\222\265D\033\205\354"
 342      724AB113 
 342      0CCA6663 
 342      92B5441B 
 342      85EC
 343 0619 D9ED94AE 		.ascii	"\331\355\224\256\0366S\323\321+r\012\243'F\300\202\247"
 343      1E3653D3 
 343      D12B720A 
 343      A32746C0 
 343      82A7
 344 062b 05EAA576 		.ascii	"\005\352\245vJ\205\225'.]\010\313\217\357B\257\246\323"
 344      4A859527 
 344      2E5D08CB 
 344      8FEF42AF 
 344      A6D3
 345 063d 4D584B95 		.ascii	"MXK\225\276i7n\266\232\033\201\216y,$\311M\321\257\320"
 345      BE69376E 
 345      B69A1B81 
 345      8E792C24 
 345      C94DD1AF 
ARM GAS  /tmp/ccKFEoRE.s 			page 27


 346 0652 2ACCB6D6 		.ascii	"*\314\266\326\372rr\370\205\224na\035\2656\362<\253"
 346      FA7272F8 
 346      85946E61 
 346      1DB536F2 
 346      3CAB
 347 0664 3B3EDC6E 		.ascii	";>\334n\351\302\362L\016\2671\252\265q[x\335\351\266"
 347      E9C2F24C 
 347      0EB731AA 
 347      B5715B78 
 347      DDE9B6
 348 0677 DC5C6FE2 		.ascii	"\334\\o\342\0347e{&fn dx\036g\370\315\374\010\224\361"
 348      1C37657B 
 348      26666E20 
 348      64781E67 
 348      F8CDFC08 
 349 068d E660607D 		.ascii	"\346``}\343\273\365J_\244\364\333.XiI\232l\2631y\356"
 349      E3BBF54A 
 349      5FA4F4DB 
 349      2E586949 
 349      9A6CB331 
 350 06a3 2DF91CE8 		.ascii	"-\371\034\350\277\345l\362\"jr\347\322\341\366&\357"
 350      BFE56CF2 
 350      226A72E7 
 350      D2E1F626 
 350      EF
 351 06b4 E0738C69 		.ascii	"\340s\214iZ\027S\334M\037\323\267\007,\246\255\274\363"
 351      5A1753DC 
 351      4D1FD3B7 
 351      072CA6AD 
 351      BCF3
 352 06c6 7F2C1A4E 		.ascii	"\177,\032N3\333\376\264v\236[\201\364\011\357]\222\360"
 352      33DBFEB4 
 352      769E5B81 
 352      F409EF5D 
 352      92F0
 353 06d8 96517F9C 		.ascii	"\226Q\177\234;\263\351\344\003\262\206\271@\361\350"
 353      3BB3E9E4 
 353      03B286B9 
 353      40F1E8
 354 06e7 10E9BACF 		.ascii	"\020\351\272\317t~\331\307\314/m\315\323P\366%X\345"
 354      747ED9C7 
 354      CC2F6DCD 
 354      D350F625 
 354      58E5
 355 06f9 6D834326 		.ascii	"m\203C&\331\371\343\220\336\037y\357\030\376K&\351\243"
 355      D9F9E390 
 355      DE1F79EF 
 355      18FE4B26 
 355      E9A3
 356 070b D40737CF 		.ascii	"\324\0077\317o\372\366\177.5n.\303\216\301\245\3371"
 356      6FFAF67F 
 356      2E356E2E 
 356      C38EC1A5 
 356      DF31
 357 071d B8E88EC1 		.ascii	"\270\350\216\301\245\355\030X\2669\313?\310\343\024"
 357      A5ED1858 
 357      B639CB3F 
ARM GAS  /tmp/ccKFEoRE.s 			page 28


 357      C8E314
 358 072c B2C3A3CA 		.ascii	"\262\303\243\312\177\253\367\322\347\367\310\235\015"
 358      7FABF7D2 
 358      E7F7C89D 
 358      0D
 359 0739 A7E5D852 		.ascii	"\247\345\330Rk?\034\341u\211L\247\265\341\035\254\013"
 359      6B3F1CE1 
 359      75894CA7 
 359      B5E11DAC 
 359      0B
 360 074a 3C6ADC20 		.ascii	"<j\334 \344\3472\026\014\317a+\3312'\335 \250[\341V"
 360      E4E73216 
 360      0CCF612B 
 360      D93227DD 
 360      20A85BE1 
 361 075f B78E2DFA 		.ascii	"\267\216-\3725\001\217\276#B?\341\315\366\303\370\251"
 361      35018FBE 
 361      23423FE1 
 361      CDF6C3F8 
 361      A9
 362 0770 4A968ECC 		.ascii	"J\226\216\314\035&dQV\263\262@%\312\255/\246\033\270"
 362      1D266451 
 362      56B3B240 
 362      25CAAD2F 
 362      A61BB8
 363 0783 D99B7E9E 		.ascii	"\331\233~\236\313*\3748\211\363\354b\355\337\010'\017"
 363      CB2AFC38 
 363      89F3EC62 
 363      EDDF0827 
 363      0F
 364 0794 2AFE2800 		.ascii	"*\376(\000\255\223\240-\240h\227\027\\\332\377\200\352"
 364      AD93A02D 
 364      A0689717 
 364      5CDAFF80 
 364      EA
 365 07a5 6EAF8134 		.ascii	"n\257\2014^=i\274\2244^\2054\362?5Q\201\275x\364r\261"
 365      5E3D69BC 
 365      94345E85 
 365      34F23F35 
 365      5181BD78 
 366 07bc EAD97367 		.ascii	"\352\331sg.\235:+\230\353\237C8s\335\336\220\243K\323"
 366      2E9D3A2B 
 366      98EB9F43 
 366      3873DDDE 
 366      90A34BD3 
 367 07d0 51FF2533 		.ascii	"Q\377%3\352\2733f\007\033|\376g(\335\246\234\351f8\323"
 367      EABB3366 
 367      071B7CFE 
 367      6728DDA6 
 367      9CE96638 
 368 07e5 931966CD 		.ascii	"\223\031f\315\031\263\177=agY\013\374\232]+-%\336\305"
 368      19B37F3D 
 368      6167590B 
 368      FC9A5D2B 
 368      2D25DEC5 
 369 07f9 D2AE66FA 		.ascii	"\322\256f\372\277g\332K\306{\013\305\354-/|\007\014"
 369      BF67DA4B 
ARM GAS  /tmp/ccKFEoRE.s 			page 29


 369      C67B0BC5 
 369      EC2D2F7C 
 369      070C
 370 080b 3B7A8283 		.ascii	";z\202\203\235\336\266\344\216\376\252&\247\302\325"
 370      9DDEB6E4 
 370      8EFEAA26 
 370      A7C2D5
 371 081a 14B27D49 		.ascii	"\024\262}I~\207L\025\006\345\326SZv,\031V\000')\320"
 371      7E874C15 
 371      06E5D653 
 371      5A762C19 
 371      56002729 
 372 082f 8662355D 		.ascii	"\206b5]u6;m\364\354\376\341*oc\344e\376V\212\251\355"
 372      75363B6D 
 372      F4ECFEE1 
 372      2A6F63E4 
 372      65FE568A 
 373 0845 5A0D7B03 		.ascii	"Z\015{\003\266\236\323!\304>fSp@\336\024\274O\266\003"
 373      B69ED321 
 373      C43E6653 
 373      7040DE14 
 373      BC4FB603 
 374 0859 1DE4F362 		.ascii	"\035\344\363b.\233\202\275\032\365\\t\021\203#\303\254"
 374      2E9B82BD 
 374      1AF55C74 
 374      118323C3 
 374      AC
 375 086a 693673CC 		.ascii	"i6s\314W\273\231\023\357i\255E]3\256\225&\225\3469y"
 375      57BB9913 
 375      EF69AD45 
 375      5D33AE95 
 375      2695E639 
 376 087f 7D47C8BC 		.ascii	"}G\310\274\223\246\301\015\355M\3272\312\344i\030p\327"
 376      93A6C10D 
 376      ED4DD732 
 376      CAE46918 
 376      70D7
 377 0891 6C67AF9B 		.ascii	"lg\257\2336\263W\326;V_|c\326v_\0273+\366\265;\224\027"
 377      36B357D6 
 377      3B565F7C 
 377      63D6765F 
 377      17332BF6 
 378 08a9 ECF24E1E 		.ascii	"\354\362N\036\177\337\223v{`\235v\266\324\\\253\"\266"
 378      7FDF9376 
 378      7B609D76 
 378      B6D45CAB 
 378      22B6
 379 08bb 13F6BF9F 		.ascii	"\023\366\277\237;O\326\204\270\323\001\213-\223\032"
 379      3B4FD684 
 379      B8D3018B 
 379      2D931A
 380 08ca 2AB6AFBC 		.ascii	"*\266\257\2749\232\355U\005v\257\335\315[\366&\221e"
 380      399AED55 
 380      0576AFDD 
 380      CD5BF626 
 380      9165
 381 08dc 7BCB1E7E 		.ascii	"{\313\036~\221\366>6\330\262/n\252\353K\266P\177\243"
ARM GAS  /tmp/ccKFEoRE.s 			page 30


 381      91F63E36 
 381      D8B22F6E 
 381      AAEB4BB6 
 381      507FA3
 382 08ef 5D6F582B 		.ascii	"]oX+\215\035\251P\317l\005\217{w\256\215\331.\341{\007"
 382      8D1DA950 
 382      CF6C058F 
 382      7B77AE8D 
 382      D92EE17B 
 383 0904 6C85DB20 		.ascii	"l\205\333 \344\367\233\234g(\302 \003=\347\013x\244"
 383      E4F79B9C 
 383      6728C220 
 383      033DE70B 
 383      78A4
 384 0916 FFDDAB72 		.ascii	"\377\335\253r\342\302'\227O\313;O\344\014\204UY(\230"
 384      E2C22797 
 384      4FCB3B4F 
 384      E40C8455 
 384      592898
 385 0929 CD71F829 		.ascii	"\315q\370)=\274\317\230\035\275Y\256ls\372\271G+Q\270"
 385      3DBCCF98 
 385      1DBD59AE 
 385      6C73FAB9 
 385      472B51B8 
 386 093d C9547613 		.ascii	"\311Tv\023+\373_n\023\331\372#\327\305\002&A;E\354p"
 386      2BFB5F6E 
 386      13D9FA23 
 386      D7C50226 
 386      413B45EC 
 387 0952 3A5CD00F 		.ascii	":\\\320\017}\375e\0353,\206\016\302\016\"\015{\251\243"
 387      7DFD651D 
 387      332C860E 
 387      C20E220D 
 387      7BA9A3
 388 0965 90C9CD64 		.ascii	"\220\311\315dN\352\244\210\235\231\202\346$\035\246"
 388      4EEAA488 
 388      9D9982E6 
 388      241DA6
 389 0974 BCE4FE96 		.ascii	"\274\344\376\226b\3668hi:\245d_,]\374\334\"\201\344"
 389      62F63868 
 389      693AA564 
 389      5F2C5DFC 
 389      DC2281E4 
 390 0988 FF460167 		.ascii	"\377F\001g\376\014\371l\026r\310\377\3634O\026\231'"
 390      FE0CF96C 
 390      1672C8FF 
 390      F3344F16 
 390      9927
 391 099a 7C65A4DB 		.ascii	"|e\244\333\245\301\353^-\015.>m\226\006\347\021^,.\301"
 391      A5C1EB5E 
 391      2D0D2E3E 
 391      6D9606E7 
 391      115E2C2E 
 392 09af EDE60A90 		.ascii	"\355\346\012\220\321,\362\212`Le~n\266\300+\235\032"
 392      D12CF28A 
 392      604C657E 
 392      6EB6C02B 
ARM GAS  /tmp/ccKFEoRE.s 			page 31


 392      9D1A
 393 09c1 C6E497C8 		.ascii	"\306\344\227\310\374\334\034\332\267g\3735\3534h\226"
 393      FCDC1CDA 
 393      B767FB35 
 393      EB346896 
 394 09d1 CAFCDC0B 		.ascii	"\312\374\334\013\264\363\015\353,(\2472\342E\263T\206"
 394      B4F30DEB 
 394      2C28A732 
 394      E245B354 
 394      86
 395 09e2 7B776FB7 		.ascii	"{wo\267Oe+\204\254T\326\325\3308\247%\357_\027\256\026"
 395      4F652B84 
 395      AC54D6D5 
 395      D838A725 
 395      EF5F17AE 
 396 09f7 0C132CF1 		.ascii	"\014\023,\361\272M\334^*\321R\325\221\233\015\002\253"
 396      BA4DDC5E 
 396      2AD152D5 
 396      919B0D02 
 396      AB
 397 0a08 06D83050 		.ascii	"\006\3300Pz\2557\3525\311xF\262\202*\002\033\304\351"
 397      7AAD37EA 
 397      35C97846 
 397      B2822A02 
 397      1BC4E9
 398 0a1b 7A35360C 		.ascii	"z56\014\224\032o\030\325 \307i\364[\013!\275N\255\265"
 398      941A6F18 
 398      D520C769 
 398      F45B0B21 
 398      BD4EADB5 
 399 0a2f 54AD53CB 		.ascii	"T\255S\313\276\030\256Wks\036j\331O@[M\334\223\333Z"
 399      BE18AE57 
 399      6B731E6A 
 399      D94F405B 
 399      4DDC93DB 
 400 0a44 2C87A1F9 		.ascii	",\207\241\371f\211\266X:r\375\270!\304;\3630\302\366"
 400      6689B658 
 400      3A72FDB8 
 400      21C43BF3 
 400      30C2F6
 401 0a57 586497D1 		.ascii	"Xd\227\321\006\262\3561\030\241S\254\215\011\371\342"
 401      06B2EE31 
 401      18A153AC 
 401      8D09F9E2 
 402 0a67 6B198362 		.ascii	"k\031\203b\255\003\245\330^\2631\241'\337af\0244=\257"
 402      AD03A5D8 
 402      5EB331A1 
 402      27DF6166 
 402      14343DAF 
 403 0a7b D7A34DAF 		.ascii	"\327\243M\257\207a\221\211\007\234\265\350\367\264\324"
 403      87619189 
 403      079CB5E8 
 403      F7B4D4
 404 0a8a 5A8156C8 		.ascii	"Z\201V\310\007\261\234\356 v\345\211M7\377\214\034\032"
 404      07B19CEE 
 404      2076E589 
 404      4D37FF8C 
ARM GAS  /tmp/ccKFEoRE.s 			page 32


 404      1C1A
 405 0a9c 691BF55B 		.ascii	"i\033\365[Q\243\274S\316\224\311\277\267Qe\337Be\363"
 405      51A3BC53 
 405      CE94C9BF 
 405      B75165DF 
 405      4265F3
 406 0aaf 8AEC03C2 		.ascii	"\212\354\003\302\255\244\246\373\0016ib\255\357\373"
 406      ADA4A6FB 
 406      01366962 
 406      ADEFFB
 407 0abe 823CDD68 		.ascii	"\202<\335h3\233Z\343\364\012T\030\345O\240-=\012\326"
 407      339B5AE3 
 407      F40A5418 
 407      E54FA02D 
 407      3D0AD6
 408 0ad1 C102E41F 		.ascii	"\301\002\344\037\262\224\257\256;~\201^I\037>\334\230"
 408      B294AFAE 
 408      3B7E815E 
 408      491F3EDC 
 408      98
 409 0ae2 AE2FAFEF 		.ascii	"\256/\257\357\352\353\033\301\252\323\305\250c\\XY\251"
 409      EAEB1BC1 
 409      AAD3C5A8 
 409      635C5859 
 409      A9
 410 0af3 9DBD00FB 		.ascii	"\235\275\000\373\240\000\265?\264T\233\375\261\250\326"
 410      A000B53F 
 410      B4549BFD 
 410      B1A8D6
 411 0b02 0EAF2F08 		.ascii	"\016\257/\010\343\360Au\333\2222+mx\364U\011\247\364"
 411      E3F04175 
 411      DB92322B 
 411      6D78F455 
 411      09A7F4
 412 0b15 C51503F7 		.ascii	"\305\025\003\367\326\333r\357\210\240\333\304\030\372"
 412      D6DB72EF 
 412      88A0DBC4 
 412      18FA
 413 0b23 E29FA15B 		.ascii	"\342\237\241[\367\375X\343m\216\016\017S\214\301\266"
 413      F7FD58E3 
 413      6D8E0E0F 
 413      538CC1B6 
 414 0b33 0E37B6F3 		.ascii	"\0167\266\363s\237\026\340\360\243\226\016\037\244s"
 414      739F16E0 
 414      F0A3960E 
 414      1FA473
 415 0b42 B8DA0EAA 		.ascii	"\270\332\016\252\207\005\365x\275\367gV\312\360\350"
 415      8705F578 
 415      BDF76756 
 415      CAF0E8
 416 0b51 8ACEDF26 		.ascii	"\212\316\337&\303\021\003h\303\321\242A\373\362a\216"
 416      C3110368 
 416      C3D1A241 
 416      FBF2618E 
 417 0b61 4DB41347 		.ascii	"M\264\023GCdv\331F\265S\213\214\241\337V\333~_X\366"
 417      436476D9 
 417      46B5538B 
ARM GAS  /tmp/ccKFEoRE.s 			page 33


 417      8CA1DF56 
 417      DB7E5F58 
 418 0b76 7BC3B6DF 		.ascii	"{\303\266\337\011\313~{m\373\235\314\233A\207\265\243"
 418      09CB7E7B 
 418      6DFB9DCC 
 418      9B4187B5 
 418      A3
 419 0b87 90E1B614 		.ascii	"\220\341\266\024\312j\010\257\013\340\320iK\016\335"
 419      CA6A08AF 
 419      0BE0D069 
 419      4B0EDD
 420 0b96 AEE3D069 		.ascii	"\256\343\320i#\207\360\202\256}G\231\245:\260\365.e"
 420      2387F082 
 420      AE7D4799 
 420      A53AB0F5 
 420      2E65
 421 0ba8 59845CD1 		.ascii	"Y\204\\\321TM@r?\376\373?VLF\343*+}\362_<\345KJ\276"
 421      544D4072 
 421      3FFEFB3F 
 421      564C46E3 
 421      2A2B7DF2 
 422 0bc2 443C29A5 		.ascii	"D<)\245|\217<9u\362\324\231\276P<\232\210\324\212\311"
 422      7C8F3C39 
 422      75F2D499 
 422      BE503C9A 
 422      88D48AC9 
 423 0bd6 94EFF1C9 		.ascii	"\224\357\361\311\223}\241\2604+!\246*\303\310\023\211"
 423      937DA1B0 
 423      342B21A6 
 423      2AC3C813 
 423      89
 424 0be7 4963EF0B 		.ascii	"Ic\357\013H\222/\236\220pc_M(4*\230\214\216\212\305"
 424      48922F9E 
 424      9070635F 
 424      4D28342A 
 424      988C8E8A 
 425 0bfc 63E22831 		.ascii	"c\342(18-2j\\`\374\250\373F\217\031\373\334X\337\264"
 425      382D326A 
 425      5C60FCA8 
 425      FB468F19 
 425      FBDC58DF 
 426 0c11 480C0BA8 		.ascii	"H\014\013\250\215L\303\355|\272v\276q\225\343+\307\371"
 426      8D4CC3ED 
 426      7CBA76BE 
 426      7195E32B 
 426      C7F9
 427 0c23 A816F0A7 		.ascii	"\250\026\360\247\177\037\211\205j\353\252D_J\252\002"
 427      7F1F8985 
 427      6AEBAA44 
 427      5F4AAA02 
 428 0c33 A920DC2D 		.ascii	"\251 \334-\205\223b\260\252\302\240\270\332.\024N\205"
 428      859362B0 
 428      AAC2A0B8 
 428      DA2E144E 
 428      85
 429 0c44 C255B85D 		.ascii	"\302U\270]\"\020\023gJpK$\305\351\036)\221\214\304\003"
 429      22101367 
ARM GAS  /tmp/ccKFEoRE.s 			page 34


 429      4A704B24 
 429      C5E91E29 
 429      918CC403 
 430 0c58 52719DA2 		.ascii	"Rq\235\242;y\036\211{B\361\230\004\315F\332\372!\034"
 430      3B791E89 
 430      7B42F198 
 430      04CD46DA 
 430      FA211C
 431 0c6b 8A2745C0 		.ascii	"\212'E\300,\305\217\003\200\020\222f\336\343\334#0}"
 431      2CC58F03 
 431      80109266 
 431      DEE3DC23 
 431      307D
 432 0c7d 7C147A15 		.ascii	"|\024z\025'\305\0320* \361\311q|\362\327|\362~>9\236"
 432      27C51A30 
 432      2A20F1C9 
 432      717CF2D7 
 432      7CF27E3E 
 433 0c93 4F4EE093 		.ascii	"ON\340\223\023\205\344\230\321P\306\360\265I\270\215"
 433      1385E498 
 433      D150C6F0 
 433      B549B88D 
 434 0ca3 75250280 		.ascii	"u%\002\200\354\301\232\317\020\223p\217\327V\211\311"
 434      ECC19ACF 
 434      1093708F 
 434      D75689C9 
 435 0cb3 A2503898 		.ascii	"\242P8\230\304\346\004\243b\261\224\222\202\222\030"
 435      C4E604A3 
 435      62B19492 
 435      829218
 436 0cc2 903CD890 		.ascii	"\220<\330\220\011pO\004\310\023\217\024\215W\211\344"
 436      09704F04 
 436      C8138F14 
 436      8D5789E4 
 437 0cd2 7B756DB0 		.ascii	"{um\260&\345\221\222bu\212\330\211+\356d\325,\210{\261"
 437      26E59192 
 437      62758AD8 
 437      892BEE64 
 437      D52C887B 
 438 0ce7 38332285 		.ascii	"83\"\205\240\241{\206\024\237\366\327D\2518]\214I\321"
 438      A0A17B86 
 438      149FF6D7 
 438      44A9385D 
 438      8C49D1
 439 0cfa 60EA5968 		.ascii	"`\352Yh)\316\300\025!\021\250+\223}\234\012\324FRR@"
 439      29CEC015 
 439      2111A82B 
 439      937D9C0A 
 439      D4465252 
 440 0d0f F2260233 		.ascii	"\362&\0023\202\021)\022\253\031\242\276x\256N\254\003"
 440      82112912 
 440      AB19A2BE 
 440      78AE4EAC 
 440      03
 441 0d20 69258900 		.ascii	"i%\211\000\240\222/.R\205\007bB\214A\254j\\\321:\360"
 441      A0922F2E 
 441      52850762 
ARM GAS  /tmp/ccKFEoRE.s 			page 35


 441      428C41AC 
 441      6A5CD13A 
 442 0d35 EC08CB38 		.ascii	"\354\010\3138E\245\231\230KQ\031\013\356\361\03110\232"
 442      45A59998 
 442      4B51190B 
 442      EEF11931 
 442      309A
 443 0d47 F4026DA2 		.ascii	"\364\002m\242$| \032\332a5J\260!\301Z\0224x\230\210"
 443      247C201A 
 443      DA61354A 
 443      B021C15A 
 443      12347898 
 444 0d5c C76B6F0B 		.ascii	"\307ko\013\205\237\016W=)\326\212\301\224X\231\010&"
 444      859F0E57 
 444      3D29D68A 
 444      C1945899 
 444      0826
 445 0d6e A5CAD146 		.ascii	"\245\312\321Fy\251d\010dU\315\002\347EB\225!\304K\211"
 445      79A96408 
 445      6455CD02 
 445      E7454295 
 445      21C44B89 
 446 0d82 52D2ED91 		.ascii	"R\322\355\221*\350Y=\210\205\030\034\025\243\361\344"
 446      2AE8593D 
 446      8885181C 
 446      15A3F1E4 
 447 0d92 AC40580C 		.ascii	"\254@X\014&\002\2225\303\360{\314\006\246\271;\025y"
 447      26029235 
 447      C3F07BCC 
 447      06A6B93B 
 447      1579
 448 0da4 1EFCF197 		.ascii	"\036\374\361\227\001\033\021\014\357\253\304j\2206\010"
 448      011B110C 
 448      EFABC46A 
 448      903608
 449 0db3 A4D58852 		.ascii	"\244\325\210Ru],\024\220~i\355U1\252\220\265$\014\014"
 449      755D2C14 
 449      907E69ED 
 449      5531AA90 
 449      B5240C0C 
 450 0dc7 8F4F8F00 		.ascii	"\217O\217\000\203J\211E\360\001\365\222\224\364l\260"
 450      834A8945 
 450      F001F592 
 450      94F46CB0 
 451 0dd7 36521353 		.ascii	"6R\023S\006\303\375\343\002\222\213<(\302\016/\302M"
 451      06C3FDE3 
 451      02928B3C 
 451      28C20E2F 
 451      C24D
 452 0de9 B9BA226C 		.ascii	"\271\272\"l\017\027v\207\003\325IQt\205q\024<\216\302"
 452      0F177687 
 452      03D54951 
 452      74857114 
 452      3C8EC2
 453 0dfc 15768070 		.ascii	"\025v\200p94\223\341\253$>\226\214G\247\000\252\013"
 453      393493E1 
 453      AB243E96 
ARM GAS  /tmp/ccKFEoRE.s 			page 36


 453      8C47A700 
 453      AA0B
 454 0e0e 43278A70 		.ascii	"C'\212p\004\371D\265\020L\326\250\016\307\301\014Hw"
 454      04F944B5 
 454      104CD6A8 
 454      0EC7C10C 
 454      4877
 455 0e20 D919859B 		.ascii	"\331\031\205\233\244\344!\010meS<\2110!\211'*\217\365"
 455      A4E42108 
 455      6D65533C 
 455      89302189 
 455      272A8FF5 
 456 0e34 32B803AB 		.ascii	"2\270\003\253\305\220\024\300\352\227F\023\324\003\267"
 456      C59014C0 
 456      EA974613 
 456      D403B7
 457 0e43 1BF4994A 		.ascii	"\033\364\231J\004\377\001\260\370h\242$\024\306\265"
 457      04FF01B0 
 457      F868A224 
 457      14C6B5
 458 0e52 C7C052A8 		.ascii	"\307\300R\250bUq\025\250\361T(\374\247\340\263b]\342"
 458      62557115 
 458      A8F15428 
 458      FCA7E0B3 
 458      625DE2
 459 0e65 A9414CFF 		.ascii	"\251AL\377'J\345F\217\324\326\306C\245r_R/\016\004\210"
 459      274AE546 
 459      8FD4D6C6 
 459      43A5725F 
 459      522F0E04 
 460 0e7a 870283D5 		.ascii	"\207\002\203\325J\345\375\243'N`\276\215\031=\226\375"
 460      4AE5FDA3 
 460      274E60BE 
 460      8D193D96 
 460      FD
 461 0e8b 76DFB8FF 		.ascii	"v\337\270\377\003\363\213u\250"
 461      03F38B75 
 461      A8
 462              		.text
 463              		.section	.gnu.lto_.symtab.528bfc2a99b116e2,"",%progbits
 464 0000 63685468 		.ascii	"chThdAddRef\000\000\000\000\000\000\000\000\000\000"
 464      64416464 
 464      52656600 
 464      00000000 
 464      00000000 
 465 0015 00003301 		.ascii	"\000\0003\001\000\000chThdRelease\000\000\000\000\000"
 465      00006368 
 465      54686452 
 465      656C6561 
 465      73650000 
 466 002c 00000000 		.ascii	"\000\000\000\000\000\000\0009\001\000\000chThdCreat"
 466      00000039 
 466      01000063 
 466      68546864 
 466      43726561 
 467 0041 6546726F 		.ascii	"eFromHeap\000\000\000\000\000\000\000\000\000\000\000"
 467      6D486561 
ARM GAS  /tmp/ccKFEoRE.s 			page 37


 467      70000000 
 467      00000000 
 467      00000000 
 468 0055 003F0100 		.ascii	"\000?\001\000\000chThdCreateFromMemoryPool\000\000\000"
 468      00636854 
 468      68644372 
 468      65617465 
 468      46726F6D 
 469 0076 00000000 		.ascii	"\000\000\000\000\000\000\000\000\000\207\001\000\000"
 469      00000000 
 469      00870100 
 469      00
 470 0083 6368506F 		.ascii	"chPoolFree\000\000\002\000\000\000\000\000\000\000\000"
 470      6F6C4672 
 470      65650000 
 470      02000000 
 470      00000000 
 471 0098 00A60100 		.ascii	"\000\246\001\000\000chHeapFree\000\000\002\000\000\000"
 471      00636848 
 471      65617046 
 471      72656500 
 471      00020000 
 472 00ad 00000000 		.ascii	"\000\000\000\000\000\000\253\001\000\000chSchWakeup"
 472      0000AB01 
 472      00006368 
 472      53636857 
 472      616B6575 
 473 00c2 53000002 		.ascii	"S\000\000\002\000\000\000\000\000\000\000\000\000\257"
 473      00000000 
 473      00000000 
 473      00AF
 474 00d0 01000063 		.ascii	"\001\000\000chThdCreateI\000\000\002\000\000\000\000"
 474      68546864 
 474      43726561 
 474      74654900 
 474      00020000 
 475 00e6 00000000 		.ascii	"\000\000\000\000\000\264\001\000\000chHeapAlloc\000"
 475      00B40100 
 475      00636848 
 475      65617041 
 475      6C6C6F63 
 476 00fb 00020000 		.ascii	"\000\002\000\000\000\000\000\000\000\000\000\274\001"
 476      00000000 
 476      000000BC 
 476      01
 477 0108 00006368 		.ascii	"\000\000chPoolAlloc\000\000\002\000\000\000\000\000"
 477      506F6F6C 
 477      416C6C6F 
 477      63000002 
 477      00000000 
 478 011d 00000000 		.ascii	"\000\000\000\000\301\001\000\000"
 478      C1010000 
 479              		.text
 480              		.section	.gnu.lto_.opts,"",%progbits
 481 0000 272D6D63 		.ascii	"'-mcpu=cortex-m3''-mno-thumb-interwork''-mthumb''-g"
 481      70753D63 
 481      6F727465 
ARM GAS  /tmp/ccKFEoRE.s 			page 38


 481      782D6D33 
 481      27272D6D 
 482 0033 67646227 		.ascii	"gdb''-O2''-fomit-frame-pointer''-falign-functions=1"
 482      272D4F32 
 482      27272D66 
 482      6F6D6974 
 482      2D667261 
 483 0066 3627272D 		.ascii	"6''-ffunction-sections''-fdata-sections''-fno-commo"
 483      6666756E 
 483      6374696F 
 483      6E2D7365 
 483      6374696F 
 484 0099 6E27272D 		.ascii	"n''-flto'\000"
 484      666C746F 
 484      2700
 485              		.text
 486              		.cfi_sections	.debug_frame
 487              		.section	.text.chThdAddRef,"ax",%progbits
 488              		.align	2
 489              		.p2align 4,,15
 490              		.global	chThdAddRef
 491              		.thumb
 492              		.thumb_func
 493              		.type	chThdAddRef, %function
 494              	chThdAddRef:
 495              	.LFB165:
 496              		.file 1 "../../../os/rt/src/chdynamic.c"
 497              		.loc 1 69 0
 498              		.cfi_startproc
 499              		@ args = 0, pretend = 0, frame = 0
 500              		@ frame_needed = 0, uses_anonymous_args = 0
 501              		@ link register save eliminated.
 502              	.LVL0:
 503              	.LBB63:
 504              	.LBB64:
 505              	.LBB65:
 506              	.LBB66:
 507              		.file 2 "../../../os/ext/CMSIS/include/core_cmFunc.h"
 508              		.loc 2 546 0
 509 0000 2022     		movs	r2, #32
 510              	@ 546 "../../../os/ext/CMSIS/include/core_cmFunc.h" 1
 511 0002 82F31188 		MSR basepri, r2
 512              	@ 0 "" 2
 513              		.thumb
 514              	.LBE66:
 515              	.LBE65:
 516              	.LBE64:
 517              	.LBE63:
 518              		.loc 1 73 0
 519 0006 817F     		ldrb	r1, [r0, #30]	@ zero_extendqisi2
 520              	.LBB67:
 521              	.LBB68:
 522              	.LBB69:
 523              	.LBB70:
 524              	.LBB71:
 525              		.loc 2 546 0
 526 0008 0023     		movs	r3, #0
ARM GAS  /tmp/ccKFEoRE.s 			page 39


 527              	.LBE71:
 528              	.LBE70:
 529              	.LBE69:
 530              	.LBE68:
 531              	.LBE67:
 532              		.loc 1 73 0
 533 000a 4A1C     		adds	r2, r1, #1
 534 000c 8277     		strb	r2, [r0, #30]
 535              	.LVL1:
 536              	.LBB76:
 537              	.LBB75:
 538              	.LBB74:
 539              	.LBB73:
 540              	.LBB72:
 541              		.loc 2 546 0
 542              	@ 546 "../../../os/ext/CMSIS/include/core_cmFunc.h" 1
 543 000e 83F31188 		MSR basepri, r3
 544              	@ 0 "" 2
 545              		.thumb
 546              	.LBE72:
 547              	.LBE73:
 548              	.LBE74:
 549              	.LBE75:
 550              	.LBE76:
 551              		.loc 1 76 0
 552 0012 7047     		bx	lr
 553              		.cfi_endproc
 554              	.LFE165:
 555              		.size	chThdAddRef, .-chThdAddRef
 556 0014 AFF30080 		.section	.text.chThdRelease,"ax",%progbits
 556      AFF30080 
 556      AFF30080 
 557              		.align	2
 558              		.p2align 4,,15
 559              		.global	chThdRelease
 560              		.thumb
 561              		.thumb_func
 562              		.type	chThdRelease, %function
 563              	chThdRelease:
 564              	.LFB166:
 565              		.loc 1 91 0
 566              		.cfi_startproc
 567              		@ args = 0, pretend = 0, frame = 0
 568              		@ frame_needed = 0, uses_anonymous_args = 0
 569              		@ link register save eliminated.
 570              	.LVL2:
 571              		.loc 1 91 0
 572 0000 0146     		mov	r1, r0
 573              	.LBB97:
 574              	.LBB98:
 575              	.LBB99:
 576              	.LBB100:
 577              		.loc 2 546 0
 578 0002 2023     		movs	r3, #32
 579              	@ 546 "../../../os/ext/CMSIS/include/core_cmFunc.h" 1
 580 0004 83F31188 		MSR basepri, r3
 581              	@ 0 "" 2
ARM GAS  /tmp/ccKFEoRE.s 			page 40


 582              		.thumb
 583              	.LBE100:
 584              	.LBE99:
 585              	.LBE98:
 586              	.LBE97:
 587              		.loc 1 96 0
 588 0008 827F     		ldrb	r2, [r0, #30]	@ zero_extendqisi2
 589 000a 531E     		subs	r3, r2, #1
 590 000c DBB2     		uxtb	r3, r3
 591 000e 8377     		strb	r3, [r0, #30]
 592              	.LVL3:
 593              	.LBB101:
 594              	.LBB102:
 595              	.LBB103:
 596              	.LBB104:
 597              	.LBB105:
 598              		.loc 2 546 0
 599 0010 0022     		movs	r2, #0
 600              	@ 546 "../../../os/ext/CMSIS/include/core_cmFunc.h" 1
 601 0012 82F31188 		MSR basepri, r2
 602              	@ 0 "" 2
 603              		.thumb
 604              	.LBE105:
 605              	.LBE104:
 606              	.LBE103:
 607              	.LBE102:
 608              	.LBE101:
 609              		.loc 1 102 0
 610 0016 13B9     		cbnz	r3, .L2
 611              		.loc 1 102 0 is_stmt 0 discriminator 1
 612 0018 037F     		ldrb	r3, [r0, #28]	@ zero_extendqisi2
 613              	.LVL4:
 614 001a 0F2B     		cmp	r3, #15
 615 001c 00D0     		beq	.L7
 616              	.L2:
 617 001e 7047     		bx	lr
 618              	.L7:
 619              		.loc 1 103 0 is_stmt 1
 620 0020 427F     		ldrb	r2, [r0, #29]	@ zero_extendqisi2
 621 0022 02F00303 		and	r3, r2, #3
 622 0026 012B     		cmp	r3, #1
 623 0028 09D0     		beq	.L4
 624 002a 022B     		cmp	r3, #2
 625 002c F7D1     		bne	.L2
 626              	.LVL5:
 627              	.LBB106:
 628              	.LBB107:
 629              		.loc 1 115 0
 630 002e 4369     		ldr	r3, [r0, #20]
 631 0030 0269     		ldr	r2, [r0, #16]
 632              		.loc 1 117 0
 633 0032 006C     		ldr	r0, [r0, #64]
 634              	.LVL6:
 635              		.loc 1 115 0
 636 0034 1A61     		str	r2, [r3, #16]
 637 0036 0A69     		ldr	r2, [r1, #16]
 638 0038 5361     		str	r3, [r2, #20]
ARM GAS  /tmp/ccKFEoRE.s 			page 41


 639              	.LBE107:
 640              	.LBE106:
 641              		.loc 1 122 0
 642              	.LBB109:
 643              	.LBB108:
 644              		.loc 1 117 0
 645 003a FFF7FEBF 		b	chPoolFree
 646              	.LVL7:
 647              	.L4:
 648              	.LBE108:
 649              	.LBE109:
 650              		.loc 1 107 0
 651 003e 4369     		ldr	r3, [r0, #20]
 652 0040 0269     		ldr	r2, [r0, #16]
 653 0042 1A61     		str	r2, [r3, #16]
 654 0044 0169     		ldr	r1, [r0, #16]
 655 0046 4B61     		str	r3, [r1, #20]
 656              		.loc 1 122 0
 657              		.loc 1 109 0
 658 0048 FFF7FEBF 		b	chHeapFree
 659              	.LVL8:
 660              		.cfi_endproc
 661              	.LFE166:
 662              		.size	chThdRelease, .-chThdRelease
 663 004c AFF30080 		.section	.text.chThdCreateFromHeap,"ax",%progbits
 664              		.align	2
 665              		.p2align 4,,15
 666              		.global	chThdCreateFromHeap
 667              		.thumb
 668              		.thumb_func
 669              		.type	chThdCreateFromHeap, %function
 670              	chThdCreateFromHeap:
 671              	.LFB167:
 672              		.loc 1 148 0
 673              		.cfi_startproc
 674              		@ args = 4, pretend = 0, frame = 0
 675              		@ frame_needed = 0, uses_anonymous_args = 0
 676              	.LVL9:
 677 0000 F0B5     		push	{r4, r5, r6, r7, lr}
 678              	.LCFI0:
 679              		.cfi_def_cfa_offset 20
 680              		.cfi_offset 4, -20
 681              		.cfi_offset 5, -16
 682              		.cfi_offset 6, -12
 683              		.cfi_offset 7, -8
 684              		.cfi_offset 14, -4
 685 0002 83B0     		sub	sp, sp, #12
 686              	.LCFI1:
 687              		.cfi_def_cfa_offset 32
 688              		.loc 1 148 0
 689 0004 0D46     		mov	r5, r1
 690 0006 1746     		mov	r7, r2
 691 0008 1E46     		mov	r6, r3
 692              		.loc 1 152 0
 693 000a FFF7FEFF 		bl	chHeapAlloc
 694              	.LVL10:
 695              		.loc 1 153 0
ARM GAS  /tmp/ccKFEoRE.s 			page 42


 696 000e 0446     		mov	r4, r0
 697 0010 90B1     		cbz	r0, .L9
 698              	.LVL11:
 699              	.LBB110:
 700              	.LBB111:
 701              	.LBB112:
 702              	.LBB113:
 703              		.loc 2 546 0
 704 0012 2023     		movs	r3, #32
 705              	@ 546 "../../../os/ext/CMSIS/include/core_cmFunc.h" 1
 706 0014 83F31188 		MSR basepri, r3
 707              	@ 0 "" 2
 708              		.thumb
 709              	.LBE113:
 710              	.LBE112:
 711              	.LBE111:
 712              	.LBE110:
 713              		.loc 1 166 0
 714 0018 089C     		ldr	r4, [sp, #32]
 715 001a 2946     		mov	r1, r5
 716 001c 3A46     		mov	r2, r7
 717 001e 3346     		mov	r3, r6
 718 0020 0094     		str	r4, [sp, #0]
 719 0022 FFF7FEFF 		bl	chThdCreateI
 720              	.LVL12:
 721              		.loc 1 167 0
 722 0026 0121     		movs	r1, #1
 723 0028 4177     		strb	r1, [r0, #29]
 724              		.loc 1 168 0
 725 002a 0021     		movs	r1, #0
 726              		.loc 1 166 0
 727 002c 0446     		mov	r4, r0
 728              	.LVL13:
 729              		.loc 1 168 0
 730 002e FFF7FEFF 		bl	chSchWakeupS
 731              	.LVL14:
 732              	.LBB114:
 733              	.LBB115:
 734              	.LBB116:
 735              	.LBB117:
 736              	.LBB118:
 737              		.loc 2 546 0
 738 0032 0020     		movs	r0, #0
 739              	@ 546 "../../../os/ext/CMSIS/include/core_cmFunc.h" 1
 740 0034 80F31188 		MSR basepri, r0
 741              	@ 0 "" 2
 742              	.LVL15:
 743              		.thumb
 744              	.L9:
 745              	.LBE118:
 746              	.LBE117:
 747              	.LBE116:
 748              	.LBE115:
 749              	.LBE114:
 750              		.loc 1 171 0
 751 0038 2046     		mov	r0, r4
 752 003a 03B0     		add	sp, sp, #12
ARM GAS  /tmp/ccKFEoRE.s 			page 43


 753 003c F0BD     		pop	{r4, r5, r6, r7, pc}
 754              		.cfi_endproc
 755              	.LFE167:
 756              		.size	chThdCreateFromHeap, .-chThdCreateFromHeap
 757 003e 00BF     		.section	.text.chThdCreateFromMemoryPool,"ax",%progbits
 758              		.align	2
 759              		.p2align 4,,15
 760              		.global	chThdCreateFromMemoryPool
 761              		.thumb
 762              		.thumb_func
 763              		.type	chThdCreateFromMemoryPool, %function
 764              	chThdCreateFromMemoryPool:
 765              	.LFB168:
 766              		.loc 1 197 0
 767              		.cfi_startproc
 768              		@ args = 0, pretend = 0, frame = 0
 769              		@ frame_needed = 0, uses_anonymous_args = 0
 770              	.LVL16:
 771 0000 2DE9F041 		push	{r4, r5, r6, r7, r8, lr}
 772              	.LCFI2:
 773              		.cfi_def_cfa_offset 24
 774              		.cfi_offset 4, -24
 775              		.cfi_offset 5, -20
 776              		.cfi_offset 6, -16
 777              		.cfi_offset 7, -12
 778              		.cfi_offset 8, -8
 779              		.cfi_offset 14, -4
 780 0004 82B0     		sub	sp, sp, #8
 781              	.LCFI3:
 782              		.cfi_def_cfa_offset 32
 783              		.loc 1 197 0
 784 0006 0546     		mov	r5, r0
 785 0008 8846     		mov	r8, r1
 786 000a 1746     		mov	r7, r2
 787 000c 1E46     		mov	r6, r3
 788              		.loc 1 203 0
 789 000e FFF7FEFF 		bl	chPoolAlloc
 790              	.LVL17:
 791              		.loc 1 204 0
 792 0012 0446     		mov	r4, r0
 793 0014 90B1     		cbz	r0, .L12
 794              	.LVL18:
 795              	.LBB119:
 796              	.LBB120:
 797              	.LBB121:
 798              	.LBB122:
 799              		.loc 2 546 0
 800 0016 2023     		movs	r3, #32
 801              	@ 546 "../../../os/ext/CMSIS/include/core_cmFunc.h" 1
 802 0018 83F31188 		MSR basepri, r3
 803              	@ 0 "" 2
 804              		.thumb
 805              	.LBE122:
 806              	.LBE121:
 807              	.LBE120:
 808              	.LBE119:
 809              		.loc 1 217 0
ARM GAS  /tmp/ccKFEoRE.s 			page 44


 810 001c 6968     		ldr	r1, [r5, #4]
 811 001e 4246     		mov	r2, r8
 812 0020 3B46     		mov	r3, r7
 813 0022 0096     		str	r6, [sp, #0]
 814 0024 FFF7FEFF 		bl	chThdCreateI
 815              	.LVL19:
 816              		.loc 1 218 0
 817 0028 0221     		movs	r1, #2
 818 002a 4177     		strb	r1, [r0, #29]
 819              		.loc 1 219 0
 820 002c 0564     		str	r5, [r0, #64]
 821              		.loc 1 220 0
 822 002e 0021     		movs	r1, #0
 823              		.loc 1 217 0
 824 0030 0446     		mov	r4, r0
 825              	.LVL20:
 826              		.loc 1 220 0
 827 0032 FFF7FEFF 		bl	chSchWakeupS
 828              	.LVL21:
 829              	.LBB123:
 830              	.LBB124:
 831              	.LBB125:
 832              	.LBB126:
 833              	.LBB127:
 834              		.loc 2 546 0
 835 0036 0020     		movs	r0, #0
 836              	@ 546 "../../../os/ext/CMSIS/include/core_cmFunc.h" 1
 837 0038 80F31188 		MSR basepri, r0
 838              	@ 0 "" 2
 839              	.LVL22:
 840              		.thumb
 841              	.L12:
 842              	.LBE127:
 843              	.LBE126:
 844              	.LBE125:
 845              	.LBE124:
 846              	.LBE123:
 847              		.loc 1 223 0
 848 003c 2046     		mov	r0, r4
 849 003e 02B0     		add	sp, sp, #8
 850 0040 BDE8F081 		pop	{r4, r5, r6, r7, r8, pc}
 851              		.cfi_endproc
 852              	.LFE168:
 853              		.size	chThdCreateFromMemoryPool, .-chThdCreateFromMemoryPool
 854 0044 AFF30080 		.text
 854      AFF30080 
 854      AFF30080 
 855              	.Letext0:
 856              		.file 3 "../../../os/rt/include/chschd.h"
 857              		.file 4 "/opt/ARM/gcc-arm-none-eabi-4_7-2013q3/bin/../lib/gcc/arm-none-eabi/4.7.4/include/stddef.h
 858              		.file 5 "/opt/ARM/gcc-arm-none-eabi-4_7-2013q3/bin/../lib/gcc/arm-none-eabi/4.7.4/../../../../arm-
 859              		.file 6 "../../../os/rt/ports/ARMCMx/compilers/GCC/chtypes.h"
 860              		.file 7 "../../../os/rt/ports/ARMCMx/chcore.h"
 861              		.file 8 "../../../os/rt/ports/ARMCMx/chcore_v7m.h"
 862              		.file 9 "../../../os/rt/include/chmtx.h"
 863              		.file 10 "../../../os/rt/include/chthreads.h"
 864              		.file 11 "../../../os/rt/include/chmemcore.h"
ARM GAS  /tmp/ccKFEoRE.s 			page 45


 865              		.file 12 "../../../os/rt/include/chheap.h"
 866              		.file 13 "../../../os/rt/include/chmempools.h"
 867              		.file 14 "../../../os/rt/include/chsys.h"
 868              		.file 15 "../../../os/ext/CMSIS/include/core_cm3.h"
 869              		.section	.debug_info,"",%progbits
 870              	.Ldebug_info0:
 871 0000 B90C0000 		.4byte	0xcb9
 872 0004 0200     		.2byte	0x2
 873 0006 00000000 		.4byte	.Ldebug_abbrev0
 874 000a 04       		.byte	0x4
 875 000b 01       		.uleb128 0x1
 876 000c 16010000 		.4byte	.LASF121
 877 0010 01       		.byte	0x1
 878 0011 D9030000 		.4byte	.LASF122
 879 0015 66040000 		.4byte	.LASF123
 880 0019 90000000 		.4byte	.Ldebug_ranges0+0x90
 881 001d 00000000 		.4byte	0
 882 0021 00000000 		.4byte	0
 883 0025 00000000 		.4byte	.Ldebug_line0
 884 0029 02       		.uleb128 0x2
 885 002a 51040000 		.4byte	.LASF43
 886 002e 44       		.byte	0x44
 887 002f 03       		.byte	0x3
 888 0030 79       		.byte	0x79
 889 0031 32010000 		.4byte	0x132
 890 0035 03       		.uleb128 0x3
 891 0036 82030000 		.4byte	.LASF0
 892 003a 03       		.byte	0x3
 893 003b 7A       		.byte	0x7a
 894 003c 09030000 		.4byte	0x309
 895 0040 02       		.byte	0x2
 896 0041 23       		.byte	0x23
 897 0042 00       		.uleb128 0
 898 0043 03       		.uleb128 0x3
 899 0044 21030000 		.4byte	.LASF1
 900 0048 03       		.byte	0x3
 901 0049 7C       		.byte	0x7c
 902 004a 09030000 		.4byte	0x309
 903 004e 02       		.byte	0x2
 904 004f 23       		.byte	0x23
 905 0050 04       		.uleb128 0x4
 906 0051 03       		.uleb128 0x3
 907 0052 B9000000 		.4byte	.LASF2
 908 0056 03       		.byte	0x3
 909 0057 7E       		.byte	0x7e
 910 0058 EB010000 		.4byte	0x1eb
 911 005c 02       		.byte	0x2
 912 005d 23       		.byte	0x23
 913 005e 08       		.uleb128 0x8
 914 005f 03       		.uleb128 0x3
 915 0060 81050000 		.4byte	.LASF3
 916 0064 03       		.byte	0x3
 917 0065 7F       		.byte	0x7f
 918 0066 36020000 		.4byte	0x236
 919 006a 02       		.byte	0x2
 920 006b 23       		.byte	0x23
 921 006c 0C       		.uleb128 0xc
ARM GAS  /tmp/ccKFEoRE.s 			page 46


 922 006d 03       		.uleb128 0x3
 923 006e BA010000 		.4byte	.LASF4
 924 0072 03       		.byte	0x3
 925 0073 81       		.byte	0x81
 926 0074 09030000 		.4byte	0x309
 927 0078 02       		.byte	0x2
 928 0079 23       		.byte	0x23
 929 007a 10       		.uleb128 0x10
 930 007b 03       		.uleb128 0x3
 931 007c D2020000 		.4byte	.LASF5
 932 0080 03       		.byte	0x3
 933 0081 82       		.byte	0x82
 934 0082 09030000 		.4byte	0x309
 935 0086 02       		.byte	0x2
 936 0087 23       		.byte	0x23
 937 0088 14       		.uleb128 0x14
 938 0089 03       		.uleb128 0x3
 939 008a 51050000 		.4byte	.LASF6
 940 008e 03       		.byte	0x3
 941 008f 89       		.byte	0x89
 942 0090 D9030000 		.4byte	0x3d9
 943 0094 02       		.byte	0x2
 944 0095 23       		.byte	0x23
 945 0096 18       		.uleb128 0x18
 946 0097 03       		.uleb128 0x3
 947 0098 6C030000 		.4byte	.LASF7
 948 009c 03       		.byte	0x3
 949 009d 94       		.byte	0x94
 950 009e D5010000 		.4byte	0x1d5
 951 00a2 02       		.byte	0x2
 952 00a3 23       		.byte	0x23
 953 00a4 1C       		.uleb128 0x1c
 954 00a5 03       		.uleb128 0x3
 955 00a6 89030000 		.4byte	.LASF8
 956 00aa 03       		.byte	0x3
 957 00ab 98       		.byte	0x98
 958 00ac CA010000 		.4byte	0x1ca
 959 00b0 02       		.byte	0x2
 960 00b1 23       		.byte	0x23
 961 00b2 1D       		.uleb128 0x1d
 962 00b3 03       		.uleb128 0x3
 963 00b4 13050000 		.4byte	.LASF9
 964 00b8 03       		.byte	0x3
 965 00b9 9D       		.byte	0x9d
 966 00ba E0010000 		.4byte	0x1e0
 967 00be 02       		.byte	0x2
 968 00bf 23       		.byte	0x23
 969 00c0 1E       		.uleb128 0x1e
 970 00c1 04       		.uleb128 0x4
 971 00c2 705F7500 		.ascii	"p_u\000"
 972 00c6 03       		.byte	0x3
 973 00c7 CF       		.byte	0xcf
 974 00c8 A4030000 		.4byte	0x3a4
 975 00cc 02       		.byte	0x2
 976 00cd 23       		.byte	0x23
 977 00ce 20       		.uleb128 0x20
 978 00cf 03       		.uleb128 0x3
ARM GAS  /tmp/ccKFEoRE.s 			page 47


 979 00d0 B3020000 		.4byte	.LASF10
 980 00d4 03       		.byte	0x3
 981 00d5 D4       		.byte	0xd4
 982 00d6 31030000 		.4byte	0x331
 983 00da 02       		.byte	0x2
 984 00db 23       		.byte	0x23
 985 00dc 24       		.uleb128 0x24
 986 00dd 03       		.uleb128 0x3
 987 00de 38020000 		.4byte	.LASF11
 988 00e2 03       		.byte	0x3
 989 00e3 DA       		.byte	0xda
 990 00e4 0F030000 		.4byte	0x30f
 991 00e8 02       		.byte	0x2
 992 00e9 23       		.byte	0x23
 993 00ea 28       		.uleb128 0x28
 994 00eb 03       		.uleb128 0x3
 995 00ec 73050000 		.4byte	.LASF12
 996 00f0 03       		.byte	0x3
 997 00f1 DE       		.byte	0xde
 998 00f2 F6010000 		.4byte	0x1f6
 999 00f6 02       		.byte	0x2
 1000 00f7 23       		.byte	0x23
 1001 00f8 30       		.uleb128 0x30
 1002 00f9 03       		.uleb128 0x3
 1003 00fa B4030000 		.4byte	.LASF13
 1004 00fe 03       		.byte	0x3
 1005 00ff E4       		.byte	0xe4
 1006 0100 01020000 		.4byte	0x201
 1007 0104 02       		.byte	0x2
 1008 0105 23       		.byte	0x23
 1009 0106 34       		.uleb128 0x34
 1010 0107 03       		.uleb128 0x3
 1011 0108 58030000 		.4byte	.LASF14
 1012 010c 03       		.byte	0x3
 1013 010d EB       		.byte	0xeb
 1014 010e 22040000 		.4byte	0x422
 1015 0112 02       		.byte	0x2
 1016 0113 23       		.byte	0x23
 1017 0114 38       		.uleb128 0x38
 1018 0115 03       		.uleb128 0x3
 1019 0116 2F040000 		.4byte	.LASF15
 1020 011a 03       		.byte	0x3
 1021 011b EF       		.byte	0xef
 1022 011c EB010000 		.4byte	0x1eb
 1023 0120 02       		.byte	0x2
 1024 0121 23       		.byte	0x23
 1025 0122 3C       		.uleb128 0x3c
 1026 0123 03       		.uleb128 0x3
 1027 0124 E0000000 		.4byte	.LASF16
 1028 0128 03       		.byte	0x3
 1029 0129 F5       		.byte	0xf5
 1030 012a 29020000 		.4byte	0x229
 1031 012e 02       		.byte	0x2
 1032 012f 23       		.byte	0x23
 1033 0130 40       		.uleb128 0x40
 1034 0131 00       		.byte	0
 1035 0132 05       		.uleb128 0x5
ARM GAS  /tmp/ccKFEoRE.s 			page 48


 1036 0133 04       		.byte	0x4
 1037 0134 05       		.byte	0x5
 1038 0135 696E7400 		.ascii	"int\000"
 1039 0139 06       		.uleb128 0x6
 1040 013a 15000000 		.4byte	.LASF19
 1041 013e 04       		.byte	0x4
 1042 013f D5       		.byte	0xd5
 1043 0140 44010000 		.4byte	0x144
 1044 0144 07       		.uleb128 0x7
 1045 0145 04       		.byte	0x4
 1046 0146 07       		.byte	0x7
 1047 0147 23020000 		.4byte	.LASF17
 1048 014b 07       		.uleb128 0x7
 1049 014c 01       		.byte	0x1
 1050 014d 06       		.byte	0x6
 1051 014e CE000000 		.4byte	.LASF18
 1052 0152 06       		.uleb128 0x6
 1053 0153 20050000 		.4byte	.LASF20
 1054 0157 05       		.byte	0x5
 1055 0158 2A       		.byte	0x2a
 1056 0159 5D010000 		.4byte	0x15d
 1057 015d 07       		.uleb128 0x7
 1058 015e 01       		.byte	0x1
 1059 015f 08       		.byte	0x8
 1060 0160 3E030000 		.4byte	.LASF21
 1061 0164 07       		.uleb128 0x7
 1062 0165 02       		.byte	0x2
 1063 0166 05       		.byte	0x5
 1064 0167 62030000 		.4byte	.LASF22
 1065 016b 06       		.uleb128 0x6
 1066 016c B1010000 		.4byte	.LASF23
 1067 0170 05       		.byte	0x5
 1068 0171 36       		.byte	0x36
 1069 0172 76010000 		.4byte	0x176
 1070 0176 07       		.uleb128 0x7
 1071 0177 02       		.byte	0x2
 1072 0178 07       		.byte	0x7
 1073 0179 56020000 		.4byte	.LASF24
 1074 017d 06       		.uleb128 0x6
 1075 017e 36030000 		.4byte	.LASF25
 1076 0182 05       		.byte	0x5
 1077 0183 4F       		.byte	0x4f
 1078 0184 88010000 		.4byte	0x188
 1079 0188 07       		.uleb128 0x7
 1080 0189 04       		.byte	0x4
 1081 018a 05       		.byte	0x5
 1082 018b 69010000 		.4byte	.LASF26
 1083 018f 06       		.uleb128 0x6
 1084 0190 BF030000 		.4byte	.LASF27
 1085 0194 05       		.byte	0x5
 1086 0195 50       		.byte	0x50
 1087 0196 9A010000 		.4byte	0x19a
 1088 019a 07       		.uleb128 0x7
 1089 019b 04       		.byte	0x4
 1090 019c 07       		.byte	0x7
 1091 019d FD030000 		.4byte	.LASF28
 1092 01a1 07       		.uleb128 0x7
ARM GAS  /tmp/ccKFEoRE.s 			page 49


 1093 01a2 08       		.byte	0x8
 1094 01a3 05       		.byte	0x5
 1095 01a4 C0000000 		.4byte	.LASF29
 1096 01a8 06       		.uleb128 0x6
 1097 01a9 23000000 		.4byte	.LASF30
 1098 01ad 05       		.byte	0x5
 1099 01ae 78       		.byte	0x78
 1100 01af B3010000 		.4byte	0x1b3
 1101 01b3 07       		.uleb128 0x7
 1102 01b4 08       		.byte	0x8
 1103 01b5 07       		.byte	0x7
 1104 01b6 64000000 		.4byte	.LASF31
 1105 01ba 08       		.uleb128 0x8
 1106 01bb 7D010000 		.4byte	0x17d
 1107 01bf 06       		.uleb128 0x6
 1108 01c0 C7040000 		.4byte	.LASF32
 1109 01c4 06       		.byte	0x6
 1110 01c5 46       		.byte	0x46
 1111 01c6 8F010000 		.4byte	0x18f
 1112 01ca 06       		.uleb128 0x6
 1113 01cb 88020000 		.4byte	.LASF33
 1114 01cf 06       		.byte	0x6
 1115 01d0 49       		.byte	0x49
 1116 01d1 52010000 		.4byte	0x152
 1117 01d5 06       		.uleb128 0x6
 1118 01d6 86010000 		.4byte	.LASF34
 1119 01da 06       		.byte	0x6
 1120 01db 4A       		.byte	0x4a
 1121 01dc 52010000 		.4byte	0x152
 1122 01e0 06       		.uleb128 0x6
 1123 01e1 04030000 		.4byte	.LASF35
 1124 01e5 06       		.byte	0x6
 1125 01e6 4B       		.byte	0x4b
 1126 01e7 52010000 		.4byte	0x152
 1127 01eb 06       		.uleb128 0x6
 1128 01ec 28030000 		.4byte	.LASF36
 1129 01f0 06       		.byte	0x6
 1130 01f1 4D       		.byte	0x4d
 1131 01f2 8F010000 		.4byte	0x18f
 1132 01f6 06       		.uleb128 0x6
 1133 01f7 76020000 		.4byte	.LASF37
 1134 01fb 06       		.byte	0x6
 1135 01fc 4E       		.byte	0x4e
 1136 01fd 7D010000 		.4byte	0x17d
 1137 0201 06       		.uleb128 0x6
 1138 0202 90020000 		.4byte	.LASF38
 1139 0206 06       		.byte	0x6
 1140 0207 50       		.byte	0x50
 1141 0208 8F010000 		.4byte	0x18f
 1142 020c 07       		.uleb128 0x7
 1143 020d 04       		.byte	0x4
 1144 020e 07       		.byte	0x7
 1145 020f BD020000 		.4byte	.LASF39
 1146 0213 06       		.uleb128 0x6
 1147 0214 25040000 		.4byte	.LASF40
 1148 0218 07       		.byte	0x7
 1149 0219 89       		.byte	0x89
ARM GAS  /tmp/ccKFEoRE.s 			page 50


 1150 021a 6B010000 		.4byte	0x16b
 1151 021e 06       		.uleb128 0x6
 1152 021f F0010000 		.4byte	.LASF41
 1153 0223 07       		.byte	0x7
 1154 0224 8F       		.byte	0x8f
 1155 0225 29020000 		.4byte	0x229
 1156 0229 09       		.uleb128 0x9
 1157 022a 04       		.byte	0x4
 1158 022b 06       		.uleb128 0x6
 1159 022c A8020000 		.4byte	.LASF42
 1160 0230 07       		.byte	0x7
 1161 0231 97       		.byte	0x97
 1162 0232 A8010000 		.4byte	0x1a8
 1163 0236 02       		.uleb128 0x2
 1164 0237 BF040000 		.4byte	.LASF44
 1165 023b 04       		.byte	0x4
 1166 023c 07       		.byte	0x7
 1167 023d B3       		.byte	0xb3
 1168 023e 51020000 		.4byte	0x251
 1169 0242 04       		.uleb128 0x4
 1170 0243 72313300 		.ascii	"r13\000"
 1171 0247 07       		.byte	0x7
 1172 0248 B4       		.byte	0xb4
 1173 0249 DE020000 		.4byte	0x2de
 1174 024d 02       		.byte	0x2
 1175 024e 23       		.byte	0x23
 1176 024f 00       		.uleb128 0
 1177 0250 00       		.byte	0
 1178 0251 02       		.uleb128 0x2
 1179 0252 2C000000 		.4byte	.LASF45
 1180 0256 24       		.byte	0x24
 1181 0257 08       		.byte	0x8
 1182 0258 F5       		.byte	0xf5
 1183 0259 DE020000 		.4byte	0x2de
 1184 025d 0A       		.uleb128 0xa
 1185 025e 723400   		.ascii	"r4\000"
 1186 0261 08       		.byte	0x8
 1187 0262 0801     		.2byte	0x108
 1188 0264 1E020000 		.4byte	0x21e
 1189 0268 02       		.byte	0x2
 1190 0269 23       		.byte	0x23
 1191 026a 00       		.uleb128 0
 1192 026b 0A       		.uleb128 0xa
 1193 026c 723500   		.ascii	"r5\000"
 1194 026f 08       		.byte	0x8
 1195 0270 0901     		.2byte	0x109
 1196 0272 1E020000 		.4byte	0x21e
 1197 0276 02       		.byte	0x2
 1198 0277 23       		.byte	0x23
 1199 0278 04       		.uleb128 0x4
 1200 0279 0A       		.uleb128 0xa
 1201 027a 723600   		.ascii	"r6\000"
 1202 027d 08       		.byte	0x8
 1203 027e 0A01     		.2byte	0x10a
 1204 0280 1E020000 		.4byte	0x21e
 1205 0284 02       		.byte	0x2
 1206 0285 23       		.byte	0x23
ARM GAS  /tmp/ccKFEoRE.s 			page 51


 1207 0286 08       		.uleb128 0x8
 1208 0287 0A       		.uleb128 0xa
 1209 0288 723700   		.ascii	"r7\000"
 1210 028b 08       		.byte	0x8
 1211 028c 0B01     		.2byte	0x10b
 1212 028e 1E020000 		.4byte	0x21e
 1213 0292 02       		.byte	0x2
 1214 0293 23       		.byte	0x23
 1215 0294 0C       		.uleb128 0xc
 1216 0295 0A       		.uleb128 0xa
 1217 0296 723800   		.ascii	"r8\000"
 1218 0299 08       		.byte	0x8
 1219 029a 0C01     		.2byte	0x10c
 1220 029c 1E020000 		.4byte	0x21e
 1221 02a0 02       		.byte	0x2
 1222 02a1 23       		.byte	0x23
 1223 02a2 10       		.uleb128 0x10
 1224 02a3 0A       		.uleb128 0xa
 1225 02a4 723900   		.ascii	"r9\000"
 1226 02a7 08       		.byte	0x8
 1227 02a8 0D01     		.2byte	0x10d
 1228 02aa 1E020000 		.4byte	0x21e
 1229 02ae 02       		.byte	0x2
 1230 02af 23       		.byte	0x23
 1231 02b0 14       		.uleb128 0x14
 1232 02b1 0A       		.uleb128 0xa
 1233 02b2 72313000 		.ascii	"r10\000"
 1234 02b6 08       		.byte	0x8
 1235 02b7 0E01     		.2byte	0x10e
 1236 02b9 1E020000 		.4byte	0x21e
 1237 02bd 02       		.byte	0x2
 1238 02be 23       		.byte	0x23
 1239 02bf 18       		.uleb128 0x18
 1240 02c0 0A       		.uleb128 0xa
 1241 02c1 72313100 		.ascii	"r11\000"
 1242 02c5 08       		.byte	0x8
 1243 02c6 0F01     		.2byte	0x10f
 1244 02c8 1E020000 		.4byte	0x21e
 1245 02cc 02       		.byte	0x2
 1246 02cd 23       		.byte	0x23
 1247 02ce 1C       		.uleb128 0x1c
 1248 02cf 0A       		.uleb128 0xa
 1249 02d0 6C7200   		.ascii	"lr\000"
 1250 02d3 08       		.byte	0x8
 1251 02d4 1001     		.2byte	0x110
 1252 02d6 1E020000 		.4byte	0x21e
 1253 02da 02       		.byte	0x2
 1254 02db 23       		.byte	0x23
 1255 02dc 20       		.uleb128 0x20
 1256 02dd 00       		.byte	0
 1257 02de 0B       		.uleb128 0xb
 1258 02df 04       		.byte	0x4
 1259 02e0 51020000 		.4byte	0x251
 1260 02e4 0C       		.uleb128 0xc
 1261 02e5 08       		.byte	0x8
 1262 02e6 03       		.byte	0x3
 1263 02e7 53       		.byte	0x53
ARM GAS  /tmp/ccKFEoRE.s 			page 52


 1264 02e8 09030000 		.4byte	0x309
 1265 02ec 03       		.uleb128 0x3
 1266 02ed 82030000 		.4byte	.LASF0
 1267 02f1 03       		.byte	0x3
 1268 02f2 54       		.byte	0x54
 1269 02f3 09030000 		.4byte	0x309
 1270 02f7 02       		.byte	0x2
 1271 02f8 23       		.byte	0x23
 1272 02f9 00       		.uleb128 0
 1273 02fa 03       		.uleb128 0x3
 1274 02fb 21030000 		.4byte	.LASF1
 1275 02ff 03       		.byte	0x3
 1276 0300 55       		.byte	0x55
 1277 0301 09030000 		.4byte	0x309
 1278 0305 02       		.byte	0x2
 1279 0306 23       		.byte	0x23
 1280 0307 04       		.uleb128 0x4
 1281 0308 00       		.byte	0
 1282 0309 0B       		.uleb128 0xb
 1283 030a 04       		.byte	0x4
 1284 030b 29000000 		.4byte	0x29
 1285 030f 06       		.uleb128 0x6
 1286 0310 F7040000 		.4byte	.LASF46
 1287 0314 03       		.byte	0x3
 1288 0315 56       		.byte	0x56
 1289 0316 E4020000 		.4byte	0x2e4
 1290 031a 0C       		.uleb128 0xc
 1291 031b 04       		.byte	0x4
 1292 031c 03       		.byte	0x3
 1293 031d 5B       		.byte	0x5b
 1294 031e 31030000 		.4byte	0x331
 1295 0322 03       		.uleb128 0x3
 1296 0323 82030000 		.4byte	.LASF0
 1297 0327 03       		.byte	0x3
 1298 0328 5C       		.byte	0x5c
 1299 0329 09030000 		.4byte	0x309
 1300 032d 02       		.byte	0x2
 1301 032e 23       		.byte	0x23
 1302 032f 00       		.uleb128 0
 1303 0330 00       		.byte	0
 1304 0331 06       		.uleb128 0x6
 1305 0332 58050000 		.4byte	.LASF47
 1306 0336 03       		.byte	0x3
 1307 0337 5D       		.byte	0x5d
 1308 0338 1A030000 		.4byte	0x31a
 1309 033c 0C       		.uleb128 0xc
 1310 033d 1C       		.byte	0x1c
 1311 033e 03       		.byte	0x3
 1312 033f 64       		.byte	0x64
 1313 0340 99030000 		.4byte	0x399
 1314 0344 03       		.uleb128 0x3
 1315 0345 C8030000 		.4byte	.LASF48
 1316 0349 03       		.byte	0x3
 1317 034a 65       		.byte	0x65
 1318 034b 0F030000 		.4byte	0x30f
 1319 034f 02       		.byte	0x2
 1320 0350 23       		.byte	0x23
ARM GAS  /tmp/ccKFEoRE.s 			page 53


 1321 0351 00       		.uleb128 0
 1322 0352 03       		.uleb128 0x3
 1323 0353 74030000 		.4byte	.LASF49
 1324 0357 03       		.byte	0x3
 1325 0358 66       		.byte	0x66
 1326 0359 EB010000 		.4byte	0x1eb
 1327 035d 02       		.byte	0x2
 1328 035e 23       		.byte	0x23
 1329 035f 08       		.uleb128 0x8
 1330 0360 03       		.uleb128 0x3
 1331 0361 DA020000 		.4byte	.LASF50
 1332 0365 03       		.byte	0x3
 1333 0366 68       		.byte	0x68
 1334 0367 36020000 		.4byte	0x236
 1335 036b 02       		.byte	0x2
 1336 036c 23       		.byte	0x23
 1337 036d 0C       		.uleb128 0xc
 1338 036e 03       		.uleb128 0x3
 1339 036f DC010000 		.4byte	.LASF51
 1340 0373 03       		.byte	0x3
 1341 0374 6B       		.byte	0x6b
 1342 0375 09030000 		.4byte	0x309
 1343 0379 02       		.byte	0x2
 1344 037a 23       		.byte	0x23
 1345 037b 10       		.uleb128 0x10
 1346 037c 03       		.uleb128 0x3
 1347 037d F4020000 		.4byte	.LASF52
 1348 0381 03       		.byte	0x3
 1349 0382 6C       		.byte	0x6c
 1350 0383 09030000 		.4byte	0x309
 1351 0387 02       		.byte	0x2
 1352 0388 23       		.byte	0x23
 1353 0389 14       		.uleb128 0x14
 1354 038a 03       		.uleb128 0x3
 1355 038b 0F040000 		.4byte	.LASF53
 1356 038f 03       		.byte	0x3
 1357 0390 6F       		.byte	0x6f
 1358 0391 09030000 		.4byte	0x309
 1359 0395 02       		.byte	0x2
 1360 0396 23       		.byte	0x23
 1361 0397 18       		.uleb128 0x18
 1362 0398 00       		.byte	0
 1363 0399 06       		.uleb128 0x6
 1364 039a 08000000 		.4byte	.LASF54
 1365 039e 03       		.byte	0x3
 1366 039f 71       		.byte	0x71
 1367 03a0 3C030000 		.4byte	0x33c
 1368 03a4 0D       		.uleb128 0xd
 1369 03a5 04       		.byte	0x4
 1370 03a6 03       		.byte	0x3
 1371 03a7 B1       		.byte	0xb1
 1372 03a8 D9030000 		.4byte	0x3d9
 1373 03ac 0E       		.uleb128 0xe
 1374 03ad 1C000000 		.4byte	.LASF55
 1375 03b1 03       		.byte	0x3
 1376 03b2 B8       		.byte	0xb8
 1377 03b3 F6010000 		.4byte	0x1f6
ARM GAS  /tmp/ccKFEoRE.s 			page 54


 1378 03b7 0E       		.uleb128 0xe
 1379 03b8 7B000000 		.4byte	.LASF56
 1380 03bc 03       		.byte	0x3
 1381 03bd BF       		.byte	0xbf
 1382 03be F6010000 		.4byte	0x1f6
 1383 03c2 0E       		.uleb128 0xe
 1384 03c3 4A050000 		.4byte	.LASF57
 1385 03c7 03       		.byte	0x3
 1386 03c8 C6       		.byte	0xc6
 1387 03c9 29020000 		.4byte	0x229
 1388 03cd 0E       		.uleb128 0xe
 1389 03ce 7B030000 		.4byte	.LASF58
 1390 03d2 03       		.byte	0x3
 1391 03d3 CD       		.byte	0xcd
 1392 03d4 01020000 		.4byte	0x201
 1393 03d8 00       		.byte	0
 1394 03d9 0B       		.uleb128 0xb
 1395 03da 04       		.byte	0x4
 1396 03db DF030000 		.4byte	0x3df
 1397 03df 0F       		.uleb128 0xf
 1398 03e0 E4030000 		.4byte	0x3e4
 1399 03e4 07       		.uleb128 0x7
 1400 03e5 01       		.byte	0x1
 1401 03e6 08       		.byte	0x8
 1402 03e7 19040000 		.4byte	.LASF59
 1403 03eb 02       		.uleb128 0x2
 1404 03ec 30030000 		.4byte	.LASF60
 1405 03f0 10       		.byte	0x10
 1406 03f1 09       		.byte	0x9
 1407 03f2 3A       		.byte	0x3a
 1408 03f3 22040000 		.4byte	0x422
 1409 03f7 03       		.uleb128 0x3
 1410 03f8 E8000000 		.4byte	.LASF61
 1411 03fc 09       		.byte	0x9
 1412 03fd 3B       		.byte	0x3b
 1413 03fe 0F030000 		.4byte	0x30f
 1414 0402 02       		.byte	0x2
 1415 0403 23       		.byte	0x23
 1416 0404 00       		.uleb128 0
 1417 0405 03       		.uleb128 0x3
 1418 0406 79050000 		.4byte	.LASF62
 1419 040a 09       		.byte	0x9
 1420 040b 3D       		.byte	0x3d
 1421 040c 09030000 		.4byte	0x309
 1422 0410 02       		.byte	0x2
 1423 0411 23       		.byte	0x23
 1424 0412 08       		.uleb128 0x8
 1425 0413 03       		.uleb128 0x3
 1426 0414 1E040000 		.4byte	.LASF63
 1427 0418 09       		.byte	0x9
 1428 0419 3F       		.byte	0x3f
 1429 041a 76050000 		.4byte	0x576
 1430 041e 02       		.byte	0x2
 1431 041f 23       		.byte	0x23
 1432 0420 0C       		.uleb128 0xc
 1433 0421 00       		.byte	0
 1434 0422 0B       		.uleb128 0xb
ARM GAS  /tmp/ccKFEoRE.s 			page 55


 1435 0423 04       		.byte	0x4
 1436 0424 EB030000 		.4byte	0x3eb
 1437 0428 10       		.uleb128 0x10
 1438 0429 3A040000 		.4byte	.LASF64
 1439 042d 03       		.byte	0x3
 1440 042e 0301     		.2byte	0x103
 1441 0430 34040000 		.4byte	0x434
 1442 0434 0B       		.uleb128 0xb
 1443 0435 04       		.byte	0x4
 1444 0436 3A040000 		.4byte	0x43a
 1445 043a 11       		.uleb128 0x11
 1446 043b 01       		.byte	0x1
 1447 043c 46040000 		.4byte	0x446
 1448 0440 12       		.uleb128 0x12
 1449 0441 29020000 		.4byte	0x229
 1450 0445 00       		.byte	0
 1451 0446 10       		.uleb128 0x10
 1452 0447 11030000 		.4byte	.LASF65
 1453 044b 03       		.byte	0x3
 1454 044c 0801     		.2byte	0x108
 1455 044e 52040000 		.4byte	0x452
 1456 0452 13       		.uleb128 0x13
 1457 0453 CF040000 		.4byte	.LASF66
 1458 0457 14       		.byte	0x14
 1459 0458 03       		.byte	0x3
 1460 0459 0F01     		.2byte	0x10f
 1461 045b AB040000 		.4byte	0x4ab
 1462 045f 14       		.uleb128 0x14
 1463 0460 30020000 		.4byte	.LASF67
 1464 0464 03       		.byte	0x3
 1465 0465 1001     		.2byte	0x110
 1466 0467 AB040000 		.4byte	0x4ab
 1467 046b 02       		.byte	0x2
 1468 046c 23       		.byte	0x23
 1469 046d 00       		.uleb128 0
 1470 046e 14       		.uleb128 0x14
 1471 046f F9010000 		.4byte	.LASF68
 1472 0473 03       		.byte	0x3
 1473 0474 1101     		.2byte	0x111
 1474 0476 AB040000 		.4byte	0x4ab
 1475 047a 02       		.byte	0x2
 1476 047b 23       		.byte	0x23
 1477 047c 04       		.uleb128 0x4
 1478 047d 14       		.uleb128 0x14
 1479 047e D0030000 		.4byte	.LASF69
 1480 0482 03       		.byte	0x3
 1481 0483 1201     		.2byte	0x112
 1482 0485 13020000 		.4byte	0x213
 1483 0489 02       		.byte	0x2
 1484 048a 23       		.byte	0x23
 1485 048b 08       		.uleb128 0x8
 1486 048c 14       		.uleb128 0x14
 1487 048d 87050000 		.4byte	.LASF70
 1488 0491 03       		.byte	0x3
 1489 0492 1301     		.2byte	0x113
 1490 0494 28040000 		.4byte	0x428
 1491 0498 02       		.byte	0x2
ARM GAS  /tmp/ccKFEoRE.s 			page 56


 1492 0499 23       		.byte	0x23
 1493 049a 0C       		.uleb128 0xc
 1494 049b 14       		.uleb128 0x14
 1495 049c DD040000 		.4byte	.LASF71
 1496 04a0 03       		.byte	0x3
 1497 04a1 1501     		.2byte	0x115
 1498 04a3 29020000 		.4byte	0x229
 1499 04a7 02       		.byte	0x2
 1500 04a8 23       		.byte	0x23
 1501 04a9 10       		.uleb128 0x10
 1502 04aa 00       		.byte	0
 1503 04ab 0B       		.uleb128 0xb
 1504 04ac 04       		.byte	0x4
 1505 04ad 46040000 		.4byte	0x446
 1506 04b1 15       		.uleb128 0x15
 1507 04b2 0C       		.byte	0xc
 1508 04b3 03       		.byte	0x3
 1509 04b4 1F01     		.2byte	0x11f
 1510 04b6 F7040000 		.4byte	0x4f7
 1511 04ba 14       		.uleb128 0x14
 1512 04bb 30020000 		.4byte	.LASF67
 1513 04bf 03       		.byte	0x3
 1514 04c0 2001     		.2byte	0x120
 1515 04c2 AB040000 		.4byte	0x4ab
 1516 04c6 02       		.byte	0x2
 1517 04c7 23       		.byte	0x23
 1518 04c8 00       		.uleb128 0
 1519 04c9 14       		.uleb128 0x14
 1520 04ca F9010000 		.4byte	.LASF68
 1521 04ce 03       		.byte	0x3
 1522 04cf 2201     		.2byte	0x122
 1523 04d1 AB040000 		.4byte	0x4ab
 1524 04d5 02       		.byte	0x2
 1525 04d6 23       		.byte	0x23
 1526 04d7 04       		.uleb128 0x4
 1527 04d8 14       		.uleb128 0x14
 1528 04d9 D0030000 		.4byte	.LASF69
 1529 04dd 03       		.byte	0x3
 1530 04de 2401     		.2byte	0x124
 1531 04e0 13020000 		.4byte	0x213
 1532 04e4 02       		.byte	0x2
 1533 04e5 23       		.byte	0x23
 1534 04e6 08       		.uleb128 0x8
 1535 04e7 14       		.uleb128 0x14
 1536 04e8 C6020000 		.4byte	.LASF72
 1537 04ec 03       		.byte	0x3
 1538 04ed 2C01     		.2byte	0x12c
 1539 04ef 13020000 		.4byte	0x213
 1540 04f3 02       		.byte	0x2
 1541 04f4 23       		.byte	0x23
 1542 04f5 0A       		.uleb128 0xa
 1543 04f6 00       		.byte	0
 1544 04f7 10       		.uleb128 0x10
 1545 04f8 8B000000 		.4byte	.LASF73
 1546 04fc 03       		.byte	0x3
 1547 04fd 2F01     		.2byte	0x12f
 1548 04ff B1040000 		.4byte	0x4b1
ARM GAS  /tmp/ccKFEoRE.s 			page 57


 1549 0503 13       		.uleb128 0x13
 1550 0504 5F010000 		.4byte	.LASF74
 1551 0508 2C       		.byte	0x2c
 1552 0509 03       		.byte	0x3
 1553 050a 3601     		.2byte	0x136
 1554 050c 3E050000 		.4byte	0x53e
 1555 0510 14       		.uleb128 0x14
 1556 0511 1A050000 		.4byte	.LASF75
 1557 0515 03       		.byte	0x3
 1558 0516 3A01     		.2byte	0x13a
 1559 0518 99030000 		.4byte	0x399
 1560 051c 02       		.byte	0x2
 1561 051d 23       		.byte	0x23
 1562 051e 00       		.uleb128 0
 1563 051f 14       		.uleb128 0x14
 1564 0520 38000000 		.4byte	.LASF76
 1565 0524 03       		.byte	0x3
 1566 0525 3E01     		.2byte	0x13e
 1567 0527 F7040000 		.4byte	0x4f7
 1568 052b 02       		.byte	0x2
 1569 052c 23       		.byte	0x23
 1570 052d 1C       		.uleb128 0x1c
 1571 052e 14       		.uleb128 0x14
 1572 052f E4040000 		.4byte	.LASF77
 1573 0533 03       		.byte	0x3
 1574 0534 4301     		.2byte	0x143
 1575 0536 BF010000 		.4byte	0x1bf
 1576 053a 02       		.byte	0x2
 1577 053b 23       		.byte	0x23
 1578 053c 28       		.uleb128 0x28
 1579 053d 00       		.byte	0
 1580 053e 10       		.uleb128 0x10
 1581 053f 7C020000 		.4byte	.LASF78
 1582 0543 03       		.byte	0x3
 1583 0544 6501     		.2byte	0x165
 1584 0546 03050000 		.4byte	0x503
 1585 054a 06       		.uleb128 0x6
 1586 054b 00000000 		.4byte	.LASF79
 1587 054f 0A       		.byte	0xa
 1588 0550 68       		.byte	0x68
 1589 0551 55050000 		.4byte	0x555
 1590 0555 0B       		.uleb128 0xb
 1591 0556 04       		.byte	0x4
 1592 0557 5B050000 		.4byte	0x55b
 1593 055b 16       		.uleb128 0x16
 1594 055c 01       		.byte	0x1
 1595 055d F6010000 		.4byte	0x1f6
 1596 0561 6B050000 		.4byte	0x56b
 1597 0565 12       		.uleb128 0x12
 1598 0566 29020000 		.4byte	0x229
 1599 056a 00       		.byte	0
 1600 056b 06       		.uleb128 0x6
 1601 056c 01020000 		.4byte	.LASF80
 1602 0570 09       		.byte	0x9
 1603 0571 35       		.byte	0x35
 1604 0572 EB030000 		.4byte	0x3eb
 1605 0576 0B       		.uleb128 0xb
ARM GAS  /tmp/ccKFEoRE.s 			page 58


 1606 0577 04       		.byte	0x4
 1607 0578 6B050000 		.4byte	0x56b
 1608 057c 06       		.uleb128 0x6
 1609 057d 57000000 		.4byte	.LASF81
 1610 0581 0B       		.byte	0xb
 1611 0582 37       		.byte	0x37
 1612 0583 87050000 		.4byte	0x587
 1613 0587 0B       		.uleb128 0xb
 1614 0588 04       		.byte	0x4
 1615 0589 8D050000 		.4byte	0x58d
 1616 058d 16       		.uleb128 0x16
 1617 058e 01       		.byte	0x1
 1618 058f 29020000 		.4byte	0x229
 1619 0593 9D050000 		.4byte	0x59d
 1620 0597 12       		.uleb128 0x12
 1621 0598 39010000 		.4byte	0x139
 1622 059c 00       		.byte	0
 1623 059d 06       		.uleb128 0x6
 1624 059e 8F010000 		.4byte	.LASF82
 1625 05a2 0C       		.byte	0xc
 1626 05a3 3D       		.byte	0x3d
 1627 05a4 A8050000 		.4byte	0x5a8
 1628 05a8 02       		.uleb128 0x2
 1629 05a9 8F050000 		.4byte	.LASF83
 1630 05ad 20       		.byte	0x20
 1631 05ae 0C       		.byte	0xc
 1632 05af 50       		.byte	0x50
 1633 05b0 DF050000 		.4byte	0x5df
 1634 05b4 03       		.uleb128 0x3
 1635 05b5 3F050000 		.4byte	.LASF84
 1636 05b9 0C       		.byte	0xc
 1637 05ba 51       		.byte	0x51
 1638 05bb 7C050000 		.4byte	0x57c
 1639 05bf 02       		.byte	0x2
 1640 05c0 23       		.byte	0x23
 1641 05c1 00       		.uleb128 0
 1642 05c2 03       		.uleb128 0x3
 1643 05c3 84000000 		.4byte	.LASF85
 1644 05c7 0C       		.byte	0xc
 1645 05c8 53       		.byte	0x53
 1646 05c9 FE050000 		.4byte	0x5fe
 1647 05cd 02       		.byte	0x2
 1648 05ce 23       		.byte	0x23
 1649 05cf 08       		.uleb128 0x8
 1650 05d0 03       		.uleb128 0x3
 1651 05d1 DA000000 		.4byte	.LASF86
 1652 05d5 0C       		.byte	0xc
 1653 05d6 55       		.byte	0x55
 1654 05d7 6B050000 		.4byte	0x56b
 1655 05db 02       		.byte	0x2
 1656 05dc 23       		.byte	0x23
 1657 05dd 10       		.uleb128 0x10
 1658 05de 00       		.byte	0
 1659 05df 0D       		.uleb128 0xd
 1660 05e0 04       		.byte	0x4
 1661 05e1 0C       		.byte	0xc
 1662 05e2 45       		.byte	0x45
ARM GAS  /tmp/ccKFEoRE.s 			page 59


 1663 05e3 FE050000 		.4byte	0x5fe
 1664 05e7 0E       		.uleb128 0xe
 1665 05e8 B4000000 		.4byte	.LASF87
 1666 05ec 0C       		.byte	0xc
 1667 05ed 46       		.byte	0x46
 1668 05ee 1F060000 		.4byte	0x61f
 1669 05f2 0E       		.uleb128 0xe
 1670 05f3 F8030000 		.4byte	.LASF88
 1671 05f7 0C       		.byte	0xc
 1672 05f8 47       		.byte	0x47
 1673 05f9 25060000 		.4byte	0x625
 1674 05fd 00       		.byte	0
 1675 05fe 17       		.uleb128 0x17
 1676 05ff 4C030000 		.4byte	.LASF124
 1677 0603 08       		.byte	0x8
 1678 0604 0C       		.byte	0xc
 1679 0605 42       		.byte	0x42
 1680 0606 1F060000 		.4byte	0x61f
 1681 060a 0E       		.uleb128 0xe
 1682 060b 0F020000 		.4byte	.LASF89
 1683 060f 0C       		.byte	0xc
 1684 0610 43       		.byte	0x43
 1685 0611 2B020000 		.4byte	0x22b
 1686 0615 18       		.uleb128 0x18
 1687 0616 6800     		.ascii	"h\000"
 1688 0618 0C       		.byte	0xc
 1689 0619 4A       		.byte	0x4a
 1690 061a 2B060000 		.4byte	0x62b
 1691 061e 00       		.byte	0
 1692 061f 0B       		.uleb128 0xb
 1693 0620 04       		.byte	0x4
 1694 0621 FE050000 		.4byte	0x5fe
 1695 0625 0B       		.uleb128 0xb
 1696 0626 04       		.byte	0x4
 1697 0627 9D050000 		.4byte	0x59d
 1698 062b 0C       		.uleb128 0xc
 1699 062c 08       		.byte	0x8
 1700 062d 0C       		.byte	0xc
 1701 062e 44       		.byte	0x44
 1702 062f 4E060000 		.4byte	0x64e
 1703 0633 04       		.uleb128 0x4
 1704 0634 7500     		.ascii	"u\000"
 1705 0636 0C       		.byte	0xc
 1706 0637 48       		.byte	0x48
 1707 0638 DF050000 		.4byte	0x5df
 1708 063c 02       		.byte	0x2
 1709 063d 23       		.byte	0x23
 1710 063e 00       		.uleb128 0
 1711 063f 03       		.uleb128 0x3
 1712 0640 51020000 		.4byte	.LASF90
 1713 0644 0C       		.byte	0xc
 1714 0645 49       		.byte	0x49
 1715 0646 39010000 		.4byte	0x139
 1716 064a 02       		.byte	0x2
 1717 064b 23       		.byte	0x23
 1718 064c 04       		.uleb128 0x4
 1719 064d 00       		.byte	0
ARM GAS  /tmp/ccKFEoRE.s 			page 60


 1720 064e 02       		.uleb128 0x2
 1721 064f 07050000 		.4byte	.LASF91
 1722 0653 04       		.byte	0x4
 1723 0654 0D       		.byte	0xd
 1724 0655 39       		.byte	0x39
 1725 0656 69060000 		.4byte	0x669
 1726 065a 03       		.uleb128 0x3
 1727 065b FC020000 		.4byte	.LASF92
 1728 065f 0D       		.byte	0xd
 1729 0660 3A       		.byte	0x3a
 1730 0661 69060000 		.4byte	0x669
 1731 0665 02       		.byte	0x2
 1732 0666 23       		.byte	0x23
 1733 0667 00       		.uleb128 0
 1734 0668 00       		.byte	0
 1735 0669 0B       		.uleb128 0xb
 1736 066a 04       		.byte	0x4
 1737 066b 4E060000 		.4byte	0x64e
 1738 066f 0C       		.uleb128 0xc
 1739 0670 0C       		.byte	0xc
 1740 0671 0D       		.byte	0xd
 1741 0672 41       		.byte	0x41
 1742 0673 A2060000 		.4byte	0x6a2
 1743 0677 03       		.uleb128 0x3
 1744 0678 A9010000 		.4byte	.LASF93
 1745 067c 0D       		.byte	0xd
 1746 067d 42       		.byte	0x42
 1747 067e 69060000 		.4byte	0x669
 1748 0682 02       		.byte	0x2
 1749 0683 23       		.byte	0x23
 1750 0684 00       		.uleb128 0
 1751 0685 03       		.uleb128 0x3
 1752 0686 E0020000 		.4byte	.LASF94
 1753 068a 0D       		.byte	0xd
 1754 068b 43       		.byte	0x43
 1755 068c 39010000 		.4byte	0x139
 1756 0690 02       		.byte	0x2
 1757 0691 23       		.byte	0x23
 1758 0692 04       		.uleb128 0x4
 1759 0693 03       		.uleb128 0x3
 1760 0694 E4010000 		.4byte	.LASF95
 1761 0698 0D       		.byte	0xd
 1762 0699 45       		.byte	0x45
 1763 069a 7C050000 		.4byte	0x57c
 1764 069e 02       		.byte	0x2
 1765 069f 23       		.byte	0x23
 1766 06a0 08       		.uleb128 0x8
 1767 06a1 00       		.byte	0
 1768 06a2 06       		.uleb128 0x6
 1769 06a3 43020000 		.4byte	.LASF96
 1770 06a7 0D       		.byte	0xd
 1771 06a8 47       		.byte	0x47
 1772 06a9 6F060000 		.4byte	0x66f
 1773 06ad 19       		.uleb128 0x19
 1774 06ae 43040000 		.4byte	.LASF100
 1775 06b2 02       		.byte	0x2
 1776 06b3 2002     		.2byte	0x220
ARM GAS  /tmp/ccKFEoRE.s 			page 61


 1777 06b5 01       		.byte	0x1
 1778 06b6 03       		.byte	0x3
 1779 06b7 C8060000 		.4byte	0x6c8
 1780 06bb 1A       		.uleb128 0x1a
 1781 06bc 09020000 		.4byte	.LASF102
 1782 06c0 02       		.byte	0x2
 1783 06c1 2002     		.2byte	0x220
 1784 06c3 8F010000 		.4byte	0x18f
 1785 06c7 00       		.byte	0
 1786 06c8 1B       		.uleb128 0x1b
 1787 06c9 4D000000 		.4byte	.LASF97
 1788 06cd 08       		.byte	0x8
 1789 06ce BC01     		.2byte	0x1bc
 1790 06d0 01       		.byte	0x1
 1791 06d1 03       		.byte	0x3
 1792 06d2 1B       		.uleb128 0x1b
 1793 06d3 9D010000 		.4byte	.LASF98
 1794 06d7 08       		.byte	0x8
 1795 06d8 CA01     		.2byte	0x1ca
 1796 06da 01       		.byte	0x1
 1797 06db 03       		.byte	0x3
 1798 06dc 1B       		.uleb128 0x1b
 1799 06dd 91030000 		.4byte	.LASF99
 1800 06e1 0E       		.byte	0xe
 1801 06e2 2A01     		.2byte	0x12a
 1802 06e4 01       		.byte	0x1
 1803 06e5 03       		.byte	0x3
 1804 06e6 19       		.uleb128 0x19
 1805 06e7 67050000 		.4byte	.LASF101
 1806 06eb 0E       		.byte	0xe
 1807 06ec 3601     		.2byte	0x136
 1808 06ee 01       		.byte	0x1
 1809 06ef 03       		.byte	0x3
 1810 06f0 03070000 		.4byte	0x703
 1811 06f4 1C       		.uleb128 0x1c
 1812 06f5 15020000 		.4byte	.LASF103
 1813 06f9 13070000 		.4byte	0x713
 1814 06fd 01       		.byte	0x1
 1815 06fe 67050000 		.4byte	.LASF101
 1816 0702 00       		.byte	0
 1817 0703 1D       		.uleb128 0x1d
 1818 0704 E4030000 		.4byte	0x3e4
 1819 0708 13070000 		.4byte	0x713
 1820 070c 1E       		.uleb128 0x1e
 1821 070d 0C020000 		.4byte	0x20c
 1822 0711 0B       		.byte	0xb
 1823 0712 00       		.byte	0
 1824 0713 0F       		.uleb128 0xf
 1825 0714 03070000 		.4byte	0x703
 1826 0718 1F       		.uleb128 0x1f
 1827 0719 01       		.byte	0x1
 1828 071a 9B030000 		.4byte	.LASF106
 1829 071e 01       		.byte	0x1
 1830 071f 5B       		.byte	0x5b
 1831 0720 01       		.byte	0x1
 1832 0721 01       		.byte	0x1
 1833 0722 4A070000 		.4byte	0x74a
ARM GAS  /tmp/ccKFEoRE.s 			page 62


 1834 0726 20       		.uleb128 0x20
 1835 0727 747000   		.ascii	"tp\000"
 1836 072a 01       		.byte	0x1
 1837 072b 5B       		.byte	0x5b
 1838 072c 09030000 		.4byte	0x309
 1839 0730 21       		.uleb128 0x21
 1840 0731 0C030000 		.4byte	.LASF104
 1841 0735 01       		.byte	0x1
 1842 0736 5C       		.byte	0x5c
 1843 0737 E0010000 		.4byte	0x1e0
 1844 073b 1C       		.uleb128 0x1c
 1845 073c 58040000 		.4byte	.LASF105
 1846 0740 5A070000 		.4byte	0x75a
 1847 0744 01       		.byte	0x1
 1848 0745 9B030000 		.4byte	.LASF106
 1849 0749 00       		.byte	0
 1850 074a 1D       		.uleb128 0x1d
 1851 074b E4030000 		.4byte	0x3e4
 1852 074f 5A070000 		.4byte	0x75a
 1853 0753 1E       		.uleb128 0x1e
 1854 0754 0C020000 		.4byte	0x20c
 1855 0758 0C       		.byte	0xc
 1856 0759 00       		.byte	0
 1857 075a 0F       		.uleb128 0xf
 1858 075b 4A070000 		.4byte	0x74a
 1859 075f 22       		.uleb128 0x22
 1860 0760 01       		.byte	0x1
 1861 0761 9C020000 		.4byte	.LASF107
 1862 0765 01       		.byte	0x1
 1863 0766 45       		.byte	0x45
 1864 0767 01       		.byte	0x1
 1865 0768 09030000 		.4byte	0x309
 1866 076c 00000000 		.4byte	.LFB165
 1867 0770 14000000 		.4byte	.LFE165
 1868 0774 02       		.byte	0x2
 1869 0775 7D       		.byte	0x7d
 1870 0776 00       		.sleb128 0
 1871 0777 01       		.byte	0x1
 1872 0778 12080000 		.4byte	0x812
 1873 077c 23       		.uleb128 0x23
 1874 077d 747000   		.ascii	"tp\000"
 1875 0780 01       		.byte	0x1
 1876 0781 45       		.byte	0x45
 1877 0782 09030000 		.4byte	0x309
 1878 0786 01       		.byte	0x1
 1879 0787 50       		.byte	0x50
 1880 0788 24       		.uleb128 0x24
 1881 0789 FB000000 		.4byte	.LASF112
 1882 078d 12080000 		.4byte	0x812
 1883 0791 01       		.byte	0x1
 1884 0792 25       		.uleb128 0x25
 1885 0793 DC060000 		.4byte	0x6dc
 1886 0797 00000000 		.4byte	.LBB63
 1887 079b 06000000 		.4byte	.LBE63
 1888 079f 01       		.byte	0x1
 1889 07a0 47       		.byte	0x47
 1890 07a1 CE070000 		.4byte	0x7ce
ARM GAS  /tmp/ccKFEoRE.s 			page 63


 1891 07a5 26       		.uleb128 0x26
 1892 07a6 C8060000 		.4byte	0x6c8
 1893 07aa 00000000 		.4byte	.LBB64
 1894 07ae 06000000 		.4byte	.LBE64
 1895 07b2 0E       		.byte	0xe
 1896 07b3 2C01     		.2byte	0x12c
 1897 07b5 26       		.uleb128 0x26
 1898 07b6 AD060000 		.4byte	0x6ad
 1899 07ba 00000000 		.4byte	.LBB65
 1900 07be 06000000 		.4byte	.LBE65
 1901 07c2 08       		.byte	0x8
 1902 07c3 BF01     		.2byte	0x1bf
 1903 07c5 27       		.uleb128 0x27
 1904 07c6 BB060000 		.4byte	0x6bb
 1905 07ca 20       		.byte	0x20
 1906 07cb 00       		.byte	0
 1907 07cc 00       		.byte	0
 1908 07cd 00       		.byte	0
 1909 07ce 28       		.uleb128 0x28
 1910 07cf E6060000 		.4byte	0x6e6
 1911 07d3 08000000 		.4byte	.LBB67
 1912 07d7 00000000 		.4byte	.Ldebug_ranges0+0
 1913 07db 01       		.byte	0x1
 1914 07dc 4A       		.byte	0x4a
 1915 07dd 29       		.uleb128 0x29
 1916 07de 18000000 		.4byte	.Ldebug_ranges0+0x18
 1917 07e2 2A       		.uleb128 0x2a
 1918 07e3 F4060000 		.4byte	0x6f4
 1919 07e7 2B       		.uleb128 0x2b
 1920 07e8 D2060000 		.4byte	0x6d2
 1921 07ec 08000000 		.4byte	.LBB69
 1922 07f0 30000000 		.4byte	.Ldebug_ranges0+0x30
 1923 07f4 0E       		.byte	0xe
 1924 07f5 4201     		.2byte	0x142
 1925 07f7 2B       		.uleb128 0x2b
 1926 07f8 AD060000 		.4byte	0x6ad
 1927 07fc 08000000 		.4byte	.LBB70
 1928 0800 48000000 		.4byte	.Ldebug_ranges0+0x48
 1929 0804 08       		.byte	0x8
 1930 0805 CD01     		.2byte	0x1cd
 1931 0807 27       		.uleb128 0x27
 1932 0808 BB060000 		.4byte	0x6bb
 1933 080c 00       		.byte	0
 1934 080d 00       		.byte	0
 1935 080e 00       		.byte	0
 1936 080f 00       		.byte	0
 1937 0810 00       		.byte	0
 1938 0811 00       		.byte	0
 1939 0812 0F       		.uleb128 0xf
 1940 0813 03070000 		.4byte	0x703
 1941 0817 2C       		.uleb128 0x2c
 1942 0818 18070000 		.4byte	0x718
 1943 081c 00000000 		.4byte	.LFB166
 1944 0820 4C000000 		.4byte	.LFE166
 1945 0824 02       		.byte	0x2
 1946 0825 7D       		.byte	0x7d
 1947 0826 00       		.sleb128 0
ARM GAS  /tmp/ccKFEoRE.s 			page 64


 1948 0827 01       		.byte	0x1
 1949 0828 1C090000 		.4byte	0x91c
 1950 082c 2D       		.uleb128 0x2d
 1951 082d 26070000 		.4byte	0x726
 1952 0831 00000000 		.4byte	.LLST0
 1953 0835 2E       		.uleb128 0x2e
 1954 0836 30070000 		.4byte	0x730
 1955 083a 45000000 		.4byte	.LLST1
 1956 083e 2A       		.uleb128 0x2a
 1957 083f 3B070000 		.4byte	0x73b
 1958 0843 25       		.uleb128 0x25
 1959 0844 DC060000 		.4byte	0x6dc
 1960 0848 02000000 		.4byte	.LBB97
 1961 084c 08000000 		.4byte	.LBE97
 1962 0850 01       		.byte	0x1
 1963 0851 5E       		.byte	0x5e
 1964 0852 7F080000 		.4byte	0x87f
 1965 0856 26       		.uleb128 0x26
 1966 0857 C8060000 		.4byte	0x6c8
 1967 085b 02000000 		.4byte	.LBB98
 1968 085f 08000000 		.4byte	.LBE98
 1969 0863 0E       		.byte	0xe
 1970 0864 2C01     		.2byte	0x12c
 1971 0866 26       		.uleb128 0x26
 1972 0867 AD060000 		.4byte	0x6ad
 1973 086b 02000000 		.4byte	.LBB99
 1974 086f 08000000 		.4byte	.LBE99
 1975 0873 08       		.byte	0x8
 1976 0874 BF01     		.2byte	0x1bf
 1977 0876 27       		.uleb128 0x27
 1978 0877 BB060000 		.4byte	0x6bb
 1979 087b 20       		.byte	0x20
 1980 087c 00       		.byte	0
 1981 087d 00       		.byte	0
 1982 087e 00       		.byte	0
 1983 087f 25       		.uleb128 0x25
 1984 0880 E6060000 		.4byte	0x6e6
 1985 0884 10000000 		.4byte	.LBB101
 1986 0888 16000000 		.4byte	.LBE101
 1987 088c 01       		.byte	0x1
 1988 088d 61       		.byte	0x61
 1989 088e CA080000 		.4byte	0x8ca
 1990 0892 2F       		.uleb128 0x2f
 1991 0893 10000000 		.4byte	.LBB102
 1992 0897 16000000 		.4byte	.LBE102
 1993 089b 2A       		.uleb128 0x2a
 1994 089c F4060000 		.4byte	0x6f4
 1995 08a0 26       		.uleb128 0x26
 1996 08a1 D2060000 		.4byte	0x6d2
 1997 08a5 10000000 		.4byte	.LBB103
 1998 08a9 16000000 		.4byte	.LBE103
 1999 08ad 0E       		.byte	0xe
 2000 08ae 4201     		.2byte	0x142
 2001 08b0 26       		.uleb128 0x26
 2002 08b1 AD060000 		.4byte	0x6ad
 2003 08b5 10000000 		.4byte	.LBB104
 2004 08b9 16000000 		.4byte	.LBE104
ARM GAS  /tmp/ccKFEoRE.s 			page 65


 2005 08bd 08       		.byte	0x8
 2006 08be CD01     		.2byte	0x1cd
 2007 08c0 27       		.uleb128 0x27
 2008 08c1 BB060000 		.4byte	0x6bb
 2009 08c5 00       		.byte	0
 2010 08c6 00       		.byte	0
 2011 08c7 00       		.byte	0
 2012 08c8 00       		.byte	0
 2013 08c9 00       		.byte	0
 2014 08ca 30       		.uleb128 0x30
 2015 08cb 18070000 		.4byte	0x718
 2016 08cf 2E000000 		.4byte	.LBB106
 2017 08d3 60000000 		.4byte	.Ldebug_ranges0+0x60
 2018 08d7 01       		.byte	0x1
 2019 08d8 5B       		.byte	0x5b
 2020 08d9 09090000 		.4byte	0x909
 2021 08dd 2D       		.uleb128 0x2d
 2022 08de 26070000 		.4byte	0x726
 2023 08e2 94000000 		.4byte	.LLST2
 2024 08e6 29       		.uleb128 0x29
 2025 08e7 78000000 		.4byte	.Ldebug_ranges0+0x78
 2026 08eb 2A       		.uleb128 0x2a
 2027 08ec 30070000 		.4byte	0x730
 2028 08f0 2A       		.uleb128 0x2a
 2029 08f1 3B070000 		.4byte	0x73b
 2030 08f5 31       		.uleb128 0x31
 2031 08f6 3E000000 		.4byte	.LVL7
 2032 08fa 01       		.byte	0x1
 2033 08fb 180C0000 		.4byte	0xc18
 2034 08ff 32       		.uleb128 0x32
 2035 0900 01       		.byte	0x1
 2036 0901 51       		.byte	0x51
 2037 0902 03       		.byte	0x3
 2038 0903 F3       		.byte	0xf3
 2039 0904 01       		.uleb128 0x1
 2040 0905 50       		.byte	0x50
 2041 0906 00       		.byte	0
 2042 0907 00       		.byte	0
 2043 0908 00       		.byte	0
 2044 0909 31       		.uleb128 0x31
 2045 090a 4C000000 		.4byte	.LVL8
 2046 090e 01       		.byte	0x1
 2047 090f 310C0000 		.4byte	0xc31
 2048 0913 32       		.uleb128 0x32
 2049 0914 01       		.byte	0x1
 2050 0915 50       		.byte	0x50
 2051 0916 03       		.byte	0x3
 2052 0917 F3       		.byte	0xf3
 2053 0918 01       		.uleb128 0x1
 2054 0919 50       		.byte	0x50
 2055 091a 00       		.byte	0
 2056 091b 00       		.byte	0
 2057 091c 33       		.uleb128 0x33
 2058 091d 01       		.byte	0x1
 2059 091e 72010000 		.4byte	.LASF108
 2060 0922 01       		.byte	0x1
 2061 0923 93       		.byte	0x93
ARM GAS  /tmp/ccKFEoRE.s 			page 66


 2062 0924 01       		.byte	0x1
 2063 0925 09030000 		.4byte	0x309
 2064 0929 00000000 		.4byte	.LFB167
 2065 092d 3E000000 		.4byte	.LFE167
 2066 0931 C0000000 		.4byte	.LLST3
 2067 0935 01       		.byte	0x1
 2068 0936 850A0000 		.4byte	0xa85
 2069 093a 34       		.uleb128 0x34
 2070 093b AE000000 		.4byte	.LASF109
 2071 093f 01       		.byte	0x1
 2072 0940 93       		.byte	0x93
 2073 0941 25060000 		.4byte	0x625
 2074 0945 EC000000 		.4byte	.LLST4
 2075 0949 34       		.uleb128 0x34
 2076 094a 51020000 		.4byte	.LASF90
 2077 094e 01       		.byte	0x1
 2078 094f 93       		.byte	0x93
 2079 0950 39010000 		.4byte	0x139
 2080 0954 0D010000 		.4byte	.LLST5
 2081 0958 34       		.uleb128 0x34
 2082 0959 EF020000 		.4byte	.LASF110
 2083 095d 01       		.byte	0x1
 2084 095e 94       		.byte	0x94
 2085 095f EB010000 		.4byte	0x1eb
 2086 0963 2B010000 		.4byte	.LLST6
 2087 0967 35       		.uleb128 0x35
 2088 0968 706600   		.ascii	"pf\000"
 2089 096b 01       		.byte	0x1
 2090 096c 94       		.byte	0x94
 2091 096d 4A050000 		.4byte	0x54a
 2092 0971 49010000 		.4byte	.LLST7
 2093 0975 23       		.uleb128 0x23
 2094 0976 61726700 		.ascii	"arg\000"
 2095 097a 01       		.byte	0x1
 2096 097b 94       		.byte	0x94
 2097 097c 29020000 		.4byte	0x229
 2098 0980 02       		.byte	0x2
 2099 0981 91       		.byte	0x91
 2100 0982 00       		.sleb128 0
 2101 0983 36       		.uleb128 0x36
 2102 0984 77737000 		.ascii	"wsp\000"
 2103 0988 01       		.byte	0x1
 2104 0989 95       		.byte	0x95
 2105 098a 29020000 		.4byte	0x229
 2106 098e 67010000 		.4byte	.LLST8
 2107 0992 36       		.uleb128 0x36
 2108 0993 747000   		.ascii	"tp\000"
 2109 0996 01       		.byte	0x1
 2110 0997 96       		.byte	0x96
 2111 0998 09030000 		.4byte	0x309
 2112 099c 7A010000 		.4byte	.LLST9
 2113 09a0 25       		.uleb128 0x25
 2114 09a1 DC060000 		.4byte	0x6dc
 2115 09a5 12000000 		.4byte	.LBB110
 2116 09a9 18000000 		.4byte	.LBE110
 2117 09ad 01       		.byte	0x1
 2118 09ae A5       		.byte	0xa5
ARM GAS  /tmp/ccKFEoRE.s 			page 67


 2119 09af DF090000 		.4byte	0x9df
 2120 09b3 26       		.uleb128 0x26
 2121 09b4 C8060000 		.4byte	0x6c8
 2122 09b8 12000000 		.4byte	.LBB111
 2123 09bc 18000000 		.4byte	.LBE111
 2124 09c0 0E       		.byte	0xe
 2125 09c1 2C01     		.2byte	0x12c
 2126 09c3 26       		.uleb128 0x26
 2127 09c4 AD060000 		.4byte	0x6ad
 2128 09c8 12000000 		.4byte	.LBB112
 2129 09cc 18000000 		.4byte	.LBE112
 2130 09d0 08       		.byte	0x8
 2131 09d1 BF01     		.2byte	0x1bf
 2132 09d3 2D       		.uleb128 0x2d
 2133 09d4 BB060000 		.4byte	0x6bb
 2134 09d8 98010000 		.4byte	.LLST10
 2135 09dc 00       		.byte	0
 2136 09dd 00       		.byte	0
 2137 09de 00       		.byte	0
 2138 09df 25       		.uleb128 0x25
 2139 09e0 E6060000 		.4byte	0x6e6
 2140 09e4 32000000 		.4byte	.LBB114
 2141 09e8 38000000 		.4byte	.LBE114
 2142 09ec 01       		.byte	0x1
 2143 09ed A9       		.byte	0xa9
 2144 09ee 2D0A0000 		.4byte	0xa2d
 2145 09f2 2F       		.uleb128 0x2f
 2146 09f3 32000000 		.4byte	.LBB115
 2147 09f7 38000000 		.4byte	.LBE115
 2148 09fb 2A       		.uleb128 0x2a
 2149 09fc F4060000 		.4byte	0x6f4
 2150 0a00 26       		.uleb128 0x26
 2151 0a01 D2060000 		.4byte	0x6d2
 2152 0a05 32000000 		.4byte	.LBB116
 2153 0a09 38000000 		.4byte	.LBE116
 2154 0a0d 0E       		.byte	0xe
 2155 0a0e 4201     		.2byte	0x142
 2156 0a10 26       		.uleb128 0x26
 2157 0a11 AD060000 		.4byte	0x6ad
 2158 0a15 32000000 		.4byte	.LBB117
 2159 0a19 38000000 		.4byte	.LBE117
 2160 0a1d 08       		.byte	0x8
 2161 0a1e CD01     		.2byte	0x1cd
 2162 0a20 2D       		.uleb128 0x2d
 2163 0a21 BB060000 		.4byte	0x6bb
 2164 0a25 AD010000 		.4byte	.LLST11
 2165 0a29 00       		.byte	0
 2166 0a2a 00       		.byte	0
 2167 0a2b 00       		.byte	0
 2168 0a2c 00       		.byte	0
 2169 0a2d 37       		.uleb128 0x37
 2170 0a2e 0E000000 		.4byte	.LVL10
 2171 0a32 450C0000 		.4byte	0xc45
 2172 0a36 480A0000 		.4byte	0xa48
 2173 0a3a 32       		.uleb128 0x32
 2174 0a3b 01       		.byte	0x1
 2175 0a3c 51       		.byte	0x51
ARM GAS  /tmp/ccKFEoRE.s 			page 68


 2176 0a3d 02       		.byte	0x2
 2177 0a3e 75       		.byte	0x75
 2178 0a3f 00       		.sleb128 0
 2179 0a40 32       		.uleb128 0x32
 2180 0a41 01       		.byte	0x1
 2181 0a42 50       		.byte	0x50
 2182 0a43 03       		.byte	0x3
 2183 0a44 F3       		.byte	0xf3
 2184 0a45 01       		.uleb128 0x1
 2185 0a46 50       		.byte	0x50
 2186 0a47 00       		.byte	0
 2187 0a48 37       		.uleb128 0x37
 2188 0a49 26000000 		.4byte	.LVL12
 2189 0a4d 620C0000 		.4byte	0xc62
 2190 0a51 6F0A0000 		.4byte	0xa6f
 2191 0a55 32       		.uleb128 0x32
 2192 0a56 01       		.byte	0x1
 2193 0a57 53       		.byte	0x53
 2194 0a58 02       		.byte	0x2
 2195 0a59 76       		.byte	0x76
 2196 0a5a 00       		.sleb128 0
 2197 0a5b 32       		.uleb128 0x32
 2198 0a5c 01       		.byte	0x1
 2199 0a5d 52       		.byte	0x52
 2200 0a5e 02       		.byte	0x2
 2201 0a5f 77       		.byte	0x77
 2202 0a60 00       		.sleb128 0
 2203 0a61 32       		.uleb128 0x32
 2204 0a62 01       		.byte	0x1
 2205 0a63 51       		.byte	0x51
 2206 0a64 02       		.byte	0x2
 2207 0a65 75       		.byte	0x75
 2208 0a66 00       		.sleb128 0
 2209 0a67 32       		.uleb128 0x32
 2210 0a68 02       		.byte	0x2
 2211 0a69 7D       		.byte	0x7d
 2212 0a6a 00       		.sleb128 0
 2213 0a6b 02       		.byte	0x2
 2214 0a6c 74       		.byte	0x74
 2215 0a6d 00       		.sleb128 0
 2216 0a6e 00       		.byte	0
 2217 0a6f 38       		.uleb128 0x38
 2218 0a70 32000000 		.4byte	.LVL14
 2219 0a74 8E0C0000 		.4byte	0xc8e
 2220 0a78 32       		.uleb128 0x32
 2221 0a79 01       		.byte	0x1
 2222 0a7a 51       		.byte	0x51
 2223 0a7b 01       		.byte	0x1
 2224 0a7c 30       		.byte	0x30
 2225 0a7d 32       		.uleb128 0x32
 2226 0a7e 01       		.byte	0x1
 2227 0a7f 50       		.byte	0x50
 2228 0a80 02       		.byte	0x2
 2229 0a81 74       		.byte	0x74
 2230 0a82 00       		.sleb128 0
 2231 0a83 00       		.byte	0
 2232 0a84 00       		.byte	0
ARM GAS  /tmp/ccKFEoRE.s 			page 69


 2233 0a85 33       		.uleb128 0x33
 2234 0a86 01       		.byte	0x1
 2235 0a87 C2010000 		.4byte	.LASF111
 2236 0a8b 01       		.byte	0x1
 2237 0a8c C4       		.byte	0xc4
 2238 0a8d 01       		.byte	0x1
 2239 0a8e 09030000 		.4byte	0x309
 2240 0a92 00000000 		.4byte	.LFB168
 2241 0a96 44000000 		.4byte	.LFE168
 2242 0a9a C1010000 		.4byte	.LLST12
 2243 0a9e 01       		.byte	0x1
 2244 0a9f E20B0000 		.4byte	0xbe2
 2245 0aa3 35       		.uleb128 0x35
 2246 0aa4 6D7000   		.ascii	"mp\000"
 2247 0aa7 01       		.byte	0x1
 2248 0aa8 C4       		.byte	0xc4
 2249 0aa9 E20B0000 		.4byte	0xbe2
 2250 0aad ED010000 		.4byte	.LLST13
 2251 0ab1 34       		.uleb128 0x34
 2252 0ab2 EF020000 		.4byte	.LASF110
 2253 0ab6 01       		.byte	0x1
 2254 0ab7 C4       		.byte	0xc4
 2255 0ab8 EB010000 		.4byte	0x1eb
 2256 0abc 0B020000 		.4byte	.LLST14
 2257 0ac0 35       		.uleb128 0x35
 2258 0ac1 706600   		.ascii	"pf\000"
 2259 0ac4 01       		.byte	0x1
 2260 0ac5 C5       		.byte	0xc5
 2261 0ac6 4A050000 		.4byte	0x54a
 2262 0aca 29020000 		.4byte	.LLST15
 2263 0ace 35       		.uleb128 0x35
 2264 0acf 61726700 		.ascii	"arg\000"
 2265 0ad3 01       		.byte	0x1
 2266 0ad4 C5       		.byte	0xc5
 2267 0ad5 29020000 		.4byte	0x229
 2268 0ad9 47020000 		.4byte	.LLST16
 2269 0add 36       		.uleb128 0x36
 2270 0ade 77737000 		.ascii	"wsp\000"
 2271 0ae2 01       		.byte	0x1
 2272 0ae3 C6       		.byte	0xc6
 2273 0ae4 29020000 		.4byte	0x229
 2274 0ae8 65020000 		.4byte	.LLST17
 2275 0aec 36       		.uleb128 0x36
 2276 0aed 747000   		.ascii	"tp\000"
 2277 0af0 01       		.byte	0x1
 2278 0af1 C7       		.byte	0xc7
 2279 0af2 09030000 		.4byte	0x309
 2280 0af6 83020000 		.4byte	.LLST18
 2281 0afa 24       		.uleb128 0x24
 2282 0afb 3F000000 		.4byte	.LASF113
 2283 0aff F80B0000 		.4byte	0xbf8
 2284 0b03 01       		.byte	0x1
 2285 0b04 25       		.uleb128 0x25
 2286 0b05 DC060000 		.4byte	0x6dc
 2287 0b09 16000000 		.4byte	.LBB119
 2288 0b0d 1C000000 		.4byte	.LBE119
 2289 0b11 01       		.byte	0x1
ARM GAS  /tmp/ccKFEoRE.s 			page 70


 2290 0b12 D8       		.byte	0xd8
 2291 0b13 430B0000 		.4byte	0xb43
 2292 0b17 26       		.uleb128 0x26
 2293 0b18 C8060000 		.4byte	0x6c8
 2294 0b1c 16000000 		.4byte	.LBB120
 2295 0b20 1C000000 		.4byte	.LBE120
 2296 0b24 0E       		.byte	0xe
 2297 0b25 2C01     		.2byte	0x12c
 2298 0b27 26       		.uleb128 0x26
 2299 0b28 AD060000 		.4byte	0x6ad
 2300 0b2c 16000000 		.4byte	.LBB121
 2301 0b30 1C000000 		.4byte	.LBE121
 2302 0b34 08       		.byte	0x8
 2303 0b35 BF01     		.2byte	0x1bf
 2304 0b37 2D       		.uleb128 0x2d
 2305 0b38 BB060000 		.4byte	0x6bb
 2306 0b3c A1020000 		.4byte	.LLST19
 2307 0b40 00       		.byte	0
 2308 0b41 00       		.byte	0
 2309 0b42 00       		.byte	0
 2310 0b43 25       		.uleb128 0x25
 2311 0b44 E6060000 		.4byte	0x6e6
 2312 0b48 36000000 		.4byte	.LBB123
 2313 0b4c 3C000000 		.4byte	.LBE123
 2314 0b50 01       		.byte	0x1
 2315 0b51 DD       		.byte	0xdd
 2316 0b52 910B0000 		.4byte	0xb91
 2317 0b56 2F       		.uleb128 0x2f
 2318 0b57 36000000 		.4byte	.LBB124
 2319 0b5b 3C000000 		.4byte	.LBE124
 2320 0b5f 2A       		.uleb128 0x2a
 2321 0b60 F4060000 		.4byte	0x6f4
 2322 0b64 26       		.uleb128 0x26
 2323 0b65 D2060000 		.4byte	0x6d2
 2324 0b69 36000000 		.4byte	.LBB125
 2325 0b6d 3C000000 		.4byte	.LBE125
 2326 0b71 0E       		.byte	0xe
 2327 0b72 4201     		.2byte	0x142
 2328 0b74 26       		.uleb128 0x26
 2329 0b75 AD060000 		.4byte	0x6ad
 2330 0b79 36000000 		.4byte	.LBB126
 2331 0b7d 3C000000 		.4byte	.LBE126
 2332 0b81 08       		.byte	0x8
 2333 0b82 CD01     		.2byte	0x1cd
 2334 0b84 2D       		.uleb128 0x2d
 2335 0b85 BB060000 		.4byte	0x6bb
 2336 0b89 B6020000 		.4byte	.LLST20
 2337 0b8d 00       		.byte	0
 2338 0b8e 00       		.byte	0
 2339 0b8f 00       		.byte	0
 2340 0b90 00       		.byte	0
 2341 0b91 37       		.uleb128 0x37
 2342 0b92 12000000 		.4byte	.LVL17
 2343 0b96 A80C0000 		.4byte	0xca8
 2344 0b9a A50B0000 		.4byte	0xba5
 2345 0b9e 32       		.uleb128 0x32
 2346 0b9f 01       		.byte	0x1
ARM GAS  /tmp/ccKFEoRE.s 			page 71


 2347 0ba0 50       		.byte	0x50
 2348 0ba1 02       		.byte	0x2
 2349 0ba2 75       		.byte	0x75
 2350 0ba3 00       		.sleb128 0
 2351 0ba4 00       		.byte	0
 2352 0ba5 37       		.uleb128 0x37
 2353 0ba6 28000000 		.4byte	.LVL19
 2354 0baa 620C0000 		.4byte	0xc62
 2355 0bae CC0B0000 		.4byte	0xbcc
 2356 0bb2 32       		.uleb128 0x32
 2357 0bb3 01       		.byte	0x1
 2358 0bb4 53       		.byte	0x53
 2359 0bb5 02       		.byte	0x2
 2360 0bb6 77       		.byte	0x77
 2361 0bb7 00       		.sleb128 0
 2362 0bb8 32       		.uleb128 0x32
 2363 0bb9 01       		.byte	0x1
 2364 0bba 52       		.byte	0x52
 2365 0bbb 02       		.byte	0x2
 2366 0bbc 78       		.byte	0x78
 2367 0bbd 00       		.sleb128 0
 2368 0bbe 32       		.uleb128 0x32
 2369 0bbf 01       		.byte	0x1
 2370 0bc0 50       		.byte	0x50
 2371 0bc1 02       		.byte	0x2
 2372 0bc2 74       		.byte	0x74
 2373 0bc3 00       		.sleb128 0
 2374 0bc4 32       		.uleb128 0x32
 2375 0bc5 02       		.byte	0x2
 2376 0bc6 7D       		.byte	0x7d
 2377 0bc7 00       		.sleb128 0
 2378 0bc8 02       		.byte	0x2
 2379 0bc9 76       		.byte	0x76
 2380 0bca 00       		.sleb128 0
 2381 0bcb 00       		.byte	0
 2382 0bcc 38       		.uleb128 0x38
 2383 0bcd 36000000 		.4byte	.LVL21
 2384 0bd1 8E0C0000 		.4byte	0xc8e
 2385 0bd5 32       		.uleb128 0x32
 2386 0bd6 01       		.byte	0x1
 2387 0bd7 51       		.byte	0x51
 2388 0bd8 01       		.byte	0x1
 2389 0bd9 30       		.byte	0x30
 2390 0bda 32       		.uleb128 0x32
 2391 0bdb 01       		.byte	0x1
 2392 0bdc 50       		.byte	0x50
 2393 0bdd 02       		.byte	0x2
 2394 0bde 74       		.byte	0x74
 2395 0bdf 00       		.sleb128 0
 2396 0be0 00       		.byte	0
 2397 0be1 00       		.byte	0
 2398 0be2 0B       		.uleb128 0xb
 2399 0be3 04       		.byte	0x4
 2400 0be4 A2060000 		.4byte	0x6a2
 2401 0be8 1D       		.uleb128 0x1d
 2402 0be9 E4030000 		.4byte	0x3e4
 2403 0bed F80B0000 		.4byte	0xbf8
ARM GAS  /tmp/ccKFEoRE.s 			page 72


 2404 0bf1 1E       		.uleb128 0x1e
 2405 0bf2 0C020000 		.4byte	0x20c
 2406 0bf6 19       		.byte	0x19
 2407 0bf7 00       		.byte	0
 2408 0bf8 0F       		.uleb128 0xf
 2409 0bf9 E80B0000 		.4byte	0xbe8
 2410 0bfd 39       		.uleb128 0x39
 2411 0bfe A1000000 		.4byte	.LASF114
 2412 0c02 0F       		.byte	0xf
 2413 0c03 1606     		.2byte	0x616
 2414 0c05 BA010000 		.4byte	0x1ba
 2415 0c09 01       		.byte	0x1
 2416 0c0a 01       		.byte	0x1
 2417 0c0b 3A       		.uleb128 0x3a
 2418 0c0c 636800   		.ascii	"ch\000"
 2419 0c0f 03       		.byte	0x3
 2420 0c10 8901     		.2byte	0x189
 2421 0c12 3E050000 		.4byte	0x53e
 2422 0c16 01       		.byte	0x1
 2423 0c17 01       		.byte	0x1
 2424 0c18 3B       		.uleb128 0x3b
 2425 0c19 01       		.byte	0x1
 2426 0c1a 34050000 		.4byte	.LASF115
 2427 0c1e 0D       		.byte	0xd
 2428 0c1f 72       		.byte	0x72
 2429 0c20 01       		.byte	0x1
 2430 0c21 01       		.byte	0x1
 2431 0c22 310C0000 		.4byte	0xc31
 2432 0c26 12       		.uleb128 0x12
 2433 0c27 E20B0000 		.4byte	0xbe2
 2434 0c2b 12       		.uleb128 0x12
 2435 0c2c 29020000 		.4byte	0x229
 2436 0c30 00       		.byte	0
 2437 0c31 3B       		.uleb128 0x3b
 2438 0c32 01       		.byte	0x1
 2439 0c33 F0000000 		.4byte	.LASF116
 2440 0c37 0C       		.byte	0xc
 2441 0c38 69       		.byte	0x69
 2442 0c39 01       		.byte	0x1
 2443 0c3a 01       		.byte	0x1
 2444 0c3b 450C0000 		.4byte	0xc45
 2445 0c3f 12       		.uleb128 0x12
 2446 0c40 29020000 		.4byte	0x229
 2447 0c44 00       		.byte	0
 2448 0c45 3C       		.uleb128 0x3c
 2449 0c46 01       		.byte	0x1
 2450 0c47 A8030000 		.4byte	.LASF117
 2451 0c4b 0C       		.byte	0xc
 2452 0c4c 68       		.byte	0x68
 2453 0c4d 01       		.byte	0x1
 2454 0c4e 29020000 		.4byte	0x229
 2455 0c52 01       		.byte	0x1
 2456 0c53 620C0000 		.4byte	0xc62
 2457 0c57 12       		.uleb128 0x12
 2458 0c58 25060000 		.4byte	0x625
 2459 0c5c 12       		.uleb128 0x12
 2460 0c5d 39010000 		.4byte	0x139
ARM GAS  /tmp/ccKFEoRE.s 			page 73


 2461 0c61 00       		.byte	0
 2462 0c62 3C       		.uleb128 0x3c
 2463 0c63 01       		.byte	0x1
 2464 0c64 09010000 		.4byte	.LASF118
 2465 0c68 0A       		.byte	0xa
 2466 0c69 EE       		.byte	0xee
 2467 0c6a 01       		.byte	0x1
 2468 0c6b 09030000 		.4byte	0x309
 2469 0c6f 01       		.byte	0x1
 2470 0c70 8E0C0000 		.4byte	0xc8e
 2471 0c74 12       		.uleb128 0x12
 2472 0c75 29020000 		.4byte	0x229
 2473 0c79 12       		.uleb128 0x12
 2474 0c7a 39010000 		.4byte	0x139
 2475 0c7e 12       		.uleb128 0x12
 2476 0c7f EB010000 		.4byte	0x1eb
 2477 0c83 12       		.uleb128 0x12
 2478 0c84 4A050000 		.4byte	0x54a
 2479 0c88 12       		.uleb128 0x12
 2480 0c89 29020000 		.4byte	0x229
 2481 0c8d 00       		.byte	0
 2482 0c8e 3D       		.uleb128 0x3d
 2483 0c8f 01       		.byte	0x1
 2484 0c90 69020000 		.4byte	.LASF119
 2485 0c94 03       		.byte	0x3
 2486 0c95 9601     		.2byte	0x196
 2487 0c97 01       		.byte	0x1
 2488 0c98 01       		.byte	0x1
 2489 0c99 A80C0000 		.4byte	0xca8
 2490 0c9d 12       		.uleb128 0x12
 2491 0c9e 09030000 		.4byte	0x309
 2492 0ca2 12       		.uleb128 0x12
 2493 0ca3 F6010000 		.4byte	0x1f6
 2494 0ca7 00       		.byte	0
 2495 0ca8 3E       		.uleb128 0x3e
 2496 0ca9 01       		.byte	0x1
 2497 0caa 28050000 		.4byte	.LASF120
 2498 0cae 0D       		.byte	0xd
 2499 0caf 70       		.byte	0x70
 2500 0cb0 01       		.byte	0x1
 2501 0cb1 29020000 		.4byte	0x229
 2502 0cb5 01       		.byte	0x1
 2503 0cb6 12       		.uleb128 0x12
 2504 0cb7 E20B0000 		.4byte	0xbe2
 2505 0cbb 00       		.byte	0
 2506 0cbc 00       		.byte	0
 2507              		.section	.debug_abbrev,"",%progbits
 2508              	.Ldebug_abbrev0:
 2509 0000 01       		.uleb128 0x1
 2510 0001 11       		.uleb128 0x11
 2511 0002 01       		.byte	0x1
 2512 0003 25       		.uleb128 0x25
 2513 0004 0E       		.uleb128 0xe
 2514 0005 13       		.uleb128 0x13
 2515 0006 0B       		.uleb128 0xb
 2516 0007 03       		.uleb128 0x3
 2517 0008 0E       		.uleb128 0xe
ARM GAS  /tmp/ccKFEoRE.s 			page 74


 2518 0009 1B       		.uleb128 0x1b
 2519 000a 0E       		.uleb128 0xe
 2520 000b 55       		.uleb128 0x55
 2521 000c 06       		.uleb128 0x6
 2522 000d 11       		.uleb128 0x11
 2523 000e 01       		.uleb128 0x1
 2524 000f 52       		.uleb128 0x52
 2525 0010 01       		.uleb128 0x1
 2526 0011 10       		.uleb128 0x10
 2527 0012 06       		.uleb128 0x6
 2528 0013 00       		.byte	0
 2529 0014 00       		.byte	0
 2530 0015 02       		.uleb128 0x2
 2531 0016 13       		.uleb128 0x13
 2532 0017 01       		.byte	0x1
 2533 0018 03       		.uleb128 0x3
 2534 0019 0E       		.uleb128 0xe
 2535 001a 0B       		.uleb128 0xb
 2536 001b 0B       		.uleb128 0xb
 2537 001c 3A       		.uleb128 0x3a
 2538 001d 0B       		.uleb128 0xb
 2539 001e 3B       		.uleb128 0x3b
 2540 001f 0B       		.uleb128 0xb
 2541 0020 01       		.uleb128 0x1
 2542 0021 13       		.uleb128 0x13
 2543 0022 00       		.byte	0
 2544 0023 00       		.byte	0
 2545 0024 03       		.uleb128 0x3
 2546 0025 0D       		.uleb128 0xd
 2547 0026 00       		.byte	0
 2548 0027 03       		.uleb128 0x3
 2549 0028 0E       		.uleb128 0xe
 2550 0029 3A       		.uleb128 0x3a
 2551 002a 0B       		.uleb128 0xb
 2552 002b 3B       		.uleb128 0x3b
 2553 002c 0B       		.uleb128 0xb
 2554 002d 49       		.uleb128 0x49
 2555 002e 13       		.uleb128 0x13
 2556 002f 38       		.uleb128 0x38
 2557 0030 0A       		.uleb128 0xa
 2558 0031 00       		.byte	0
 2559 0032 00       		.byte	0
 2560 0033 04       		.uleb128 0x4
 2561 0034 0D       		.uleb128 0xd
 2562 0035 00       		.byte	0
 2563 0036 03       		.uleb128 0x3
 2564 0037 08       		.uleb128 0x8
 2565 0038 3A       		.uleb128 0x3a
 2566 0039 0B       		.uleb128 0xb
 2567 003a 3B       		.uleb128 0x3b
 2568 003b 0B       		.uleb128 0xb
 2569 003c 49       		.uleb128 0x49
 2570 003d 13       		.uleb128 0x13
 2571 003e 38       		.uleb128 0x38
 2572 003f 0A       		.uleb128 0xa
 2573 0040 00       		.byte	0
 2574 0041 00       		.byte	0
ARM GAS  /tmp/ccKFEoRE.s 			page 75


 2575 0042 05       		.uleb128 0x5
 2576 0043 24       		.uleb128 0x24
 2577 0044 00       		.byte	0
 2578 0045 0B       		.uleb128 0xb
 2579 0046 0B       		.uleb128 0xb
 2580 0047 3E       		.uleb128 0x3e
 2581 0048 0B       		.uleb128 0xb
 2582 0049 03       		.uleb128 0x3
 2583 004a 08       		.uleb128 0x8
 2584 004b 00       		.byte	0
 2585 004c 00       		.byte	0
 2586 004d 06       		.uleb128 0x6
 2587 004e 16       		.uleb128 0x16
 2588 004f 00       		.byte	0
 2589 0050 03       		.uleb128 0x3
 2590 0051 0E       		.uleb128 0xe
 2591 0052 3A       		.uleb128 0x3a
 2592 0053 0B       		.uleb128 0xb
 2593 0054 3B       		.uleb128 0x3b
 2594 0055 0B       		.uleb128 0xb
 2595 0056 49       		.uleb128 0x49
 2596 0057 13       		.uleb128 0x13
 2597 0058 00       		.byte	0
 2598 0059 00       		.byte	0
 2599 005a 07       		.uleb128 0x7
 2600 005b 24       		.uleb128 0x24
 2601 005c 00       		.byte	0
 2602 005d 0B       		.uleb128 0xb
 2603 005e 0B       		.uleb128 0xb
 2604 005f 3E       		.uleb128 0x3e
 2605 0060 0B       		.uleb128 0xb
 2606 0061 03       		.uleb128 0x3
 2607 0062 0E       		.uleb128 0xe
 2608 0063 00       		.byte	0
 2609 0064 00       		.byte	0
 2610 0065 08       		.uleb128 0x8
 2611 0066 35       		.uleb128 0x35
 2612 0067 00       		.byte	0
 2613 0068 49       		.uleb128 0x49
 2614 0069 13       		.uleb128 0x13
 2615 006a 00       		.byte	0
 2616 006b 00       		.byte	0
 2617 006c 09       		.uleb128 0x9
 2618 006d 0F       		.uleb128 0xf
 2619 006e 00       		.byte	0
 2620 006f 0B       		.uleb128 0xb
 2621 0070 0B       		.uleb128 0xb
 2622 0071 00       		.byte	0
 2623 0072 00       		.byte	0
 2624 0073 0A       		.uleb128 0xa
 2625 0074 0D       		.uleb128 0xd
 2626 0075 00       		.byte	0
 2627 0076 03       		.uleb128 0x3
 2628 0077 08       		.uleb128 0x8
 2629 0078 3A       		.uleb128 0x3a
 2630 0079 0B       		.uleb128 0xb
 2631 007a 3B       		.uleb128 0x3b
ARM GAS  /tmp/ccKFEoRE.s 			page 76


 2632 007b 05       		.uleb128 0x5
 2633 007c 49       		.uleb128 0x49
 2634 007d 13       		.uleb128 0x13
 2635 007e 38       		.uleb128 0x38
 2636 007f 0A       		.uleb128 0xa
 2637 0080 00       		.byte	0
 2638 0081 00       		.byte	0
 2639 0082 0B       		.uleb128 0xb
 2640 0083 0F       		.uleb128 0xf
 2641 0084 00       		.byte	0
 2642 0085 0B       		.uleb128 0xb
 2643 0086 0B       		.uleb128 0xb
 2644 0087 49       		.uleb128 0x49
 2645 0088 13       		.uleb128 0x13
 2646 0089 00       		.byte	0
 2647 008a 00       		.byte	0
 2648 008b 0C       		.uleb128 0xc
 2649 008c 13       		.uleb128 0x13
 2650 008d 01       		.byte	0x1
 2651 008e 0B       		.uleb128 0xb
 2652 008f 0B       		.uleb128 0xb
 2653 0090 3A       		.uleb128 0x3a
 2654 0091 0B       		.uleb128 0xb
 2655 0092 3B       		.uleb128 0x3b
 2656 0093 0B       		.uleb128 0xb
 2657 0094 01       		.uleb128 0x1
 2658 0095 13       		.uleb128 0x13
 2659 0096 00       		.byte	0
 2660 0097 00       		.byte	0
 2661 0098 0D       		.uleb128 0xd
 2662 0099 17       		.uleb128 0x17
 2663 009a 01       		.byte	0x1
 2664 009b 0B       		.uleb128 0xb
 2665 009c 0B       		.uleb128 0xb
 2666 009d 3A       		.uleb128 0x3a
 2667 009e 0B       		.uleb128 0xb
 2668 009f 3B       		.uleb128 0x3b
 2669 00a0 0B       		.uleb128 0xb
 2670 00a1 01       		.uleb128 0x1
 2671 00a2 13       		.uleb128 0x13
 2672 00a3 00       		.byte	0
 2673 00a4 00       		.byte	0
 2674 00a5 0E       		.uleb128 0xe
 2675 00a6 0D       		.uleb128 0xd
 2676 00a7 00       		.byte	0
 2677 00a8 03       		.uleb128 0x3
 2678 00a9 0E       		.uleb128 0xe
 2679 00aa 3A       		.uleb128 0x3a
 2680 00ab 0B       		.uleb128 0xb
 2681 00ac 3B       		.uleb128 0x3b
 2682 00ad 0B       		.uleb128 0xb
 2683 00ae 49       		.uleb128 0x49
 2684 00af 13       		.uleb128 0x13
 2685 00b0 00       		.byte	0
 2686 00b1 00       		.byte	0
 2687 00b2 0F       		.uleb128 0xf
 2688 00b3 26       		.uleb128 0x26
ARM GAS  /tmp/ccKFEoRE.s 			page 77


 2689 00b4 00       		.byte	0
 2690 00b5 49       		.uleb128 0x49
 2691 00b6 13       		.uleb128 0x13
 2692 00b7 00       		.byte	0
 2693 00b8 00       		.byte	0
 2694 00b9 10       		.uleb128 0x10
 2695 00ba 16       		.uleb128 0x16
 2696 00bb 00       		.byte	0
 2697 00bc 03       		.uleb128 0x3
 2698 00bd 0E       		.uleb128 0xe
 2699 00be 3A       		.uleb128 0x3a
 2700 00bf 0B       		.uleb128 0xb
 2701 00c0 3B       		.uleb128 0x3b
 2702 00c1 05       		.uleb128 0x5
 2703 00c2 49       		.uleb128 0x49
 2704 00c3 13       		.uleb128 0x13
 2705 00c4 00       		.byte	0
 2706 00c5 00       		.byte	0
 2707 00c6 11       		.uleb128 0x11
 2708 00c7 15       		.uleb128 0x15
 2709 00c8 01       		.byte	0x1
 2710 00c9 27       		.uleb128 0x27
 2711 00ca 0C       		.uleb128 0xc
 2712 00cb 01       		.uleb128 0x1
 2713 00cc 13       		.uleb128 0x13
 2714 00cd 00       		.byte	0
 2715 00ce 00       		.byte	0
 2716 00cf 12       		.uleb128 0x12
 2717 00d0 05       		.uleb128 0x5
 2718 00d1 00       		.byte	0
 2719 00d2 49       		.uleb128 0x49
 2720 00d3 13       		.uleb128 0x13
 2721 00d4 00       		.byte	0
 2722 00d5 00       		.byte	0
 2723 00d6 13       		.uleb128 0x13
 2724 00d7 13       		.uleb128 0x13
 2725 00d8 01       		.byte	0x1
 2726 00d9 03       		.uleb128 0x3
 2727 00da 0E       		.uleb128 0xe
 2728 00db 0B       		.uleb128 0xb
 2729 00dc 0B       		.uleb128 0xb
 2730 00dd 3A       		.uleb128 0x3a
 2731 00de 0B       		.uleb128 0xb
 2732 00df 3B       		.uleb128 0x3b
 2733 00e0 05       		.uleb128 0x5
 2734 00e1 01       		.uleb128 0x1
 2735 00e2 13       		.uleb128 0x13
 2736 00e3 00       		.byte	0
 2737 00e4 00       		.byte	0
 2738 00e5 14       		.uleb128 0x14
 2739 00e6 0D       		.uleb128 0xd
 2740 00e7 00       		.byte	0
 2741 00e8 03       		.uleb128 0x3
 2742 00e9 0E       		.uleb128 0xe
 2743 00ea 3A       		.uleb128 0x3a
 2744 00eb 0B       		.uleb128 0xb
 2745 00ec 3B       		.uleb128 0x3b
ARM GAS  /tmp/ccKFEoRE.s 			page 78


 2746 00ed 05       		.uleb128 0x5
 2747 00ee 49       		.uleb128 0x49
 2748 00ef 13       		.uleb128 0x13
 2749 00f0 38       		.uleb128 0x38
 2750 00f1 0A       		.uleb128 0xa
 2751 00f2 00       		.byte	0
 2752 00f3 00       		.byte	0
 2753 00f4 15       		.uleb128 0x15
 2754 00f5 13       		.uleb128 0x13
 2755 00f6 01       		.byte	0x1
 2756 00f7 0B       		.uleb128 0xb
 2757 00f8 0B       		.uleb128 0xb
 2758 00f9 3A       		.uleb128 0x3a
 2759 00fa 0B       		.uleb128 0xb
 2760 00fb 3B       		.uleb128 0x3b
 2761 00fc 05       		.uleb128 0x5
 2762 00fd 01       		.uleb128 0x1
 2763 00fe 13       		.uleb128 0x13
 2764 00ff 00       		.byte	0
 2765 0100 00       		.byte	0
 2766 0101 16       		.uleb128 0x16
 2767 0102 15       		.uleb128 0x15
 2768 0103 01       		.byte	0x1
 2769 0104 27       		.uleb128 0x27
 2770 0105 0C       		.uleb128 0xc
 2771 0106 49       		.uleb128 0x49
 2772 0107 13       		.uleb128 0x13
 2773 0108 01       		.uleb128 0x1
 2774 0109 13       		.uleb128 0x13
 2775 010a 00       		.byte	0
 2776 010b 00       		.byte	0
 2777 010c 17       		.uleb128 0x17
 2778 010d 17       		.uleb128 0x17
 2779 010e 01       		.byte	0x1
 2780 010f 03       		.uleb128 0x3
 2781 0110 0E       		.uleb128 0xe
 2782 0111 0B       		.uleb128 0xb
 2783 0112 0B       		.uleb128 0xb
 2784 0113 3A       		.uleb128 0x3a
 2785 0114 0B       		.uleb128 0xb
 2786 0115 3B       		.uleb128 0x3b
 2787 0116 0B       		.uleb128 0xb
 2788 0117 01       		.uleb128 0x1
 2789 0118 13       		.uleb128 0x13
 2790 0119 00       		.byte	0
 2791 011a 00       		.byte	0
 2792 011b 18       		.uleb128 0x18
 2793 011c 0D       		.uleb128 0xd
 2794 011d 00       		.byte	0
 2795 011e 03       		.uleb128 0x3
 2796 011f 08       		.uleb128 0x8
 2797 0120 3A       		.uleb128 0x3a
 2798 0121 0B       		.uleb128 0xb
 2799 0122 3B       		.uleb128 0x3b
 2800 0123 0B       		.uleb128 0xb
 2801 0124 49       		.uleb128 0x49
 2802 0125 13       		.uleb128 0x13
ARM GAS  /tmp/ccKFEoRE.s 			page 79


 2803 0126 00       		.byte	0
 2804 0127 00       		.byte	0
 2805 0128 19       		.uleb128 0x19
 2806 0129 2E       		.uleb128 0x2e
 2807 012a 01       		.byte	0x1
 2808 012b 03       		.uleb128 0x3
 2809 012c 0E       		.uleb128 0xe
 2810 012d 3A       		.uleb128 0x3a
 2811 012e 0B       		.uleb128 0xb
 2812 012f 3B       		.uleb128 0x3b
 2813 0130 05       		.uleb128 0x5
 2814 0131 27       		.uleb128 0x27
 2815 0132 0C       		.uleb128 0xc
 2816 0133 20       		.uleb128 0x20
 2817 0134 0B       		.uleb128 0xb
 2818 0135 01       		.uleb128 0x1
 2819 0136 13       		.uleb128 0x13
 2820 0137 00       		.byte	0
 2821 0138 00       		.byte	0
 2822 0139 1A       		.uleb128 0x1a
 2823 013a 05       		.uleb128 0x5
 2824 013b 00       		.byte	0
 2825 013c 03       		.uleb128 0x3
 2826 013d 0E       		.uleb128 0xe
 2827 013e 3A       		.uleb128 0x3a
 2828 013f 0B       		.uleb128 0xb
 2829 0140 3B       		.uleb128 0x3b
 2830 0141 05       		.uleb128 0x5
 2831 0142 49       		.uleb128 0x49
 2832 0143 13       		.uleb128 0x13
 2833 0144 00       		.byte	0
 2834 0145 00       		.byte	0
 2835 0146 1B       		.uleb128 0x1b
 2836 0147 2E       		.uleb128 0x2e
 2837 0148 00       		.byte	0
 2838 0149 03       		.uleb128 0x3
 2839 014a 0E       		.uleb128 0xe
 2840 014b 3A       		.uleb128 0x3a
 2841 014c 0B       		.uleb128 0xb
 2842 014d 3B       		.uleb128 0x3b
 2843 014e 05       		.uleb128 0x5
 2844 014f 27       		.uleb128 0x27
 2845 0150 0C       		.uleb128 0xc
 2846 0151 20       		.uleb128 0x20
 2847 0152 0B       		.uleb128 0xb
 2848 0153 00       		.byte	0
 2849 0154 00       		.byte	0
 2850 0155 1C       		.uleb128 0x1c
 2851 0156 34       		.uleb128 0x34
 2852 0157 00       		.byte	0
 2853 0158 03       		.uleb128 0x3
 2854 0159 0E       		.uleb128 0xe
 2855 015a 49       		.uleb128 0x49
 2856 015b 13       		.uleb128 0x13
 2857 015c 34       		.uleb128 0x34
 2858 015d 0C       		.uleb128 0xc
 2859 015e 1C       		.uleb128 0x1c
ARM GAS  /tmp/ccKFEoRE.s 			page 80


 2860 015f 0E       		.uleb128 0xe
 2861 0160 00       		.byte	0
 2862 0161 00       		.byte	0
 2863 0162 1D       		.uleb128 0x1d
 2864 0163 01       		.uleb128 0x1
 2865 0164 01       		.byte	0x1
 2866 0165 49       		.uleb128 0x49
 2867 0166 13       		.uleb128 0x13
 2868 0167 01       		.uleb128 0x1
 2869 0168 13       		.uleb128 0x13
 2870 0169 00       		.byte	0
 2871 016a 00       		.byte	0
 2872 016b 1E       		.uleb128 0x1e
 2873 016c 21       		.uleb128 0x21
 2874 016d 00       		.byte	0
 2875 016e 49       		.uleb128 0x49
 2876 016f 13       		.uleb128 0x13
 2877 0170 2F       		.uleb128 0x2f
 2878 0171 0B       		.uleb128 0xb
 2879 0172 00       		.byte	0
 2880 0173 00       		.byte	0
 2881 0174 1F       		.uleb128 0x1f
 2882 0175 2E       		.uleb128 0x2e
 2883 0176 01       		.byte	0x1
 2884 0177 3F       		.uleb128 0x3f
 2885 0178 0C       		.uleb128 0xc
 2886 0179 03       		.uleb128 0x3
 2887 017a 0E       		.uleb128 0xe
 2888 017b 3A       		.uleb128 0x3a
 2889 017c 0B       		.uleb128 0xb
 2890 017d 3B       		.uleb128 0x3b
 2891 017e 0B       		.uleb128 0xb
 2892 017f 27       		.uleb128 0x27
 2893 0180 0C       		.uleb128 0xc
 2894 0181 20       		.uleb128 0x20
 2895 0182 0B       		.uleb128 0xb
 2896 0183 01       		.uleb128 0x1
 2897 0184 13       		.uleb128 0x13
 2898 0185 00       		.byte	0
 2899 0186 00       		.byte	0
 2900 0187 20       		.uleb128 0x20
 2901 0188 05       		.uleb128 0x5
 2902 0189 00       		.byte	0
 2903 018a 03       		.uleb128 0x3
 2904 018b 08       		.uleb128 0x8
 2905 018c 3A       		.uleb128 0x3a
 2906 018d 0B       		.uleb128 0xb
 2907 018e 3B       		.uleb128 0x3b
 2908 018f 0B       		.uleb128 0xb
 2909 0190 49       		.uleb128 0x49
 2910 0191 13       		.uleb128 0x13
 2911 0192 00       		.byte	0
 2912 0193 00       		.byte	0
 2913 0194 21       		.uleb128 0x21
 2914 0195 34       		.uleb128 0x34
 2915 0196 00       		.byte	0
 2916 0197 03       		.uleb128 0x3
ARM GAS  /tmp/ccKFEoRE.s 			page 81


 2917 0198 0E       		.uleb128 0xe
 2918 0199 3A       		.uleb128 0x3a
 2919 019a 0B       		.uleb128 0xb
 2920 019b 3B       		.uleb128 0x3b
 2921 019c 0B       		.uleb128 0xb
 2922 019d 49       		.uleb128 0x49
 2923 019e 13       		.uleb128 0x13
 2924 019f 00       		.byte	0
 2925 01a0 00       		.byte	0
 2926 01a1 22       		.uleb128 0x22
 2927 01a2 2E       		.uleb128 0x2e
 2928 01a3 01       		.byte	0x1
 2929 01a4 3F       		.uleb128 0x3f
 2930 01a5 0C       		.uleb128 0xc
 2931 01a6 03       		.uleb128 0x3
 2932 01a7 0E       		.uleb128 0xe
 2933 01a8 3A       		.uleb128 0x3a
 2934 01a9 0B       		.uleb128 0xb
 2935 01aa 3B       		.uleb128 0x3b
 2936 01ab 0B       		.uleb128 0xb
 2937 01ac 27       		.uleb128 0x27
 2938 01ad 0C       		.uleb128 0xc
 2939 01ae 49       		.uleb128 0x49
 2940 01af 13       		.uleb128 0x13
 2941 01b0 11       		.uleb128 0x11
 2942 01b1 01       		.uleb128 0x1
 2943 01b2 12       		.uleb128 0x12
 2944 01b3 01       		.uleb128 0x1
 2945 01b4 40       		.uleb128 0x40
 2946 01b5 0A       		.uleb128 0xa
 2947 01b6 9742     		.uleb128 0x2117
 2948 01b8 0C       		.uleb128 0xc
 2949 01b9 01       		.uleb128 0x1
 2950 01ba 13       		.uleb128 0x13
 2951 01bb 00       		.byte	0
 2952 01bc 00       		.byte	0
 2953 01bd 23       		.uleb128 0x23
 2954 01be 05       		.uleb128 0x5
 2955 01bf 00       		.byte	0
 2956 01c0 03       		.uleb128 0x3
 2957 01c1 08       		.uleb128 0x8
 2958 01c2 3A       		.uleb128 0x3a
 2959 01c3 0B       		.uleb128 0xb
 2960 01c4 3B       		.uleb128 0x3b
 2961 01c5 0B       		.uleb128 0xb
 2962 01c6 49       		.uleb128 0x49
 2963 01c7 13       		.uleb128 0x13
 2964 01c8 02       		.uleb128 0x2
 2965 01c9 0A       		.uleb128 0xa
 2966 01ca 00       		.byte	0
 2967 01cb 00       		.byte	0
 2968 01cc 24       		.uleb128 0x24
 2969 01cd 34       		.uleb128 0x34
 2970 01ce 00       		.byte	0
 2971 01cf 03       		.uleb128 0x3
 2972 01d0 0E       		.uleb128 0xe
 2973 01d1 49       		.uleb128 0x49
ARM GAS  /tmp/ccKFEoRE.s 			page 82


 2974 01d2 13       		.uleb128 0x13
 2975 01d3 34       		.uleb128 0x34
 2976 01d4 0C       		.uleb128 0xc
 2977 01d5 00       		.byte	0
 2978 01d6 00       		.byte	0
 2979 01d7 25       		.uleb128 0x25
 2980 01d8 1D       		.uleb128 0x1d
 2981 01d9 01       		.byte	0x1
 2982 01da 31       		.uleb128 0x31
 2983 01db 13       		.uleb128 0x13
 2984 01dc 11       		.uleb128 0x11
 2985 01dd 01       		.uleb128 0x1
 2986 01de 12       		.uleb128 0x12
 2987 01df 01       		.uleb128 0x1
 2988 01e0 58       		.uleb128 0x58
 2989 01e1 0B       		.uleb128 0xb
 2990 01e2 59       		.uleb128 0x59
 2991 01e3 0B       		.uleb128 0xb
 2992 01e4 01       		.uleb128 0x1
 2993 01e5 13       		.uleb128 0x13
 2994 01e6 00       		.byte	0
 2995 01e7 00       		.byte	0
 2996 01e8 26       		.uleb128 0x26
 2997 01e9 1D       		.uleb128 0x1d
 2998 01ea 01       		.byte	0x1
 2999 01eb 31       		.uleb128 0x31
 3000 01ec 13       		.uleb128 0x13
 3001 01ed 11       		.uleb128 0x11
 3002 01ee 01       		.uleb128 0x1
 3003 01ef 12       		.uleb128 0x12
 3004 01f0 01       		.uleb128 0x1
 3005 01f1 58       		.uleb128 0x58
 3006 01f2 0B       		.uleb128 0xb
 3007 01f3 59       		.uleb128 0x59
 3008 01f4 05       		.uleb128 0x5
 3009 01f5 00       		.byte	0
 3010 01f6 00       		.byte	0
 3011 01f7 27       		.uleb128 0x27
 3012 01f8 05       		.uleb128 0x5
 3013 01f9 00       		.byte	0
 3014 01fa 31       		.uleb128 0x31
 3015 01fb 13       		.uleb128 0x13
 3016 01fc 1C       		.uleb128 0x1c
 3017 01fd 0B       		.uleb128 0xb
 3018 01fe 00       		.byte	0
 3019 01ff 00       		.byte	0
 3020 0200 28       		.uleb128 0x28
 3021 0201 1D       		.uleb128 0x1d
 3022 0202 01       		.byte	0x1
 3023 0203 31       		.uleb128 0x31
 3024 0204 13       		.uleb128 0x13
 3025 0205 52       		.uleb128 0x52
 3026 0206 01       		.uleb128 0x1
 3027 0207 55       		.uleb128 0x55
 3028 0208 06       		.uleb128 0x6
 3029 0209 58       		.uleb128 0x58
 3030 020a 0B       		.uleb128 0xb
ARM GAS  /tmp/ccKFEoRE.s 			page 83


 3031 020b 59       		.uleb128 0x59
 3032 020c 0B       		.uleb128 0xb
 3033 020d 00       		.byte	0
 3034 020e 00       		.byte	0
 3035 020f 29       		.uleb128 0x29
 3036 0210 0B       		.uleb128 0xb
 3037 0211 01       		.byte	0x1
 3038 0212 55       		.uleb128 0x55
 3039 0213 06       		.uleb128 0x6
 3040 0214 00       		.byte	0
 3041 0215 00       		.byte	0
 3042 0216 2A       		.uleb128 0x2a
 3043 0217 34       		.uleb128 0x34
 3044 0218 00       		.byte	0
 3045 0219 31       		.uleb128 0x31
 3046 021a 13       		.uleb128 0x13
 3047 021b 00       		.byte	0
 3048 021c 00       		.byte	0
 3049 021d 2B       		.uleb128 0x2b
 3050 021e 1D       		.uleb128 0x1d
 3051 021f 01       		.byte	0x1
 3052 0220 31       		.uleb128 0x31
 3053 0221 13       		.uleb128 0x13
 3054 0222 52       		.uleb128 0x52
 3055 0223 01       		.uleb128 0x1
 3056 0224 55       		.uleb128 0x55
 3057 0225 06       		.uleb128 0x6
 3058 0226 58       		.uleb128 0x58
 3059 0227 0B       		.uleb128 0xb
 3060 0228 59       		.uleb128 0x59
 3061 0229 05       		.uleb128 0x5
 3062 022a 00       		.byte	0
 3063 022b 00       		.byte	0
 3064 022c 2C       		.uleb128 0x2c
 3065 022d 2E       		.uleb128 0x2e
 3066 022e 01       		.byte	0x1
 3067 022f 31       		.uleb128 0x31
 3068 0230 13       		.uleb128 0x13
 3069 0231 11       		.uleb128 0x11
 3070 0232 01       		.uleb128 0x1
 3071 0233 12       		.uleb128 0x12
 3072 0234 01       		.uleb128 0x1
 3073 0235 40       		.uleb128 0x40
 3074 0236 0A       		.uleb128 0xa
 3075 0237 9742     		.uleb128 0x2117
 3076 0239 0C       		.uleb128 0xc
 3077 023a 01       		.uleb128 0x1
 3078 023b 13       		.uleb128 0x13
 3079 023c 00       		.byte	0
 3080 023d 00       		.byte	0
 3081 023e 2D       		.uleb128 0x2d
 3082 023f 05       		.uleb128 0x5
 3083 0240 00       		.byte	0
 3084 0241 31       		.uleb128 0x31
 3085 0242 13       		.uleb128 0x13
 3086 0243 02       		.uleb128 0x2
 3087 0244 06       		.uleb128 0x6
ARM GAS  /tmp/ccKFEoRE.s 			page 84


 3088 0245 00       		.byte	0
 3089 0246 00       		.byte	0
 3090 0247 2E       		.uleb128 0x2e
 3091 0248 34       		.uleb128 0x34
 3092 0249 00       		.byte	0
 3093 024a 31       		.uleb128 0x31
 3094 024b 13       		.uleb128 0x13
 3095 024c 02       		.uleb128 0x2
 3096 024d 06       		.uleb128 0x6
 3097 024e 00       		.byte	0
 3098 024f 00       		.byte	0
 3099 0250 2F       		.uleb128 0x2f
 3100 0251 0B       		.uleb128 0xb
 3101 0252 01       		.byte	0x1
 3102 0253 11       		.uleb128 0x11
 3103 0254 01       		.uleb128 0x1
 3104 0255 12       		.uleb128 0x12
 3105 0256 01       		.uleb128 0x1
 3106 0257 00       		.byte	0
 3107 0258 00       		.byte	0
 3108 0259 30       		.uleb128 0x30
 3109 025a 1D       		.uleb128 0x1d
 3110 025b 01       		.byte	0x1
 3111 025c 31       		.uleb128 0x31
 3112 025d 13       		.uleb128 0x13
 3113 025e 52       		.uleb128 0x52
 3114 025f 01       		.uleb128 0x1
 3115 0260 55       		.uleb128 0x55
 3116 0261 06       		.uleb128 0x6
 3117 0262 58       		.uleb128 0x58
 3118 0263 0B       		.uleb128 0xb
 3119 0264 59       		.uleb128 0x59
 3120 0265 0B       		.uleb128 0xb
 3121 0266 01       		.uleb128 0x1
 3122 0267 13       		.uleb128 0x13
 3123 0268 00       		.byte	0
 3124 0269 00       		.byte	0
 3125 026a 31       		.uleb128 0x31
 3126 026b 898201   		.uleb128 0x4109
 3127 026e 01       		.byte	0x1
 3128 026f 11       		.uleb128 0x11
 3129 0270 01       		.uleb128 0x1
 3130 0271 9542     		.uleb128 0x2115
 3131 0273 0C       		.uleb128 0xc
 3132 0274 31       		.uleb128 0x31
 3133 0275 13       		.uleb128 0x13
 3134 0276 00       		.byte	0
 3135 0277 00       		.byte	0
 3136 0278 32       		.uleb128 0x32
 3137 0279 8A8201   		.uleb128 0x410a
 3138 027c 00       		.byte	0
 3139 027d 02       		.uleb128 0x2
 3140 027e 0A       		.uleb128 0xa
 3141 027f 9142     		.uleb128 0x2111
 3142 0281 0A       		.uleb128 0xa
 3143 0282 00       		.byte	0
 3144 0283 00       		.byte	0
ARM GAS  /tmp/ccKFEoRE.s 			page 85


 3145 0284 33       		.uleb128 0x33
 3146 0285 2E       		.uleb128 0x2e
 3147 0286 01       		.byte	0x1
 3148 0287 3F       		.uleb128 0x3f
 3149 0288 0C       		.uleb128 0xc
 3150 0289 03       		.uleb128 0x3
 3151 028a 0E       		.uleb128 0xe
 3152 028b 3A       		.uleb128 0x3a
 3153 028c 0B       		.uleb128 0xb
 3154 028d 3B       		.uleb128 0x3b
 3155 028e 0B       		.uleb128 0xb
 3156 028f 27       		.uleb128 0x27
 3157 0290 0C       		.uleb128 0xc
 3158 0291 49       		.uleb128 0x49
 3159 0292 13       		.uleb128 0x13
 3160 0293 11       		.uleb128 0x11
 3161 0294 01       		.uleb128 0x1
 3162 0295 12       		.uleb128 0x12
 3163 0296 01       		.uleb128 0x1
 3164 0297 40       		.uleb128 0x40
 3165 0298 06       		.uleb128 0x6
 3166 0299 9742     		.uleb128 0x2117
 3167 029b 0C       		.uleb128 0xc
 3168 029c 01       		.uleb128 0x1
 3169 029d 13       		.uleb128 0x13
 3170 029e 00       		.byte	0
 3171 029f 00       		.byte	0
 3172 02a0 34       		.uleb128 0x34
 3173 02a1 05       		.uleb128 0x5
 3174 02a2 00       		.byte	0
 3175 02a3 03       		.uleb128 0x3
 3176 02a4 0E       		.uleb128 0xe
 3177 02a5 3A       		.uleb128 0x3a
 3178 02a6 0B       		.uleb128 0xb
 3179 02a7 3B       		.uleb128 0x3b
 3180 02a8 0B       		.uleb128 0xb
 3181 02a9 49       		.uleb128 0x49
 3182 02aa 13       		.uleb128 0x13
 3183 02ab 02       		.uleb128 0x2
 3184 02ac 06       		.uleb128 0x6
 3185 02ad 00       		.byte	0
 3186 02ae 00       		.byte	0
 3187 02af 35       		.uleb128 0x35
 3188 02b0 05       		.uleb128 0x5
 3189 02b1 00       		.byte	0
 3190 02b2 03       		.uleb128 0x3
 3191 02b3 08       		.uleb128 0x8
 3192 02b4 3A       		.uleb128 0x3a
 3193 02b5 0B       		.uleb128 0xb
 3194 02b6 3B       		.uleb128 0x3b
 3195 02b7 0B       		.uleb128 0xb
 3196 02b8 49       		.uleb128 0x49
 3197 02b9 13       		.uleb128 0x13
 3198 02ba 02       		.uleb128 0x2
 3199 02bb 06       		.uleb128 0x6
 3200 02bc 00       		.byte	0
 3201 02bd 00       		.byte	0
ARM GAS  /tmp/ccKFEoRE.s 			page 86


 3202 02be 36       		.uleb128 0x36
 3203 02bf 34       		.uleb128 0x34
 3204 02c0 00       		.byte	0
 3205 02c1 03       		.uleb128 0x3
 3206 02c2 08       		.uleb128 0x8
 3207 02c3 3A       		.uleb128 0x3a
 3208 02c4 0B       		.uleb128 0xb
 3209 02c5 3B       		.uleb128 0x3b
 3210 02c6 0B       		.uleb128 0xb
 3211 02c7 49       		.uleb128 0x49
 3212 02c8 13       		.uleb128 0x13
 3213 02c9 02       		.uleb128 0x2
 3214 02ca 06       		.uleb128 0x6
 3215 02cb 00       		.byte	0
 3216 02cc 00       		.byte	0
 3217 02cd 37       		.uleb128 0x37
 3218 02ce 898201   		.uleb128 0x4109
 3219 02d1 01       		.byte	0x1
 3220 02d2 11       		.uleb128 0x11
 3221 02d3 01       		.uleb128 0x1
 3222 02d4 31       		.uleb128 0x31
 3223 02d5 13       		.uleb128 0x13
 3224 02d6 01       		.uleb128 0x1
 3225 02d7 13       		.uleb128 0x13
 3226 02d8 00       		.byte	0
 3227 02d9 00       		.byte	0
 3228 02da 38       		.uleb128 0x38
 3229 02db 898201   		.uleb128 0x4109
 3230 02de 01       		.byte	0x1
 3231 02df 11       		.uleb128 0x11
 3232 02e0 01       		.uleb128 0x1
 3233 02e1 31       		.uleb128 0x31
 3234 02e2 13       		.uleb128 0x13
 3235 02e3 00       		.byte	0
 3236 02e4 00       		.byte	0
 3237 02e5 39       		.uleb128 0x39
 3238 02e6 34       		.uleb128 0x34
 3239 02e7 00       		.byte	0
 3240 02e8 03       		.uleb128 0x3
 3241 02e9 0E       		.uleb128 0xe
 3242 02ea 3A       		.uleb128 0x3a
 3243 02eb 0B       		.uleb128 0xb
 3244 02ec 3B       		.uleb128 0x3b
 3245 02ed 05       		.uleb128 0x5
 3246 02ee 49       		.uleb128 0x49
 3247 02ef 13       		.uleb128 0x13
 3248 02f0 3F       		.uleb128 0x3f
 3249 02f1 0C       		.uleb128 0xc
 3250 02f2 3C       		.uleb128 0x3c
 3251 02f3 0C       		.uleb128 0xc
 3252 02f4 00       		.byte	0
 3253 02f5 00       		.byte	0
 3254 02f6 3A       		.uleb128 0x3a
 3255 02f7 34       		.uleb128 0x34
 3256 02f8 00       		.byte	0
 3257 02f9 03       		.uleb128 0x3
 3258 02fa 08       		.uleb128 0x8
ARM GAS  /tmp/ccKFEoRE.s 			page 87


 3259 02fb 3A       		.uleb128 0x3a
 3260 02fc 0B       		.uleb128 0xb
 3261 02fd 3B       		.uleb128 0x3b
 3262 02fe 05       		.uleb128 0x5
 3263 02ff 49       		.uleb128 0x49
 3264 0300 13       		.uleb128 0x13
 3265 0301 3F       		.uleb128 0x3f
 3266 0302 0C       		.uleb128 0xc
 3267 0303 3C       		.uleb128 0x3c
 3268 0304 0C       		.uleb128 0xc
 3269 0305 00       		.byte	0
 3270 0306 00       		.byte	0
 3271 0307 3B       		.uleb128 0x3b
 3272 0308 2E       		.uleb128 0x2e
 3273 0309 01       		.byte	0x1
 3274 030a 3F       		.uleb128 0x3f
 3275 030b 0C       		.uleb128 0xc
 3276 030c 03       		.uleb128 0x3
 3277 030d 0E       		.uleb128 0xe
 3278 030e 3A       		.uleb128 0x3a
 3279 030f 0B       		.uleb128 0xb
 3280 0310 3B       		.uleb128 0x3b
 3281 0311 0B       		.uleb128 0xb
 3282 0312 27       		.uleb128 0x27
 3283 0313 0C       		.uleb128 0xc
 3284 0314 3C       		.uleb128 0x3c
 3285 0315 0C       		.uleb128 0xc
 3286 0316 01       		.uleb128 0x1
 3287 0317 13       		.uleb128 0x13
 3288 0318 00       		.byte	0
 3289 0319 00       		.byte	0
 3290 031a 3C       		.uleb128 0x3c
 3291 031b 2E       		.uleb128 0x2e
 3292 031c 01       		.byte	0x1
 3293 031d 3F       		.uleb128 0x3f
 3294 031e 0C       		.uleb128 0xc
 3295 031f 03       		.uleb128 0x3
 3296 0320 0E       		.uleb128 0xe
 3297 0321 3A       		.uleb128 0x3a
 3298 0322 0B       		.uleb128 0xb
 3299 0323 3B       		.uleb128 0x3b
 3300 0324 0B       		.uleb128 0xb
 3301 0325 27       		.uleb128 0x27
 3302 0326 0C       		.uleb128 0xc
 3303 0327 49       		.uleb128 0x49
 3304 0328 13       		.uleb128 0x13
 3305 0329 3C       		.uleb128 0x3c
 3306 032a 0C       		.uleb128 0xc
 3307 032b 01       		.uleb128 0x1
 3308 032c 13       		.uleb128 0x13
 3309 032d 00       		.byte	0
 3310 032e 00       		.byte	0
 3311 032f 3D       		.uleb128 0x3d
 3312 0330 2E       		.uleb128 0x2e
 3313 0331 01       		.byte	0x1
 3314 0332 3F       		.uleb128 0x3f
 3315 0333 0C       		.uleb128 0xc
ARM GAS  /tmp/ccKFEoRE.s 			page 88


 3316 0334 03       		.uleb128 0x3
 3317 0335 0E       		.uleb128 0xe
 3318 0336 3A       		.uleb128 0x3a
 3319 0337 0B       		.uleb128 0xb
 3320 0338 3B       		.uleb128 0x3b
 3321 0339 05       		.uleb128 0x5
 3322 033a 27       		.uleb128 0x27
 3323 033b 0C       		.uleb128 0xc
 3324 033c 3C       		.uleb128 0x3c
 3325 033d 0C       		.uleb128 0xc
 3326 033e 01       		.uleb128 0x1
 3327 033f 13       		.uleb128 0x13
 3328 0340 00       		.byte	0
 3329 0341 00       		.byte	0
 3330 0342 3E       		.uleb128 0x3e
 3331 0343 2E       		.uleb128 0x2e
 3332 0344 01       		.byte	0x1
 3333 0345 3F       		.uleb128 0x3f
 3334 0346 0C       		.uleb128 0xc
 3335 0347 03       		.uleb128 0x3
 3336 0348 0E       		.uleb128 0xe
 3337 0349 3A       		.uleb128 0x3a
 3338 034a 0B       		.uleb128 0xb
 3339 034b 3B       		.uleb128 0x3b
 3340 034c 0B       		.uleb128 0xb
 3341 034d 27       		.uleb128 0x27
 3342 034e 0C       		.uleb128 0xc
 3343 034f 49       		.uleb128 0x49
 3344 0350 13       		.uleb128 0x13
 3345 0351 3C       		.uleb128 0x3c
 3346 0352 0C       		.uleb128 0xc
 3347 0353 00       		.byte	0
 3348 0354 00       		.byte	0
 3349 0355 00       		.byte	0
 3350              		.section	.debug_loc,"",%progbits
 3351              	.Ldebug_loc0:
 3352              	.LLST0:
 3353 0000 00000000 		.4byte	.LVL2
 3354 0004 34000000 		.4byte	.LVL6
 3355 0008 0100     		.2byte	0x1
 3356 000a 50       		.byte	0x50
 3357 000b 34000000 		.4byte	.LVL6
 3358 000f 3D000000 		.4byte	.LVL7-1
 3359 0013 0100     		.2byte	0x1
 3360 0015 51       		.byte	0x51
 3361 0016 3D000000 		.4byte	.LVL7-1
 3362 001a 3E000000 		.4byte	.LVL7
 3363 001e 0400     		.2byte	0x4
 3364 0020 F3       		.byte	0xf3
 3365 0021 01       		.uleb128 0x1
 3366 0022 50       		.byte	0x50
 3367 0023 9F       		.byte	0x9f
 3368 0024 3E000000 		.4byte	.LVL7
 3369 0028 4B000000 		.4byte	.LVL8-1
 3370 002c 0100     		.2byte	0x1
 3371 002e 50       		.byte	0x50
 3372 002f 4B000000 		.4byte	.LVL8-1
ARM GAS  /tmp/ccKFEoRE.s 			page 89


 3373 0033 4C000000 		.4byte	.LFE166
 3374 0037 0400     		.2byte	0x4
 3375 0039 F3       		.byte	0xf3
 3376 003a 01       		.uleb128 0x1
 3377 003b 50       		.byte	0x50
 3378 003c 9F       		.byte	0x9f
 3379 003d 00000000 		.4byte	0
 3380 0041 00000000 		.4byte	0
 3381              	.LLST1:
 3382 0045 10000000 		.4byte	.LVL3
 3383 0049 1A000000 		.4byte	.LVL4
 3384 004d 0100     		.2byte	0x1
 3385 004f 53       		.byte	0x53
 3386 0050 1A000000 		.4byte	.LVL4
 3387 0054 34000000 		.4byte	.LVL6
 3388 0058 0A00     		.2byte	0xa
 3389 005a 70       		.byte	0x70
 3390 005b 1E       		.sleb128 30
 3391 005c 94       		.byte	0x94
 3392 005d 01       		.byte	0x1
 3393 005e 08       		.byte	0x8
 3394 005f FF       		.byte	0xff
 3395 0060 1A       		.byte	0x1a
 3396 0061 31       		.byte	0x31
 3397 0062 1C       		.byte	0x1c
 3398 0063 9F       		.byte	0x9f
 3399 0064 34000000 		.4byte	.LVL6
 3400 0068 3D000000 		.4byte	.LVL7-1
 3401 006c 0A00     		.2byte	0xa
 3402 006e 71       		.byte	0x71
 3403 006f 1E       		.sleb128 30
 3404 0070 94       		.byte	0x94
 3405 0071 01       		.byte	0x1
 3406 0072 08       		.byte	0x8
 3407 0073 FF       		.byte	0xff
 3408 0074 1A       		.byte	0x1a
 3409 0075 31       		.byte	0x31
 3410 0076 1C       		.byte	0x1c
 3411 0077 9F       		.byte	0x9f
 3412 0078 3E000000 		.4byte	.LVL7
 3413 007c 4B000000 		.4byte	.LVL8-1
 3414 0080 0A00     		.2byte	0xa
 3415 0082 70       		.byte	0x70
 3416 0083 1E       		.sleb128 30
 3417 0084 94       		.byte	0x94
 3418 0085 01       		.byte	0x1
 3419 0086 08       		.byte	0x8
 3420 0087 FF       		.byte	0xff
 3421 0088 1A       		.byte	0x1a
 3422 0089 31       		.byte	0x31
 3423 008a 1C       		.byte	0x1c
 3424 008b 9F       		.byte	0x9f
 3425 008c 00000000 		.4byte	0
 3426 0090 00000000 		.4byte	0
 3427              	.LLST2:
 3428 0094 2E000000 		.4byte	.LVL5
 3429 0098 34000000 		.4byte	.LVL6
ARM GAS  /tmp/ccKFEoRE.s 			page 90


 3430 009c 0100     		.2byte	0x1
 3431 009e 50       		.byte	0x50
 3432 009f 34000000 		.4byte	.LVL6
 3433 00a3 3D000000 		.4byte	.LVL7-1
 3434 00a7 0100     		.2byte	0x1
 3435 00a9 51       		.byte	0x51
 3436 00aa 3D000000 		.4byte	.LVL7-1
 3437 00ae 3E000000 		.4byte	.LVL7
 3438 00b2 0400     		.2byte	0x4
 3439 00b4 F3       		.byte	0xf3
 3440 00b5 01       		.uleb128 0x1
 3441 00b6 50       		.byte	0x50
 3442 00b7 9F       		.byte	0x9f
 3443 00b8 00000000 		.4byte	0
 3444 00bc 00000000 		.4byte	0
 3445              	.LLST3:
 3446 00c0 00000000 		.4byte	.LFB167
 3447 00c4 02000000 		.4byte	.LCFI0
 3448 00c8 0200     		.2byte	0x2
 3449 00ca 7D       		.byte	0x7d
 3450 00cb 00       		.sleb128 0
 3451 00cc 02000000 		.4byte	.LCFI0
 3452 00d0 04000000 		.4byte	.LCFI1
 3453 00d4 0200     		.2byte	0x2
 3454 00d6 7D       		.byte	0x7d
 3455 00d7 14       		.sleb128 20
 3456 00d8 04000000 		.4byte	.LCFI1
 3457 00dc 3E000000 		.4byte	.LFE167
 3458 00e0 0200     		.2byte	0x2
 3459 00e2 7D       		.byte	0x7d
 3460 00e3 20       		.sleb128 32
 3461 00e4 00000000 		.4byte	0
 3462 00e8 00000000 		.4byte	0
 3463              	.LLST4:
 3464 00ec 00000000 		.4byte	.LVL9
 3465 00f0 0D000000 		.4byte	.LVL10-1
 3466 00f4 0100     		.2byte	0x1
 3467 00f6 50       		.byte	0x50
 3468 00f7 0D000000 		.4byte	.LVL10-1
 3469 00fb 3E000000 		.4byte	.LFE167
 3470 00ff 0400     		.2byte	0x4
 3471 0101 F3       		.byte	0xf3
 3472 0102 01       		.uleb128 0x1
 3473 0103 50       		.byte	0x50
 3474 0104 9F       		.byte	0x9f
 3475 0105 00000000 		.4byte	0
 3476 0109 00000000 		.4byte	0
 3477              	.LLST5:
 3478 010d 00000000 		.4byte	.LVL9
 3479 0111 0D000000 		.4byte	.LVL10-1
 3480 0115 0100     		.2byte	0x1
 3481 0117 51       		.byte	0x51
 3482 0118 0D000000 		.4byte	.LVL10-1
 3483 011c 3E000000 		.4byte	.LFE167
 3484 0120 0100     		.2byte	0x1
 3485 0122 55       		.byte	0x55
 3486 0123 00000000 		.4byte	0
ARM GAS  /tmp/ccKFEoRE.s 			page 91


 3487 0127 00000000 		.4byte	0
 3488              	.LLST6:
 3489 012b 00000000 		.4byte	.LVL9
 3490 012f 0D000000 		.4byte	.LVL10-1
 3491 0133 0100     		.2byte	0x1
 3492 0135 52       		.byte	0x52
 3493 0136 0D000000 		.4byte	.LVL10-1
 3494 013a 3E000000 		.4byte	.LFE167
 3495 013e 0100     		.2byte	0x1
 3496 0140 57       		.byte	0x57
 3497 0141 00000000 		.4byte	0
 3498 0145 00000000 		.4byte	0
 3499              	.LLST7:
 3500 0149 00000000 		.4byte	.LVL9
 3501 014d 0D000000 		.4byte	.LVL10-1
 3502 0151 0100     		.2byte	0x1
 3503 0153 53       		.byte	0x53
 3504 0154 0D000000 		.4byte	.LVL10-1
 3505 0158 3E000000 		.4byte	.LFE167
 3506 015c 0100     		.2byte	0x1
 3507 015e 56       		.byte	0x56
 3508 015f 00000000 		.4byte	0
 3509 0163 00000000 		.4byte	0
 3510              	.LLST8:
 3511 0167 0E000000 		.4byte	.LVL10
 3512 016b 25000000 		.4byte	.LVL12-1
 3513 016f 0100     		.2byte	0x1
 3514 0171 50       		.byte	0x50
 3515 0172 00000000 		.4byte	0
 3516 0176 00000000 		.4byte	0
 3517              	.LLST9:
 3518 017a 2E000000 		.4byte	.LVL13
 3519 017e 31000000 		.4byte	.LVL14-1
 3520 0182 0100     		.2byte	0x1
 3521 0184 50       		.byte	0x50
 3522 0185 31000000 		.4byte	.LVL14-1
 3523 0189 38000000 		.4byte	.LVL15
 3524 018d 0100     		.2byte	0x1
 3525 018f 54       		.byte	0x54
 3526 0190 00000000 		.4byte	0
 3527 0194 00000000 		.4byte	0
 3528              	.LLST10:
 3529 0198 12000000 		.4byte	.LVL11
 3530 019c 38000000 		.4byte	.LVL15
 3531 01a0 0300     		.2byte	0x3
 3532 01a2 08       		.byte	0x8
 3533 01a3 20       		.byte	0x20
 3534 01a4 9F       		.byte	0x9f
 3535 01a5 00000000 		.4byte	0
 3536 01a9 00000000 		.4byte	0
 3537              	.LLST11:
 3538 01ad 32000000 		.4byte	.LVL14
 3539 01b1 38000000 		.4byte	.LVL15
 3540 01b5 0200     		.2byte	0x2
 3541 01b7 30       		.byte	0x30
 3542 01b8 9F       		.byte	0x9f
 3543 01b9 00000000 		.4byte	0
ARM GAS  /tmp/ccKFEoRE.s 			page 92


 3544 01bd 00000000 		.4byte	0
 3545              	.LLST12:
 3546 01c1 00000000 		.4byte	.LFB168
 3547 01c5 04000000 		.4byte	.LCFI2
 3548 01c9 0200     		.2byte	0x2
 3549 01cb 7D       		.byte	0x7d
 3550 01cc 00       		.sleb128 0
 3551 01cd 04000000 		.4byte	.LCFI2
 3552 01d1 06000000 		.4byte	.LCFI3
 3553 01d5 0200     		.2byte	0x2
 3554 01d7 7D       		.byte	0x7d
 3555 01d8 18       		.sleb128 24
 3556 01d9 06000000 		.4byte	.LCFI3
 3557 01dd 44000000 		.4byte	.LFE168
 3558 01e1 0200     		.2byte	0x2
 3559 01e3 7D       		.byte	0x7d
 3560 01e4 20       		.sleb128 32
 3561 01e5 00000000 		.4byte	0
 3562 01e9 00000000 		.4byte	0
 3563              	.LLST13:
 3564 01ed 00000000 		.4byte	.LVL16
 3565 01f1 11000000 		.4byte	.LVL17-1
 3566 01f5 0100     		.2byte	0x1
 3567 01f7 50       		.byte	0x50
 3568 01f8 11000000 		.4byte	.LVL17-1
 3569 01fc 44000000 		.4byte	.LFE168
 3570 0200 0100     		.2byte	0x1
 3571 0202 55       		.byte	0x55
 3572 0203 00000000 		.4byte	0
 3573 0207 00000000 		.4byte	0
 3574              	.LLST14:
 3575 020b 00000000 		.4byte	.LVL16
 3576 020f 11000000 		.4byte	.LVL17-1
 3577 0213 0100     		.2byte	0x1
 3578 0215 51       		.byte	0x51
 3579 0216 11000000 		.4byte	.LVL17-1
 3580 021a 44000000 		.4byte	.LFE168
 3581 021e 0100     		.2byte	0x1
 3582 0220 58       		.byte	0x58
 3583 0221 00000000 		.4byte	0
 3584 0225 00000000 		.4byte	0
 3585              	.LLST15:
 3586 0229 00000000 		.4byte	.LVL16
 3587 022d 11000000 		.4byte	.LVL17-1
 3588 0231 0100     		.2byte	0x1
 3589 0233 52       		.byte	0x52
 3590 0234 11000000 		.4byte	.LVL17-1
 3591 0238 44000000 		.4byte	.LFE168
 3592 023c 0100     		.2byte	0x1
 3593 023e 57       		.byte	0x57
 3594 023f 00000000 		.4byte	0
 3595 0243 00000000 		.4byte	0
 3596              	.LLST16:
 3597 0247 00000000 		.4byte	.LVL16
 3598 024b 11000000 		.4byte	.LVL17-1
 3599 024f 0100     		.2byte	0x1
 3600 0251 53       		.byte	0x53
ARM GAS  /tmp/ccKFEoRE.s 			page 93


 3601 0252 11000000 		.4byte	.LVL17-1
 3602 0256 44000000 		.4byte	.LFE168
 3603 025a 0100     		.2byte	0x1
 3604 025c 56       		.byte	0x56
 3605 025d 00000000 		.4byte	0
 3606 0261 00000000 		.4byte	0
 3607              	.LLST17:
 3608 0265 12000000 		.4byte	.LVL17
 3609 0269 27000000 		.4byte	.LVL19-1
 3610 026d 0100     		.2byte	0x1
 3611 026f 50       		.byte	0x50
 3612 0270 27000000 		.4byte	.LVL19-1
 3613 0274 32000000 		.4byte	.LVL20
 3614 0278 0100     		.2byte	0x1
 3615 027a 54       		.byte	0x54
 3616 027b 00000000 		.4byte	0
 3617 027f 00000000 		.4byte	0
 3618              	.LLST18:
 3619 0283 32000000 		.4byte	.LVL20
 3620 0287 35000000 		.4byte	.LVL21-1
 3621 028b 0100     		.2byte	0x1
 3622 028d 50       		.byte	0x50
 3623 028e 35000000 		.4byte	.LVL21-1
 3624 0292 3C000000 		.4byte	.LVL22
 3625 0296 0100     		.2byte	0x1
 3626 0298 54       		.byte	0x54
 3627 0299 00000000 		.4byte	0
 3628 029d 00000000 		.4byte	0
 3629              	.LLST19:
 3630 02a1 16000000 		.4byte	.LVL18
 3631 02a5 3C000000 		.4byte	.LVL22
 3632 02a9 0300     		.2byte	0x3
 3633 02ab 08       		.byte	0x8
 3634 02ac 20       		.byte	0x20
 3635 02ad 9F       		.byte	0x9f
 3636 02ae 00000000 		.4byte	0
 3637 02b2 00000000 		.4byte	0
 3638              	.LLST20:
 3639 02b6 36000000 		.4byte	.LVL21
 3640 02ba 3C000000 		.4byte	.LVL22
 3641 02be 0200     		.2byte	0x2
 3642 02c0 30       		.byte	0x30
 3643 02c1 9F       		.byte	0x9f
 3644 02c2 00000000 		.4byte	0
 3645 02c6 00000000 		.4byte	0
 3646              		.section	.debug_aranges,"",%progbits
 3647 0000 34000000 		.4byte	0x34
 3648 0004 0200     		.2byte	0x2
 3649 0006 00000000 		.4byte	.Ldebug_info0
 3650 000a 04       		.byte	0x4
 3651 000b 00       		.byte	0
 3652 000c 0000     		.2byte	0
 3653 000e 0000     		.2byte	0
 3654 0010 00000000 		.4byte	.LFB165
 3655 0014 14000000 		.4byte	.LFE165-.LFB165
 3656 0018 00000000 		.4byte	.LFB166
 3657 001c 4C000000 		.4byte	.LFE166-.LFB166
ARM GAS  /tmp/ccKFEoRE.s 			page 94


 3658 0020 00000000 		.4byte	.LFB167
 3659 0024 3E000000 		.4byte	.LFE167-.LFB167
 3660 0028 00000000 		.4byte	.LFB168
 3661 002c 44000000 		.4byte	.LFE168-.LFB168
 3662 0030 00000000 		.4byte	0
 3663 0034 00000000 		.4byte	0
 3664              		.section	.debug_ranges,"",%progbits
 3665              	.Ldebug_ranges0:
 3666 0000 08000000 		.4byte	.LBB67
 3667 0004 0A000000 		.4byte	.LBE67
 3668 0008 0E000000 		.4byte	.LBB76
 3669 000c 12000000 		.4byte	.LBE76
 3670 0010 00000000 		.4byte	0
 3671 0014 00000000 		.4byte	0
 3672 0018 08000000 		.4byte	.LBB68
 3673 001c 0A000000 		.4byte	.LBE68
 3674 0020 0E000000 		.4byte	.LBB75
 3675 0024 12000000 		.4byte	.LBE75
 3676 0028 00000000 		.4byte	0
 3677 002c 00000000 		.4byte	0
 3678 0030 08000000 		.4byte	.LBB69
 3679 0034 0A000000 		.4byte	.LBE69
 3680 0038 0E000000 		.4byte	.LBB74
 3681 003c 12000000 		.4byte	.LBE74
 3682 0040 00000000 		.4byte	0
 3683 0044 00000000 		.4byte	0
 3684 0048 08000000 		.4byte	.LBB70
 3685 004c 0A000000 		.4byte	.LBE70
 3686 0050 0E000000 		.4byte	.LBB73
 3687 0054 12000000 		.4byte	.LBE73
 3688 0058 00000000 		.4byte	0
 3689 005c 00000000 		.4byte	0
 3690 0060 2E000000 		.4byte	.LBB106
 3691 0064 3A000000 		.4byte	.LBE106
 3692 0068 3A000000 		.4byte	.LBB109
 3693 006c 3E000000 		.4byte	.LBE109
 3694 0070 00000000 		.4byte	0
 3695 0074 00000000 		.4byte	0
 3696 0078 2E000000 		.4byte	.LBB107
 3697 007c 3A000000 		.4byte	.LBE107
 3698 0080 3A000000 		.4byte	.LBB108
 3699 0084 3E000000 		.4byte	.LBE108
 3700 0088 00000000 		.4byte	0
 3701 008c 00000000 		.4byte	0
 3702 0090 00000000 		.4byte	.LFB165
 3703 0094 14000000 		.4byte	.LFE165
 3704 0098 00000000 		.4byte	.LFB166
 3705 009c 4C000000 		.4byte	.LFE166
 3706 00a0 00000000 		.4byte	.LFB167
 3707 00a4 3E000000 		.4byte	.LFE167
 3708 00a8 00000000 		.4byte	.LFB168
 3709 00ac 44000000 		.4byte	.LFE168
 3710 00b0 00000000 		.4byte	0
 3711 00b4 00000000 		.4byte	0
 3712              		.section	.debug_line,"",%progbits
 3713              	.Ldebug_line0:
 3714 0000 02030000 		.section	.debug_str,"MS",%progbits,1
ARM GAS  /tmp/ccKFEoRE.s 			page 95


 3714      02002802 
 3714      00000201 
 3714      FB0E0D00 
 3714      01010101 
 3715              	.LASF79:
 3716 0000 7466756E 		.ascii	"tfunc_t\000"
 3716      635F7400 
 3717              	.LASF54:
 3718 0008 72656164 		.ascii	"ready_list_t\000"
 3718      795F6C69 
 3718      73745F74 
 3718      00
 3719              	.LASF19:
 3720 0015 73697A65 		.ascii	"size_t\000"
 3720      5F7400
 3721              	.LASF55:
 3722 001c 7264796D 		.ascii	"rdymsg\000"
 3722      736700
 3723              	.LASF30:
 3724 0023 75696E74 		.ascii	"uint64_t\000"
 3724      36345F74 
 3724      00
 3725              	.LASF45:
 3726 002c 706F7274 		.ascii	"port_intctx\000"
 3726      5F696E74 
 3726      63747800 
 3727              	.LASF76:
 3728 0038 76746C69 		.ascii	"vtlist\000"
 3728      737400
 3729              	.LASF113:
 3730 003f 5F5F6675 		.ascii	"__func__.6124\000"
 3730      6E635F5F 
 3730      2E363132 
 3730      3400
 3731              	.LASF97:
 3732 004d 706F7274 		.ascii	"port_lock\000"
 3732      5F6C6F63 
 3732      6B00
 3733              	.LASF81:
 3734 0057 6D656D67 		.ascii	"memgetfunc_t\000"
 3734      65746675 
 3734      6E635F74 
 3734      00
 3735              	.LASF31:
 3736 0064 6C6F6E67 		.ascii	"long long unsigned int\000"
 3736      206C6F6E 
 3736      6720756E 
 3736      7369676E 
 3736      65642069 
 3737              	.LASF56:
 3738 007b 65786974 		.ascii	"exitcode\000"
 3738      636F6465 
 3738      00
 3739              	.LASF85:
 3740 0084 685F6672 		.ascii	"h_free\000"
 3740      656500
 3741              	.LASF73:
ARM GAS  /tmp/ccKFEoRE.s 			page 96


 3742 008b 76697274 		.ascii	"virtual_timers_list_t\000"
 3742      75616C5F 
 3742      74696D65 
 3742      72735F6C 
 3742      6973745F 
 3743              	.LASF114:
 3744 00a1 49544D5F 		.ascii	"ITM_RxBuffer\000"
 3744      52784275 
 3744      66666572 
 3744      00
 3745              	.LASF109:
 3746 00ae 68656170 		.ascii	"heapp\000"
 3746      7000
 3747              	.LASF87:
 3748 00b4 6E657874 		.ascii	"next\000"
 3748      00
 3749              	.LASF2:
 3750 00b9 705F7072 		.ascii	"p_prio\000"
 3750      696F00
 3751              	.LASF29:
 3752 00c0 6C6F6E67 		.ascii	"long long int\000"
 3752      206C6F6E 
 3752      6720696E 
 3752      7400
 3753              	.LASF18:
 3754 00ce 7369676E 		.ascii	"signed char\000"
 3754      65642063 
 3754      68617200 
 3755              	.LASF86:
 3756 00da 685F6D74 		.ascii	"h_mtx\000"
 3756      7800
 3757              	.LASF16:
 3758 00e0 705F6D70 		.ascii	"p_mpool\000"
 3758      6F6F6C00 
 3759              	.LASF61:
 3760 00e8 6D5F7175 		.ascii	"m_queue\000"
 3760      65756500 
 3761              	.LASF116:
 3762 00f0 63684865 		.ascii	"chHeapFree\000"
 3762      61704672 
 3762      656500
 3763              	.LASF112:
 3764 00fb 5F5F6675 		.ascii	"__func__.6098\000"
 3764      6E635F5F 
 3764      2E363039 
 3764      3800
 3765              	.LASF118:
 3766 0109 63685468 		.ascii	"chThdCreateI\000"
 3766      64437265 
 3766      61746549 
 3766      00
 3767              	.LASF121:
 3768 0116 474E5520 		.ascii	"GNU C 4.7.4 20130913 (release) [ARM/embedded-4_7-br"
 3768      4320342E 
 3768      372E3420 
 3768      32303133 
 3768      30393133 
ARM GAS  /tmp/ccKFEoRE.s 			page 97


 3769 0149 616E6368 		.ascii	"anch revision 202601]\000"
 3769      20726576 
 3769      6973696F 
 3769      6E203230 
 3769      32363031 
 3770              	.LASF74:
 3771 015f 63685F73 		.ascii	"ch_system\000"
 3771      79737465 
 3771      6D00
 3772              	.LASF26:
 3773 0169 6C6F6E67 		.ascii	"long int\000"
 3773      20696E74 
 3773      00
 3774              	.LASF108:
 3775 0172 63685468 		.ascii	"chThdCreateFromHeap\000"
 3775      64437265 
 3775      61746546 
 3775      726F6D48 
 3775      65617000 
 3776              	.LASF34:
 3777 0186 74737461 		.ascii	"tstate_t\000"
 3777      74655F74 
 3777      00
 3778              	.LASF82:
 3779 018f 6D656D6F 		.ascii	"memory_heap_t\000"
 3779      72795F68 
 3779      6561705F 
 3779      7400
 3780              	.LASF98:
 3781 019d 706F7274 		.ascii	"port_unlock\000"
 3781      5F756E6C 
 3781      6F636B00 
 3782              	.LASF93:
 3783 01a9 6D705F6E 		.ascii	"mp_next\000"
 3783      65787400 
 3784              	.LASF23:
 3785 01b1 75696E74 		.ascii	"uint16_t\000"
 3785      31365F74 
 3785      00
 3786              	.LASF4:
 3787 01ba 705F6E65 		.ascii	"p_newer\000"
 3787      77657200 
 3788              	.LASF111:
 3789 01c2 63685468 		.ascii	"chThdCreateFromMemoryPool\000"
 3789      64437265 
 3789      61746546 
 3789      726F6D4D 
 3789      656D6F72 
 3790              	.LASF51:
 3791 01dc 725F6E65 		.ascii	"r_newer\000"
 3791      77657200 
 3792              	.LASF95:
 3793 01e4 6D705F70 		.ascii	"mp_provider\000"
 3793      726F7669 
 3793      64657200 
 3794              	.LASF41:
 3795 01f0 72656761 		.ascii	"regarm_t\000"
ARM GAS  /tmp/ccKFEoRE.s 			page 98


 3795      726D5F74 
 3795      00
 3796              	.LASF68:
 3797 01f9 76745F70 		.ascii	"vt_prev\000"
 3797      72657600 
 3798              	.LASF80:
 3799 0201 6D757465 		.ascii	"mutex_t\000"
 3799      785F7400 
 3800              	.LASF102:
 3801 0209 76616C75 		.ascii	"value\000"
 3801      6500
 3802              	.LASF89:
 3803 020f 616C6967 		.ascii	"align\000"
 3803      6E00
 3804              	.LASF103:
 3805 0215 5F5F6675 		.ascii	"__func__.5444\000"
 3805      6E635F5F 
 3805      2E353434 
 3805      3400
 3806              	.LASF17:
 3807 0223 756E7369 		.ascii	"unsigned int\000"
 3807      676E6564 
 3807      20696E74 
 3807      00
 3808              	.LASF67:
 3809 0230 76745F6E 		.ascii	"vt_next\000"
 3809      65787400 
 3810              	.LASF11:
 3811 0238 705F6D73 		.ascii	"p_msgqueue\000"
 3811      67717565 
 3811      756500
 3812              	.LASF96:
 3813 0243 6D656D6F 		.ascii	"memory_pool_t\000"
 3813      72795F70 
 3813      6F6F6C5F 
 3813      7400
 3814              	.LASF90:
 3815 0251 73697A65 		.ascii	"size\000"
 3815      00
 3816              	.LASF24:
 3817 0256 73686F72 		.ascii	"short unsigned int\000"
 3817      7420756E 
 3817      7369676E 
 3817      65642069 
 3817      6E7400
 3818              	.LASF119:
 3819 0269 63685363 		.ascii	"chSchWakeupS\000"
 3819      6857616B 
 3819      65757053 
 3819      00
 3820              	.LASF37:
 3821 0276 6D73675F 		.ascii	"msg_t\000"
 3821      7400
 3822              	.LASF78:
 3823 027c 63685F73 		.ascii	"ch_system_t\000"
 3823      79737465 
 3823      6D5F7400 
ARM GAS  /tmp/ccKFEoRE.s 			page 99


 3824              	.LASF33:
 3825 0288 746D6F64 		.ascii	"tmode_t\000"
 3825      655F7400 
 3826              	.LASF38:
 3827 0290 6576656E 		.ascii	"eventmask_t\000"
 3827      746D6173 
 3827      6B5F7400 
 3828              	.LASF107:
 3829 029c 63685468 		.ascii	"chThdAddRef\000"
 3829      64416464 
 3829      52656600 
 3830              	.LASF42:
 3831 02a8 73746B61 		.ascii	"stkalign_t\000"
 3831      6C69676E 
 3831      5F7400
 3832              	.LASF10:
 3833 02b3 705F7761 		.ascii	"p_waiting\000"
 3833      6974696E 
 3833      6700
 3834              	.LASF39:
 3835 02bd 73697A65 		.ascii	"sizetype\000"
 3835      74797065 
 3835      00
 3836              	.LASF72:
 3837 02c6 76745F6C 		.ascii	"vt_lasttime\000"
 3837      61737474 
 3837      696D6500 
 3838              	.LASF5:
 3839 02d2 705F6F6C 		.ascii	"p_older\000"
 3839      64657200 
 3840              	.LASF50:
 3841 02da 725F6374 		.ascii	"r_ctx\000"
 3841      7800
 3842              	.LASF94:
 3843 02e0 6D705F6F 		.ascii	"mp_object_size\000"
 3843      626A6563 
 3843      745F7369 
 3843      7A6500
 3844              	.LASF110:
 3845 02ef 7072696F 		.ascii	"prio\000"
 3845      00
 3846              	.LASF52:
 3847 02f4 725F6F6C 		.ascii	"r_older\000"
 3847      64657200 
 3848              	.LASF92:
 3849 02fc 70685F6E 		.ascii	"ph_next\000"
 3849      65787400 
 3850              	.LASF35:
 3851 0304 74726566 		.ascii	"trefs_t\000"
 3851      735F7400 
 3852              	.LASF104:
 3853 030c 72656673 		.ascii	"refs\000"
 3853      00
 3854              	.LASF65:
 3855 0311 76697274 		.ascii	"virtual_timer_t\000"
 3855      75616C5F 
 3855      74696D65 
ARM GAS  /tmp/ccKFEoRE.s 			page 100


 3855      725F7400 
 3856              	.LASF1:
 3857 0321 705F7072 		.ascii	"p_prev\000"
 3857      657600
 3858              	.LASF36:
 3859 0328 74707269 		.ascii	"tprio_t\000"
 3859      6F5F7400 
 3860              	.LASF60:
 3861 0330 6D757465 		.ascii	"mutex\000"
 3861      7800
 3862              	.LASF25:
 3863 0336 696E7433 		.ascii	"int32_t\000"
 3863      325F7400 
 3864              	.LASF21:
 3865 033e 756E7369 		.ascii	"unsigned char\000"
 3865      676E6564 
 3865      20636861 
 3865      7200
 3866              	.LASF124:
 3867 034c 68656170 		.ascii	"heap_header\000"
 3867      5F686561 
 3867      64657200 
 3868              	.LASF14:
 3869 0358 705F6D74 		.ascii	"p_mtxlist\000"
 3869      786C6973 
 3869      7400
 3870              	.LASF22:
 3871 0362 73686F72 		.ascii	"short int\000"
 3871      7420696E 
 3871      7400
 3872              	.LASF7:
 3873 036c 705F7374 		.ascii	"p_state\000"
 3873      61746500 
 3874              	.LASF49:
 3875 0374 725F7072 		.ascii	"r_prio\000"
 3875      696F00
 3876              	.LASF58:
 3877 037b 65776D61 		.ascii	"ewmask\000"
 3877      736B00
 3878              	.LASF0:
 3879 0382 705F6E65 		.ascii	"p_next\000"
 3879      787400
 3880              	.LASF8:
 3881 0389 705F666C 		.ascii	"p_flags\000"
 3881      61677300 
 3882              	.LASF99:
 3883 0391 63685379 		.ascii	"chSysLock\000"
 3883      734C6F63 
 3883      6B00
 3884              	.LASF106:
 3885 039b 63685468 		.ascii	"chThdRelease\000"
 3885      6452656C 
 3885      65617365 
 3885      00
 3886              	.LASF117:
 3887 03a8 63684865 		.ascii	"chHeapAlloc\000"
 3887      6170416C 
ARM GAS  /tmp/ccKFEoRE.s 			page 101


 3887      6C6F6300 
 3888              	.LASF13:
 3889 03b4 705F6570 		.ascii	"p_epending\000"
 3889      656E6469 
 3889      6E6700
 3890              	.LASF27:
 3891 03bf 75696E74 		.ascii	"uint32_t\000"
 3891      33325F74 
 3891      00
 3892              	.LASF48:
 3893 03c8 725F7175 		.ascii	"r_queue\000"
 3893      65756500 
 3894              	.LASF69:
 3895 03d0 76745F64 		.ascii	"vt_delta\000"
 3895      656C7461 
 3895      00
 3896              	.LASF122:
 3897 03d9 2E2E2F2E 		.ascii	"../../../os/rt/src/chdynamic.c\000"
 3897      2E2F2E2E 
 3897      2F6F732F 
 3897      72742F73 
 3897      72632F63 
 3898              	.LASF88:
 3899 03f8 68656170 		.ascii	"heap\000"
 3899      00
 3900              	.LASF28:
 3901 03fd 6C6F6E67 		.ascii	"long unsigned int\000"
 3901      20756E73 
 3901      69676E65 
 3901      6420696E 
 3901      7400
 3902              	.LASF53:
 3903 040f 725F6375 		.ascii	"r_current\000"
 3903      7272656E 
 3903      7400
 3904              	.LASF59:
 3905 0419 63686172 		.ascii	"char\000"
 3905      00
 3906              	.LASF63:
 3907 041e 6D5F6E65 		.ascii	"m_next\000"
 3907      787400
 3908              	.LASF40:
 3909 0425 73797374 		.ascii	"systime_t\000"
 3909      696D655F 
 3909      7400
 3910              	.LASF15:
 3911 042f 705F7265 		.ascii	"p_realprio\000"
 3911      616C7072 
 3911      696F00
 3912              	.LASF64:
 3913 043a 76746675 		.ascii	"vtfunc_t\000"
 3913      6E635F74 
 3913      00
 3914              	.LASF100:
 3915 0443 5F5F7365 		.ascii	"__set_BASEPRI\000"
 3915      745F4241 
 3915      53455052 
ARM GAS  /tmp/ccKFEoRE.s 			page 102


 3915      4900
 3916              	.LASF43:
 3917 0451 74687265 		.ascii	"thread\000"
 3917      616400
 3918              	.LASF105:
 3919 0458 5F5F6675 		.ascii	"__func__.6103\000"
 3919      6E635F5F 
 3919      2E363130 
 3919      3300
 3920              	.LASF123:
 3921 0466 2F686F6D 		.ascii	"/home/joerg/repos/chibios-projects/ChibiOS-RT/demos"
 3921      652F6A6F 
 3921      6572672F 
 3921      7265706F 
 3921      732F6368 
 3922 0499 2F53544D 		.ascii	"/STM32/RT-STM32F103-OLIMEX_STM32_P103\000"
 3922      33322F52 
 3922      542D5354 
 3922      4D333246 
 3922      3130332D 
 3923              	.LASF44:
 3924 04bf 636F6E74 		.ascii	"context\000"
 3924      65787400 
 3925              	.LASF32:
 3926 04c7 7274636E 		.ascii	"rtcnt_t\000"
 3926      745F7400 
 3927              	.LASF66:
 3928 04cf 76697274 		.ascii	"virtual_timer\000"
 3928      75616C5F 
 3928      74696D65 
 3928      7200
 3929              	.LASF71:
 3930 04dd 76745F70 		.ascii	"vt_par\000"
 3930      617200
 3931              	.LASF77:
 3932 04e4 6D656173 		.ascii	"measurement_offset\000"
 3932      7572656D 
 3932      656E745F 
 3932      6F666673 
 3932      657400
 3933              	.LASF46:
 3934 04f7 74687265 		.ascii	"threads_queue_t\000"
 3934      6164735F 
 3934      71756575 
 3934      655F7400 
 3935              	.LASF91:
 3936 0507 706F6F6C 		.ascii	"pool_header\000"
 3936      5F686561 
 3936      64657200 
 3937              	.LASF9:
 3938 0513 705F7265 		.ascii	"p_refs\000"
 3938      667300
 3939              	.LASF75:
 3940 051a 726C6973 		.ascii	"rlist\000"
 3940      7400
 3941              	.LASF20:
 3942 0520 75696E74 		.ascii	"uint8_t\000"
ARM GAS  /tmp/ccKFEoRE.s 			page 103


 3942      385F7400 
 3943              	.LASF120:
 3944 0528 6368506F 		.ascii	"chPoolAlloc\000"
 3944      6F6C416C 
 3944      6C6F6300 
 3945              	.LASF115:
 3946 0534 6368506F 		.ascii	"chPoolFree\000"
 3946      6F6C4672 
 3946      656500
 3947              	.LASF84:
 3948 053f 685F7072 		.ascii	"h_provider\000"
 3948      6F766964 
 3948      657200
 3949              	.LASF57:
 3950 054a 77746F62 		.ascii	"wtobjp\000"
 3950      6A7000
 3951              	.LASF6:
 3952 0551 705F6E61 		.ascii	"p_name\000"
 3952      6D6500
 3953              	.LASF47:
 3954 0558 74687265 		.ascii	"threads_list_t\000"
 3954      6164735F 
 3954      6C697374 
 3954      5F7400
 3955              	.LASF101:
 3956 0567 63685379 		.ascii	"chSysUnlock\000"
 3956      73556E6C 
 3956      6F636B00 
 3957              	.LASF12:
 3958 0573 705F6D73 		.ascii	"p_msg\000"
 3958      6700
 3959              	.LASF62:
 3960 0579 6D5F6F77 		.ascii	"m_owner\000"
 3960      6E657200 
 3961              	.LASF3:
 3962 0581 705F6374 		.ascii	"p_ctx\000"
 3962      7800
 3963              	.LASF70:
 3964 0587 76745F66 		.ascii	"vt_func\000"
 3964      756E6300 
 3965              	.LASF83:
 3966 058f 6D656D6F 		.ascii	"memory_heap\000"
 3966      72795F68 
 3966      65617000 
 3967              		.comm	__gnu_lto_v1,1,1
 3968              		.ident	"GCC: (GNU Tools for ARM Embedded Processors) 4.7.4 20130913 (release) [ARM/embedded-4_7-br
ARM GAS  /tmp/ccKFEoRE.s 			page 104


DEFINED SYMBOLS
                            *ABS*:00000000 chdynamic.c
     /tmp/ccKFEoRE.s:488    .text.chThdAddRef:00000000 $t
     /tmp/ccKFEoRE.s:494    .text.chThdAddRef:00000000 chThdAddRef
     /tmp/ccKFEoRE.s:557    .text.chThdRelease:00000000 $t
     /tmp/ccKFEoRE.s:563    .text.chThdRelease:00000000 chThdRelease
     /tmp/ccKFEoRE.s:664    .text.chThdCreateFromHeap:00000000 $t
     /tmp/ccKFEoRE.s:670    .text.chThdCreateFromHeap:00000000 chThdCreateFromHeap
     /tmp/ccKFEoRE.s:758    .text.chThdCreateFromMemoryPool:00000000 $t
     /tmp/ccKFEoRE.s:764    .text.chThdCreateFromMemoryPool:00000000 chThdCreateFromMemoryPool
                            *COM*:00000001 __gnu_lto_v1
                     .debug_frame:00000010 $d

UNDEFINED SYMBOLS
chPoolFree
chHeapFree
chHeapAlloc
chThdCreateI
chSchWakeupS
chPoolAlloc
