ARM GAS  /tmp/ccKFEoRE.s 			page 1


   1              		.syntax unified
   2              		.cpu cortex-m3
   3              		.fpu softvfp
   4              		.eabi_attribute 20, 1
   5              		.eabi_attribute 21, 1
   6              		.eabi_attribute 23, 3
   7              		.eabi_attribute 24, 1
   8              		.eabi_attribute 25, 1
   9              		.eabi_attribute 26, 1
  10              		.eabi_attribute 30, 2
  11              		.eabi_attribute 34, 1
  12              		.eabi_attribute 18, 4
  13              		.thumb
  14              		.file	"chdynamic.c"
  15              		.text
  16              	.Ltext0:
  17              		.section	.gnu.lto_.jmpfuncs.528bfc2a99b116e2,"",%progbits
  18 0000 789C6D8B 		.ascii	"x\234m\2131\016\2000\014\003}n\021#s\247\276\016^\220"
  18      310E8030 
  18      0C037D6E 
  18      112373A7 
  18      BE0E5E90 
  19 0014 FF8BB465 		.ascii	"\377\213\264e\001\221\341b\351l\013\355\372\277\353"
  19      0191E162 
  19      E96C0BED 
  19      FABFEB
  20 0023 F99BB06A 		.ascii	"\371\233\260j\206\000C.J\267\334t\262t:\"\341\2012P"
  20      8600432E 
  20      4AB7DC74 
  20      B2743A22 
  20      E1813250 
  21 0037 C373B0CC 		.ascii	"\303s\260\314\361j\177\353\314\246nT\002\007\001"
  21      F16A7FEB 
  21      CCA66E54 
  21      020701
  22              		.text
  23              		.section	.gnu.lto_.inline.528bfc2a99b116e2,"",%progbits
  24 0000 789C6362 		.ascii	"x\234cb`d\340e\300\016V@iV\006\006\036\021F\006&\216"
  24      6064E065 
  24      C00E5640 
  24      69560606 
  24      1E114606 
  25 0016 03760C5C 		.ascii	"\003v\014\\\007\354\230\030\230y\030\030\230&\370M\360"
  25      07EC9818 
  25      98791818 
  25      9826F84D 
  25      F0
  26 0027 6364E060 		.ascii	"cd\340`\207Jp|\320cb`b\220\343\003\362\325W\264\001"
  26      874A707C 
  26      D0636260 
  26      6290E303 
  26      F2D557B4 
  27 003c 4D9D630E 		.ascii	"M\235c\016\024\340f``\234\340\007\245\230\031\304\364"
  27      14E06660 
  27      609CE007 
  27      A59819C4 
  27      F4
ARM GAS  /tmp/ccKFEoRE.s 			page 2


  28 004d 81D25C7F 		.ascii	"\201\322\\\177\274\031\330\026\310\303\315a`\027\000"
  28      BC19D816 
  28      C8C3CD61 
  28      601700
  29 005c 5A02320F 		.ascii	"Z\0022\017\002Yx\241\306\2630\210\203\324\363\256Jb"
  29      025978A1 
  29      C6B33088 
  29      83D4F3AE 
  29      4A62
  30 006e 60BFA586 		.ascii	"`\277\245\206S=H\030h:\003\000\022\226\035\221"
  30      533D4818 
  30      683A0300 
  30      12961D91 
  31              		.text
  32              		.section	.gnu.lto_.pureconst.528bfc2a99b116e2,"",%progbits
  33 0000 789C6362 		.ascii	"x\234cb`d`f``\340f\200\000V\006)F+&+f+\026+\000\006"
  33      60646066 
  33      6060E066 
  33      80005606 
  33      29462B26 
  34 001b 690123   		.ascii	"i\001#"
  35              		.text
  36              		.section	.gnu.lto_chThdRelease.part.0.528bfc2a99b116e2,"",%progbits
  37 0000 789CAD92 		.ascii	"x\234\255\222=K\003A\020\206gv\3674jc\251\215\221\020"
  37      3D4B0341 
  37      10866776 
  37      F7346A63 
  37      A98D9110 
  38 0014 100D247F 		.ascii	"\020\015$\177CK\005\033A\243\234\347\027\030%\261\321"
  38      434B051B 
  38      41A39CE7 
  38      171825B1 
  38      D1
  39 0025 26E7E90F 		.ascii	"&\347\351\017\010V~F\202\037\225X\330K@-D\304\3122\205"
  39      08567E46 
  39      821F9558 
  39      D84B402D 
  39      44C4CA32 
  40 003a 85888585 		.ascii	"\205\210\205\205\205\210\202\020g\366\356T\222h\242"
  40      85888210 
  40      67F6EE54 
  40      9268A2
  41 0049 7877CBBB 		.ascii	"xw\313\273\267\3143\357\354\316\012@z\313\237\010\215"
  41      B7CC33EF 
  41      ECCE0A40 
  41      7ACB9F08 
  41      8D
  42 005a 6305D049 		.ascii	"c\005\320I\212\006\240\312\\\321D\241\320*P\262.\266"
  42      8A06A0CA 
  42      5CD144A1 
  42      D02A50B2 
  42      2EB6
  43 006c 4B449E50 		.ascii	"KD\236P\212\264\022\022\323\375:WS\010r\266\275\362"
  43      8AB41212 
  43      D3FD3A57 
  43      530872B6 
  43      BDF2
ARM GAS  /tmp/ccKFEoRE.s 			page 3


  44 007e 78E2B438 		.ascii	"x\342\26487\305b\320\342\3258\302E~\274\025,D\010\000"
  44      37C562D0 
  44      E2D538C2 
  44      457EBC15 
  44      2C440800 
  45 0092 AB2875F6 		.ascii	"\253(u\3660\307\3661) \204L\336n$j 3\247N\267G*m\370"
  45      30C7F631 
  45      2920844C 
  45      DE6E246A 
  45      2033A74E 
  46 00ab 90DD4797 		.ascii	"\220\335G\227k\3678U\20534W\330j\373\013\006\325\241"
  46      6BF73855 
  46      85333457 
  46      D86AFB0B 
  46      06D5A1
  47 00be CC17A84E 		.ascii	"\314\027\250NCo\233w5\324X\316\325`V\336\201\027YK\003"
  47      436F9B77 
  47      35D458CE 
  47      D56056DE 
  47      8117594B 
  48 00d3 4AA9A78F 		.ascii	"J\251\247\217\022\177\307\235mN\375\005\273\377\271"
  48      127FC79D 
  48      6D4EFD05 
  48      BBFFB9
  49 00e2 48BCDEAE 		.ascii	"H\274\336\256\313\013\373\246\230\016\303\016\267a\311"
  49      CB0BFBA6 
  49      980EC30E 
  49      B761C9
  50 00f1 EEA60E08 		.ascii	"\356\246\016\010\350\320W\245\260\361\\\351<\271G\215"
  50      E8D057A5 
  50      B0F15CE9 
  50      3CB9478D 
  51 0101 88837880 		.ascii	"\210\203x\200a\0200\210{\030\002I\272K\252<5HwH\351"
  51      61103088 
  51      7B180249 
  51      BA4BAA3C 
  51      35487748 
  52 0116 3160D9B6 		.ascii	"1`\331\266\233)>G\377q\257\204^V\276\360\275|\301h\""
  52      9B293E47 
  52      FF71AF84 
  52      5E56BEF0 
  52      BD7CC168 
  53 012b FB28BF9E 		.ascii	"\373(\277\236\234\003'?$\227a\016\272\000g\240\220m"
  53      9C03273F 
  53      2497610E 
  53      BA0067A0 
  53      906D
  54 013d 73574C14 		.ascii	"sWL\024\021\350\242\012\344:\254\241\205\365\302D]\243"
  54      11E8A20A 
  54      E43AACA1 
  54      85F5C244 
  54      5DA3
  55 014f C1DBA131 		.ascii	"\301\333\2411\364\271E\006\301\307d5\014\277`=\036V"
  55      F4B94506 
  55      C1C76435 
  55      0CBF603D 
  55      1E56
ARM GAS  /tmp/ccKFEoRE.s 			page 4


  56 0161 C6888A0C 		.ascii	"\306\210\212\014e/qS\377\342\246*n\314\344sb\267\207"
  56      652F7153 
  56      FFE2A62A 
  56      6ECCE473 
  56      62B787
  57 0174 EC11FA86 		.ascii	"\354\021\372\206\206\206\325\367\206\3027\274\004c\325"
  57      8686D5F7 
  57      86C237BC 
  57      0463D5
  58 0183 70318005 		.ascii	"p1\200\005x\265\003\026\0060\216^I\224\212X\013\033"
  58      78B50316 
  58      06308E5E 
  58      49948A58 
  58      0B1B
  59 0195 DCE83EDE 		.ascii	"\334\350>\336ZiS(\362J\337\035?\215\337R\324\261l\025"
  59      5A695328 
  59      F24ADF1D 
  59      3F8DDF52 
  59      D4B16C15 
  60 01a9 8C4663EE 		.ascii	"\214Fc\3567\223\212%\347b\251\244\0313'F\347\023#\323"
  60      37938A25 
  60      E762A9A4 
  60      19332746 
  60      E71323D3 
  61 01bd 9366D404 		.ascii	"\223f\324\004\225\264\306Rbn\366\035\365\276\354\325"
  61      95B4C652 
  61      626EF61D 
  61      F5BEECD5 
  62              		.text
  63              		.section	.gnu.lto_chThdAddRef.528bfc2a99b116e2,"",%progbits
  64 0000 789C8D52 		.ascii	"x\234\215R\317k\023A\024\376\336l\333\024\274\364h."
  64      CF6B1341 
  64      14FEDE6C 
  64      DB14BCF4 
  64      682E
  65 0012 6D08ED41 		.ascii	"m\010\355A-YozT\002b\0179\230 \210\260\2268\035h\240"
  65      2D596F7A 
  65      5402620F 
  65      39982088 
  65      B096381D 
  66 0028 9B844D52 		.ascii	"\233\204MR\332S\326\255\327B\251(\211R\260\376F\004"
  66      DA53D6AD 
  66      D742A928 
  66      8952B0FE 
  66      4604
  67 003a 2F528F8A 		.ascii	"/R\217\212\007\017+\364\334\233\205\352\255\210\340"
  67      070F2BF4 
  67      DC9B85EA 
  67      AD88E0
  68 0049 1F10DF4C 		.ascii	"\037\020\337L\326$M\335\322\331\037ox\363}\337\274\367"
  68      D6244DDD 
  68      D2D91F6F 
  68      78F37DDF 
  68      BCF7
  69 005b CD08103F 		.ascii	"\315\010\020?\307G\222\277\254\005lq$\013$6v\201{)A"
  69      C74792BF 
  69      AC056C71 
ARM GAS  /tmp/ccKFEoRE.s 			page 5


  69      240B2436 
  69      76817B29 
  70 0070 A4274C69 		.ascii	"\244'Li\012j\3364L\221\306\266\357o\376\376\022\234"
  70      0A6ADE34 
  70      4C91C6B6 
  70      EF6FFEFE 
  70      129C
  71 0082 0DF63B9D 		.ascii	"\015\366;\235)\245\263\363\204\260} \222PD\030\207\216"
  71      29A5B3F3 
  71      84B07D20 
  71      92504418 
  71      878E
  72 0094 6278A318 		.ascii	"bx\243\030\336\236u\"\353\260\265#~\264\307>\211\317"
  72      DE9E7522 
  72      EBB0B523 
  72      7EB4C73E 
  72      89CF
  73 00a6 FB9DE634 		.ascii	"\373\235\3464\236\263\304\306\232\177]\221%\220&-p\330"
  73      9EB3C4C6 
  73      9A7F5D91 
  73      2590262D 
  73      70D8
  74 00b8 7A156D9C 		.ascii	"z\025m\234\212$F4\221\0218C\344\3203\232\206\200CO)"
  74      8A244634 
  74      91113843 
  74      E4D0339A 
  74      8680434F 
  75 00cd 0D8BE336 		.ascii	"\015\213\3436G\036\243\270\357\373\023T2\032f\334\320"
  75      471EA3B8 
  75      EFFB1354 
  75      321A66DC 
  75      D0
  76 00de 51F79B67 		.ascii	"Q\367\233g\015=\261\276BP\027\027\301\231\376\2023\303"
  76      0D3DB1BE 
  76      42501717 
  76      C199FE82 
  76      33C3
  77 00f0 4DE98AA2 		.ascii	"M\351\212\242\246F\004f\214\344\257\360\373\317\377"
  77      A6460466 
  77      8CE4AFF0 
  77      FBCFFF
  78 00ff D535683A 		.ascii	"\3255h:\303y\021\370\206\200v\326\037\036\\>\262\031"
  78      C37911F8 
  78      868076D6 
  78      1F1E5C3E 
  78      B219
  79 0111 D7FE9A6B 		.ascii	"\327\376\232ku\350\345\221-\365\011\006\334\034\327"
  79      75E8E591 
  79      2DF50906 
  79      DC1CD7
  80 0120 687EC024 		.ascii	"h~\300$\036\320\226\337\272\242\014\256/\333[~\024-"
  80      1ED096DF 
  80      BAA20CAE 
  80      2FDB5B7E 
  80      142D
  81 0132 8F198110 		.ascii	"\217\031\201\020\301m}Z\335^$\211\0138\257(a=F\233\024"
  81      C16D7D5A 
ARM GAS  /tmp/ccKFEoRE.s 			page 6


  81      DD5E2489 
  81      0B38AF28 
  81      613D469B 
  82 0147 8D0B4994 		.ascii	"\215\013I\2244\366u\307\235\376\211\204Xk\356Y\377x"
  82      34F675C7 
  82      9DFE8984 
  82      586BEE59 
  82      FF78
  83 0159 16533530 		.ascii	"\026S50a\316\214U\347\"{\342\365n\015\352I\235:nq\214"
  83      61CE8C55 
  83      E7227BE2 
  83      F56E0DEA 
  83      499D3A6E 
  84 016f D331763B 		.ascii	"\3231v;\364\206\235\325~\277\375s*\277q\222\337\037"
  84      F4869DD5 
  84      7EBFFD73 
  84      2ABF7192 
  84      DF1F
  85 0181 8DDF1FE2 		.ascii	"\215\337\037\342\374v\350\035O\372:\221\301\016\275"
  85      FC76E81D 
  85      4FFA3A91 
  85      C10EBD
  86 0190 A74993D8 		.ascii	"\247I\223\330\005\205Oz\006\365\356\025\231\353\244"
  86      05854F7A 
  86      06F5EE15 
  86      99EBA4
  87 019f B153998C 		.ascii	"\261S\231\214\335}+5\333\253\3335O\332rqa\265\\tK2#"
  87      DD7D2B35 
  87      DBABDB35 
  87      4FDA7271 
  87      61B55C74 
  88 01b6 21EAD5D1 		.ascii	"!\352\325\321\345\342RC\235\033\002V+^\275f_\315\347"
  88      E5E25243 
  88      9D1B0256 
  88      2B5EBD66 
  88      5FCDE7
  89 01c9 B2B91566 		.ascii	"\262\271\025f\310\212\247\346\227/\271\231E\314\016"
  89      C88AA7E6 
  89      972FB999 
  89      45CC0E
  90 01d8 22D54ADD 		.ascii	"\"\325J\335\316\346\012s\005\273T\226K\215\005e\033"
  90      CEE60A73 
  90      05BB5496 
  90      4B8D0565 
  90      1B
  91 01e9 A474AF35 		.ascii	"\244t\2575\312\222\301\023\271B>u\267XSU\2574\233\232"
  91      CA92C113 
  91      B9423E75 
  91      B7585355 
  91      AF349B9A 
  92 01fd B908E121 		.ascii	"\271\010\341!\341*\267\342\255\342/\336]\306\227"
  92      E12AB7E2 
  92      ADE22FDE 
  92      5DC697
  93              		.text
  94              		.section	.gnu.lto_chThdRelease.528bfc2a99b116e2,"",%progbits
  95 0000 789CAD55 		.ascii	"x\234\255U[H\024a\024>\347\377\347\342\245Rz\252\300"
ARM GAS  /tmp/ccKFEoRE.s 			page 7


  95      5B481461 
  95      143EE7FF 
  95      E7E2A552 
  95      7AAAC0
  96 0013 DD4514CA 		.ascii	"\335E\024\312\304\361\255\036\213 \364\301\007\225 "
  96      C4F1AD1E 
  96      8B20F4C1 
  96      079520
  97 0022 844D6D9C 		.ascii	"\204Mm\234PpUv5\264\207\034\327\"\241\002\011\002K\245"
  97      50705576 
  97      35B4871C 
  97      D722A102 
  97      09024BA5 
  98 0036 D432BB50 		.ascii	"\3242\273P\017A\024FE\027\261U|\362Q(\350BD\017A\021"
  98      0F411446 
  98      4517B155 
  98      7CF25128 
  98      E842440F 
  99 004c 04819DFF 		.ascii	"\004\201\235\377\237\031\235\335uM\244\331\313\231\375"
  99      9F199DDD 
  99      754DA4D9 
  99      CB99FD
 100 005b FFF37DDF 		.ascii	"\377\363}\3379\337\231\231e\200\364J?\352\3513\257\003"
 100      39DF9999 
 100      6580F44A 
 100      3FEAE933 
 100      AF03
 101 006d 8C53C42C 		.ascii	"\214S\304,@6\270\000\320\027b\214/\032`\357\326\237"
 101      4036B800 
 101      D017628C 
 101      2F1A60EF 
 101      D69F
 102 007f 06C02EE7 		.ascii	"\006\300.\347L\231)\020\277\022\345\364K\341\372\331"
 102      4C992910 
 102      BF12E5F4 
 102      4BE1FAD9 
 103 008f 5D608754 		.ascii	"]`\207T\371\2559\347\250;@\3159A\035QD\322\354e\\Q5"
 103      F9AD39E7 
 103      A83B40CD 
 103      39411D51 
 103      44D2EC65 
 104 00a6 1D7B8F48 		.ascii	"\035{\217H}\275\020\306l\373\322\367\227\361\035\361"
 104      7DBD10C6 
 104      6CFBD2F7 
 104      97F11DF1 
 105 00b6 F7CBCB41 		.ascii	"\367\313\313AK\254\326#$f'\362v\202\205\010Y \"K-7\003"
 105      4BACD623 
 105      246627F2 
 105      76828508 
 105      5920224B 
 106 00cd 6E8A6F06 		.ascii	"n\212o\006\365s\3443n\006\367g\344\364\006`\203\257"
 106      F573E433 
 106      6E06F767 
 106      E4F40660 
 106      83AF
 107 00df E2152E8C 		.ascii	"\342\025.\214K\330\322h\300\201\205\\\230\262!\030l"
 107      4BD8D268 
ARM GAS  /tmp/ccKFEoRE.s 			page 8


 107      C081855C 
 107      98B22118 
 107      6C
 108 00f0 00945EE2 		.ascii	"\000\224^\342\264\266n\211K\303\223l\361\232\366\234"
 108      B4B66E89 
 108      4BC3936C 
 108      F19AF69C 
 109 0100 BD78BFDC 		.ascii	"\275x\277\334[\004\023B\270\337\256 M\006\205(\253\035"
 109      5B041342 
 109      B8DFAE20 
 109      4D068528 
 109      AB1D
 110 0112 FE856B28 		.ascii	"\376\205k(\213\252B\210a\274\205E\300 \214\327\261\020"
 110      8BAA4288 
 110      61BC8545 
 110      C0208CD7 
 110      B110
 111 0124 38C5318A 		.ascii	"8\3051\212*\305q\212\032\305\011\212\331\024oP\314\241"
 111      2AC5718A 
 111      1AC5098A 
 111      D9146F50 
 111      CCA1
 112 0136 789362AE 		.ascii	"x\223b\256\033\203\024')\322\241\302\031\333\316gn\033"
 112      1B831427 
 112      29D2A1C2 
 112      19DBCE67 
 112      6E1B
 113 0148 71DB6B43 		.ascii	"q\333kCaP,\353\3708\334\266n'-2K\036\325\"\212\013\256"
 113      61502CEB 
 113      F838DCB6 
 113      6E272D32 
 113      4B1ED522 
 114 015f 86D2C409 		.ascii	"\206\322\304\011\237\001\206\216\202+D\302\267i%\315"
 114      9F01868E 
 114      822B44C2 
 114      B76925CD 
 115 016f 74EADD15 		.ascii	"t\352\335\025V\031\224H\312\361\271w\237\330\272\336"
 115      56199448 
 115      CAF1B977 
 115      9FD8BADE 
 116 017f 8B459536 		.ascii	"\213E\2256\001\346 \216_/^\376\260?I\214\\\272O]\206"
 116      01E6208E 
 116      5F2F5EFE 
 116      B03F498C 
 116      5CBA4F5D 
 117 0194 F15E92A4 		.ascii	"\361^\222\244\270\007\317\221\215T\243\374\002\010\300"
 117      B807CF91 
 117      8D54A3FC 
 117      0208C0
 118 01a3 108EDA43 		.ascii	"\020\216\332C\007,\324\222hW\266\207\335m]\022$ ^'\356"
 118      072CD492 
 118      6857B687 
 118      DD6D5D12 
 118      24205E27 
 119 01b8 14A71713 		.ascii	"\024\247\027\023\331^(!\307\370U\270\202\026f1\023\345"
 119      D95E2821 
 119      C7F855B8 
ARM GAS  /tmp/ccKFEoRE.s 			page 9


 119      82166631 
 119      13E5
 120 01ca E4B8AB77 		.ascii	"\344\270\253wl\325\261\004\364\017\360)\356\0019aE\246"
 120      6CD5B104 
 120      F40FF029 
 120      EE013961 
 120      45A6
 121 01dc 224D25DA 		.ascii	"\"M%\332\312\001w/3\343\027\356\2474\305\032\271\354"
 121      CA01772F 
 121      33E317EE 
 121      A734C51A 
 121      B9EC
 122 01ee E1C27887 		.ascii	"\341\302x\207:\366VS\274\3170\202\014s\010\343\003\262"
 122      3AF65653 
 122      BCCF3082 
 122      0C7308E3 
 122      03B2
 123 0200 5C0CE2EE 		.ascii	"\\\014\342\356\217\015\015\002\326\033\30439\210\351"
 123      8F0D0D02 
 123      D61BC433 
 123      3988E9
 124 020f 4C8308E3 		.ascii	"L\203\010\343C:Y\345q\235\017\343#\014\310\2057\360"
 124      433A59E5 
 124      719D0FE3 
 124      230CC885 
 124      37F0
 125 0221 FA332616 		.ascii	"\3723&\026&V\275\023\311\311e\324\210\266\027\015.\346"
 125      2656BD13 
 125      C9C965D4 
 125      88B6170D 
 125      2EE6
 126 0233 33A47B89 		.ascii	"3\244{\211\252\3642;\363tVX\244\306cu\005\350(\344%"
 126      AAF4323B 
 126      F3745658 
 126      A4C66375 
 126      05E828E4 
 127 0248 2950E7FD 		.ascii	")P\347\375\333\245\002=\205\274LMJ\344d\226`\276\013"
 127      DBA5023D 
 127      85BC4C4D 
 127      4AE46496 
 127      60BE0B
 128 025b E0091FD2 		.ascii	"\340\011\037\322\305\340\202\204s\024D\336[P\216zt\301"
 128      C5E08284 
 128      731444DE 
 128      5B508E7A 
 128      74C1
 129 026d 0B70BE4F 		.ascii	"\013p\276O\2610W\332\334 \012\0245\256\254\012\324\026"
 129      B13057DA 
 129      DC200A14 
 129      35AEAC0A 
 129      D416
 130 027f B9D42098 		.ascii	"\271\324 \230\347\013\3227\231\334$\342\371\200\257"
 130      E70BD237 
 130      99DC24E2 
 130      F980AF
 131 028e 78F2B64F 		.ascii	"x\362\266O\343\263 \236\037BJ\302E/\364h\364\304\263"
 131      E3B3209E 
ARM GAS  /tmp/ccKFEoRE.s 			page 10


 131      1F424AC2 
 131      452FF468 
 131      F4C4B3
 132 02a1 652F3C73 		.ascii	"e/<s/|\265\227x\035x\260\234\177\301\024\037\254\022"
 132      2F7CB597 
 132      781D78B0 
 132      9C7FC114 
 132      1FAC12
 133 02b4 7C57B91F 		.ascii	"|W\271\037\223\275&\206\330S\324r\377\213Z\356\232\215"
 133      93BD2686 
 133      D853D472 
 133      FF8B5AEE 
 133      9A8D
 134 02c6 5115641B 		.ascii	"Q\025d\033(\337F'\321\273UN\301o;\313\302\255X\217\356"
 134      28DF4627 
 134      D1BB554E 
 134      C16F3BCB 
 134      C2AD588F 
 135 02db E5428A16 		.ascii	"\345B\212\026n\363\214\325\322\214\345\222#\225 \217"
 135      6EF38CD5 
 135      D28CE592 
 135      2395208F 
 136 02eb 08988F20 		.ascii	"\010\230\217 \337#\320\235\347\245\237\201\322\026\000"
 136      DF23D09D 
 136      E7A59F81 
 136      D21600
 137 02fa E94F22F9 		.ascii	"\351O\"\371~\255\026\033\224+&\034,+3\234w{\314\210"
 137      7EAD161B 
 137      942B261C 
 137      2C2B339C 
 137      777BCC88 
 138 030e 761AB1A8 		.ascii	"v\032\261\250i\230\315M=m\215\221\026\263\314\004\326"
 138      6998CD4D 
 138      3D6D8D91 
 138      16B3CC04 
 138      D6
 139 031f D9A144AD 		.ascii	"\331\241D\255\0231\365dck\227\265'%\273\243=\332\031"
 139      1331F564 
 139      636B97B5 
 139      2725BBA3 
 139      3DDA19
 140 0332 330ED654 		.ascii	"3\016\326T\035\252\352&\230\331\036\265\352O\356\213"
 140      1DAAEA26 
 140      98D91EB5 
 140      EA4FEE8B 
 141 0342 943543A9 		.ascii	"\2245C\251?\323\352\3564\016U\325V\326\032-mfkW\223"
 141      3FD3EAEE 
 141      340E55D5 
 141      56D61A2D 
 141      6D666B57 
 142 0357 65C84C33 		.ascii	"e\310L3r\270\253\315\244\344\374\252\332\232\320\361"
 142      72B8ABCD 
 142      A4E4FCAA 
 142      DA9AD0F1 
 143 0367 C698D511 		.ascii	"\306\230\325\021m)\015\025\227\003\213\202\036\261\""
 143      6D290D15 
 143      97038B82 
ARM GAS  /tmp/ccKFEoRE.s 			page 11


 143      1EB122
 144 0376 EDD11EF8 		.ascii	"\355\321\036\370\013\201\020\222\351"
 144      0B811092 
 144      E9
 145              		.text
 146              		.section	.gnu.lto_chThdCreateFromHeap.528bfc2a99b116e2,"",%progbits
 147 0000 789C8D53 		.ascii	"x\234\215S_HSQ\030\377\276s\3166g\232V\004\331\203\016"
 147      5F485351 
 147      18FFBE73 
 147      CE36679A 
 147      5604D983 
 148 0015 B1C8925D 		.ascii	"\261\310\222]\241 \203\036\014!\352a\017M\202^\326X"
 148      A120831E 
 148      0C21EA61 
 148      0F4D825E 
 148      D658
 149 0027 D7530E9C 		.ascii	"\327S\016\234\033w\323\324\007\275Y\217A\022\004\025"
 149      1B77D3D4 
 149      07BD598F 
 149      41120415 
 150 0037 08657F88 		.ascii	"\010e\177\210\351\244\214(|\310\010\2230\361)\"LBH{"
 150      E9A48C28 
 150      7CC80893 
 150      30F12922 
 150      4C42487B 
 151 004b EEA1878C 		.ascii	"\356\241\207\214\300\276{\356\235m:Gw;\367;\367\234"
 151      C0BE7BEE 
 151      9D6D3A47 
 151      773BF73B 
 151      F79C
 152 005d DFF73BDF 		.ascii	"\337\367;\337\371\375\316a\200\364\333\374\034\246\366"
 152      F9FDCE61 
 152      80F4DBFC 
 152      1CA6F6
 153 006c 4300BCA2 		.ascii	"C\000\274\242\210.@64\017p\305\307\230\230\345`\036"
 153      882E4036 
 153      340F70C5 
 153      C79898E5 
 153      601E
 154 007e E033B300 		.ascii	"\3403\263\000f#Ga\217\013D\253CT\003\214\013\0348\253"
 154      66234761 
 154      8F0B44AB 
 154      4354038C 
 154      0B1C38AB 
 155 0092 38592DDC 		.ascii	"8Y-\3347\315\233CW\315S\203Kkk5\022\201\001C\010#,d"
 155      37CD9B43 
 155      57CD5383 
 155      4B6B6B35 
 155      12810143 
 156 00aa 56CAAA40 		.ascii	"V\312\252@\"\202\017\254\310@\344\027\260)\2253\330"
 156      22820FAC 
 156      C840E417 
 156      B0299533 
 156      D8
 157 00bb AF527FA6 		.ascii	"\257R\177\246\273\213f.\247'\312\0263\356)\366fim\240"
 157      BB8B662E 
 157      A727CA16 
ARM GAS  /tmp/ccKFEoRE.s 			page 12


 157      33EE29F6 
 157      66696DA0 
 158 00cf 0E1E3834 		.ascii	"\016\03684\022\005\203z\305\260\230\376\3156S\210\\"
 158      1205837A 
 158      C5B098FE 
 158      CD365388 
 158      5C
 159 00e0 AC8B81A6 		.ascii	"\254\213\201\246\260\357+\012,F\363\220\213v38\242\320"
 159      B0EF2B0A 
 159      2C46F390 
 159      8B763338 
 159      A2D0
 160 00f2 CBE9D705 		.ascii	"\313\351\327\005\230\251\343\316\303{\030\034S\370\317"
 160      98A9E3CE 
 160      C37B181C 
 160      53F8CF
 161 0101 E505D19E 		.ascii	"\345\005\321\236<4\211v\\\241\177\025\256\305j\002v"
 161      3C348976 
 161      5CA17F15 
 161      AEC56A02 
 161      76
 162 0112 23847004 		.ascii	"#\204p\004kI\340\020>\304:\340\024\037S\0244~\217\306"
 162      6B49E010 
 162      3EC43AE0 
 162      141F5314 
 162      347E8FC6 
 163 0126 DDF4FD84 		.ascii	"\335\364\375\204\276=\024\323\024K(\216Q\364:y\364\270"
 163      BE3D14D3 
 163      144B288E 
 163      51F43A79 
 163      F4B8
 164 0138 E09A6956 		.ascii	"\340\232iV2\033o\217\206\235\323q\306\212\226\307AZ"
 164      321B6F8F 
 164      869DD371 
 164      C68A96C7 
 164      415A
 165 014a D8EAF039 		.ascii	"\330\352\3609pM\217V\207p\234\304\320Q\364\301\252Y"
 165      704D8F56 
 165      87709CC4 
 165      D051F4C1 
 165      AA59
 166 015c 22B104C3 		.ascii	"\"\261\004\303\210v\216\216LG.\321\0130C{\260\22167"
 166      88768E8E 
 166      4C472ED1 
 166      0B30437B 
 166      B0913637 
 167 0170 E101DEC1 		.ascii	"\341\001\336\301\364w\234\033\335\273NQ\2456\223\373"
 167      F4779C1B 
 167      DDBB4E51 
 167      A53693FB 
 168 0180 049153F2 		.ascii	"\004\221S\362,p\"@\273:\247H\207\256\310\201)e\320\254"
 168      2C702240 
 168      BB3AA748 
 168      87AEC881 
 168      2965D0AC 
 169 0194 649BBCBE 		.ascii	"d\233\274\276\372\245\241\350\221\261\006Ki\022\340"
 169      FAA5A1E8 
ARM GAS  /tmp/ccKFEoRE.s 			page 13


 169      91B1064B 
 169      6912E0
 170 01a3 030CE2C8 		.ascii	"\003\014\342\310\215[\337\232\362\026#\245&\224\"O\363"
 170      8D5BDF9A 
 170      F21623A5 
 170      2694224F 
 170      F3
 171 01b4 96B4AECE 		.ascii	"\226\264\256\3160UH\202\250\027@5\214\343\260y\273Y"
 171      30554882 
 171      A8174035 
 171      8CE3B079 
 171      BB59
 172 01c6 E2B63CDA 		.ascii	"\342\266<\332\365\351g\316t\231\"\230\203=\013\363\217"
 172      F5E967CE 
 172      74992298 
 172      833D0BF3 
 172      8F
 173 01d7 785600AF 		.ascii	"xV\000\257\243a9i\310\262\032\012\322PG\267\216\036"
 173      A3613969 
 173      C8B21A0A 
 173      D25047B7 
 173      8E1E
 174 01e9 1D696E7B 		.ascii	"\035in{\276\230#JLRx\026\006\233\376\214\365\333\343"
 174      BE98234A 
 174      4C527816 
 174      069BFE8C 
 174      F5DBE3
 175 01fc 87E0A0C4 		.ascii	"\207\340\240\304\012~\027\356\240\304Jr\301k\225BR\302"
 175      0A7E17EE 
 175      A0C44A72 
 175      C16B9542 
 175      52C2
 176 020e 396AE731 		.ascii	"9j\3471g\333\025\352\372[^f\372\263\222:e\354\2402x"
 176      67DB15EA 
 176      FA5B5E66 
 176      FAB3923A 
 176      65ECA032 
 177 0223 B60CC5B0 		.ascii	"\266\014\305\260S\235\267]\252\204\015vl\341\312\026"
 177      539DB75D 
 177      AA840D76 
 177      6CE1CA16 
 178 0233 D684F039 		.ascii	"\326\204\3609\271\240\274y\361\365\177\274\201b\336"
 178      B9A0BC79 
 178      F1F57FBC 
 178      8162DE
 179 0242 BC55DE4C 		.ascii	"\274U\336Lm\345M\010_R\347\037\217cF\010'\261:\347\244"
 179      6DE54D08 
 179      5F52E71F 
 179      8F634608 
 179      27B13AE7 
 180 0257 09FB58CF 		.ascii	"\011\373X\317\003b\326\020\265\371O\200Y\365\330\302"
 180      0362D610 
 180      B5F94F80 
 180      59F5D8C2 
 181 0267 E48AA526 		.ascii	"\344\212\245&\377\230\331n]\011T)\026\033\277\234L\324"
 181      FF98D96E 
 181      5D095429 
ARM GAS  /tmp/ccKFEoRE.s 			page 14


 181      161BBF9C 
 181      4CD4
 182 0279 F8FD9AFD 		.ascii	"\370\375\232\375\217'5#\245%\015]\323\333\333z;#\261"
 182      8F273523 
 182      A5250D5D 
 182      D3DBDB7A 
 182      3B23B1
 183 028c A8EED781 		.ascii	"\250\356\327\201\245\022\256v\031I$D2\332'E\302\210"
 183      A512AE76 
 183      19492444 
 183      32DA2745 
 183      C288
 184 029e C659E222 		.ascii	"\306Y\342\"\217\030\227\\\335\221\216.Y\277!?\0217R"
 184      8F18975C 
 184      DD918E2E 
 184      59BF213F 
 184      113752
 185 02b1 49ED4430 		.ascii	"I\355D0\320\022\350!\"=n\310p\367\321\230\277\035\032"
 185      D012E821 
 185      223D6EC8 
 185      70F7D198 
 185      BF1D1A
 186 02c4 7291B227 		.ascii	"r\221\262'\245\265\004ZO\267j\321N\275\243\253Mj\012"
 186      A5B5045A 
 186      4FB76AD1 
 186      4EBDA3AB 
 186      4D6A0A
 187 02d7 A9C74E76 		.ascii	"\251\307Nvu\352\004\256\014\264\006}\027\"II\0136\370"
 187      75EA04AE 
 187      0CB4067D 
 187      17224949 
 187      0B36F8
 188 02ea F6350233 		.ascii	"\3665\0023\300\023\223\261\270\321\013\177\0013\356"
 188      C01393B1 
 188      B8D10B7F 
 188      0133EE
 189 02f9 2361     		.ascii	"#a"
 190              		.text
 191              		.section	.gnu.lto_chThdCreateFromMemoryPool.528bfc2a99b116e2,"",%progbits
 192 0000 789C9553 		.ascii	"x\234\225S_HSQ\030\377\276s\356\335\234\245i\177${\320"
 192      5F485351 
 192      18FFBE73 
 192      EEDD9CA5 
 192      697F247B 
 193 0015 211659B2 		.ascii	"!\026Y\262)\005\371X\010Q\304\036\232\004\021,Y\327"
 193      2905F958 
 193      0851C41E 
 193      9A04112C 
 193      59D7
 194 0027 6B8E9C1B 		.ascii	"k\216\234\033\3334\355!o\253\207\236B\002\241\002!\221"
 194      DB34ED21 
 194      6FAB879E 
 194      4202A102 
 194      2191
 195 0039 1291A87C 		.ascii	"\022\221\250|\210\015\037\212\312\220)>EOBRV/>\225D"
 195      880D1F8A 
 195      CA90293E 
ARM GAS  /tmp/ccKFEoRE.s 			page 15


 195      454F4252 
 195      562F3E95 
 196 004e 8560DF39 		.ascii	"\205`\3379\367^\335t\223:\333\275\337\275\347|\277\337"
 196      F75EDD74 
 196      933ADBBD 
 196      DFBDE77C 
 196      BFDF
 197 0060 EFBBBFF3 		.ascii	"\357\273\277\363\035\006H\277\315\343\010]WT\200g\024"
 197      1D0648BF 
 197      CDE3085D 
 197      57548067 
 197      14
 198 0071 51056403 		.ascii	"Q\005d\003s\0007\334\214)\031\016\306A\376.\003`4pT"
 198      730037DC 
 198      8C29190E 
 198      C641FE2E 
 198      03603470 
 199 0086 CC790551 		.ascii	"\314y\005Q<\020U?\343\012\366\237\223\234\274\006\206"
 199      3C10553F 
 199      E30AF69F 
 199      939CBC06 
 199      86
 200 0097 0DE3EEC0 		.ascii	"\015\343\356\300\233\344\251\344\302\352j\265.f[\021"
 200      9BE4A9E4 
 200      C2EA6AB5 
 200      2E665B11 
 201 00a7 32E9D18A 		.ascii	"2\351\321\212J\320\021\301\015\"2Pr\325-\334M\303\306"
 201      4AD011C1 
 201      0D223250 
 201      72D52DDC 
 201      4DC3C6
 202 00ba 71063528 		.ascii	"q\0065(\240\313\251\366\377C*\014\016H\344J\252gK\344"
 202      A0CBA9F6 
 202      FF432A0C 
 202      0E48E44A 
 202      AA674BE4 
 203 00ce 52EA3B5F 		.ascii	"R\352;_\231t\274d\257\026V\373ka\304\242\321QeP'\031"
 203      9974BC64 
 203      AF1656FB 
 203      6B61C4A2 
 203      D1516550 
 204 00e4 1653137C 		.ascii	"\026S\023|3\005\317\316u0\250\227\271\267\033\363\210"
 204      3305CFCE 
 204      7530A897 
 204      B9B71BF3 
 204      88
 205 00f5 D13A6467 		.ascii	"\321:dg;\0314\312\354\245\324O\2267\337\231\223O.\034"
 205      3B1934CA 
 205      ECA5D44F 
 205      9637DF99 
 205      934F2E1C 
 206 0109 95F9BF4A 		.ascii	"\225\371\277J\362fs\272T\250@\010\340\010\326\000\303"
 206      F26673BA 
 206      54A84008 
 206      E008D600 
 206      C3
 207 011a 003EC25A 		.ascii	"\000>\302Z\340\364>L\357*\305\207\024\0354?J\363N\212"
ARM GAS  /tmp/ccKFEoRE.s 			page 16


 207      E0F43E4C 
 207      EF2AC587 
 207      141D343F 
 207      4AF34E8A 
 208 012e 63148B28 		.ascii	"c\024\213(\216StY8\032*\3342\2142n\342\314\331\220T"
 208      8E537459 
 208      381A2ADC 
 208      328C326E 
 208      E2CCD990 
 209 0143 96E3AC88 		.ascii	"\226\343\254\210b\277\375\244-\036\370,(\363\351\252"
 209      62BFFDA4 
 209      2D1EF82C 
 209      28F3E9AA 
 210 0153 003E217D 		.ascii	"\000>!}\015\3715\370m\024\351X\204\255\210&FC\246\243"
 210      0DF935F8 
 210      6D14E958 
 210      84AD8826 
 210      4643A6A3 
 211 0167 0BE01D30 		.ascii	"\013\340\03500\323LnJ\006\230\202\267_q1\275o\015_)"
 211      30D34C6E 
 211      4A069882 
 211      B75F7131 
 211      BD6F0D5F 
 212 017c 3F267BF8 		.ascii	"?&{\370\305;5\035'\0024\253\263\212\264\350\266h\201"
 212      C53B351D 
 212      270234AB 
 212      B38AB4E8 
 212      B66881
 213 018f 62064DB2 		.ascii	"b\006M\262\370?3\037\277\344\363y}\210\311bZ\004\230"
 213      F83F331F 
 213      BFE4F379 
 213      7D88C962 
 213      5A0498
 214 01a2 81247EBA 		.ascii	"\201$~\2723\370\271)G\214\234z.\035y\232#)\316\320 "
 214      33F8B929 
 214      478C9C7A 
 214      2E1D799A 
 214      2329CED0 
 215 01b7 55486EC8 		.ascii	"UHn\310\033@\025<\306!\343\336q\035\267\345\320\256"
 215      1B40153C 
 215      C621E3DE 
 215      711DB7E5 
 215      D0AE
 216 01c9 2D8F59CB 		.ascii	"-\217Y\313\333%A\006\222\027\304\251\260\035P\017\303"
 216      DB254106 
 216      9217C4A9 
 216      B01D500F 
 216      C3
 217 01da 211D4BF8 		.ascii	"!\035K\370\003\270\217:\2262\262\257Rn.\300\264\223"
 217      03B88F3A 
 217      9632B2AF 
 217      526E2EC0 
 217      B493
 218 01ec 6E1785AB 		.ascii	"n\027\205\253\323f\011\263\260\267\303\306\271,\347"
 218      D36609B3 
 218      B0B7C3C6 
 218      B92CE7
ARM GAS  /tmp/ccKFEoRE.s 			page 17


 219 01fb 7790F3CC 		.ascii	"w\220\363\314v\236\023\237\206\016\015\235\032\322Z"
 219      769E139F 
 219      860E0D9D 
 219      1AD25A
 220 020a 59EE2E8C 		.ascii	"Y\356.\214\310]p\311\032\232\336O^7\347\245~\271\245"
 220      C85D70C9 
 220      1A9ADE4F 
 220      5E37E7A5 
 220      7EB9A5
 221 021d BF93F45D 		.ascii	"\277\223\364]B_\270u^\312\343\272_\345\362\223\010}"
 221      425FB875 
 221      5ECAE3BA 
 221      5FE5F293 
 221      087D
 222 022f 663E07CD 		.ascii	"f>\007\315\013\243\031\330M!\312W\027m\034\200U\377"
 222      0BA319D8 
 222      4D21CA57 
 222      176D1C80 
 222      55FF
 223 0241 2EAA9FDB 		.ascii	".\252\237\333\365K\360n\331\341{d\355\033\032\240@\037"
 223      F54BF06E 
 223      D9E17B64 
 223      ED1B1AA0 
 223      401F
 224 0253 14688600 		.ascii	"\024h\206\000N\220\254\350\206\361\037\377\324\015\260"
 224      4E90ACE8 
 224      86F11FFF 
 224      D40DB0
 225 0262 55374CC9 		.ascii	"U7L\311nx]\250\033\002\370\202\036\326y\254\355\017"
 225      6E785DA8 
 225      1B02F882 
 225      1ED679AC 
 225      ED0F
 226 0274 601AABB2 		.ascii	"`\032\253\262z[1O\321\034 \332;)?\376\003\240m\034\313"
 226      7A5B314F 
 226      D11C20DA 
 226      3B293FFE 
 226      03A06D1C 
 227 0289 0C7D1346 		.ascii	"\014}\023F\362\345\311Rq\002QB\004[\265\307\3435\377"
 227      F2E5C952 
 227      71025142 
 227      045BB5C7 
 227      E335FF
 228 029c 91B83796 		.ascii	"\221\2707\226\360\306c\232W\353h\353\353\012\206C\232"
 228      F0C6639A 
 228      57EB68EB 
 228      EB0A8643 
 228      9A
 229 02ad 47037E35 		.ascii	"G\003~5\036e\211(\013G\225h,\024a\321v\036\214]V{\202"
 229      1E658928 
 229      0B479568 
 229      2C1461D1 
 229      761E8C5D 
 230 02c4 9DDD7ADD 		.ascii	"\235\335z\335\006l4\022K\304\275'\374\276f_/\221h\221"
 230      066C3412 
 230      4BC4BD27 
 230      FCBE665F 
ARM GAS  /tmp/ccKFEoRE.s 			page 18


 230      2F916891 
 231 02d8 98DEDA73 		.ascii	"\230\336\332s,\354\351\200\372\354L\2757\341m\366\265"
 231      2CECE980 
 231      FAEC4CBD 
 231      37E16DF6 
 231      B5
 232 02e9 9C6EF186 		.ascii	"\234n\361\206\272\264\316\3566\335+3\265\360\311\356"
 232      BAB4CEEE 
 232      36DD2B33 
 232      B5F0C9EE 
 233 02f9 2E8D92CB 		.ascii	".\215\222\313|-~\367\245`\\'\301z\367\376\006`1p\206"
 233      7C2D7EF7 
 233      A5605C27 
 233      C17AF7FE 
 233      06603170 
 234 030e F57024D6 		.ascii	"\365p$\326\007\177\001\274\2428'"
 234      077F01BC 
 234      A23827
 235              		.text
 236              		.section	.gnu.lto_.cgraph.528bfc2a99b116e2,"",%progbits
 237 0000 789C45C8 		.ascii	"x\234E\310=\012\302@\030\204\341\231\3756\331M\016\341"
 237      3D0AC240 
 237      1884E199 
 237      FD36D94D 
 237      0EE1
 238 0012 55BFC082 		.ascii	"U\277\300\202\0106^@\033\361\037\324\322\332\3649\202"
 238      08365E40 
 238      1BF11FD4 
 238      D2DAF439 
 238      82
 239 0023 28569EC0 		.ascii	"(V\236\300Jqct3\315\360\274\006\204\000\270\3407s\242"
 239      4A716374 
 239      33CDF0BC 
 239      068400B8 
 239      E03773A2 
 240 0037 029306AA 		.ascii	"\002\223\006\252\323\021\315\202\312N\263\250%\325\364"
 240      D311CD82 
 240      CA4EB3A8 
 240      25D5F4
 241 0046 5A51A5D7 		.ascii	"ZQ\245\327\232j\223x\244f_U\025y\240\346\011;\252K\330"
 241      9A6A9378 
 241      A4665F55 
 241      1579A0E6 
 241      093BAA4B 
 242 005b 527DC29E 		.ascii	"R}\302\236Z$l\250\345\037\202\014\367\333\233br\204"
 242      5A246CA8 
 242      E51F820C 
 242      F7DB9B62 
 242      7284
 243 006d 71131F38 		.ascii	"q\023\0378\267/\005\3025v\361\230?\236\361\035\302\360"
 243      B72F05C2 
 243      3576F198 
 243      3F9EF11D 
 243      C2F0
 244 007f 35105B76 		.ascii	"5\020[v\335z\324m\267\016u\354\370\000\206\366Fk"
 244      DD7AD46D 
 244      B70E75EC 
ARM GAS  /tmp/ccKFEoRE.s 			page 19


 244      F80086F6 
 244      466B
 245              		.text
 246              		.section	.gnu.lto_.vars.528bfc2a99b116e2,"",%progbits
 247 0000 789C6362 		.ascii	"x\234cb`d`f`\000\222P\000\000\000r\000\010"
 247      60646066 
 247      60009250 
 247      00000072 
 247      0008
 248              		.text
 249              		.section	.gnu.lto_.refs.528bfc2a99b116e2,"",%progbits
 250 0000 789C6362 		.ascii	"x\234cb`d`f```b\200\001\000\000\204\000\011"
 250      60646066 
 250      60606062 
 250      80010000 
 250      840009
 251              		.text
 252              		.section	.gnu.lto_.statics.528bfc2a99b116e2,"",%progbits
 253 0000 789C6362 		.ascii	"x\234cb`d`b\300\016@\342\214\020&\000\000\375\000\011"
 253      60646062 
 253      C00E40E2 
 253      8C102600 
 253      00FD0009 
 254              		.text
 255              		.section	.gnu.lto_.decls.528bfc2a99b116e2,"",%progbits
 256 0000 789CAD5A 		.ascii	"x\234\255Z\177p\024\325\035\177\273\233\273\313%\020"
 256      7F7014D5 
 256      1D7FBB9B 
 256      BBCB2510 
 257 0010 145B26D2 		.ascii	"\024[&\322\216\304V:\352\0149\020*0U\324\342(v\206N"
 257      8EC4563A 
 257      EA0C3910 
 257      2A3055D4 
 257      E2287686 
 258 0025 47EDB4D3 		.ascii	"G\355\264\323\231\233\363\270lrWs?\274\333\360\303\277"
 258      999BF3B8 
 258      6C725773 
 258      3FBCDBF0 
 258      C3BF
 259 0037 8E304A0A 		.ascii	"\2160J\012\024B\252\355\021\240D\024\241\300\200\014"
 259      1442AAED 
 259      11A04414 
 259      A1C0800C 
 260 0047 3F041188 		.ascii	"?\004\021\210\030\001!U\304(\240\021\"DD\014\014\277"
 260      18012155 
 260      C428A011 
 260      2244440C 
 260      0CBF
 261 0059 048AD1F4 		.ascii	"\004\212\321\364\373\336\356\276}\273\267?\356.\331"
 261      FBDEEEBE 
 261      7DBBB73F 
 261      EE2ED9
 262 0068 C9BB7DB7 		.ascii	"\311\273}\267\373\336\347\373\353\363\276\357G\216G"
 262      FBDEE7FB 
 262      EBF3BEEF 
 262      478E47
 263 0077 1CC2D776 		.ascii	"\034\302\327v\036\241>\270\236\031\213\320B\027Bnx\366"
ARM GAS  /tmp/ccKFEoRE.s 			page 20


 263      1EA13EB8 
 263      9E198BD0 
 263      4217426E 
 263      78F6
 264 0089 2014FCB6 		.ascii	" \024\374\266\005\311W)\224\325P\306\302\303\211P\036"
 264      05C95729 
 264      94D550C6 
 264      C2C38950 
 264      1E
 265 009a 823217CA 		.ascii	"\2022\027\312\353P\326A\331\010e\013\224\267\241\274"
 265      EB50D641 
 265      D908650B 
 265      94B7A1BC 
 266 00aa C3A1AC0B 		.ascii	"\303\241\254\013\367-Q0\313\240\014\202r\005\312$(k"
 266      F72D5130 
 266      CBA00C82 
 266      7205CA24 
 266      286B
 267 00bc A1144159 		.ascii	"\241\024AY\007\345=h\260\032\212\000\365N(\237A\031"
 267      07E53D68 
 267      B01A8A00 
 267      F54E289F 
 267      4119
 268 00ce 05DF7905 		.ascii	"\005\337y\005\343u\245\276\017\356\373\015r\260n^\203"
 268      E375A5BE 
 268      0FEEFB0D 
 268      72B06E5E 
 268      83
 269 00df 0C8CBD0D 		.ascii	"\014\214\275\015\312\001xx\220\223e\256S\332\\V\356"
 269      CA017878 
 269      909365AE 
 269      53DA5C56 
 269      EE
 270 00f0 B81FBEB7 		.ascii	"\270\037\276\267\033\360\260\235\267\232\340]1`b\274"
 270      1BF0B09D 
 270      B79AE05D 
 270      316062BC 
 271 0100 33502E28 		.ascii	"3P.(~\303\266\034\201\347\353\241|\014e\015|w)\362\276"
 271      7EC3B61C 
 271      81E7EBA1 
 271      7C0C650D 
 271      7C7729F2 
 272 0115 82729EB1 		.ascii	"\202r\236\261MP\344`\037\256V\372v@\3758\224\317\240"
 272      4D50E460 
 272      1FAE56FA 
 272      7640FD38 
 272      94CFA0
 273 0128 7C6ED009 		.ascii	"|n\320\011\373\375'\212\337X\235~\013\317\247B\331\014"
 273      FBFD278A 
 273      DF589D7E 
 273      0BCFA742 
 273      D90C
 274 013a F53AB877 		.ascii	"\365:\270wB\331\305\351\365\374\002\312VN\326\023\353"
 274      42D9C5E9 
 274      F5FC02CA 
 274      564ED613 
 274      EB
ARM GAS  /tmp/ccKFEoRE.s 			page 21


 275 014b 7C8293E3 		.ascii	"|\202\223\343\373\206b\377yE\376CJ\034\267(q5^8\356"
 275      FB8662FF 
 275      7945FE43 
 275      4A1CB728 
 275      71355E38 
 276 0160 C3149B54 		.ascii	"\303\024\233T\035\3248\316ct8\011e\257A\007\254\343"
 276      1DD438CE 
 276      63743809 
 276      65AF4107 
 276      ACE3
 277 0172 7C075DB0 		.ascii	"|\007]\260O2\234\254\017\216}\221\"\363\035F'\254V\227"
 277      4F329CAC 
 277      0F8E7D91 
 277      22F31D46 
 277      27AC5697 
 278 0186 41372F6A 		.ascii	"A7/jH\303\325\362bz\312\001\320\353v\344\347\312\200"
 278      48C3D5F2 
 278      627ACA01 
 278      D0EB76E4 
 278      E7CA80
 279 0199 0F15A436 		.ascii	"\017\025\2446\310+\003\215D\257\245\323\215\320\214"
 279      C82B038D 
 279      44AFA5D3 
 279      8DD08C
 280 01a8 F3732D9C 		.ascii	"\363s-\234\027\310\304s\350^\364\2374\271\024D\345V"
 280      17C8C473 
 280      E85EF49F 
 280      34B91444 
 280      E556
 281 01ba 8C7E3CBB 		.ascii	"\214~<\273\271G(\020\3755\202\376(\007\257_\345\356"
 281      B9472810 
 281      FD3582FE 
 281      2807AF5F 
 281      E5EE
 282 01cc 459717EC 		.ascii	"E\227\027\354\3317J\206\362sn/\2538\371.\267\222\201"
 282      D9374A86 
 282      F2736E2F 
 282      AB38F92E 
 282      B79281
 283 01df F16B2CEC 		.ascii	"\361k,\354\006\036\226\\\237zq\352;\374\305\203\006"
 283      061E965C 
 283      9F7A71EA 
 283      3BFCC583 
 283      06
 284 01f0 026204FA 		.ascii	"\002b\004\372w\272\265\253qN\375\024h\350\031\206^V"
 284      77BAB5AB 
 284      714EFD14 
 284      68E81986 
 284      5E56
 285 0202 6C4C7392 		.ascii	"lLs\222\237{\360\247\026fbyk\270a\244&\220\361\010\011"
 285      9F7BF0A7 
 285      16666279 
 285      6BB861A4 
 285      2690F108 
 286 0217 625E3A5D 		.ascii	"b^:]\257\270g(Z\214q*XG\265\024Q\210G\021\036\304\357"
 286      AFB86728 
 286      5A8C712A 
ARM GAS  /tmp/ccKFEoRE.s 			page 22


 286      5847B514 
 286      51884711 
 287 022e 70D835EB 		.ascii	"p\3305\353\270\241\212\336\304wi\331w\370)R\236\237"
 287      B8A18ADE 
 287      C47769D9 
 287      77F82952 
 287      9E9F
 288 0240 5A76657F 		.ascii	"Zve\177y6\013\321\320;Q\013\210l\234\223\236\342\366"
 288      79360BD1 
 288      D03B510B 
 288      886C9C93 
 288      9EE2F6
 289 0253 736BB952 		.ascii	"sk\271R\300\374\206bv\2548\307\231+\257\326\345Km\243"
 289      C0FC8662 
 289      76AC38C7 
 289      992BAFD6 
 289      E54B6DA3 
 290 0267 5C269817 		.ascii	"\\&\230\027)f\367\210|\020+\262\020\011\205\352\363"
 290      2966F788 
 290      7C102BB2 
 290      100985EA 
 290      F3
 291 0278 A0D06642 		.ascii	"\240\320fB\241\353\234\312\241\037\217\351\351\230\017"
 291      A1EB9CCA 
 291      A11F8FE9 
 291      E9980F
 292 0287 D63682D5 		.ascii	"\3266\202\325\307i|\374h\237O%\217\307\300G\217\236"
 292      C7697CFC 
 292      689F4F25 
 292      8FC7C047 
 292      8F9E
 293 0299 4CF26BB5 		.ascii	"L\362k\265\206\2513\004\345\337\201G\015\274\352\312"
 293      86A93304 
 293      E5DF8147 
 293      0DBCEACA 
 294 02a9 53CB7ED8 		.ascii	"S\313~\330?\321\336\233\305\226\361I\023o*$kq[\333\317"
 294      3FD1DE9B 
 294      C596F149 
 294      136F2A24 
 294      6B715BDB 
 295 02be A34544E2 		.ascii	"\243ED\342NS\222\355dH\266{\325\321Cf$\343\230\3609"
 295      4E5392ED 
 295      6448B67B 
 295      D5D14366 
 295      24E398F0 
 296 02d3 539CA7D2 		.ascii	"S\234\247\322\357\"\322w\021\351\255\246\322[\031\351"
 296      EF22D277 
 296      11E9ADA6 
 296      D25B19E9 
 297 02e3 67D67F3E 		.ascii	"g\326\177>\304D\270\327J\270\315\320dC\336F\370{\205"
 297      C444B8D7 
 297      4AB8CDD0 
 297      6443DE46 
 297      F87B85
 298 02f6 E7A8917B 		.ascii	"\347\250\221{\016\216P#6\251T\037A\370\256F\220\350"
 298      0E8E5023 
 298      36A9541F 
ARM GAS  /tmp/ccKFEoRE.s 			page 23


 298      41F8AE46 
 298      90E8
 299 0308 DE4B753F 		.ascii	"\336Ku?\263~\323\221{\372;\226d]\372(h\373\023\375\033"
 299      B37ED391 
 299      7BFA3B96 
 299      645DFA28 
 299      68FB13FD 
 300 031d 4B2A62BD 		.ascii	"K*b\275\240\"v8 Z\363I\217\370\002E\354\314\013\321"
 300      A0227638 
 300      205AF349 
 300      8FF80245 
 300      ECCC0BD1 
 301 0331 5AC7068A 		.ascii	"Z\307\006\212\330\355\200xK\216:\316\247\210=y!Z\353"
 301      D8ED8078 
 301      4B8E3ACE 
 301      A7883D79 
 301      215AEB
 302 0344 B890225E 		.ascii	"\270\220\"^u@,\317Q\307&\212\330\233\027\242\265\216"
 302      75402CCF 
 302      51C7268A 
 302      D89B17A2 
 302      B58E
 303 0356 FFA4886D 		.ascii	"\377\244\210m\277\263G\2540\3231\213S\306)m\017G\307"
 303      BFB347AC 
 303      30D3318B 
 303      53C6296D 
 303      0F47C7
 304 0369 048F9608 		.ascii	"\004\217\226\010j\346\330\275\352\370!_\001\374\247"
 304      6AE6D8BD 
 304      EAF8215F 
 304      01FCA7
 305 0378 50CB052D 		.ascii	"P\313\005-\355\365\345\227\366\314\234!OK\257R\320\366"
 305      EDF5E597 
 305      F6CC9C21 
 305      4F4BAF52 
 305      D0F6
 306 038a 354E539D 		.ascii	"5NS\2353\255d\314u\024\263\343\356\376\321J\227\256"
 306      33AD64CC 
 306      7514B3E3 
 306      EEFED14A 
 306      97AE
 307 039c 94B9AA6B 		.ascii	"\224\271\252kUky\206I\227\305\024\015\257\267\264\334"
 307      556B7986 
 307      4997C514 
 307      0DAFB7B4 
 307      DC
 308 03ad 489BA7CB 		.ascii	"H\233\247\313\313\255Z\373\271/\271\221\360y\212\363"
 308      CBAD5AFB 
 308      B92FB991 
 308      F0798AF3 
 309 03bd 524D943A 		.ascii	"RM\224:\255\366\221\275\302f\001\2677Y\306\346\320\333"
 309      ADF691BD 
 309      C26601B7 
 309      3759C6E6 
 309      D0DB
 310 03cf 9A2A2759 		.ascii	"\232*'Y\252l\327B\341\220'm\306\316\305\372t\271\233"
 310      AA6CD742 
ARM GAS  /tmp/ccKFEoRE.s 			page 24


 310      E190276D 
 310      C6CEC5FA 
 310      74B99B
 311 03e2 31DDC153 		.ascii	"1\335\301SJ\212?Cf\365=\002]!\2541\256\020r\307\372"
 311      4A8A3F43 
 311      66F53D02 
 311      5D21AC31 
 311      AE1072C7 
 312 03f7 86601D10 		.ascii	"\206`\035\020\264\025\302\326\037x\325U\234a\205\300"
 312      B415C2D6 
 312      1F78D555 
 312      9C6185C0 
 313 0407 E9277CCD 		.ascii	"\351'|\315y\252\357\362k\315\243\303\314 9~p\242\271"
 313      79AAEFF2 
 313      6BCDA3C3 
 313      CC20397E 
 313      70A2B9
 314 041a BA39648C 		.ascii	"\2729d\214\302\374x\201\330~L\363c\206\372QvL\276\346"
 314      C2FC7881 
 314      D87E4CF3 
 314      6386FA51 
 314      764CBEE6 
 315 042e 7431E65C 		.ascii	"t1\346\\\312\317\234\273\373o\316\025b\316Y\315\234"
 315      CACF9CBB 
 315      FB6FCE15 
 315      62CE59CD 
 315      9C
 316 043f EDFD34E7 		.ascii	"\355\3754\347\"c\316\367\371\2313\2321G^\271\335\206"
 316      2263CEF7 
 316      F999339A 
 316      31475EB9 
 316      DD86
 317 0451 9A9C566E 		.ascii	"\232\234VnX\255\033\334m({\335\204\237\252\353\246\366"
 317      58AD1BDC 
 317      6D287BDD 
 317      849FAAEB 
 317      A6F6
 318 0463 0D6528FB 		.ascii	"\015e(\373*bD\251\233\274\353D\177\334\267m\343\231"
 318      2A6244A9 
 318      9BBCEB44 
 318      7FDCB76D 
 318      E399
 319 0475 8237067A 		.ascii	"\2027\006z\314\037)fo!\323\203.\377N\302\351wn\221\012"
 319      CC1F2966 
 319      6F21D383 
 319      2EFF4EC2 
 319      E9776E91 
 320 048a 78757B7F 		.ascii	"xu{\177w/y\357\017f\363\330\246\205E\2242\015[5\312"
 320      772F79EF 
 320      0F66F3D8 
 320      A6854594 
 320      320D5B35 
 321 049f 6C335226 		.ascii	"l3R&\267\365~35\350\324\262\235\0378L|\246\026)\027"
 321      B7F57E33 
 321      35E8D4B2 
 321      9D1F384C 
 321      7CA61629 
ARM GAS  /tmp/ccKFEoRE.s 			page 25


 322 04b4 8F5E2952 		.ascii	"\217^)R\011\330\353\200S\341\020\276\034\366\015\254"
 322      09D8EB80 
 322      53E110BE 
 322      1CF60DAC 
 323 04c4 5FE6F243 		.ascii	"_\346\362CA\374*\352\227\236\245\012\347r\300\301\236"
 323      41FC2AEA 
 323      979EA50A 
 323      E772C0C1 
 323      9E
 324 04d5 9AC79BAD 		.ascii	"\232\307\233\255\376\361S\225\305\235K\253MX\314e\315"
 324      FEF15395 
 324      C59D4BAB 
 324      4D58CC65 
 324      CD
 325 04e6 CF7E6E23 		.ascii	"\317~n#\307+\210\335K\013\"H\366\305*\350\347\346\363"
 325      C72B88DD 
 325      4B0B2248 
 325      F6C52AE8 
 325      E7E6F3
 326 04f9 231168B7 		.ascii	"#\021h\267\200\277S\363\374\026\352\371\356\267\234"
 326      80BF53F3 
 326      FC16EAF9 
 326      EEB79C
 327 0508 868EDEF7 		.ascii	"\206\216\336\367\025:\337\247\031\337?\314\372\354a"
 327      153ADFA7 
 327      19DF3FCC 
 327      FAEC61
 328 0517 DDDA87F5 		.ascii	"\335\332\207\365\375\"\342\373\335\324\367W\233\015"
 328      FD22E2FB 
 328      DDD4F757 
 328      9B0D
 329 0525 BEB7C1C1 		.ascii	"\276\267\301\301\2465\231\372\276\211\365}\263\231\357"
 329      A63599FA 
 329      BE89F57D 
 329      B399EF
 330 0534 794BDFE3 		.ascii	"yK\337\343\276\335\315\003s\264\340\3476Q\314\236\341"
 330      BEDDCD03 
 330      73B4E0E7 
 330      3651CC9E 
 330      E1
 331 0545 F9205658 		.ascii	"\371 VXG\263\211\211\346? \232\274\237{\011\314\361"
 331      47B38989 
 331      E63F209A 
 331      BC9F7B09 
 331      CCF1
 332 0557 732FB331 		.ascii	"s/\2631\375\200\306\264c\247\026S\275\003\325\372\335"
 332      FD80C6B4 
 332      63A71653 
 332      BD03D5FA 
 332      DD
 333 0568 96C6E8D3 		.ascii	"\226\306\350\323\341q\212y\3657\366\306\214vt\217\234"
 333      E1718A79 
 333      F537F6C6 
 333      8C76748F 
 333      9C
 334 0579 8C4E6ACC 		.ascii	"\214Nj\314{ \037\304\212,D\307\255{\232\323-myt\216"
 334      7B201FC4 
ARM GAS  /tmp/ccKFEoRE.s 			page 26


 334      8A2C44C7 
 334      AD7B9AD3 
 334      2D6D7974 
 335 058e C85E6E4A 		.ascii	"\310^nJ\240\345\014\201V~\370\321\011\263\203\003\201"
 335      A0E50C81 
 335      567EF8D1 
 335      09B38303 
 335      81
 336 059f 61BD4AE4 		.ascii	"a\275J\344F\227\212\331\371f\231\275\323sc\020\2172"
 336      46978AD9 
 336      F96699BD 
 336      D3736310 
 336      8F32
 337 05b1 14B2E768 		.ascii	"\024\262\347h\231\275\217\234\366\277\371\372\210\035"
 337      99BD8F9C 
 337      F6BFF9FA 
 337      881D
 338 05bf A8AF13FB 		.ascii	"\250\257\023\373Z\\4I~Z\252\022Rv\026\303\320\345\014"
 338      5A5C3449 
 338      7E5AAA12 
 338      527616C3 
 338      D0E50C
 339 05d2 43570043 		.ascii	"CW\000C\005 \020a\350J\362\371\232\306S\353\244\272"
 339      05201061 
 339      E84AF2F9 
 339      9AC653EB 
 339      A4BA
 340 05e4 8A6796DF 		.ascii	"\212g\226\337k\250\017z\363\363A\205.b\326\322\226\261"
 340      6BA80F7A 
 340      F3F34185 
 340      2E62D6D2 
 340      96B1
 341 05f6 D236BAB4 		.ascii	"\3226\272\264\225\320\233C\354\305Mp\214\242|\302\267"
 341      95D09B43 
 341      ECC54D70 
 341      8CA27CC2 
 341      B7
 342 0607 8362F6EE 		.ascii	"\203b\366\356rJ\261\023\014\312fc\222\265D\033\205\354"
 342      724AB113 
 342      0CCA6663 
 342      92B5441B 
 342      85EC
 343 0619 D9ED94AE 		.ascii	"\331\355\224\256\0366S\323\321+r\012\243'F\300\202\247"
 343      1E3653D3 
 343      D12B720A 
 343      A32746C0 
 343      82A7
 344 062b 05EAA576 		.ascii	"\005\352\245vJ\205\225'.]\010\313\217\357B\257\246\323"
 344      4A859527 
 344      2E5D08CB 
 344      8FEF42AF 
 344      A6D3
 345 063d 4D584B95 		.ascii	"MXK\225\276i7n\266\232\033\201\216y,$\311M\321\257\320"
 345      BE69376E 
 345      B69A1B81 
 345      8E792C24 
 345      C94DD1AF 
ARM GAS  /tmp/ccKFEoRE.s 			page 27


 346 0652 2ACCB6D6 		.ascii	"*\314\266\326\372rr\370\205\224na\035\2656\362<\253"
 346      FA7272F8 
 346      85946E61 
 346      1DB536F2 
 346      3CAB
 347 0664 3B3EDC6E 		.ascii	";>\334n\351\302\362L\016\2671\252\265q[x\335\351\266"
 347      E9C2F24C 
 347      0EB731AA 
 347      B5715B78 
 347      DDE9B6
 348 0677 DC5C6FE2 		.ascii	"\334\\o\342\0347e{&fn dx\036g\370\315\374\010\224\361"
 348      1C37657B 
 348      26666E20 
 348      64781E67 
 348      F8CDFC08 
 349 068d E660607D 		.ascii	"\346``}\343\273\365J_\244\364\333.XiI\232l\2631y\356"
 349      E3BBF54A 
 349      5FA4F4DB 
 349      2E586949 
 349      9A6CB331 
 350 06a3 2DF91CE8 		.ascii	"-\371\034\350\277\345l\362\"jr\347\322\341\366&\357"
 350      BFE56CF2 
 350      226A72E7 
 350      D2E1F626 
 350      EF
 351 06b4 E0738C69 		.ascii	"\340s\214iZ\027S\334M\037\323\267\007,\246\255\274\363"
 351      5A1753DC 
 351      4D1FD3B7 
 351      072CA6AD 
 351      BCF3
 352 06c6 7F2C1A4E 		.ascii	"\177,\032N3\333\376\264v\236[\201\364\011\357]\222\360"
 352      33DBFEB4 
 352      769E5B81 
 352      F409EF5D 
 352      92F0
 353 06d8 96517F9C 		.ascii	"\226Q\177\234;\263\351\344\003\262\206\271@\361\350"
 353      3BB3E9E4 
 353      03B286B9 
 353      40F1E8
 354 06e7 10E9BACF 		.ascii	"\020\351\272\317t~\331\307\314/m\315\323P\366%X\345"
 354      747ED9C7 
 354      CC2F6DCD 
 354      D350F625 
 354      58E5
 355 06f9 6D834326 		.ascii	"m\203C&\331\371\343\220\336\037y\357\030\376K&\351\243"
 355      D9F9E390 
 355      DE1F79EF 
 355      18FE4B26 
 355      E9A3
 356 070b D40737CF 		.ascii	"\324\0077\317o\372\366\177.5n.\303\216\301\245\3371"
 356      6FFAF67F 
 356      2E356E2E 
 356      C38EC1A5 
 356      DF31
 357 071d B8E88EC1 		.ascii	"\270\350\216\301\245\355\030X\2669\313?\310\343\024"
 357      A5ED1858 
 357      B639CB3F 
ARM GAS  /tmp/ccKFEoRE.s 			page 28


 357      C8E314
 358 072c B2C3A3CA 		.ascii	"\262\303\243\312\177\253\367\322\347\367\310\235\015"
 358      7FABF7D2 
 358      E7F7C89D 
 358      0D
 359 0739 A7E5D852 		.ascii	"\247\345\330Rk?\034\341u\211L\247\265\341\035\254\013"
 359      6B3F1CE1 
 359      75894CA7 
 359      B5E11DAC 
 359      0B
 360 074a 3C6ADC20 		.ascii	"<j\334 \344\3472\026\014\317a+\3312'\335 \250[\341V"
 360      E4E73216 
 360      0CCF612B 
 360      D93227DD 
 360      20A85BE1 
 361 075f B78E2DFA 		.ascii	"\267\216-\3725\001\217\276#B?\341\315\366\303\370\251"
 361      35018FBE 
 361      23423FE1 
 361      CDF6C3F8 
 361      A9
 362 0770 4A968ECC 		.ascii	"J\226\216\314\035&dQV\263\262@%\312\255/\246\033\270"
 362      1D266451 
 362      56B3B240 
 362      25CAAD2F 
 362      A61BB8
 363 0783 D99B7E9E 		.ascii	"\331\233~\236\313*\3748\211\363\354b\355\337\010'\017"
 363      CB2AFC38 
 363      89F3EC62 
 363      EDDF0827 
 363      0F
 364 0794 2AFE2800 		.ascii	"*\376(\000\255\223\240-\240h\227\027\\\332\377\200\352"
 364      AD93A02D 
 364      A0689717 
 364      5CDAFF80 
 364      EA
 365 07a5 6EAF8134 		.ascii	"n\257\2014^=i\274\2244^\2054\362?5Q\201\275x\364r\261"
 365      5E3D69BC 
 365      94345E85 
 365      34F23F35 
 365      5181BD78 
 366 07bc EAD97367 		.ascii	"\352\331sg.\235:+\230\353\237C8s\335\336\220\243K\323"
 366      2E9D3A2B 
 366      98EB9F43 
 366      3873DDDE 
 366      90A34BD3 
 367 07d0 51FF2533 		.ascii	"Q\377%3\352\2733f\007\033|\376g(\335\246\234\351f8\323"
 367      EABB3366 
 367      071B7CFE 
 367      6728DDA6 
 367      9CE96638 
 368 07e5 931966CD 		.ascii	"\223\031f\315\031\263\177=agY\013\374\232]+-%\336\305"
 368      19B37F3D 
 368      6167590B 
 368      FC9A5D2B 
 368      2D25DEC5 
 369 07f9 D2AE66FA 		.ascii	"\322\256f\372\277g\332K\306{\013\305\354-/|\007\014"
 369      BF67DA4B 
ARM GAS  /tmp/ccKFEoRE.s 			page 29


 369      C67B0BC5 
 369      EC2D2F7C 
 369      070C
 370 080b 3B7A8283 		.ascii	";z\202\203\235\336\266\344\216\376\252&\247\302\325"
 370      9DDEB6E4 
 370      8EFEAA26 
 370      A7C2D5
 371 081a 14B27D49 		.ascii	"\024\262}I~\207L\025\006\345\326SZv,\031V\000')\320"
 371      7E874C15 
 371      06E5D653 
 371      5A762C19 
 371      56002729 
 372 082f 8662355D 		.ascii	"\206b5]u6;m\364\354\376\341*oc\344e\376V\212\251\355"
 372      75363B6D 
 372      F4ECFEE1 
 372      2A6F63E4 
 372      65FE568A 
 373 0845 5A0D7B03 		.ascii	"Z\015{\003\266\236\323!\304>fSp@\336\024\274O\266\003"
 373      B69ED321 
 373      C43E6653 
 373      7040DE14 
 373      BC4FB603 
 374 0859 1DE4F362 		.ascii	"\035\344\363b.\233\202\275\032\365\\t\021\203#\303\254"
 374      2E9B82BD 
 374      1AF55C74 
 374      118323C3 
 374      AC
 375 086a 693673CC 		.ascii	"i6s\314W\273\231\023\357i\255E]3\256\225&\225\3469y"
 375      57BB9913 
 375      EF69AD45 
 375      5D33AE95 
 375      2695E639 
 376 087f 7D47C8BC 		.ascii	"}G\310\274\223\246\301\015\355M\3272\312\344i\030p\327"
 376      93A6C10D 
 376      ED4DD732 
 376      CAE46918 
 376      70D7
 377 0891 6C67AF9B 		.ascii	"lg\257\2336\263W\326;V_|c\326v_\0273+\366\265;\224\027"
 377      36B357D6 
 377      3B565F7C 
 377      63D6765F 
 377      17332BF6 
 378 08a9 ECF24E1E 		.ascii	"\354\362N\036\177\337\223v{`\235v\266\324\\\253\"\266"
 378      7FDF9376 
 378      7B609D76 
 378      B6D45CAB 
 378      22B6
 379 08bb 13F6BF9F 		.ascii	"\023\366\277\237;O\326\204\270\323\001\213-\223\032"
 379      3B4FD684 
 379      B8D3018B 
 379      2D931A
 380 08ca 2AB6AFBC 		.ascii	"*\266\257\2749\232\355U\005v\257\335\315[\366&\221e"
 380      399AED55 
 380      0576AFDD 
 380      CD5BF626 
 380      9165
 381 08dc 7BCB1E7E 		.ascii	"{\313\036~\221\366>6\330\262/n\252\353K\266P\177\243"
ARM GAS  /tmp/ccKFEoRE.s 			page 30


 381      91F63E36 
 381      D8B22F6E 
 381      AAEB4BB6 
 381      507FA3
 382 08ef 5D6F582B 		.ascii	"]oX+\215\035\251P\317l\005\217{w\256\215\331.\341{\007"
 382      8D1DA950 
 382      CF6C058F 
 382      7B77AE8D 
 382      D92EE17B 
 383 0904 6C85DB20 		.ascii	"l\205\333 \344\367\233\234g(\302 \003=\347\013x\244"
 383      E4F79B9C 
 383      6728C220 
 383      033DE70B 
 383      78A4
 384 0916 FFDDAB72 		.ascii	"\377\335\253r\342\302'\227O\313;O\344\014\204UY(\230"
 384      E2C22797 
 384      4FCB3B4F 
 384      E40C8455 
 384      592898
 385 0929 CD71F829 		.ascii	"\315q\370)=\274\317\230\035\275Y\256ls\372\271G+Q\270"
 385      3DBCCF98 
 385      1DBD59AE 
 385      6C73FAB9 
 385      472B51B8 
 386 093d C9547613 		.ascii	"\311Tv\023+\373_n\023\331\372#\327\305\002&A;E\354p"
 386      2BFB5F6E 
 386      13D9FA23 
 386      D7C50226 
 386      413B45EC 
 387 0952 3A5CD00F 		.ascii	":\\\320\017}\375e\0353,\206\016\302\016\"\015{\251\243"
 387      7DFD651D 
 387      332C860E 
 387      C20E220D 
 387      7BA9A3
 388 0965 90C9CD64 		.ascii	"\220\311\315dN\352\244\210\235\231\202\346$\035\246"
 388      4EEAA488 
 388      9D9982E6 
 388      241DA6
 389 0974 BCE4FE96 		.ascii	"\274\344\376\226b\3668hi:\245d_,]\374\334\"\201\344"
 389      62F63868 
 389      693AA564 
 389      5F2C5DFC 
 389      DC2281E4 
 390 0988 FF460167 		.ascii	"\377F\001g\376\014\371l\026r\310\377\3634O\026\231'"
 390      FE0CF96C 
 390      1672C8FF 
 390      F3344F16 
 390      9927
 391 099a 7C65A4DB 		.ascii	"|e\244\333\245\301\353^-\015.>m\226\006\347\021^,.\301"
 391      A5C1EB5E 
 391      2D0D2E3E 
 391      6D9606E7 
 391      115E2C2E 
 392 09af EDE60A90 		.ascii	"\355\346\012\220\321,\362\212`Le~n\266\300+\235\032"
 392      D12CF28A 
 392      604C657E 
 392      6EB6C02B 
ARM GAS  /tmp/ccKFEoRE.s 			page 31


 392      9D1A
 393 09c1 C6E497C8 		.ascii	"\306\344\227\310\374\334\034\332\267g\3735\3534h\226"
 393      FCDC1CDA 
 393      B767FB35 
 393      EB346896 
 394 09d1 CAFCDC0B 		.ascii	"\312\374\334\013\264\363\015\353,(\2472\342E\263T\206"
 394      B4F30DEB 
 394      2C28A732 
 394      E245B354 
 394      86
 395 09e2 7B776FB7 		.ascii	"{wo\267Oe+\204\254T\326\325\3308\247%\357_\027\256\026"
 395      4F652B84 
 395      AC54D6D5 
 395      D838A725 
 395      EF5F17AE 
 396 09f7 0C132CF1 		.ascii	"\014\023,\361\272M\334^*\321R\325\221\233\015\002\253"
 396      BA4DDC5E 
 396      2AD152D5 
 396      919B0D02 
 396      AB
 397 0a08 06D83050 		.ascii	"\006\3300Pz\2557\3525\311xF\262\202*\002\033\304\351"
 397      7AAD37EA 
 397      35C97846 
 397      B2822A02 
 397      1BC4E9
 398 0a1b 7A35360C 		.ascii	"z56\014\224\032o\030\325 \307i\364[\013!\275N\255\265"
 398      941A6F18 
 398      D520C769 
 398      F45B0B21 
 398      BD4EADB5 
 399 0a2f 54AD53CB 		.ascii	"T\255S\313\276\030\256Wks\036j\331O@[M\334\223\333Z"
 399      BE18AE57 
 399      6B731E6A 
 399      D94F405B 
 399      4DDC93DB 
 400 0a44 2C87A1F9 		.ascii	",\207\241\371f\211\266X:r\375\270!\304;\3630\302\366"
 400      6689B658 
 400      3A72FDB8 
 400      21C43BF3 
 400      30C2F6
 401 0a57 586497D1 		.ascii	"Xd\227\321\006\262\3561\030\241S\254\215\011\371\342"
 401      06B2EE31 
 401      18A153AC 
 401      8D09F9E2 
 402 0a67 6B198362 		.ascii	"k\031\203b\255\003\245\330^\2631\241'\337af\0244=\257"
 402      AD03A5D8 
 402      5EB331A1 
 402      27DF6166 
 402      14343DAF 
 403 0a7b D7A34DAF 		.ascii	"\327\243M\257\207a\221\211\007\234\265\350\367\264\324"
 403      87619189 
 403      079CB5E8 
 403      F7B4D4
 404 0a8a 5A8156C8 		.ascii	"Z\201V\310\007\261\234\356 v\345\211M7\377\214\034\032"
 404      07B19CEE 
 404      2076E589 
 404      4D37FF8C 
ARM GAS  /tmp/ccKFEoRE.s 			page 32


 404      1C1A
 405 0a9c 691BF55B 		.ascii	"i\033\365[Q\243\274S\316\224\311\277\267Qe\337Be\363"
 405      51A3BC53 
 405      CE94C9BF 
 405      B75165DF 
 405      4265F3
 406 0aaf 8AEC03C2 		.ascii	"\212\354\003\302\255\244\246\373\0016ib\255\357\373"
 406      ADA4A6FB 
 406      01366962 
 406      ADEFFB
 407 0abe 823CDD68 		.ascii	"\202<\335h3\233Z\343\364\012T\030\345O\240-=\012\326"
 407      339B5AE3 
 407      F40A5418 
 407      E54FA02D 
 407      3D0AD6
 408 0ad1 C102E41F 		.ascii	"\301\002\344\037\262\224\257\256;~\201^I\037>\334\230"
 408      B294AFAE 
 408      3B7E815E 
 408      491F3EDC 
 408      98
 409 0ae2 AE2FAFEF 		.ascii	"\256/\257\357\352\353\033\301\252\323\305\250c\\XY\251"
 409      EAEB1BC1 
 409      AAD3C5A8 
 409      635C5859 
 409      A9
 410 0af3 9DBD00FB 		.ascii	"\235\275\000\373\240\000\265?\264T\233\375\261\250\326"
 410      A000B53F 
 410      B4549BFD 
 410      B1A8D6
 411 0b02 0EAF2F08 		.ascii	"\016\257/\010\343\360Au\333\2222+mx\364U\011\247\364"
 411      E3F04175 
 411      DB92322B 
 411      6D78F455 
 411      09A7F4
 412 0b15 C51503F7 		.ascii	"\305\025\003\367\326\333r\357\210\240\333\304\030\372"
 412      D6DB72EF 
 412      88A0DBC4 
 412      18FA
 413 0b23 E29FA15B 		.ascii	"\342\237\241[\367\375X\343m\216\016\017S\214\301\266"
 413      F7FD58E3 
 413      6D8E0E0F 
 413      538CC1B6 
 414 0b33 0E37B6F3 		.ascii	"\0167\266\363s\237\026\340\360\243\226\016\037\244s"
 414      739F16E0 
 414      F0A3960E 
 414      1FA473
 415 0b42 B8DA0EAA 		.ascii	"\270\332\016\252\207\005\365x\275\367gV\312\360\350"
 415      8705F578 
 415      BDF76756 
 415      CAF0E8
 416 0b51 8ACEDF26 		.ascii	"\212\316\337&\303\021\003h\303\321\242A\373\362a\216"
 416      C3110368 
 416      C3D1A241 
 416      FBF2618E 
 417 0b61 4DB41347 		.ascii	"M\264\023GCdv\331F\265S\213\214\241\337V\333~_X\366"
 417      436476D9 
 417      46B5538B 
ARM GAS  /tmp/ccKFEoRE.s 			page 33


 417      8CA1DF56 
 417      DB7E5F58 
 418 0b76 7BC3B6DF 		.ascii	"{\303\266\337\011\313~{m\373\235\314\233A\207\265\243"
 418      09CB7E7B 
 418      6DFB9DCC 
 418      9B4187B5 
 418      A3
 419 0b87 90E1B614 		.ascii	"\220\341\266\024\312j\010\257\013\340\320iK\016\335"
 419      CA6A08AF 
 419      0BE0D069 
 419      4B0EDD
 420 0b96 AEE3D069 		.ascii	"\256\343\320i#\207\360\202\256}G\231\245:\260\365.e"
 420      2387F082 
 420      AE7D4799 
 420      A53AB0F5 
 420      2E65
 421 0ba8 59845CD1 		.ascii	"Y\204\\\321TM@r?\376\373?VLF\343*+}\362_<\345KJ\276"
 421      544D4072 
 421      3FFEFB3F 
 421      564C46E3 
 421      2A2B7DF2 
 422 0bc2 443C29A5 		.ascii	"D<)\245|\217<9u\362\324\231\276P<\232\210\324\212\311"
 422      7C8F3C39 
 422      75F2D499 
 422      BE503C9A 
 422      88D48AC9 
 423 0bd6 94EFF1C9 		.ascii	"\224\357\361\311\223}\241\2604+!\246*\303\310\023\211"
 423      937DA1B0 
 423      342B21A6 
 423      2AC3C813 
 423      89
 424 0be7 4963EF0B 		.ascii	"Ic\357\013H\222/\236\220pc_M(4*\230\214\216\212\305"
 424      48922F9E 
 424      9070635F 
 424      4D28342A 
 424      988C8E8A 
 425 0bfc 63E22831 		.ascii	"c\342(18-2j\\`\374\250\373F\217\031\373\334X\337\264"
 425      382D326A 
 425      5C60FCA8 
 425      FB468F19 
 425      FBDC58DF 
 426 0c11 480C0BA8 		.ascii	"H\014\013\250\215L\303\355|\272v\276q\225\343+\307\371"
 426      8D4CC3ED 
 426      7CBA76BE 
 426      7195E32B 
 426      C7F9
 427 0c23 A816F0A7 		.ascii	"\250\026\360\247\177\037\211\205j\353\252D_J\252\002"
 427      7F1F8985 
 427      6AEBAA44 
 427      5F4AAA02 
 428 0c33 A920DC2D 		.ascii	"\251 \334-\205\223b\260\252\302\240\270\332.\024N\205"
 428      859362B0 
 428      AAC2A0B8 
 428      DA2E144E 
 428      85
 429 0c44 C255B85D 		.ascii	"\302U\270]\"\020\023gJpK$\305\351\036)\221\214\304\003"
 429      22101367 
ARM GAS  /tmp/ccKFEoRE.s 			page 34


 429      4A704B24 
 429      C5E91E29 
 429      918CC403 
 430 0c58 52719DA2 		.ascii	"Rq\235\242;y\036\211{B\361\230\004\315F\332\372!\034"
 430      3B791E89 
 430      7B42F198 
 430      04CD46DA 
 430      FA211C
 431 0c6b 8A2745C0 		.ascii	"\212'E\300,\305\217\003\200\020\222f\336\343\334#0}"
 431      2CC58F03 
 431      80109266 
 431      DEE3DC23 
 431      307D
 432 0c7d 7C147A15 		.ascii	"|\024z\025'\305\0320* \361\311q|\362\327|\362~>9\236"
 432      27C51A30 
 432      2A20F1C9 
 432      717CF2D7 
 432      7CF27E3E 
 433 0c93 4F4EE093 		.ascii	"ON\340\223\023\205\344\230\321P\306\360\265I\270\215"
 433      1385E498 
 433      D150C6F0 
 433      B549B88D 
 434 0ca3 75250280 		.ascii	"u%\002\200\354\301\232\317\020\223p\217\327V\211\311"
 434      ECC19ACF 
 434      1093708F 
 434      D75689C9 
 435 0cb3 A2503898 		.ascii	"\242P8\230\304\346\004\243b\261\224\222\202\222\030"
 435      C4E604A3 
 435      62B19492 
 435      829218
 436 0cc2 903CD890 		.ascii	"\220<\330\220\011pO\004\310\023\217\024\215W\211\344"
 436      09704F04 
 436      C8138F14 
 436      8D5789E4 
 437 0cd2 7B756DB0 		.ascii	"{um\260&\345\221\222bu\212\330\211+\356d\325,\210{\261"
 437      26E59192 
 437      62758AD8 
 437      892BEE64 
 437      D52C887B 
 438 0ce7 38332285 		.ascii	"83\"\205\240\241{\206\024\237\366\327D\2518]\214I\321"
 438      A0A17B86 
 438      149FF6D7 
 438      44A9385D 
 438      8C49D1
 439 0cfa 60EA5968 		.ascii	"`\352Yh)\316\300\025!\021\250+\223}\234\012\324FRR@"
 439      29CEC015 
 439      2111A82B 
 439      937D9C0A 
 439      D4465252 
 440 0d0f F2260233 		.ascii	"\362&\0023\202\021)\022\253\031\242\276x\256N\254\003"
 440      82112912 
 440      AB19A2BE 
 440      78AE4EAC 
 440      03
 441 0d20 69258900 		.ascii	"i%\211\000\240\222/.R\205\007bB\214A\254j\\\321:\360"
 441      A0922F2E 
 441      52850762 
ARM GAS  /tmp/ccKFEoRE.s 			page 35


 441      428C41AC 
 441      6A5CD13A 
 442 0d35 EC08CB38 		.ascii	"\354\010\3138E\245\231\230KQ\031\013\356\361\03110\232"
 442      45A59998 
 442      4B51190B 
 442      EEF11931 
 442      309A
 443 0d47 F4026DA2 		.ascii	"\364\002m\242$| \032\332a5J\260!\301Z\0224x\230\210"
 443      247C201A 
 443      DA61354A 
 443      B021C15A 
 443      12347898 
 444 0d5c C76B6F0B 		.ascii	"\307ko\013\205\237\016W=)\326\212\301\224X\231\010&"
 444      859F0E57 
 444      3D29D68A 
 444      C1945899 
 444      0826
 445 0d6e A5CAD146 		.ascii	"\245\312\321Fy\251d\010dU\315\002\347EB\225!\304K\211"
 445      79A96408 
 445      6455CD02 
 445      E7454295 
 445      21C44B89 
 446 0d82 52D2ED91 		.ascii	"R\322\355\221*\350Y=\210\205\030\034\025\243\361\344"
 446      2AE8593D 
 446      8885181C 
 446      15A3F1E4 
 447 0d92 AC40580C 		.ascii	"\254@X\014&\002\2225\303\360{\314\006\246\271;\025y"
 447      26029235 
 447      C3F07BCC 
 447      06A6B93B 
 447      1579
 448 0da4 1EFCF197 		.ascii	"\036\374\361\227\001\033\021\014\357\253\304j\2206\010"
 448      011B110C 
 448      EFABC46A 
 448      903608
 449 0db3 A4D58852 		.ascii	"\244\325\210Ru],\024\220~i\355U1\252\220\265$\014\014"
 449      755D2C14 
 449      907E69ED 
 449      5531AA90 
 449      B5240C0C 
 450 0dc7 8F4F8F00 		.ascii	"\217O\217\000\203J\211E\360\001\365\222\224\364l\260"
 450      834A8945 
 450      F001F592 
 450      94F46CB0 
 451 0dd7 36521353 		.ascii	"6R\023S\006\303\375\343\002\222\213<(\302\016/\302M"
 451      06C3FDE3 
 451      02928B3C 
 451      28C20E2F 
 451      C24D
 452 0de9 B9BA226C 		.ascii	"\271\272\"l\017\027v\207\003\325IQt\205q\024<\216\302"
 452      0F177687 
 452      03D54951 
 452      74857114 
 452      3C8EC2
 453 0dfc 15768070 		.ascii	"\025v\200p94\223\341\253$>\226\214G\247\000\252\013"
 453      393493E1 
 453      AB243E96 
ARM GAS  /tmp/ccKFEoRE.s 			page 36


 453      8C47A700 
 453      AA0B
 454 0e0e 43278A70 		.ascii	"C'\212p\004\371D\265\020L\326\250\016\307\301\014Hw"
 454      04F944B5 
 454      104CD6A8 
 454      0EC7C10C 
 454      4877
 455 0e20 D919859B 		.ascii	"\331\031\205\233\244\344!\010meS<\2110!\211'*\217\365"
 455      A4E42108 
 455      6D65533C 
 455      89302189 
 455      272A8FF5 
 456 0e34 32B803AB 		.ascii	"2\270\003\253\305\220\024\300\352\227F\023\324\003\267"
 456      C59014C0 
 456      EA974613 
 456      D403B7
 457 0e43 1BF4994A 		.ascii	"\033\364\231J\004\377\001\260\370h\242$\024\306\265"
 457      04FF01B0 
 457      F868A224 
 457      14C6B5
 458 0e52 C7C052A8 		.ascii	"\307\300R\250bUq\025\250\361T(\374\247\340\263b]\342"
 458      62557115 
 458      A8F15428 
 458      FCA7E0B3 
 458      625DE2
 459 0e65 A9414CFF 		.ascii	"\251AL\377'J\345F\217\324\326\306C\245r_R/\016\004\210"
 459      274AE546 
 459      8FD4D6C6 
 459      43A5725F 
 459      522F0E04 
 460 0e7a 870283D5 		.ascii	"\207\002\203\325J\345\375\243'N`\276\215\031=\226\375"
 460      4AE5FDA3 
 460      274E60BE 
 460      8D193D96 
 460      FD
 461 0e8b 76DFB8FF 		.ascii	"v\337\270\377\003\363\213u\250"
 461      03F38B75 
 461      A8
 462              		.text
 463              		.section	.gnu.lto_.symtab.528bfc2a99b116e2,"",%progbits
 464 0000 63685468 		.ascii	"chThdAddRef\000\000\000\000\000\000\000\000\000\000"
 464      64416464 
 464      52656600 
 464      00000000 
 464      00000000 
 465 0015 00003301 		.ascii	"\000\0003\001\000\000chThdRelease\000\000\000\000\000"
 465      00006368 
 465      54686452 
 465      656C6561 
 465      73650000 
 466 002c 00000000 		.ascii	"\000\000\000\000\000\000\0009\001\000\000chThdCreat"
 466      00000039 
 466      01000063 
 466      68546864 
 466      43726561 
 467 0041 6546726F 		.ascii	"eFromHeap\000\000\000\000\000\000\000\000\000\000\000"
 467      6D486561 
ARM GAS  /tmp/ccKFEoRE.s 			page 37


 467      70000000 
 467      00000000 
 467      00000000 
 468 0055 003F0100 		.ascii	"\000?\001\000\000chThdCreateFromMemoryPool\000\000\000"
 468      00636854 
 468      68644372 
 468      65617465 
 468      46726F6D 
 469 0076 00000000 		.ascii	"\000\000\000\000\000\000\000\000\000\207\001\000\000"
 469      00000000 
 469      00870100 
 469      00
 470 0083 6368506F 		.ascii	"chPoolFree\000\000\002\000\000\000\000\000\000\000\000"
 470      6F6C4672 
 470      65650000 
 470      02000000 
 470      00000000 
 471 0098 00A60100 		.ascii	"\000\246\001\000\000chHeapFree\000\000\002\000\000\000"
 471      00636848 
 471      65617046 
 471      72656500 
 471      00020000 
 472 00ad 00000000 		.ascii	"\000\000\000\000\000\000\253\001\000\000chSchWakeup"
 472      0000AB01 
 472      00006368 
 472      53636857 
 472      616B6575 
 473 00c2 53000002 		.ascii	"S\000\000\002\000\000\000\000\000\000\000\000\000\257"
 473      00000000 
 473      00000000 
 473      00AF
 474 00d0 01000063 		.ascii	"\001\000\000chThdCreateI\000\000\002\000\000\000\000"
 474      68546864 
 474      43726561 
 474      74654900 
 474      00020000 
 475 00e6 00000000 		.ascii	"\000\000\000\000\000\264\001\000\000chHeapAlloc\000"
 475      00B40100 
 475      00636848 
 475      65617041 
 475      6C6C6F63 
 476 00fb 00020000 		.ascii	"\000\002\000\000\000\000\000\000\000\000\000\274\001"
 476      00000000 
 476      000000BC 
 476      01
 477 0108 00006368 		.ascii	"\000\000chPoolAlloc\000\000\002\000\000\000\000\000"
 477      506F6F6C 
 477      416C6C6F 
 477      63000002 
 477      00000000 
 478 011d 00000000 		.ascii	"\000\000\000\000\301\001\000\000"
 478      C1010000 
 479              		.text
 480              		.section	.gnu.lto_.opts,"",%progbits
 481 0000 272D6D63 		.ascii	"'-mcpu=cortex-m3''-mno-thumb-interwork''-mthumb''-g"
 481      70753D63 
 481      6F727465 
ARM GAS  /tmp/ccKFEoRE.s 			page 38


 481      782D6D33 
 481      27272D6D 
 482 0033 67646227 		.ascii	"gdb''-O2''-fomit-frame-pointer''-falign-functions=1"
 482      272D4F32 
 482      27272D66 
 482      6F6D6974 
 482      2D667261 
 483 0066 3627272D 		.ascii	"6''-ffunction-sections''-fdata-sections''-fno-commo"
 483      6666756E 
 483      6374696F 
 483      6E2D7365 
 483      6374696F 
 484 0099 6E27272D 		.ascii	"n''-flto'\000"
 484      666C746F 
 484      2700
 485              		.text
 486              		.cfi_sections	.debug_frame
 487              		.section	.text.chThdAddRef,"ax",%progbits
 488              		.align	2
 489              		.p2align 4,,15
 490              		.global	chThdAddRef
 491              		.thumb
 492              		.thumb_func
 493              		.type	chThdAddRef, %function
 494              	chThdAddRef:
 495              	.LFB165:
 496              		.file 1 "../../../os/rt/src/chdynamic.c"
 497              		.loc 1 69 0
 498              		.cfi_startproc
 499              		@ args = 0, pretend = 0, frame = 0
 500              		@ frame_needed = 0, uses_anonymous_args = 0
 501              		@ link register save eliminated.
 502              	.LVL0:
 503              	.LBB63:
 504              	.LBB64:
 505              	.LBB65:
 506              	.LBB66:
 507              		.file 2 "../../../os/ext/CMSIS/include/core_cmFunc.h"
 508              		.loc 2 546 0
 509 0000 2022     		movs	r2, #32
 510              	@ 546 "../../../os/ext/CMSIS/include/core_cmFunc.h" 1
 511 0002 82F31188 		MSR basepri, r2
 512              	@ 0 "" 2
 513              		.thumb
 514              	.LBE66:
 515              	.LBE65:
 516              	.LBE64:
 517              	.LBE63:
 518              		.loc 1 73 0
 519 0006 817F     		ldrb	r1, [r0, #30]	@ zero_extendqisi2
 520              	.LBB67:
 521              	.LBB68:
 522              	.LBB69:
 523              	.LBB70:
 524              	.LBB71:
 525              		.loc 2 546 0
 526 0008 0023     		movs	r3, #0
ARM GAS  /tmp/ccKFEoRE.s 			page 39


 527              	.LBE71:
 528              	.LBE70:
 529              	.LBE69:
 530              	.LBE68:
 531              	.LBE67:
 532              		.loc 1 73 0
 533 000a 4A1C     		adds	r2, r1, #1
 534 000c 8277     		strb	r2, [r0, #30]
 535              	.LVL1:
 536              	.LBB76:
 537              	.LBB75:
 538              	.LBB74:
 539              	.LBB73:
 540              	.LBB72:
 541              		.loc 2 546 0
 542              	@ 546 "../../../os/ext/CMSIS/include/core_cmFunc.h" 1
 543 000e 83F31188 		MSR basepri, r3
 544              	@ 0 "" 2
 545              		.thumb
 546              	.LBE72:
 547              	.LBE73:
 548              	.LBE74:
 549              	.LBE75:
 550              	.LBE76:
 551              		.loc 1 76 0
 552 0012 7047     		bx	lr
 553              		.cfi_endproc
 554              	.LFE165:
 555              		.size	chThdAddRef, .-chThdAddRef
 556 0014 AFF30080 		.section	.text.chThdRelease,"ax",%progbits
 556      AFF30080 
 556      AFF30080 
 557              		.align	2
 558              		.p2align 4,,15
 559              		.global	chThdRelease
 560              		.thumb
 561              		.thumb_func
 562              		.type	chThdRelease, %function
 563              	chThdRelease:
 564              	.LFB166:
 565              		.loc 1 91 0
 566              		.cfi_startproc
 567              		@ args = 0, pretend = 0, frame = 0
 568              		@ frame_needed = 0, uses_anonymous_args = 0
 569              		@ link register save eliminated.
 570              	.LVL2:
 571              		.loc 1 91 0
 572 0000 0146     		mov	r1, r0
 573              	.LBB97:
 574              	.LBB98:
 575              	.LBB99:
 576              	.LBB100:
 577              		.loc 2 546 0
 578 0002 2023     		movs	r3, #32
 579              	@ 546 "../../../os/ext/CMSIS/include/core_cmFunc.h" 1
 580 0004 83F31188 		MSR basepri, r3
 581              	@ 0 "" 2
ARM GAS  /tmp/ccKFEoRE.s 			page 40


 582              		.thumb
 583              	.LBE100:
 584              	.LBE99:
 585              	.LBE98:
 586              	.LBE97:
 587              		.loc 1 96 0
 588 0008 827F     		ldrb	r2, [r0, #30]	@ zero_extendqisi2
 589 000a 531E     		subs	r3, r2, #1
 590 000c DBB2     		uxtb	r3, r3
 591 000e 8377     		strb	r3, [r0, #30]
 592              	.LVL3:
 593              	.LBB101:
 594              	.LBB102:
 595              	.LBB103:
 596              	.LBB104:
 597              	.LBB105:
 598              		.loc 2 546 0
 599 0010 0022     		movs	r2, #0
 600              	@ 546 "../../../os/ext/CMSIS/include/core_cmFunc.h" 1
 601 0012 82F31188 		MSR basepri, r2
 602              	@ 0 "" 2
 603              		.thumb
 604              	.LBE105:
 605              	.LBE104:
 606              	.LBE103:
 607              	.LBE102:
 608              	.LBE101:
 609              		.loc 1 102 0
 610 0016 13B9     		cbnz	r3, .L2
 611              		.loc 1 102 0 is_stmt 0 discriminator 1
 612 0018 037F     		ldrb	r3, [r0, #28]	@ zero_extendqisi2
 613              	.LVL4:
 614 001a 0F2B     		cmp	r3, #15
 615 001c 00D0     		beq	.L7
 616              	.L2:
 617 001e 7047     		bx	lr
 618              	.L7:
 619              		.loc 1 103 0 is_stmt 1
 620 0020 427F     		ldrb	r2, [r0, #29]	@ zero_extendqisi2
 621 0022 02F00303 		and	r3, r2, #3
 622 0026 012B     		cmp	r3, #1
 623 0028 09D0     		beq	.L4
 624 002a 022B     		cmp	r3, #2
 625 002c F7D1     		bne	.L2
 626              	.LVL5:
 627              	.LBB106:
 628              	.LBB107:
 629              		.loc 1 115 0
 630 002e 4369     		ldr	r3, [r0, #20]
 631 0030 0269     		ldr	r2, [r0, #16]
 632              		.loc 1 117 0
 633 0032 006C     		ldr	r0, [r0, #64]
 634              	.LVL6:
 635              		.loc 1 115 0
 636 0034 1A61     		str	r2, [r3, #16]
 637 0036 0A69     		ldr	r2, [r1, #16]
 638 0038 5361     		str	r3, [r2, #20]
ARM GAS  /tmp/ccKFEoRE.s 			page 41


 639              	.LBE107:
 640              	.LBE106:
 641              		.loc 1 122 0
 642              	.LBB109:
 643              	.LBB108:
 644              		.loc 1 117 0
 645 003a FFF7FEBF 		b	chPoolFree
 646              	.LVL7:
 647              	.L4:
 648              	.LBE108:
 649              	.LBE109:
 650              		.loc 1 107 0
 651 003e 4369     		ldr	r3, [r0, #20]
 652 0040 0269     		ldr	r2, [r0, #16]
 653 0042 1A61     		str	r2, [r3, #16]
 654 0044 0169     		ldr	r1, [r0, #16]
 655 0046 4B61     		str	r3, [r1, #20]
 656              		.loc 1 122 0
 657              		.loc 1 109 0
 658 0048 FFF7FEBF 		b	chHeapFree
 659              	.LVL8:
 660              		.cfi_endproc
 661              	.LFE166:
 662              		.size	chThdRelease, .-chThdRelease
 663 004c AFF30080 		.section	.text.chThdCreateFromHeap,"ax",%progbits
 664              		.align	2
 665              		.p2align 4,,15
 666              		.global	chThdCreateFromHeap
 667              		.thumb
 668              		.thumb_func
 669              		.type	chThdCreateFromHeap, %function
 670              	chThdCreateFromHeap:
 671              	.LFB167:
 672              		.loc 1 148 0
 673              		.cfi_startproc
 674              		@ args = 4, pretend = 0, frame = 0
 675              		@ frame_needed = 0, uses_anonymous_args = 0
 676              	.LVL9:
 677 0000 F0B5     		push	{r4, r5, r6, r7, lr}
 678              	.LCFI0:
 679              		.cfi_def_cfa_offset 20
 680              		.cfi_offset 4, -20
 681              		.cfi_offset 5, -16
 682              		.cfi_offset 6, -12
 683              		.cfi_offset 7, -8
 684              		.cfi_offset 14, -4
 685 0002 83B0     		sub	sp, sp, #12
 686              	.LCFI1:
 687              		.cfi_def_cfa_offset 32
 688              		.loc 1 148 0
 689 0004 0D46     		mov	r5, r1
 690 0006 1746     		mov	r7, r2
 691 0008 1E46     		mov	r6, r3
 692              		.loc 1 152 0
 693 000a FFF7FEFF 		bl	chHeapAlloc
 694              	.LVL10:
 695              		.loc 1 153 0
ARM GAS  /tmp/ccKFEoRE.s 			page 42


 696 000e 0446     		mov	r4, r0
 697 0010 90B1     		cbz	r0, .L9
 698              	.LVL11:
 699              	.LBB110:
 700              	.LBB111:
 701              	.LBB112:
 702              	.LBB113:
 703              		.loc 2 546 0
 704 0012 2023     		movs	r3, #32
 705              	@ 546 "../../../os/ext/CMSIS/include/core_cmFunc.h" 1
 706 0014 83F31188 		MSR basepri, r3
 707              	@ 0 "" 2
 708              		.thumb
 709              	.LBE113:
 710              	.LBE112:
 711              	.LBE111:
 712              	.LBE110:
 713              		.loc 1 166 0
 714 0018 089C     		ldr	r4, [sp, #32]
 715 001a 2946     		mov	r1, r5
 716 001c 3A46     		mov	r2, r7
 717 001e 3346     		mov	r3, r6
 718 0020 0094     		str	r4, [sp, #0]
 719 0022 FFF7FEFF 		bl	chThdCreateI
 720              	.LVL12:
 721              		.loc 1 167 0
 722 0026 0121     		movs	r1, #1
 723 0028 4177     		strb	r1, [r0, #29]
 724              		.loc 1 168 0
 725 002a 0021     		movs	r1, #0
 726              		.loc 1 166 0
 727 002c 0446     		mov	r4, r0
 728              	.LVL13:
 729              		.loc 1 168 0
 730 002e FFF7FEFF 		bl	chSchWakeupS
 731              	.LVL14:
 732              	.LBB114:
 733              	.LBB115:
 734              	.LBB116:
 735              	.LBB117:
 736              	.LBB118:
 737              		.loc 2 546 0
 738 0032 0020     		movs	r0, #0
 739              	@ 546 "../../../os/ext/CMSIS/include/core_cmFunc.h" 1
 740 0034 80F31188 		MSR basepri, r0
 741              	@ 0 "" 2
 742              	.LVL15:
 743              		.thumb
 744              	.L9:
 745              	.LBE118:
 746              	.LBE117:
 747              	.LBE116:
 748              	.LBE115:
 749              	.LBE114:
 750              		.loc 1 171 0
 751 0038 2046     		mov	r0, r4
 752 003a 03B0     		add	sp, sp, #12
ARM GAS  /tmp/ccKFEoRE.s 			page 43


 753 003c F0BD     		pop	{r4, r5, r6, r7, pc}
 754              		.cfi_endproc
 755              	.LFE167:
 756              		.size	chThdCreateFromHeap, .-chThdCreateFromHeap
 757 003e 00BF     		.section	.text.chThdCreateFromMemoryPool,"ax",%progbits
 758              		.align	2
 759              		.p2align 4,,15
 760              		.global	chThdCreateFromMemoryPool
 761              		.thumb
 762              		.thumb_func
 763              		.type	chThdCreateFromMemoryPool, %function
 764              	chThdCreateFromMemoryPool:
 765              	.LFB168:
 766              		.loc 1 197 0
 767              		.cfi_startproc
 768              		@ args = 0, pretend = 0, frame = 0
 769              		@ frame_needed = 0, uses_anonymous_args = 0
 770              	.LVL16:
 771 0000 2DE9F041 		push	{r4, r5, r6, r7, r8, lr}
 772              	.LCFI2:
 773              		.cfi_def_cfa_offset 24
 774              		.cfi_offset 4, -24
 775              		.cfi_offset 5, -20
 776              		.cfi_offset 6, -16
 777              		.cfi_offset 7, -12
 778              		.cfi_offset 8, -8
 779              		.cfi_offset 14, -4
 780 0004 82B0     		sub	sp, sp, #8
 781              	.LCFI3:
 782              		.cfi_def_cfa_offset 32
 783              		.loc 1 197 0
 784 0006 0546     		mov	r5, r0
 785 0008 8846     		mov	r8, r1
 786 000a 1746     		mov	r7, r2
 787 000c 1E46     		mov	r6, r3
 788              		.loc 1 203 0
 789 000e FFF7FEFF 		bl	chPoolAlloc
 790              	.LVL17:
 791              		.loc 1 204 0
 792 0012 0446     		mov	r4, r0
 793 0014 90B1     		cbz	r0, .L12
 794              	.LVL18:
 795              	.LBB119:
 796              	.LBB120:
 797              	.LBB121:
 798              	.LBB122:
 799              		.loc 2 546 0
 800 0016 2023     		movs	r3, #32
 801              	@ 546 "../../../os/ext/CMSIS/include/core_cmFunc.h" 1
 802 0018 83F31188 		MSR basepri, r3
 803              	@ 0 "" 2
 804              		.thumb
 805              	.LBE122:
 806              	.LBE121:
 807              	.LBE120:
 808              	.LBE119:
 809              		.loc 1 217 0
ARM GAS  /tmp/ccKFEoRE.s 			page 44


 810 001c 6968     		ldr	r1, [r5, #4]
 811 001e 4246     		mov	r2, r8
 812 0020 3B46     		mov	r3, r7
 813 0022 0096     		str	r6, [sp, #0]
 814 0024 FFF7FEFF 		bl	chThdCreateI
 815              	.LVL19:
 816              		.loc 1 218 0
 817 0028 0221     		movs	r1, #2
 818 002a 4177     		strb	r1, [r0, #29]
 819              		.loc 1 219 0
 820 002c 0564     		str	r5, [r0, #64]
 821              		.loc 1 220 0
 822 002e 0021     		movs	r1, #0
 823              		.loc 1 217 0
 824 0030 0446     		mov	r4, r0
 825              	.LVL20:
 826              		.loc 1 220 0
 827 0032 FFF7FEFF 		bl	chSchWakeupS
 828              	.LVL21:
 829              	.LBB123:
 830              	.LBB124:
 831              	.LBB125:
 832              	.LBB126:
 833              	.LBB127:
 834              		.loc 2 546 0
 835 0036 0020     		movs	r0, #0
 836              	@ 546 "../../../os/ext/CMSIS/include/core_cmFunc.h" 1
 837 0038 80F31188 		MSR basepri, r0
 838              	@ 0 "" 2
 839              	.LVL22:
 840              		.thumb
 841              	.L12:
 842              	.LBE127:
 843              	.LBE126:
 844              	.LBE125:
 845              	.LBE124:
 846              	.LBE123:
 847              		.loc 1 223 0
 848 003c 2046     		mov	r0, r4
 849 003e 02B0     		add	sp, sp, #8
 850 0040 BDE8F081 		pop	{r4, r5, r6, r7, r8, pc}
 851              		.cfi_endproc
 852              	.LFE168:
 853              		.size	chThdCreateFromMemoryPool, .-chThdCreateFromMemoryPool
 854 0044 AFF30080 		.text
 854      AFF30080 
 854      AFF30080 
 855              	.Letext0:
 856              		.file 3 "../../../os/rt/include/chschd.h"
 857              		.file 4 "/opt/ARM/gcc-arm-none-eabi-4_7-2013q3/bin/../lib/gcc/arm-none-eabi/4.7.4/include/stddef.h
 858              		.file 5 "/opt/ARM/gcc-arm-none-eabi-4_7-2013q3/bin/../lib/gcc/arm-none-eabi/4.7.4/../../../../arm-
 859              		.file 6 "../../../os/rt/ports/ARMCMx/compilers/GCC/chtypes.h"
 860              		.file 7 "../../../os/rt/ports/ARMCMx/chcore.h"
 861              		.file 8 "../../../os/rt/ports/ARMCMx/chcore_v7m.h"
 862              		.file 9 "../../../os/rt/include/chmtx.h"
 863              		.file 10 "../../../os/rt/include/chthreads.h"
 864              		.file 11 "../../../os/rt/include/chmemcore.h"
ARM GAS  /tmp/ccKFEoRE.s 			page 45


 865              		.file 12 "../../../os/rt/include/chheap.h"
 866              		.file 13 "../../../os/rt/include/chmempools.h"
 867              		.file 14 "../../../os/rt/include/chsys.h"
 868              		.file 15 "../../../os/ext/CMSIS/include/core_cm3.h"