ARM GAS  /tmp/cczmZGAv.s 			page 1


   1              		.syntax unified
   2              		.cpu cortex-m3
   3              		.fpu softvfp
   4              		.eabi_attribute 20, 1
   5              		.eabi_attribute 21, 1
   6              		.eabi_attribute 23, 3
   7              		.eabi_attribute 24, 1
   8              		.eabi_attribute 25, 1
   9              		.eabi_attribute 26, 1
  10              		.eabi_attribute 30, 2
  11              		.eabi_attribute 34, 1
  12              		.eabi_attribute 18, 4
  13              		.thumb
  14              		.file	"chmempools.c"
  15              		.text
  16              	.Ltext0:
  17              		.section	.gnu.lto_.jmpfuncs.b41347db75126108,"",%progbits
  18 0000 789C6362 		.ascii	"x\234cb`d`g\300\016$\2404\033\003;#;\023##C=\003\003"
  18      60646067 
  18      C00E24A0 
  18      341B033B 
  18      233B1323 
  19 0019 33846261 		.ascii	"3\204bafef\000\000\023a\001N"
  19      66656600 
  19      00136101 
  19      4E
  20              		.text
  21              		.section	.gnu.lto_.inline.b41347db75126108,"",%progbits
  22 0000 789C6362 		.ascii	"x\234cb`d\340e\300\016\212\2414\033\020\2612201\357"
  22      6064E065 
  22      C00E8AA1 
  22      341B10B1 
  22      32323031 
  23 0015 1067E0BC 		.ascii	"\020g\340\274a\306\004\322\362\022H0\011\366\337\343"
  23      61C604D2 
  23      F2124830 
  23      09F6DFE3 
  24 0025 62E09CDB 		.ascii	"b\340\234\333\303\304\304\300\304 \310\005\024\341\233"
  24      C3C4C4C0 
  24      C420C805 
  24      14E19B
  25 0034 E6CCC035 		.ascii	"\346\314\3005\303\200\211\201U\220\201\201q\202\037"
  25      C3808981 
  25      55908181 
  25      71821F
  26 0043 3383300F 		.ascii	"3\2030\017PXh[\022\2120\013\232\201\254\014\034\354"
  26      5058685B 
  26      128A300B 
  26      9A81AC0C 
  26      1CEC
  27 0055 403EFB0D 		.ascii	"@>\373\0153\010\237\001\000\325\025\020e"
  27      33089F01 
  27      00D51510 
  27      65
  28              		.text
  29              		.section	.gnu.lto_.pureconst.b41347db75126108,"",%progbits
  30 0000 789C6362 		.ascii	"x\234cb`d`f``\340e\200\0006\006)F+&)f+\026)V+\000\007"
ARM GAS  /tmp/cczmZGAv.s 			page 2


  30      60646066 
  30      6060E065 
  30      80003606 
  30      29462B26 
  31 001d EA0125   		.ascii	"\352\001%"
  32              		.text
  33              		.section	.gnu.lto_chPoolObjectInit.b41347db75126108,"",%progbits
  34 0000 789C7591 		.ascii	"x\234u\2211K\003A\020\205\337\233\275H\032\3016]\300"
  34      314B0341 
  34      1085DF9B 
  34      BD481AC1 
  34      365DC0
  35 0013 60612087 		.ascii	"`a \207\330\370\023\004\253\010\202M\2648\017\014\030"
  35      D8F81304 
  35      AB08824D 
  35      B4380F0C 
  35      18
  36 0024 2EDC8985 		.ascii	".\334\211\205\2059\243? X\231\303B\214XZX\246\321\302"
  36      8539A33F 
  36      205899C3 
  36      428C585A 
  36      58A6D1C2 
  37 0038 4282C4C6 		.ascii	"B\202\304\306\322\302\302\377\241\263wF\016bfwx\003"
  37      D2C2C2FF 
  37      A1B37746 
  37      0E626677 
  37      7803
  38 004a FBBE1976 		.ascii	"\373\276\031vW@]\323Q\322|\320\203UU\032Pzc\340\264"
  38      57405DD3 
  38      51D27CD0 
  38      8355551A 
  38      507A63E0 
  39 005f 2CA42D14 		.ascii	",\244-\024\351\010;[\0319\272\032\274\361#\231{\224"
  39      E9083B5B 
  39      1939BA1A 
  39      BCF12399 
  39      7B94
  40 0071 A7CFEF4E 		.ascii	"\247\317\357N\005\2038\276\350\235\305\353>!X$v\211"
  40      058338BE 
  40      E89DC5EB 
  40      3E215824 
  40      7689
  41 0083 AFFE504A 		.ascii	"\257\376PJ\360I\224aU\340((y\257\021,\245\336\313\371"
  41      F0499461 
  41      55E02828 
  41      79AF112C 
  41      A5DECBF9 
  42 0097 69A71606 		.ascii	"i\247\026\006y\267#\250\246\356\227\225\177\335\216"
  42      79B723A8 
  42      A6EE9795 
  42      7FDD8E
  43 00a6 2650241B 		.ascii	"&P$\033\274f\005\242z\243jToU5\0128\217\343\0056\323"
  43      BC6605A2 
  43      7AA36A54 
  43      6F55350A 
  43      388FE305 
  44 00bc 2E69D4AD 		.ascii	".i\324\255\332\353mj\037[\230\021\272k\317\311I\203"
ARM GAS  /tmp/cczmZGAv.s 			page 3


  44      DAEB6D6A 
  44      1F5B9811 
  44      BA6BCFC9 
  44      4983
  45 00ce 772CA08A 		.ascii	"w,\240\212e\237\005\223\240O\237s\342\221\245t\010\260"
  45      659F0593 
  45      A04F9F73 
  45      E291A574 
  45      08B0
  46 00e0 ADB9C3BF 		.ascii	"\255\271\303\277\227SW\366.\350n\274&C\346p3\033\377"
  46      975357F6 
  46      2EE86EBC 
  46      2643E670 
  46      331BFF
  47 00f3 E53D3BDB 		.ascii	"\345=;\333\222\357\311}\236tf\2232!\0150\206\375\211"
  47      92EFC97D 
  47      9E746693 
  47      32210D30 
  47      86FD89
  48 0106 8C9B44DD 		.ascii	"\214\233D\335\366\326\353X_\271Vs\263\035Dnx\350F\241"
  48      F6D6EB58 
  48      5FB95673 
  48      B31D446E 
  48      78E846A1 
  49 011a E77AFB2D 		.ascii	"\347z\373-\277\325\016\202\203\250\346AZm'j\036\373"
  49      BFD50E82 
  49      83A8E641 
  49      5A6D276A 
  49      1EFB
  50 012c C576181C 		.ascii	"\305v\030\0345\367\374\360\007'\272_\257"
  50      35F7FCF0 
  50      0727BA5F 
  50      AF
  51              		.text
  52              		.section	.gnu.lto_chPoolLoadArray.b41347db75126108,"",%progbits
  53 0000 789C9555 		.ascii	"x\234\225UQH\024A\030\376\377\231\335\2733\205\354\321"
  53      51481441 
  53      18FEFF99 
  53      DDBB3385 
  53      ECD1
  54 0012 023BCCC2 		.ascii	"\002;\314\302L<\337\012\"(\204\320\207{\360,\010a\023"
  54      4C3CDF0A 
  54      222884D0 
  54      877BF02C 
  54      086113
  55 0025 DD36CEF0 		.ascii	"\3356\316\360\274\343N\305^\362R\037\"\022$\012,\024"
  55      BCE34EC5 
  55      5EF2521F 
  55      2212240A 
  55      2C14
  56 0037 324BCA94 		.ascii	"2K\312\224\320\250 \310\2422\301L\202D|\210\020\024"
  56      D0A820C8 
  56      A232C14C 
  56      82447C88 
  56      1014
  57 0049 021FA387 		.ascii	"\002\037\243\207|\311\376\231\331;\357\274\325\256\271"
  57      7CC9FE99 
ARM GAS  /tmp/cczmZGAv.s 			page 4


  57      D93BEFBC 
  57      D5AEB9
  58 0058 DBFD6777 		.ascii	"\333\375gw\276\377\373\377\371f\346_\006H\277\314v\202"
  58      BEFFFBFF 
  58      F966E65F 
  58      0648BFCC 
  58      7682
  59 006a AEE36E80 		.ascii	"\256\343n\200/d\321\005\310\372\346\001\256z\031j\252"
  59      2F64D105 
  59      C8FAE601 
  59      AE7A196A 
  59      AA
  60 007b C35567C8 		.ascii	"\303Ug\310\2531~c\006 ^\242\367\270!^\241#\212\367\304"
  60      AB317E63 
  60      06205EA2 
  60      F7B8215E 
  60      A1238AF7 
  61 0090 D9C9B8A6 		.ascii	"\331\311\270\246c\347Y\311\316\212`(\036\277\331\367"
  61      63E759C9 
  61      CE8A6028 
  61      1EBFD9F7 
  62 00a0 BEABAA6B 		.ascii	"\276\253\252kycc\277%\336\326#\314.\255\344\025\200"
  62      796363BF 
  62      25DED623 
  62      CC2EADE4 
  62      1580
  63 00b2 85085E10 		.ascii	"\205\010^\020\226\201\226\236G\206\037\227~s\343\223"
  63      9681969E 
  63      47861F97 
  63      7E73E393 
  64 00c2 B8A3DFC2 		.ascii	"\270\243\337\302\300O\376m\320\365\206\275]\336\350"
  64      C04FFE6D 
  64      D0F586BD 
  64      5DDEE8
  65 00d1 2C866141 		.ascii	",\206aA\322\035\257\262Pcp\000\005\305\302\300\013\226"
  65      D21DAFB2 
  65      50637000 
  65      05C5C2C0 
  65      0B96
  66 00e3 49C152B1 		.ascii	"I\301R\261:\203C\022\373;\327!\030\215C*\332\305\240"
  66      3A834312 
  66      FB3BD721 
  66      188D432A 
  66      DAC5A0
  67 00f6 44A2FB77 		.ascii	"D\242\373w;\242]ti\260\007\301\300\007X\014\214\354"
  67      3BA25D74 
  67      69B007C1 
  67      C007580C 
  67      8CEC
  68 0108 08598EEA 		.ascii	"\010Y\216\352YC\365\254\223\275O\326E\343\367\260\010"
  68      5943F5AC 
  68      93BD4FD6 
  68      45E3F7B0 
  68      08
  69 0119 DC36DE63 		.ascii	"\3346\336c\343\363\310\016\321{j:\364\304\343\371\330"
  69      E3F3C80E 
  69      D17B6A3A 
ARM GAS  /tmp/cczmZGAv.s 			page 5


  69      F4C4E3F9 
  69      D8
  70 012a 24A3CA56 		.ascii	"$\243\312V#,-D\015\205%\313\003\244\027\322\372\360"
  70      232C2D44 
  70      0D8525CB 
  70      03A417D2 
  70      FAF0
  71 013c 8FC030A9 		.ascii	"\217\3000\251&\245k\253\251\0318LPr\017\356(\247Is\205"
  71      26A56BAB 
  71      A919384C 
  71      50720FEE 
  71      28A74973 
  72 0151 6D3848A5 		.ascii	"m8H\245R\225\301?(PQ\250\254\231\201\2434\013\003\037"
  72      5295C13F 
  72      285051A8 
  72      AC9981A3 
  72      340B031F 
  73 0165 CBFB2311 		.ascii	"\313\373#\021 e\301\035R\304?\243_W\035\226\314)M\003"
  73      2065C11D 
  73      52C43FA3 
  73      5F571D96 
  73      CC294D03 
  74 0179 C7A89B99 		.ascii	"\307\250\233\231\252\201O\024\327\177\345\012\351F\221"
  74      AA814F14 
  74      D77FE50A 
  74      E94691
  75 0188 6F6919B1 		.ascii	"oi\031\261\334\014\316\010Y\330Z\357\372\276\035\243"
  75      DC0CCE08 
  75      59D85AEF 
  75      FABE1DA3 
  76 0198 89976E1A 		.ascii	"\211\227n\032\004\370\004]8y\353\366\312\261\255\001"
  76      04F8045D 
  76      3879EBF6 
  76      CAB1AD01 
  77 01a8 9FA60514 		.ascii	"\237\246\005\024Gv\202V\226\326X\336\000\012\341\035"
  77      47768256 
  77      96D658DE 
  77      000AE11D 
  78 01b8 0EC6FB4F 		.ascii	"\016\306\373OZ\350I#L\016O\333\3039\222@I4\341$QRn6"
  78      5AE84923 
  78      4C0E4FDB 
  78      C3399240 
  78      4934E124 
  79 01d0 BBFE9067 		.ascii	"\273\376\220g\253\266#URm\226\235\332\253cS\266\340"
  79      ABB62355 
  79      526D969D 
  79      DAAB6353 
  79      B6E0
  80 01e2 98C1C519 		.ascii	"\230\301\305\031|\306,vYR\261\2114\305\014\234\"N\031"
  80      7CC62C76 
  80      5952B189 
  80      34C50C9C 
  80      224E19
  81 01f5 6816BAEA 		.ascii	"h\026\272\352D\3710\3605AL\314;\002\245\304\317\357"
  81      44F930F0 
  81      35414CCC 
  81      3B02A5C4 
ARM GAS  /tmp/cczmZGAv.s 			page 6


  81      CFEF
  82 0207 C21DB470 		.ascii	"\302\035\264p\027\243Y\025\310\223\012\2620\236\337"
  82      17A35915 
  82      C8930AB2 
  82      309EDF
  83 0216 AC8EE459 		.ascii	"\254\216\344Y}MW~iN\271\344$\313\021O:\321=(\247\226"
  83      7D4D577E 
  83      694EB9E4 
  83      24CB114F 
  83      3AD13D28 
  84 022c A7FC16C6 		.ascii	"\247\374\026\306\25788:G;\227\305\016\234\310f\007\032"
  84      AF38383A 
  84      473B97C5 
  84      0E9CC866 
  84      071A
  85 023e F84C1DEE 		.ascii	"\370L\035\356\265\336\347\337\313\262\330\203\260\355"
  85      B5DEE7DF 
  85      CBB2D883 
  85      B0ED
  86 024c 1E24B966 		.ascii	"\036$\271f\345A\235\331n'\032\370\222:\233<\366\326"
  86      E5419DD9 
  86      6E271AF8 
  86      923A9B3C 
  86      F6D6
  87 025e 33F01516 		.ascii	"3\360\025\026&\344\253\243z_\254\016\273\211.)\205\313"
  87      26E4ABA3 
  87      7A5FAC0E 
  87      BB892E29 
  87      85CB
  88 0270 498AA51C 		.ascii	"I\212\245\034\251\005\021\364\347\330\276\335\327yG"
  88      A90511F4 
  88      E7D8BEDD 
  88      D77947
  89 027f C2D34DEA 		.ascii	"\302\323M\352\220\277\024\310\256\035\252F\232\"6a\257"
  89      90BF14C8 
  89      AE1DAA46 
  89      9A223661 
  89      AF
  90 0290 F1B9C1BD 		.ascii	"\361\271\301\275\011\264\307DY5\\R\341T\227\021\351"
  90      09B4C744 
  90      59355C52 
  90      E1549711 
  90      E9
  91 02a1 E2515309 		.ascii	"\342QS\011Pd\361\355\262Keb\224%\352^\"\002u\247\241"
  91      5064F1ED 
  91      B24B6562 
  91      9425EA5E 
  91      220275A7 
  92 02b6 E707FE1A 		.ascii	"\347\007\376\032\270\230\210`\323o\266E\240\3748\243"
  92      B8988860 
  92      D36FB645 
  92      A0FC38A3 
  93 02c6 9B9B7F18 		.ascii	"\233\233\177\030,\\\004\232\234&\036=\"1\021K\227\345"
  93      2C5C049A 
  93      9C261E3D 
  93      2231114B 
  93      97E5
ARM GAS  /tmp/cczmZGAv.s 			page 7


  94 02d8 791E903E 		.ascii	"y\036\220>R)\325\017D\011G1&\304\363\226\227\373\324"
  94      5229D50F 
  94      44094731 
  94      26C4F396 
  94      97FBD4
  95 02eb 3F1CF345 		.ascii	"?\034\363E[}\261\250\3513\203!+\024\011\207\233c\345"
  95      5B7DB1A8 
  95      E9338321 
  95      2B140987 
  95      9B63E5
  96 02fe 26B05004 		.ascii	"&\260P\004#\330\242\205\033/E\212\267\200\233Z\314\346"
  96      23D8A285 
  96      1B2F458A 
  96      B7809B5A 
  96      CCE6
  97 0310 B60B56AA 		.ascii	"\266\013V\252C\020\364\366\206\3466\353\360\026h$\034"
  97      4310F4F6 
  97      86E636EB 
  97      F0166824 
  97      1C
  98 0321 6D8DF94E 		.ascii	"m\215\371N\005\374\225\376\016\302\233\341\250U\337"
  98      05FC95FE 
  98      0EC29BE1 
  98      A855DF
  99 0330 7E3444F8 		.ascii	"~4D\370\262T\244\325\321\352\253\364\327V\327nr\013"
  99      B254A4D5 
  99      D1EAABF4 
  99      D756D76E 
  99      720B
 100 0342 A4193ADD 		.ascii	"\244\031:\335\326b\0228\337_\033\36066\304\254H\264"
 100      D6621238 
 100      DF5F1BF0 
 100      3636C4AC 
 100      48B4
 101 0354 A9CC7BB0 		.ascii	"\251\314{\260\002X\024\334\024<\034\275\014<\022\214"
 101      025814DC 
 101      143C1CBD 
 101      0C3C128C 
 102 0364 FC05DB0C 		.ascii	"\374\005\333\014\222\377"
 102      92FF
 103              		.text
 104              		.section	.gnu.lto_chPoolAllocI.b41347db75126108,"",%progbits
 105 0000 789C9552 		.ascii	"x\234\225RAk\023Q\020\236\231\267o7\253\2509\011\236"
 105      416B1351 
 105      109E99B7 
 105      6F37ABA8 
 105      39099E
 106 0013 0CB58752 		.ascii	"\014\265\207R!\361\017\364\256xj\300\213\220\012.+\265"
 106      21F10FF4 
 106      AE786AC0 
 106      8B900A2E 
 106      2BB5
 107 0025 18121A11 		.ascii	"\030\022\032\021\361\2225\366\007\224\236\252\245]j"
 107      F19235F6 
 107      07949EAA 
 107      A55D6A
 108 0034 45F6E4B9 		.ascii	"E\366\344\271'\025\254\036J\351ID\360R\360`\017\342"
ARM GAS  /tmp/cczmZGAv.s 			page 8


 108      2715AC1E 
 108      4AE94944 
 108      F052F060 
 108      0FE2
 109 0046 A57A9160 		.ascii	"\245z\221`\234\231\315\213FS\261\273\233|og\347\373"
 109      9C99CD8B 
 109      4653B1BB 
 109      9B7C6F67 
 109      E7FB
 110 0058 BE79338F 		.ascii	"\276y3\217\000\371\376\373\272\314\277\017\006`\222"
 110      00F9FEFB 
 110      BACCBF0F 
 110      066092
 111 0067 1103405A 		.ascii	"\021\003@Z\334\005\270_\"2\253S\220Lx\007EH.\030\364"
 111      DC05B85F 
 111      2232AB53 
 111      904C7807 
 111      45482E18 
 112 007c F3B04776 		.ascii	"\363\260GvE\302\3767\011[\027\366\021e\301\006m2\236"
 112      45C2FE37 
 112      095B17F6 
 112      1165C106 
 112      6D329E
 113 008f F5B17D45 		.ascii	"\365\261}E\275\354\030\254'\311\322\342\253\316\305"
 113      BDEC18AC 
 113      27C9D2E2 
 113      ABCEC5
 114 009e CE5EAF77 		.ascii	"\316^\257w6\226\3505\204\355\037\037O\237\201\030\021"
 114      3696E835 
 114      84ED1F1F 
 114      4F9F8118 
 114      11
 115 00af 4A2048E0 		.ascii	"J H\340\015Wu\010o?8\032\313(\253\233\336;\032\315S"
 115      0D577508 
 115      6F3F381A 
 115      CB28AB9B 
 115      DE3B1ACD 
 116 00c4 DA56F605 		.ascii	"\332V\366\005\377\207\367 q<Kp\016\225\232\336\370'"
 116      FF87F720 
 116      713C4B70 
 116      0E959ADE 
 116      F827
 117 00d6 B3BBF69C 		.ascii	"\263\273\366\234\336f\376\013z\271\327k\217\303F_&F"
 117      DE66FE0B 
 117      7AB9D76B 
 117      8FC3465F 
 117      2646
 118 00e8 9F604215 		.ascii	"\237`B\025\272k\317h\204\004g\300)\204\032>\3011 \254"
 118      BA6BCF68 
 118      840467C0 
 118      29841A3E 
 118      C13120AC 
 119 00fc E1531C07 		.ascii	"\341S\034\007\323\177\267\214\353\214>\343c\306\002"
 119      D37FB78C 
 119      EB8C3EE3 
 119      63C602
 120 010b E30663D8 		.ascii	"\343\006c\330\377.\003\201\205$)R\376~S\235\364\232"
ARM GAS  /tmp/cczmZGAv.s 			page 9


 120      FF2E0381 
 120      85242952 
 120      FE7E539D 
 120      F49A
 121 011d 16941156 		.ascii	"\026\224\021V\331I\026f\033:W?\247wj\230\241\205\010"
 121      D9491666 
 121      1B3A573F 
 121      A7776A98 
 121      A18508
 122 0130 CD7998E4 		.ascii	"\315y\230\344)\230G\360\020c\014(B-\317g\332\262\345"
 122      299847F0 
 122      10630C28 
 122      422DCF67 
 122      DAB2E5
 123 0143 BF995F67 		.ascii	"\277\231_g\353\015\320{\223\363r\237H\346\360\032\026"
 123      EB0DD07B 
 123      93F3729F 
 123      48E6F01A 
 123      16
 124 0154 3EE1EC40 		.ascii	">\341\354@N\310v\250'U\311Z\235R\343\257\351wt\251v"
 124      4EC876A8 
 124      2755C95A 
 124      9D52E3AF 
 124      E97774A9 
 125 0169 C8B9407D 		.ascii	"\310\271@}\262\243\315\340`\311\314K\3136\347\035^\356"
 125      B2A3CDE0 
 125      60C9CC4B 
 125      CB36E71D 
 125      5EEE
 126 017b DDDFAB8D 		.ascii	"\335\337\253\215\\\021U\031\372AQ\335\371\2748s_u\302"
 126      5C115519 
 126      FA4151DD 
 126      F9BC3873 
 126      5F75C2
 127 018e 513AB939 		.ascii	"Q:\27199s\335\337\246\031\020%-\374c\203\354\225\236"
 127      3973DDDF 
 127      A6191025 
 127      2DFC6383 
 127      EC959E
 128 01a1 500B395B 		.ascii	"P\0139[.\265\240\036\307Fy\354\007j\302\215\331\014"
 128      2EB5A01E 
 128      C74679EC 
 128      076AC28D 
 128      D90C
 129 01b3 546307BC 		.ascii	"Tc\007\274l\340\021F\222\304\0021\036\327\266\303p\327"
 129      6CE01146 
 129      92C40231 
 129      1ED7B6C3 
 129      70D7
 130 01c5 43E7EBE7 		.ascii	"C\347\353\347#\345\014\336\267\373\312\313]\300\235"
 130      23E50CDE 
 130      B7FBCACB 
 130      5DC09D
 131 01d4 ECA493D3 		.ascii	"\354\244\223\323\236\274\003\344\006\033\236<\203'\""
 131      9EBC03E4 
 131      061B9E3C 
 131      832722
ARM GAS  /tmp/cczmZGAv.s 			page 10


 132 01e3 762B9B93 		.ascii	"v+\233\223\003\202*\"\373-\225\313\225\374i\264*\363"
 132      03822A22 
 132      FB2D95CB 
 132      95FC69B4 
 132      2AF3
 133 01f5 B72BADF9 		.ascii	"\267+\255\371\250\022\315\326\343z\263\321\270\325*"
 133      A812CDD6 
 133      E37AB3D1 
 133      B8D52A
 134 0204 47E035AE 		.ascii	"G\3405\256\3175\251\336\374\011J\225\3175"
 134      CF35A9DE 
 134      FC094A95 
 134      CF35
 135              		.text
 136              		.section	.gnu.lto_chPoolAlloc.b41347db75126108,"",%progbits
 137 0000 789C9554 		.ascii	"x\234\225TML\023Q\020\236y\373SJ[\323\203\027.\330\020"
 137      4D4C1351 
 137      109E79FB 
 137      534A5BD3 
 137      83172ED8 
 138 0015 4C504897 		.ascii	"LPH\227\233^H4$Fbz\260\304\213\311J`]\003\204\322\246"
 138      9B5E4834 
 138      2446627A 
 138      B0C48BC9 
 138      4A605D03 
 139 002c 05825E58 		.ascii	"\005\202^X+\007/&\304\304\004\177\260\"ZK11\361/\306"
 139      2B072F26 
 139      C4C4047F 
 139      B0225A4B 
 139      3131F12F 
 140 0041 8B1AD183 		.ascii	"\213\032\321\203\030N\306xB\022C\274\020.\340\305\230"
 140      184EC678 
 140      421243BC 
 140      102EE0C5 
 140      98
 141 0052 E0BCB7BB 		.ascii	"\340\274\267\273-K)\201\327v\347u\336\314|\363\315\233"
 141      2D4B2981 
 141      D776E775 
 141      DECC7CF3 
 141      CD9B
 142 0064 5906489F 		.ascii	"Y\006H\237\312u\206~\250\002\314p\351\003d\023\213\000"
 142      CA75867E 
 142      A802CC70 
 142      E9036413 
 142      8B00
 143 0076 57238C49 		.ascii	"W#\214ISm`5\311\353a\260Z%Tm\265\314\224\273\\\255\376"
 143      536D6035 
 143      C9EB61B0 
 143      5A25546D 
 143      B5CC94BB 
 144 008d E16AC555 		.ascii	"\341j\305U\253\210|C\000cL\222\025\025\307\316\011,"
 144      AB887C43 
 144      00634C92 
 144      1515C7CE 
 144      092C
 145 009f B901A62D 		.ascii	"\271\001\246-\353\346\3045\353tvys\363\220\211\300\200"
 145      EBE6C435 
ARM GAS  /tmp/cczmZGAv.s 			page 11


 145      EB747679 
 145      73F39089 
 145      C080
 146 00b1 2174212C 		.ascii	"!t!,\345V\202u`\"B\004\270d {\023s\\?f]W\011\270\337"
 146      E5568275 
 146      60224204 
 146      B864207B 
 146      13735C3F 
 147 00cb 7C610DF7 		.ascii	"|a\015\367\347'\013\277\177\271+\373sS\204\333F\356"
 147      E7270BBF 
 147      7FB92BFB 
 147      735384DB 
 147      46EE
 148 00dd EFEE701B 		.ascii	"\357\356p\033\263o\331jQ}\307\336/o\2165\302\214C\327"
 148      B36FD96A 
 148      517DC7DE 
 148      2F6F8E35 
 148      C28C43D7 
 149 00f1 44954193 		.ascii	"D\225A\223`\2721[d;\204 \0138\210\250\343cl\204\032"
 149      60BA315B 
 149      643B8420 
 149      0B3888A8 
 149      E3636C84 
 150 0106 D0F10136 		.ascii	"\320\361\0016\200\237\344#\222\265$gH\006H>$\031t\316"
 150      809FE423 
 150      92B52467 
 150      4806483E 
 150      241974CE 
 151 011a 438EA4A5 		.ascii	"C\216\244\245\300\270e\205\321\376\337\345\\\355Y.\371"
 151      C0B86585 
 151      D1FEDFE5 
 151      5CED592E 
 151      F9
 152 012b 55C40986 		.ascii	"U\304\011\206o\244\317To\333\324\361\240\010O8\271\355"
 152      6FA4CF54 
 152      6FDBD4F1 
 152      A0084F38 
 152      B9ED
 153 013d CCCB77E4 		.ascii	"\314\313w\344c\320,2\317/\374\\\331)\365\362\342J\037"
 153      63D02C32 
 153      CF2FFC5C 
 153      D929F5F2 
 153      E24A1F
 154 0150 1D022C40 		.ascii	"\035\002,@\026\327n\334\372u\334\003F\351\025)=\035"
 154      16D76EDC 
 154      FA75DC03 
 154      46E91529 
 154      3D1D
 155 0162 0B1E48DE 		.ascii	"\013\036H\336\212\327\351B)G\361\000\250\207\3338eM"
 155      8AD7E942 
 155      2947F100 
 155      A887DB38 
 155      654D
 156 0174 9E30B1C6 		.ascii	"\2360\261\306\023\266t|\3179\366\213\000\234\325\016"
 156      13B6747C 
 156      CF39F68B 
 156      009CD50E 
ARM GAS  /tmp/cczmZGAv.s 			page 12


 157 0184 99AB3AE6 		.ascii	"\231\253:\346)I\336^\367W\244]37\350\010\276@\366\374"
 157      2949DE5E 
 157      F757A45D 
 157      3337E808 
 157      BE40F6FC 
 158 0198 6A6EC4C9 		.ascii	"jn\304\311\265\262Yu\234\266\303\315\347.\355\032\255"
 158      B5B25975 
 158      9CB6C3CD 
 158      E72EED1A 
 158      AD
 159 01a9 C4F68560 		.ascii	"\304\366\205`\353-\260\2015\315p\224:J\272C,M\254e\004"
 159      EB2DB081 
 159      35CD7094 
 159      3A4ABA43 
 159      2C4DAC65 
 160 01be 5E271A00 		.ascii	"^'\032\000\304L^\340\217\325\\\036]n?$\035_R\014\035"
 160      C44C5EE0 
 160      8FD55C1E 
 160      5D6E3F24 
 160      1D5F520C 
 161 01d3 5F513C83 		.ascii	"_Q<\203\327\344\023\214\377\306^[M\012\356\356M!\316"
 161      D7E4138C 
 161      FFC65E5B 
 161      4D0AEEEE 
 161      4D21CE
 162 01e6 0764AA4D 		.ascii	"\007d\252M\342\234x\327\272\246~\017v\2009\316J\011"
 162      E29C78D7 
 162      BAA67E0F 
 162      768039CE 
 162      4A09
 163 01f8 BB14873C 		.ascii	"\273\024\207<;&\025\333o\017\011\217\012j~\027\235*"
 163      3B2615DB 
 163      6F0F098F 
 163      0A6A7E17 
 163      9D2A
 164 020a B21E16E8 		.ascii	"\262\036\026\3504j.x\255\210\023\254\036\207\271\340"
 164      346A2E78 
 164      AD8813AC 
 164      1E87B9E0 
 165 021a 82DF1BA9 		.ascii	"\202\337\033\251\344\310\315\202\333\010R\316\271\220"
 165      E4C8CD82 
 165      DB0852CE 
 165      B990
 166 0228 80E06F01 		.ascii	"\200\340o\001\3274 0B\3251$7\302W\220\013%\204 \201"
 166      D7342030 
 166      42D53124 
 166      37C25790 
 166      0B258420 
 167 023d 70020113 		.ascii	"p\002\001\023\017\210\242\203\267\346A\027U-\017\222"
 167      0F88A283 
 167      B7E64117 
 167      552D0F92 
 168 024d 8EAFB758 		.ascii	"\216\257\267X\204\204\333\267b\217}\341\245\311\204"
 168      8484DBB7 
 168      628F7DE1 
 168      A5C984
 169 025c CA99AB32 		.ascii	"\312\231\2532zbU\316\237\216sv\333\345\347\326\3674"
ARM GAS  /tmp/cczmZGAv.s 			page 13


 169      7A6255CE 
 169      9F8E7376 
 169      DBE5E7D6 
 169      F734
 170 026e 807C551D 		.ascii	"\200|U\035\300y\321\222\037\252\015\240\216\317hS\216"
 170      C079D192 
 170      1FAA0DA0 
 170      8ECF6853 
 170      8E
 171 027f E34C9C8E 		.ascii	"\343L\234\216\317\261^(\026\001\227\236*v\352\2024\300"
 171      CFB15E28 
 171      1601979E 
 171      2A76EA82 
 171      34C0
 172 0291 7708511B 		.ascii	"w\010Q\033I4:$d^,e\276\320\317_?(\212\305#\310\311\236"
 172      49343A24 
 172      645E2C65 
 172      BED0CF5F 
 172      3F288AC5 
 173 02a9 FE54241A 		.ascii	"\376T$\032\325\354o2\243\245\207\264L\332\320\214\336"
 173      D5EC6F32 
 173      A3A587B4 
 173      4CDAD08C 
 173      DE
 174 02ba 84994825 		.ascii	"\204\231H%\223\003\231\250\001,\221RF\272\007\206\315"
 174      930399A8 
 174      012C9152 
 174      46BA0786 
 174      CD
 175 02cb 23DB2C53 		.ascii	"#\333,S\311\364PF;\031\217\265\307F\311\305H\246\315"
 175      C9F45046 
 175      3B198FB5 
 175      C746C9C5 
 175      48A6CD
 176 02de AE916389 		.ascii	"\256\221c\211h/\264l\2654G\207\264\366XgG\247\3267h"
 176      682FB46C 
 176      B5344787 
 176      B4F65867 
 176      47A7D637 
 177 02f3 0C0C5F34 		.ascii	"\014\014_45ai$N\015\017\032d\034\216u\306#=\335\031"
 177      35616924 
 177      4E0D0F1A 
 177      641C8E75 
 177      C6233DDD 
 178 0308 3395EE6B 		.ascii	"3\225\356k\211\034n\005\226\006\037\341'\323\227\341"
 178      891C6E05 
 178      96061FE1 
 178      27D397E1 
 179 0318 3FBBD555 		.ascii	"?\273\325U\250"
 179      A8
 180              		.text
 181              		.section	.gnu.lto_chPoolFreeI.b41347db75126108,"",%progbits
 182 0000 789C7D91 		.ascii	"x\234}\2211K\303P\020\307\377w/)\202\010NB'K\025\204"
 182      314BC350 
 182      10C7FF77 
 182      2F298208 
 182      4E42274B 
ARM GAS  /tmp/cczmZGAv.s 			page 14


 183 0016 0AC9D7D0 		.ascii	"\012\311\327\320\261\202 B\024\014\201*\226\204\326"
 183      B1822042 
 183      140C812A 
 183      9684D6
 184 0025 D9C6EAE0 		.ascii	"\331\306\352\340X\334t\262\224\352\322.NN*\010\016E"
 184      58DC74B2 
 184      94EAD22E 
 184      4E4E2A08 
 184      0E45
 185 0037 3AB9081D 		.ascii	":\271\010\035:\370=\352\275\227\250--^\362\270\227\334"
 185      3AF83DEA 
 185      BD97A82D 
 185      2D5EF2B8 
 185      97DC
 186 0049 FDFEF7EE 		.ascii	"\375\376\367\356\036\203\344\231\266\254\254\005\006"
 186      1E83E499 
 186      B6ACAC05 
 186      06
 187 0056 1CF1A440 		.ascii	"\034\361\244@\334\350\003g9&\322\033AjL\265mCr\036\315"
 187      DCE80367 
 187      3926D21B 
 187      416A4CB5 
 187      6D43721E 
 188 006b 38BE6ABC 		.ascii	"8\276j\274\3267\352\303\321h9\320\177\367\011\275\317"
 188      D637EAC3 
 188      D16839D0 
 188      7FF709BD 
 188      CF
 189 007c F6521601 		.ascii	"\366R\026\001\021r\320\236aM\326H\271\363\370\227c\254"
 189      1172D09E 
 189      614DD648 
 189      B9F3F897 
 189      63AC
 190 008e 9046BF3A 		.ascii	"\220F\277:O\364/:\350\334\251A7\363\314/\303Qm\025\255"
 190      4FF42F3A 
 190      E8DCA941 
 190      37F3CC2F 
 190      C3516D15 
 191 00a3 542720C5 		.ascii	"T' \305X3\022\222\301\323\0224\236k1\012&\367q~F1\211"
 191      58331292 
 191      C1D31234 
 191      9E6B310A 
 191      26F7717E 
 192 00ba CB529823 		.ascii	"\313R\230#\362\250-\240\022\337\022o\301\243[\312\353"
 192      F2A82DA0 
 192      12DF126F 
 192      C1A35BCA 
 192      EB
 193 00cb 1C1B1771 		.ascii	"\034\033\027q\274\310\0365\345\373\320h\031+j\257\007"
 193      BCC81E35 
 193      E5FBD068 
 193      192B6AAF 
 193      07
 194 00dc B5256A7A 		.ascii	"\265%jz\243\336\300\272)\217\356\311F\222\357KE\364"
 194      A3DEC0BA 
 194      298FEEC9 
 194      4692EF4B 
ARM GAS  /tmp/cczmZGAv.s 			page 15


 194      45F4
 195 00ee 50DF7DEF 		.ascii	"P\337}\357>\244\001\237\254u\024d\020\352\006\327\024"
 195      3EA4019F 
 195      AC751464 
 195      10EA06D7 
 195      14
 196 00ff 90CD3EA9 		.ascii	"\220\315>\251\2549Fb{\177w%\344\346\245\235p\023PF "
 196      AC394662 
 196      7B7F7725 
 196      E4E6A59D 
 196      70135046 
 197 0114 333D9D55 		.ascii	"3=\235U2PJ\211|\302}tOg\200\023\325v\306\253\231\243"
 197      32504A89 
 197      7CC27D74 
 197      4F678013 
 197      D576C6AB 
 198 012a F64132F2 		.ascii	"\366A2\362\204\373\261\242\016H\177\322%r\216\343&o"
 198      84FBB1A2 
 198      0E487FD2 
 198      25728EE3 
 198      266F
 199 013c 58752B27 		.ascii	"Xu+'n\265\342\273~\251\034\224\2430<\256:>TT\212\270"
 199      6EB5E2BB 
 199      7EA91C94 
 199      A3303CAE 
 199      3A3E5454 
 200 0152 1C59E1C1 		.ascii	"\034Y\341\301Q\364\0151\221r*"
 200      51F40D31 
 200      91722A
 201              		.text
 202              		.section	.gnu.lto_chPoolFree.b41347db75126108,"",%progbits
 203 0000 789C8D53 		.ascii	"x\234\215SMh\023A\024~o6\351*z\350I\310\245]\374\003"
 203      4D681341 
 203      147E6F36 
 203      E92A7AE8 
 203      49C8A55D 
 204 0016 6DC97AD3 		.ascii	"m\311z\323\243R\220\366\220C\023\012\"\214\245]\007"
 204      A35290F6 
 204      9043130A 
 204      228CA55D 
 204      07
 205 0027 52C97697 		.ascii	"R\311v\227MR\352\305l\243\207^\204\"\010*\012\366'\261"
 205      4D52EAC5 
 205      6CA3875E 
 205      8422082A 
 205      0AF627B1 
 206 003b A2A15ABD 		.ascii	"\242\241Z\275\252\005\301CZz\362\342\311\202z\365\242"
 206      AA05C143 
 206      5A7AF2E2 
 206      C9827AF5 
 206      A2
 207 004c 172FC637 		.ascii	"\027/\3067\263K\223m\222\326Iv\3360\363\276\357}\357"
 207      B34B936D 
 207      92D64976 
 207      DE30F3BE 
 207      EF7DEF
 208 005f CD1B0648 		.ascii	"\315\033\006H\277\366\221\240o,\006\360\214,j\200la"
ARM GAS  /tmp/cczmZGAv.s 			page 16


 208      BFF691A0 
 208      6F2C06F0 
 208      8C2C6A80 
 208      6C61
 209 0071 1B60CE60 		.ascii	"\033`\316`\210rA\220\022\303\322\230B\342qX\364\375"
 209      88724190 
 209      12C3D298 
 209      42E27158 
 209      F4FD
 210 0083 7B0B1FCB 		.ascii	"{\013\037\313\303\345\235F\243_\310\335q\204\372\227"
 210      C3E59D46 
 210      A35FC8DD 
 210      7184FA97 
 211 0093 CAB10408 		.ascii	"\312\261\004\010D0@Z\006\261h\214\255\265%\355\367Z"
 211      4430405A 
 211      06B1688C 
 211      ADB525ED 
 211      F75A
 212 00a5 CF07B6B1 		.ascii	"\317\007\266\261\323(\235\204eIr\333\037\026\25018\201"
 212      D3289D84 
 212      654972DB 
 212      1F16A831 
 212      3881
 213 00b7 92823C58 		.ascii	"\222\202<X;\005\266\372\306\030\234V\276\253G:\004\243"
 213      3B05B6FA 
 213      C6189C56 
 213      BEAB473A 
 213      04A3
 214 00c9 73FA3438 		.ascii	"s\37248\212\310q\221\200\214\3542Y\0358>%\3454\342p"
 214      8AC87191 
 214      808CEC32 
 214      591D383E 
 214      25E534E2 
 215 00de C7F77B25 		.ascii	"\307\367{%\205\032\243\322\312$\323D\"\027\332'B\205"
 215      851AA3D2 
 215      CA24D344 
 215      2217DA27 
 215      4285
 216 00f0 4EA1E158 		.ascii	"N\241\341X\241\235\346\010+@\202\302\012\304\031\014"
 216      A19DE608 
 216      2B4082C2 
 216      0AC4190C 
 217 0100 2855D5CD 		.ascii	"(U\325\315\257?:\244\020\2514\271\323!\300&\224\361"
 217      AF3F3AA4 
 217      10A934B9 
 217      D321C026 
 217      94F1
 218 0112 E7DDFBDF 		.ascii	"\347\335\373\337.D\202\221\340U\022\312\261\032\011"
 218      2E448291 
 218      E05512CA 
 218      B11A09
 219 0121 29AF6D9E 		.ascii	")\257m\2362#\215j\002\350\203\207\370\304\177pQ`O\204"
 219      32238D6A 
 219      02E88387 
 219      F8C47F70 
 219      51604F84 
 220 0135 76F7F871 		.ascii	"v\367\370qx\254+\002\231U\007\345\032\307%\022)\357"
ARM GAS  /tmp/cczmZGAv.s 			page 17


 220      78AC2B02 
 220      995507E5 
 220      1AC72512 
 220      29EF
 221 0147 EF4F45DB 		.ascii	"\357OE\333W\271EG\335hb\034W\002\0328\200\203)\216\357"
 221      57B94547 
 221      DD68621C 
 221      57021A38 
 221      8083298E 
 222 015c 2FDF8735 		.ascii	"/\337\2075\3066.\322\277\202x0W\200g\034\327U\275^\253"
 222      C6362ED2 
 222      BF827830 
 222      5780671C 
 222      D755BD5E 
 223 0171 397A511C 		.ascii	"9zQ\034\337\322\256\012Z\207\362\325\255\332:\225\367"
 223      DFD2AE0A 
 223      5A87F2D5 
 223      ADDA3A95 
 223      F7
 224 0182 0DB958A8 		.ascii	"\015\271X\250\017\300Y\212\245=\2422\012<\304(\273\204"
 224      0FC0598A 
 224      A53DA232 
 224      0A3CC428 
 224      BB84
 225 0194 EA1D500F 		.ascii	"\352\035P\017\344Z\363\225\020rd>\036\340\"\240\303"
 225      E45AF395 
 225      1072643E 
 225      1EE022A0 
 225      C3
 226 01a5 0452970D 		.ascii	"\004R\227\015\273 \232\263*M=\300}\256\335\352\000\354"
 226      BB209AB3 
 226      2A4D3DC0 
 226      7DAEDDEA 
 226      00EC
 227 01b7 1CED4A4B 		.ascii	"\034\355JK}\3664`\227>\354\322\214\034\237\007wQ}\361"
 227      7DF63460 
 227      973EECD2 
 227      8C1C9F07 
 227      77517DF1 
 228 01cb EBBFBA11 		.ascii	"\353\277\272\021\366\353\306\015U\327w\335\272\221c"
 228      F6EBC60D 
 228      55D777DD 
 228      BA9163
 229 01da 8D164D9E 		.ascii	"\215\026M\236\260\3758\276\302>\265\261\015X\377+\242"
 229      B0FD38BE 
 229      C23EB5B1 
 229      0D58FF2B 
 229      A2
 230 01eb D24765A1 		.ascii	"\322Ge\241\350\255IW#\2314\203\277\2237\275\202\231"
 230      E8AD4957 
 230      23993483 
 230      BF9337BD 
 230      8299
 231 01fd F72CD3CA 		.ascii	"\367,\323\312\332\302v\035'\227OZ\300l7\346L\336p\343"
 231      DAC2761D 
 231      27974F5A 
 231      C06C37E6 
ARM GAS  /tmp/cczmZGAv.s 			page 18


 231      4CDE70E3 
 232 0211 3313B9A2 		.ascii	"3\023\271\2428\263\307\335u\274B\336\274\224N\015\245"
 232      38B3C7DD 
 232      75BC42DE 
 232      BC944E0D 
 232      A5
 233 0222 66096739 		.ascii	"f\011g9\236\030\2379o'\2630\330\352)f\013\346P*3\222"
 233      9E189F39 
 233      6F27B330 
 233      D8EA2966 
 233      0BE6502A 
 234 0238 31A7A6AD 		.ascii	"1\247\246\255\\\361\2720\225\247e_.N[\344\334\233\312"
 234      5CF1BA30 
 234      95A7655F 
 234      2E4E5BE4 
 234      DC9BCA
 235 024b A48DC989 		.ascii	"\244\215\311\211\274p\275\251A\343\3249`\036\350$\302"
 235      BC70BDA9 
 235      41E3D439 
 235      601EE824 
 235      C2
 236 025c F16E82E6 		.ascii	"\361n\202\346f\335\177\351k\373:"
 236      66DD7FE9 
 236      6BFB3A
 237              		.text
 238              		.section	.gnu.lto_.cgraph.b41347db75126108,"",%progbits
 239 0000 789C45C7 		.ascii	"x\234E\307\253\021\200\000\020\003\321$wtJ\037\261H"
 239      AB118000 
 239      1003D124 
 239      77744A1F 
 239      B148
 240 0012 66F038BE 		.ascii	"f\3608\276\205 \251\004G\003 \030n\315\316\023\210\000"
 240      8520A904 
 240      47032018 
 240      6ECDCE13 
 240      8800
 241 0024 D0E24B13 		.ascii	"\320\342K\023\015\364'\354\261\243f\232\245\205Vi\245"
 241      0DF427EC 
 241      B1A3669A 
 241      A5855669 
 241      A5
 242 0035 A3B4D159 		.ascii	"\243\264\321Y\332\351\346W\012\303q)\003\367;<\213\023"
 242      DAE9E657 
 242      0AC37129 
 242      03F73B3C 
 242      8B13
 243 0047 2180     		.ascii	"!\200"
 244              		.text
 245              		.section	.gnu.lto_.vars.b41347db75126108,"",%progbits
 246 0000 789C6362 		.ascii	"x\234cb`d`f`\000\222P\000\000\000r\000\010"
 246      60646066 
 246      60009250 
 246      00000072 
 246      0008
 247              		.text
 248              		.section	.gnu.lto_.refs.b41347db75126108,"",%progbits
 249 0000 789C6362 		.ascii	"x\234cb`d`f```b\200\001\000\000\204\000\011"
ARM GAS  /tmp/cczmZGAv.s 			page 19


 249      60646066 
 249      60606062 
 249      80010000 
 249      840009
 250              		.text
 251              		.section	.gnu.lto_.statics.b41347db75126108,"",%progbits
 252 0000 789C6362 		.ascii	"x\234cb`d`b\300\016@\342\214\020&\000\000\375\000\011"
 252      60646062 
 252      C00E40E2 
 252      8C102600 
 252      00FD0009 
 253              		.text
 254              		.section	.gnu.lto_.decls.b41347db75126108,"",%progbits
 255 0000 789CAD58 		.ascii	"x\234\255X\177h[E\034\277{I\233fI\323n\340\350d\330"
 255      7F685B45 
 255      1CBF7B49 
 255      9B6649D3 
 255      6EE0E864 
 256 0015 AA9BE0B0 		.ascii	"\252\233\340\260\315\272\225\315?\\q\010\332\201\277"
 256      CDBA95CD 
 256      3F5C7108 
 256      DA81BF
 257 0024 1005111E 		.ascii	"\020\005\021\036\261M\336\226H\233\304\364M6\377zD\334"
 257      B14DDE96 
 257      489BC4F4 
 257      4D36FF7A 
 257      44DC
 258 0036 C6861807 		.ascii	"\306\206\030\007\262\356\017G\306V\334\217\242l\003"
 258      B2EE0F47 
 258      C656DC8F 
 258      A26C03
 259 0045 9B4E562A 		.ascii	"\233NV*\223\331\312\034S7\335\350\244\005E\252 n8\335"
 259      93D9CA1C 
 259      5337DDE8 
 259      A40545AA 
 259      206E38DD 
 260 0059 9C75F17B 		.ascii	"\234u\361{\357\335\273\334\275\344^\333\340\321\313"
 260      EFDDBBDC 
 260      BDE45EDB 
 260      E0D1CB
 261 0068 BBF7F2FD 		.ascii	"\273\367\362\375~?\337\317\347\276w\357R\005aDZZA\250"
 261      7E3FDFCF 
 261      E7BE77EF 
 261      52056144 
 261      5A5A41A8 
 262 007c 08EDC662 		.ascii	"\010\355\306b\204\"0\366\301\263\015\250\324j\241\347"
 262      842230F6 
 262      C1B30DA8 
 262      D46AA1E7 
 263 008c A14F40BF 		.ascii	"\241O@\277\014}\022\372\024\364\031T\336\210\035\361"
 263      0C7D12FA 
 263      14F41954 
 263      DE881DF1 
 264 009c 3F043D04 		.ascii	"?\004=\004=\010\375\024\364\002\364\343\320\017C\367"
 264      3D08FD14 
 264      F402F4E3 
 264      D00F43F7 
ARM GAS  /tmp/cczmZGAv.s 			page 20


 265 00ac 403F06FD 		.ascii	"@?\006\375$\364a\350\230\372\221\353o\216x\0234F\015"
 265      24F461E8 
 265      98FA91EB 
 265      6F8E7813 
 265      34460D
 266 00bf 17EF388D 		.ascii	"\027\3578\215\337Ic\337\202~\007\372,\215?\304a|Lq<"
 266      DF4963DF 
 266      827E07FA 
 266      2C8D3FC4 
 266      617C4C71 
 267 00d4 34D65D9A 		.ascii	"4\326]\2327\301\362`\021\3532\027\337\306:C\261;)\246"
 267      37C1F260 
 267      11EB3217 
 267      DFC63A43 
 267      B13B29A6 
 268 00e8 1DBF40B1 		.ascii	"\035\277@\261G\240{9\254a\212\207i<r\255s\340\020\375"
 268      47A07B39 
 268      AC618A87 
 268      693C72AD 
 268      73E010FD 
 269 00fc 1A684C1B 		.ascii	"\032hL\033\247\206b\331\334*q\232\017\346$*od\256|\016"
 269      A78662D9 
 269      DC2A719A 
 269      0FE6242A 
 269      6F64AE7C 
 270 0111 5EB67E76 		.ascii	"^\266~vl\205\213\207\251\017\271\326;r'\332-\222\304"
 270      6C858B87 
 270      A90FB9D6 
 270      3B7227DA 
 270      2D92C4
 271 0124 AA94B333 		.ascii	"\252\224\2633n\245\232iF\007\214\374t\356-\243\353v"
 271      6EA59A69 
 271      46078CFC 
 271      74EE2DA3 
 271      EB76
 272 0136 B1E85B8A 		.ascii	"\261\350[\212\3367\240\345w\030\006\326U\274\341\036"
 272      DE37A0E5 
 272      771806D6 
 272      55BCE11E 
 273 0146 B40CA938 		.ascii	"\264\014\2518\344G\250\305\034\005\375\026{\004\343"
 273      E447A8C5 
 273      1C05FD16 
 273      7B04E3
 274 0155 8378A939 		.ascii	"\203x\2519\362\2308(\200v\033F\226\270v\215\207\226"
 274      F2983828 
 274      80761B46 
 274      96B8768D 
 274      8796
 275 0167 A0F7489C 		.ascii	"\240\367H\234\226qH\323\216\360*\213@\362^\211\016\033"
 275      967148D3 
 275      8EF02A8B 
 275      40F25E89 
 275      0E1B
 276 0179 460E6CB0 		.ascii	"F\016l\260\212\017\343%\020C\301h\025:j\230\215\022"
 276      8A0FE325 
 276      1043C168 
 276      153A6A98 
ARM GAS  /tmp/cczmZGAv.s 			page 21


 276      8D12
 277 018b A7974634 		.ascii	"\247\227F4\372\367\211\345\326x\356\310$\267#\020Q\305"
 277      FAF789E5 
 277      D678EEC8 
 277      24B72310 
 277      51C5
 278 019d 1FE25516 		.ascii	"\037\342U\026\216a\341\220\247\210>??\260\271\202\032"
 278      8E61E190 
 278      A7883E3F 
 278      3FB0B982 
 278      1A
 279 01ae 9EFB511E 		.ascii	"\236\373Q\036X\0209j+\021\312\327\362\270\242&\012z"
 279      5810396A 
 279      2B11CAD7 
 279      F2B8A226 
 279      0A7A
 280 01c0 0CC3ED50 		.ascii	"\014\303\355PE\350!\036z_m\005h\314A\253\3708\016@\300"
 280      45E8211E 
 280      7A5F6D05 
 280      68CC41AB 
 280      F8380E40 
 281 01d5 2E3BE0A5 		.ascii	".;\340\245\357C\225A\355\261\325l\033\261\311\247\220"
 281      EF439541 
 281      EDB1D56C 
 281      1BB1C9A7 
 281      90
 282 01e6 A0D0A6A0 		.ascii	"\240\320\246\240\3471\025\356RS\025X\\\366~\264\253"
 282      E73115EE 
 282      52531558 
 282      5CF67EB4 
 282      AB
 283 01f7 249C0C9E 		.ascii	"$\234\014\236\237\377S\330\017\370/c\252\317\335w&/"
 283      9FFF53D8 
 283      0FF82F63 
 283      AACFDD77 
 283      262F
 284 0209 84114DB1 		.ascii	"\204\021M\261F\240c\336[VV`\353k{D6\322\006\302\345"
 284      46A063DE 
 284      5B565660 
 284      EB6B7B44 
 284      36D206C2 
 285 021e 34B6C98C 		.ascii	"4\266\311\214\216\2348\357Y\010\237\2262>B!8VHg\300"
 285      8E9C38EF 
 285      59089F96 
 285      323E4221 
 285      38564867 
 286 0233 45DE1171 		.ascii	"E\336\021q\205XD\201\357\213\036\327\231\341\245)\230"
 286      85584481 
 286      EF8B1ED7 
 286      99E1A529 
 286      98
 287 0244 7530816D 		.ascii	"u0\201mmN\1770\365\225b9\013iY`\362T\316@\034[7\261"
 287      6D4E7F30 
 287      F5956239 
 287      0B695960 
 287      F254CE40 
 288 025c 957DA7A0 		.ascii	"\225}\247\240;%\365\256\316\251^\235K\345\0110\2455"
ARM GAS  /tmp/cczmZGAv.s 			page 22


 288      3B25F5AE 
 288      CEA95E9D 
 288      4BE50930 
 288      A535
 289 026e A9E2A378 		.ascii	"\251\342\243x%\362\250\370\030\024\275\212O\232\237"
 289      25F2A8F8 
 289      1814BD8A 
 289      4F9A9F
 290 027d C3F03967 		.ascii	"\303\3609g\301\036*\025\254GP\225\023\271`\332p*+h\207"
 290      C11E2A15 
 290      AC475095 
 290      13B960DA 
 290      702A2B68 
 291 0292 62EB373A 		.ascii	"b\3537:8r\216\256\276\025\350\220a\354%3l\305UP\301"
 291      38728EAE 
 291      BE15E890 
 291      61EC2533 
 291      6CC55550 
 292 02a7 34CBE366 		.ascii	"4\313\343f4\343\227\254q\336\311*\333O\231\323@\275"
 292      34E397AC 
 292      71DEC92A 
 292      DB4F99D3 
 292      40BD
 293 02b9 24719A22 		.ascii	"$q\232\"\357k\315\353\030\363\035o\227\372\232|(\365"
 293      EF6BCDEB 
 293      18F31D6F 
 293      97FA9A7C 
 293      28F5
 294 02cb 87D020A9 		.ascii	"\207\320 \251\276\261l\223\2719#\352\035\027\204\376"
 294      BEB16C93 
 294      B93923EA 
 294      1D1784FE 
 295 02db 0C2BBCF2 		.ascii	"\014+\274\362\325\357\360_:\353\227\344P\322\2753\200"
 295      D5EFF05F 
 295      3AEB97E4 
 295      50D2BD33 
 295      80
 296 02ec 1CB5ED90 		.ascii	"\034\265\355\220}\202\311~iye\315U|\026\222U\361\004"
 296      7D82C97E 
 296      697965CD 
 296      557C1692 
 296      55F104
 297 02ff 90B8321F 		.ascii	"\220\2702\037\315;\211lW\315\270\304\347v@*\033\311"
 297      CD3B896C 
 297      57CDB8C4 
 297      E776402A 
 297      1BC9
 298 0311 AE7CB626 		.ascii	"\256|\266&\231\353@\203\373l\311\025\237(S\374B\271"
 298      99EB4083 
 298      FB6CC915 
 298      9F2853FC 
 298      42B9
 299 0323 E2D3D7A9 		.ascii	"\342\323\327\251\342;\033\027\262e|WIr,\250\372\003"
 299      E23B1B17 
 299      B2657C57 
 299      49722CA8 
 299      FA03
ARM GAS  /tmp/cczmZGAv.s 			page 23


 300 0335 5375F6C0 		.ascii	"Su\366\300}\356\262^\206L\013\022Y\005\202\331\334\331"
 300      7DEEB25E 
 300      864C0B12 
 300      590582D9 
 300      DCD9
 301 0347 6C179D51 		.ascii	"l\027\235Q\313m\233,G\323\342\212[\211Y,\024\364+K\364"
 301      CB6D9B2C 
 301      47D3E28A 
 301      5B89592C 
 301      14F42B4B 
 302 035c E6C3EE79 		.ascii	"\346\303\356yN\002\340\221\205\34799g\236\327\02621"
 302      4E02E091 
 302      85E73939 
 302      679ED716 
 302      3231
 303 036e AE6B61BA 		.ascii	"\256ka\272\322\304(\342Z\020\246\351/\306\376\332\320"
 303      D2C428E2 
 303      5A10A6E9 
 303      2FC6FEDA 
 303      D0
 304 037f BDEEF4A7 		.ascii	"\275\356\364\247H9J\350\343\262\352\317z0\365)\270W"
 304      48394AE8 
 304      E3B2EACF 
 304      7A30F529 
 304      B857
 305 0391 BFBC82A7 		.ascii	"\277\274\202\247\312*\370GW\241,\372\012\332\351\261"
 305      CA2AF847 
 305      57A12CFA 
 305      0ADAE9B1 
 306 03a1 399D0FBB 		.ascii	"9\235\017\273S\232\001\204]\363\244\244\342\237\231"
 306      539A0184 
 306      5DF3A4A4 
 306      E29F99
 307 03b0 CF916A29 		.ascii	"\317\221j)\315\224Q\372E\244\364\000:h\\\274\2303\262"
 307      CD9451FA 
 307      45A4F400 
 307      3A685CBC 
 307      9833B2
 308 03c3 4DD9E962 		.ascii	"M\331\351b\261y1\312\231\347\310\201\020=\256L\017\216"
 308      B17931CA 
 308      99E7C881 
 308      103DAE4C 
 308      0F8E
 309 03d5 350D70C7 		.ascii	"5\015p\307\225:\206ON\241\245\263\03437\232\232d\326"
 309      953A864F 
 309      4EA1A5B3 
 309      1C33379A 
 309      9A64D6
 310 03e8 2ABE0E2F 		.ascii	"*\276\016/8\025\337\300\326+qYi\314\206EL\252d\257\371"
 310      3815DFC0 
 310      D62B7159 
 310      69CC8645 
 310      4CAA64AF 
 311 03fd 3BC871CE 		.ascii	";\310q\316\247\004\346\362\266\261wa\006\276\330t(q"
 311      A704E6F2 
 311      B6B17761 
 311      06BED874 
ARM GAS  /tmp/cczmZGAv.s 			page 24


 311      2871
 312 040f B3ACA586 		.ascii	"\263\254\245\206*\376\003[#\223\225\301\016\023A\277"
 312      2AFE035B 
 312      239395C1 
 312      0E1341BF 
 313 041f CB52B8C9 		.ascii	"\313R\270\311\345\025\364\363\243F!\177\333\016h\356"
 313      E515F4F3 
 313      A346217F 
 313      DB0E68EE 
 314 042f F3D82FBA 		.ascii	"\363\330/\272\233\373C\322t\024\224\247?\013U\274\010"
 314      9BFB43D2 
 314      741494A7 
 314      3F0B55BC 
 314      08
 315 0440 D3A41672 		.ascii	"\323\244\026r\220\274e\356\361\037\261*\035\035\376"
 315      90BC65EE 
 315      F11FB12A 
 315      1D1DFE
 316 044f FA1C3B49 		.ascii	"\372\034;I\372\034'I\237x\222\3641&\276\322I\222*\231"
 316      FA1C2749 
 316      9F7892F4 
 316      3126BED2 
 316      49922A99 
 317 0463 7FDC2965 		.ascii	"\177\334)e#\313A\241\341\356T\241\344?R%\355\212\220"
 317      23CB41A1 
 317      E1EE54A1 
 317      E43F5225 
 317      ED8A90
 318 0476 4DE5A3CC 		.ascii	"M\345\243\314\322Gc\315V\201\377\257\024\337\376\205"
 318      D24763CD 
 318      5681FFAF 
 318      14DFFE85 
 319 0486 42368231 		.ascii	"B6\2021\266\021\344\274\366N0\344e\032\037\375\366'"
 319      B611E4BC 
 319      F64E30E4 
 319      651A1FFD 
 319      F627
 320 0498 BAD0649B 		.ascii	"\272\320d\233\301]\362v\227,l\331f@|n\313\017T\356\233"
 320      C15DF276 
 320      972C6CD9 
 320      66407C6E 
 320      CB0F54EE 
 321 04ad 01711EAF 		.ascii	"\001q\036\257\021f\2738\317\335@\305\277s2\033\330Q"
 321      1166BB38 
 321      CFDD40C5 
 321      BF73321B 
 321      D851
 322 04bf DBB2F928 		.ascii	"\333\262\371(3T\361\333\312\302'd\207\"\233\220\006"
 322      3354F1DB 
 322      CAC22764 
 322      87229B90 
 322      06
 323 04d0 818D6D07 		.ascii	"\201\215m\007\303?\331\001jtp\377\027\036iB\012\372"
 323      C33FD901 
 323      6A7470FF 
 323      171E6942 
 323      0AFA
ARM GAS  /tmp/cczmZGAv.s 			page 25


 324 04e2 C4CB2FAE 		.ascii	"\304\313/\256y*\020ga\352]\005p\332\251xw\025\374\367"
 324      792A1067 
 324      61EA5D05 
 324      70DAA978 
 324      7715FCF7 
 325 04f6 48F90705 		.ascii	"H\371\007\005\376{\234\374\311\221\345Z\263,\031\005"
 325      FE7B9CFC 
 325      C991E55A 
 325      B32C1905 
 326 0506 7D5E0D77 		.ascii	"}^\015w\347\377\025d\334\313\377\377\360n\025\334sR"
 326      E7FF1564 
 326      DCCBFFFF 
 326      F06E15DC 
 326      7352
 327 0518 EEEC378F 		.ascii	"\356\3547\217`\307\270\223\267\371\354#\262d\024\364"
 327      60C7B893 
 327      B7F9EC23 
 327      B26414F4 
 328 0528 8DC01DD5 		.ascii	"\215\300\035\325\367i}\251\314\366H:\225\352\215\350"
 328      F7697DA9 
 328      CCF6483A 
 328      95EA8DE8 
 329 0538 B54F3DFB 		.ascii	"\265O=\373R\313\023hE[[\330\372K\365\2073z8\221\214"
 329      52CB1368 
 329      455B5BD8 
 329      FA4BF587 
 329      337A3891 
 330 054d F66E8D69 		.ascii	"\366n\215i\341h\034\254\211e\177[\034\005L\227\270\326"
 330      E1681CAC 
 330      89657F5B 
 330      1C054C97 
 330      B8D6
 331 055f 1DD332BE 		.ascii	"\035\3232\276t<\222\324\266\351\276\276\264y\255\355"
 331      743C92D4 
 331      B6E9BEBE 
 331      B479ADED 
 332 056f 4FBCA945 		.ascii	"O\274\251E\364W\302\251\264\036\336\370\3023\341-\321"
 332      F457C2A9 
 332      B41EDEF8 
 332      C233E12D 
 332      D1
 333 0580 686B77A6 		.ascii	"hkw\246\2575\231Jj\255ZwO\242\265#\262\276u\315\352"
 333      AF35994A 
 333      6AAD5A77 
 333      4FA2B523 
 333      B2BE75CD 
 334 0595 F6B5AFAF 		.ascii	"\366\265\257\257\015\367$\222\004\2537\321C\354\302"
 334      0DF72492 
 334      04AB37D1 
 334      43ECC2
 335 05a4 825DB8A3 		.ascii	"\202]\270\243m}[\007\313\240_\217\305\264\315\200\036"
 335      6D7D5B07 
 335      CBA05F8F 
 335      C5B4CD80 
 335      1E
 336 05b5 02A454CF 		.ascii	"\002\244T\317kZT\217\020\254 $\266E\3237oMF#\372\203"
 336      6B5A548F 
ARM GAS  /tmp/cczmZGAv.s 			page 26


 336      10AC2024 
 336      B645D337 
 336      6F4D4623 
 337 05cb 6EE94753 		.ascii	"n\351GS\031\215d\017\376\351L\352\215\004d\337\030\215"
 337      198D640F 
 337      FEE94CEA 
 337      8D0464DF 
 337      188D
 338 05dd 3F0F5C9E 		.ascii	"?\017\\\2363\303mJ&\364\026G\200\376L\224\347\036EJ"
 338      33C36D4A 
 338      26F41647 
 338      80FE4C94 
 338      E71E454A 
 339 05f1 5FDA4B60 		.ascii	"_\332K`\353\354\020\015V\210\247S\335\261\215\231L\367"
 339      EBEC100D 
 339      5688A753 
 339      DDB18D99 
 339      4CF7
 340 0603 769CC6C9 		.ascii	"v\234\306\311\240\365lcoo*\272)\300\335\320\361\223"
 340      A0F56C63 
 340      6F6F2ABA 
 340      29C0DDD0 
 340      F193
 341 0615 194DDBE4 		.ascii	"\031M\333\344\005\022\351E\245\007\336h\274;S\027\211"
 341      0512E945 
 341      A507DE68 
 341      BC3B5317 
 341      89
 342 0626 984C22F5 		.ascii	"\230L\"\365\366\240m]\373\352\325u[\023I}\355\232\210"
 342      F6A06D5D 
 342      FBEAD575 
 342      5B13497D 
 342      ED9A88
 343 0639 AEFF6FBA 		.ascii	"\256\377o\2722\242\360'~\317)\016\250\240\230\2372\210"
 343      32A2F027 
 343      7ECF290E 
 343      A8A0989F 
 343      3288
 344 064b C584ACD6 		.ascii	"\305\204\254\326\361w\355\035\374\335\232\216\377\000"
 344      F177ED1D 
 344      FCDD9A8E 
 344      FF00
 345 0659 A69DFFE5 		.ascii	"\246\235\377\345"
 346              		.text
 347              		.section	.gnu.lto_.symtab.b41347db75126108,"",%progbits
 348 0000 6368506F 		.ascii	"chPoolObjectInit\000\000\000\000\000\000\000\000\000"
 348      6F6C4F62 
 348      6A656374 
 348      496E6974 
 348      00000000 
 349 0019 000000A0 		.ascii	"\000\000\000\240\000\000\000chPoolLoadArray\000\000"
 349      00000063 
 349      68506F6F 
 349      6C4C6F61 
 349      64417272 
 350 0031 00000000 		.ascii	"\000\000\000\000\000\000\000\000\000\000\311\000\000"
 350      00000000 
ARM GAS  /tmp/cczmZGAv.s 			page 27


 350      0000C900 
 350      00
 351 003e 00636850 		.ascii	"\000chPoolAllocI\000\000\000\000\000\000\000\000\000"
 351      6F6F6C41 
 351      6C6C6F63 
 351      49000000 
 351      00000000 
 352 0054 000000D5 		.ascii	"\000\000\000\325\000\000\000chPoolAlloc\000\000\000"
 352      00000063 
 352      68506F6F 
 352      6C416C6C 
 352      6F630000 
 353 0069 00000000 		.ascii	"\000\000\000\000\000\000\000\000\000\333\000\000\000"
 353      00000000 
 353      00DB0000 
 353      00
 354 0076 6368506F 		.ascii	"chPoolFreeI\000\000\000\000\000\000\000\000\000\000"
 354      6F6C4672 
 354      65654900 
 354      00000000 
 354      00000000 
 355 008b 0000DF00 		.ascii	"\000\000\337\000\000\000chPoolFree\000\000\000\000\000"
 355      00006368 
 355      506F6F6C 
 355      46726565 
 355      00000000 
 356 00a0 00000000 		.ascii	"\000\000\000\000\000\000\000\350\000\000\000"
 356      000000E8 
 356      000000
 357              		.text
 358              		.section	.gnu.lto_.opts,"",%progbits
 359 0000 272D6D63 		.ascii	"'-mcpu=cortex-m3''-mno-thumb-interwork''-mthumb''-g"
 359      70753D63 
 359      6F727465 
 359      782D6D33 
 359      27272D6D 
 360 0033 67646227 		.ascii	"gdb''-O2''-fomit-frame-pointer''-falign-functions=1"
 360      272D4F32 
 360      27272D66 
 360      6F6D6974 
 360      2D667261 
 361 0066 3627272D 		.ascii	"6''-ffunction-sections''-fdata-sections''-fno-commo"
 361      6666756E 
 361      6374696F 
 361      6E2D7365 
 361      6374696F 
 362 0099 6E27272D 		.ascii	"n''-flto'\000"
 362      666C746F 
 362      2700
 363              		.text
 364              		.cfi_sections	.debug_frame
 365              		.section	.text.chPoolObjectInit,"ax",%progbits
 366              		.align	2
 367              		.p2align 4,,15
 368              		.global	chPoolObjectInit
 369              		.thumb
 370              		.thumb_func
ARM GAS  /tmp/cczmZGAv.s 			page 28


 371              		.type	chPoolObjectInit, %function
 372              	chPoolObjectInit:
 373              	.LFB165:
 374              		.file 1 "../../../os/rt/src/chmempools.c"
 375              		.loc 1 76 0
 376              		.cfi_startproc
 377              		@ args = 0, pretend = 0, frame = 0
 378              		@ frame_needed = 0, uses_anonymous_args = 0
 379              		@ link register save eliminated.
 380              	.LVL0:
 381              		.loc 1 80 0
 382 0000 0023     		movs	r3, #0
 383 0002 0360     		str	r3, [r0, #0]
 384              		.loc 1 81 0
 385 0004 4160     		str	r1, [r0, #4]
 386              		.loc 1 82 0
 387 0006 8260     		str	r2, [r0, #8]
 388 0008 7047     		bx	lr
 389              		.cfi_endproc
 390              	.LFE165:
 391              		.size	chPoolObjectInit, .-chPoolObjectInit
 392 000a 00BFAFF3 		.section	.text.chPoolLoadArray,"ax",%progbits
 392      0080
 393              		.align	2
 394              		.p2align 4,,15
 395              		.global	chPoolLoadArray
 396              		.thumb
 397              		.thumb_func
 398              		.type	chPoolLoadArray, %function
 399              	chPoolLoadArray:
 400              	.LFB166:
 401              		.loc 1 98 0
 402              		.cfi_startproc
 403              		@ args = 0, pretend = 0, frame = 0
 404              		@ frame_needed = 0, uses_anonymous_args = 0
 405              		@ link register save eliminated.
 406              	.LVL1:
 407 0000 F0B4     		push	{r4, r5, r6, r7}
 408              	.LCFI0:
 409              		.cfi_def_cfa_offset 16
 410              		.cfi_offset 4, -16
 411              		.cfi_offset 5, -12
 412              		.cfi_offset 6, -8
 413              		.cfi_offset 7, -4
 414              		.loc 1 102 0
 415 0002 002A     		cmp	r2, #0
 416 0004 2FD0     		beq	.L2
 417 0006 531E     		subs	r3, r2, #1
 418              	.LBB65:
 419              	.LBB66:
 420              	.LBB67:
 421              	.LBB68:
 422              	.LBB69:
 423              	.LBB70:
 424              		.file 2 "../../../os/ext/CMSIS/include/core_cmFunc.h"
 425              		.loc 2 546 0
 426 0008 2026     		movs	r6, #32
ARM GAS  /tmp/cczmZGAv.s 			page 29


 427              	.LBE70:
 428              	.LBE69:
 429              	.LBE68:
 430              	.LBE67:
 431              	.LBB83:
 432              	.LBB84:
 433              	.LBB85:
 434              	.LBB86:
 435              	.LBB87:
 436 000a 0025     		movs	r5, #0
 437 000c 03F00104 		and	r4, r3, #1
 438              	.LVL2:
 439              	.LBE87:
 440              	.LBE86:
 441              	.LBE85:
 442              	.LBE84:
 443              	.LBE83:
 444              	.LBB104:
 445              	.LBB79:
 446              	.LBB75:
 447              	.LBB71:
 448              	@ 546 "../../../os/ext/CMSIS/include/core_cmFunc.h" 1
 449 0010 86F31188 		MSR basepri, r6
 450              	@ 0 "" 2
 451              	.LVL3:
 452              		.thumb
 453              	.LBE71:
 454              	.LBE75:
 455              	.LBE79:
 456              	.LBE104:
 457              	.LBB105:
 458              	.LBB106:
 459              		.loc 1 169 0
 460 0014 0268     		ldr	r2, [r0, #0]
 461              	.LVL4:
 462 0016 0A60     		str	r2, [r1, #0]
 463              		.loc 1 170 0
 464 0018 0160     		str	r1, [r0, #0]
 465              	.LVL5:
 466              	.LBE106:
 467              	.LBE105:
 468              	.LBB110:
 469              	.LBB100:
 470              	.LBB96:
 471              	.LBB92:
 472              	.LBB88:
 473              		.loc 2 546 0
 474              	@ 546 "../../../os/ext/CMSIS/include/core_cmFunc.h" 1
 475 001a 85F31188 		MSR basepri, r5
 476              	@ 0 "" 2
 477              		.thumb
 478              	.LBE88:
 479              	.LBE92:
 480              	.LBE96:
 481              	.LBE100:
 482              	.LBE110:
 483              	.LBE66:
ARM GAS  /tmp/cczmZGAv.s 			page 30


 484              	.LBE65:
 485              		.loc 1 104 0
 486 001e 4268     		ldr	r2, [r0, #4]
 487 0020 8918     		adds	r1, r1, r2
 488              	.LVL6:
 489              		.loc 1 102 0
 490 0022 03B3     		cbz	r3, .L2
 491 0024 54B1     		cbz	r4, .L6
 492              	.LVL7:
 493              	.LBB123:
 494              	.LBB120:
 495              	.LBB111:
 496              	.LBB80:
 497              	.LBB76:
 498              	.LBB72:
 499              		.loc 2 546 0
 500              	@ 546 "../../../os/ext/CMSIS/include/core_cmFunc.h" 1
 501 0026 86F31188 		MSR basepri, r6
 502              	@ 0 "" 2
 503              	.LVL8:
 504              		.thumb
 505              	.LBE72:
 506              	.LBE76:
 507              	.LBE80:
 508              	.LBE111:
 509              	.LBB112:
 510              	.LBB107:
 511              		.loc 1 169 0
 512 002a 0268     		ldr	r2, [r0, #0]
 513 002c 0A60     		str	r2, [r1, #0]
 514              		.loc 1 170 0
 515 002e 0160     		str	r1, [r0, #0]
 516              	.LBE107:
 517              	.LBE112:
 518              	.LBB113:
 519              	.LBB101:
 520              	.LBB97:
 521              	.LBB93:
 522              	.LBB89:
 523              		.loc 2 546 0
 524              	@ 546 "../../../os/ext/CMSIS/include/core_cmFunc.h" 1
 525 0030 85F31188 		MSR basepri, r5
 526              	@ 0 "" 2
 527              		.thumb
 528              	.LBE89:
 529              	.LBE93:
 530              	.LBE97:
 531              	.LBE101:
 532              	.LBE113:
 533              	.LBE120:
 534              	.LBE123:
 535              		.loc 1 104 0
 536 0034 4268     		ldr	r2, [r0, #4]
 537              		.loc 1 102 0
 538 0036 013B     		subs	r3, r3, #1
 539              	.LVL9:
 540              		.loc 1 104 0
ARM GAS  /tmp/cczmZGAv.s 			page 31


 541 0038 1144     		add	r1, r1, r2
 542              	.LVL10:
 543              		.loc 1 102 0
 544 003a 14D0     		beq	.L2
 545              	.L6:
 546              	.LBB124:
 547              	.LBB121:
 548              	.LBB114:
 549              	.LBB81:
 550              	.LBB77:
 551              	.LBB73:
 552              		.loc 2 546 0
 553              	@ 546 "../../../os/ext/CMSIS/include/core_cmFunc.h" 1
 554 003c 86F31188 		MSR basepri, r6
 555              	@ 0 "" 2
 556              		.thumb
 557              	.LBE73:
 558              	.LBE77:
 559              	.LBE81:
 560              	.LBE114:
 561              	.LBB115:
 562              	.LBB108:
 563              		.loc 1 169 0
 564 0040 0468     		ldr	r4, [r0, #0]
 565 0042 0C60     		str	r4, [r1, #0]
 566              		.loc 1 170 0
 567 0044 0160     		str	r1, [r0, #0]
 568              	.LBE108:
 569              	.LBE115:
 570              	.LBB116:
 571              	.LBB102:
 572              	.LBB98:
 573              	.LBB94:
 574              	.LBB90:
 575              		.loc 2 546 0
 576              	@ 546 "../../../os/ext/CMSIS/include/core_cmFunc.h" 1
 577 0046 85F31188 		MSR basepri, r5
 578              	@ 0 "" 2
 579              		.thumb
 580              	.LBE90:
 581              	.LBE94:
 582              	.LBE98:
 583              	.LBE102:
 584              	.LBE116:
 585              	.LBE121:
 586              	.LBE124:
 587              		.loc 1 104 0
 588 004a 4468     		ldr	r4, [r0, #4]
 589              		.loc 1 105 0
 590 004c 013B     		subs	r3, r3, #1
 591              		.loc 1 104 0
 592 004e 0A19     		adds	r2, r1, r4
 593              	.LBB125:
 594              	.LBB122:
 595              	.LBB117:
 596              	.LBB82:
 597              	.LBB78:
ARM GAS  /tmp/cczmZGAv.s 			page 32


 598              	.LBB74:
 599              		.loc 2 546 0
 600              	@ 546 "../../../os/ext/CMSIS/include/core_cmFunc.h" 1
 601 0050 86F31188 		MSR basepri, r6
 602              	@ 0 "" 2
 603              		.thumb
 604              	.LBE74:
 605              	.LBE78:
 606              	.LBE82:
 607              	.LBE117:
 608              	.LBB118:
 609              	.LBB109:
 610              		.loc 1 169 0
 611 0054 0768     		ldr	r7, [r0, #0]
 612 0056 0F51     		str	r7, [r1, r4]
 613              		.loc 1 170 0
 614 0058 0260     		str	r2, [r0, #0]
 615              	.LBE109:
 616              	.LBE118:
 617              	.LBB119:
 618              	.LBB103:
 619              	.LBB99:
 620              	.LBB95:
 621              	.LBB91:
 622              		.loc 2 546 0
 623              	@ 546 "../../../os/ext/CMSIS/include/core_cmFunc.h" 1
 624 005a 85F31188 		MSR basepri, r5
 625              	@ 0 "" 2
 626              		.thumb
 627              	.LBE91:
 628              	.LBE95:
 629              	.LBE99:
 630              	.LBE103:
 631              	.LBE119:
 632              	.LBE122:
 633              	.LBE125:
 634              		.loc 1 104 0
 635 005e 4168     		ldr	r1, [r0, #4]
 636              		.loc 1 102 0
 637 0060 013B     		subs	r3, r3, #1
 638              		.loc 1 104 0
 639 0062 1144     		add	r1, r2, r1
 640              		.loc 1 102 0
 641 0064 EAD1     		bne	.L6
 642              	.LVL11:
 643              	.L2:
 644              		.loc 1 107 0
 645 0066 F0BC     		pop	{r4, r5, r6, r7}
 646 0068 7047     		bx	lr
 647              		.cfi_endproc
 648              	.LFE166:
 649              		.size	chPoolLoadArray, .-chPoolLoadArray
 650 006a 00BFAFF3 		.section	.text.chPoolAllocI,"ax",%progbits
 650      0080
 651              		.align	2
 652              		.p2align 4,,15
 653              		.global	chPoolAllocI
ARM GAS  /tmp/cczmZGAv.s 			page 33


 654              		.thumb
 655              		.thumb_func
 656              		.type	chPoolAllocI, %function
 657              	chPoolAllocI:
 658              	.LFB167:
 659              		.loc 1 119 0
 660              		.cfi_startproc
 661              		@ args = 0, pretend = 0, frame = 0
 662              		@ frame_needed = 0, uses_anonymous_args = 0
 663              	.LVL12:
 664 0000 08B5     		push	{r3, lr}
 665              	.LCFI1:
 666              		.cfi_def_cfa_offset 8
 667              		.cfi_offset 3, -8
 668              		.cfi_offset 14, -4
 669              		.loc 1 119 0
 670 0002 0346     		mov	r3, r0
 671              		.loc 1 125 0
 672 0004 0068     		ldr	r0, [r0, #0]
 673              	.LVL13:
 674 0006 10B1     		cbz	r0, .L16
 675              		.loc 1 126 0
 676 0008 0168     		ldr	r1, [r0, #0]
 677 000a 1960     		str	r1, [r3, #0]
 678 000c 08BD     		pop	{r3, pc}
 679              	.L16:
 680              		.loc 1 127 0
 681 000e 9A68     		ldr	r2, [r3, #8]
 682 0010 0AB1     		cbz	r2, .L17
 683              		.loc 1 128 0
 684 0012 5868     		ldr	r0, [r3, #4]
 685              	.LVL14:
 686 0014 9047     		blx	r2
 687              	.LVL15:
 688              	.L17:
 689              		.loc 1 130 0
 690 0016 08BD     		pop	{r3, pc}
 691              		.cfi_endproc
 692              	.LFE167:
 693              		.size	chPoolAllocI, .-chPoolAllocI
 694 0018 AFF30080 		.section	.text.chPoolAlloc,"ax",%progbits
 694      AFF30080 
 695              		.align	2
 696              		.p2align 4,,15
 697              		.global	chPoolAlloc
 698              		.thumb
 699              		.thumb_func
 700              		.type	chPoolAlloc, %function
 701              	chPoolAlloc:
 702              	.LFB168:
 703              		.loc 1 142 0
 704              		.cfi_startproc
 705              		@ args = 0, pretend = 0, frame = 0
 706              		@ frame_needed = 0, uses_anonymous_args = 0
 707              	.LVL16:
 708 0000 08B5     		push	{r3, lr}
 709              	.LCFI2:
ARM GAS  /tmp/cczmZGAv.s 			page 34


 710              		.cfi_def_cfa_offset 8
 711              		.cfi_offset 3, -8
 712              		.cfi_offset 14, -4
 713              	.LBB126:
 714              	.LBB127:
 715              	.LBB128:
 716              	.LBB129:
 717              		.loc 2 546 0
 718 0002 2022     		movs	r2, #32
 719              	.LBE129:
 720              	.LBE128:
 721              	.LBE127:
 722              	.LBE126:
 723              		.loc 1 142 0
 724 0004 0346     		mov	r3, r0
 725              	.LBB133:
 726              	.LBB132:
 727              	.LBB131:
 728              	.LBB130:
 729              		.loc 2 546 0
 730              	@ 546 "../../../os/ext/CMSIS/include/core_cmFunc.h" 1
 731 0006 82F31188 		MSR basepri, r2
 732              	@ 0 "" 2
 733              	.LVL17:
 734              		.thumb
 735              	.LBE130:
 736              	.LBE131:
 737              	.LBE132:
 738              	.LBE133:
 739              	.LBB134:
 740              	.LBB135:
 741              		.loc 1 125 0
 742 000a 0068     		ldr	r0, [r0, #0]
 743              	.LVL18:
 744 000c 28B1     		cbz	r0, .L22
 745              		.loc 1 126 0
 746 000e 0268     		ldr	r2, [r0, #0]
 747 0010 1A60     		str	r2, [r3, #0]
 748              	.LVL19:
 749              	.L23:
 750              	.LBE135:
 751              	.LBE134:
 752              	.LBB137:
 753              	.LBB138:
 754              	.LBB139:
 755              	.LBB140:
 756              	.LBB141:
 757              		.loc 2 546 0
 758 0012 0023     		movs	r3, #0
 759              	@ 546 "../../../os/ext/CMSIS/include/core_cmFunc.h" 1
 760 0014 83F31188 		MSR basepri, r3
 761              	@ 0 "" 2
 762              		.thumb
 763              	.LBE141:
 764              	.LBE140:
 765              	.LBE139:
 766              	.LBE138:
ARM GAS  /tmp/cczmZGAv.s 			page 35


 767              	.LBE137:
 768              		.loc 1 149 0
 769 0018 08BD     		pop	{r3, pc}
 770              	.LVL20:
 771              	.L22:
 772              	.LBB142:
 773              	.LBB136:
 774              		.loc 1 127 0
 775 001a 9968     		ldr	r1, [r3, #8]
 776 001c 0029     		cmp	r1, #0
 777 001e F8D0     		beq	.L23
 778              		.loc 1 128 0
 779 0020 5868     		ldr	r0, [r3, #4]
 780              	.LVL21:
 781 0022 8847     		blx	r1
 782              	.LVL22:
 783 0024 F5E7     		b	.L23
 784              	.LBE136:
 785              	.LBE142:
 786              		.cfi_endproc
 787              	.LFE168:
 788              		.size	chPoolAlloc, .-chPoolAlloc
 789 0026 00BFAFF3 		.section	.text.chPoolFreeI,"ax",%progbits
 789      0080AFF3 
 789      0080
 790              		.align	2
 791              		.p2align 4,,15
 792              		.global	chPoolFreeI
 793              		.thumb
 794              		.thumb_func
 795              		.type	chPoolFreeI, %function
 796              	chPoolFreeI:
 797              	.LFB169:
 798              		.loc 1 163 0
 799              		.cfi_startproc
 800              		@ args = 0, pretend = 0, frame = 0
 801              		@ frame_needed = 0, uses_anonymous_args = 0
 802              		@ link register save eliminated.
 803              	.LVL23:
 804              		.loc 1 169 0
 805 0000 0368     		ldr	r3, [r0, #0]
 806              	.LVL24:
 807 0002 0B60     		str	r3, [r1, #0]
 808              		.loc 1 170 0
 809 0004 0160     		str	r1, [r0, #0]
 810 0006 7047     		bx	lr
 811              		.cfi_endproc
 812              	.LFE169:
 813              		.size	chPoolFreeI, .-chPoolFreeI
 814 0008 AFF30080 		.section	.text.chPoolFree,"ax",%progbits
 814      AFF30080 
 815              		.align	2
 816              		.p2align 4,,15
 817              		.global	chPoolFree
 818              		.thumb
 819              		.thumb_func
 820              		.type	chPoolFree, %function
ARM GAS  /tmp/cczmZGAv.s 			page 36


 821              	chPoolFree:
 822              	.LFB170:
 823              		.loc 1 185 0
 824              		.cfi_startproc
 825              		@ args = 0, pretend = 0, frame = 0
 826              		@ frame_needed = 0, uses_anonymous_args = 0
 827              		@ link register save eliminated.
 828              	.LVL25:
 829              	.LBB143:
 830              	.LBB144:
 831              	.LBB145:
 832              	.LBB146:
 833              		.loc 2 546 0
 834 0000 2023     		movs	r3, #32
 835              	@ 546 "../../../os/ext/CMSIS/include/core_cmFunc.h" 1
 836 0002 83F31188 		MSR basepri, r3
 837              	@ 0 "" 2
 838              	.LVL26:
 839              		.thumb
 840              	.LBE146:
 841              	.LBE145:
 842              	.LBE144:
 843              	.LBE143:
 844              	.LBB147:
 845              	.LBB148:
 846              		.loc 1 169 0
 847 0006 0268     		ldr	r2, [r0, #0]
 848 0008 0A60     		str	r2, [r1, #0]
 849              		.loc 1 170 0
 850 000a 0160     		str	r1, [r0, #0]
 851              	.LVL27:
 852              	.LBE148:
 853              	.LBE147:
 854              	.LBB149:
 855              	.LBB150:
 856              	.LBB151:
 857              	.LBB152:
 858              	.LBB153:
 859              		.loc 2 546 0
 860 000c 0020     		movs	r0, #0
 861              	.LVL28:
 862              	@ 546 "../../../os/ext/CMSIS/include/core_cmFunc.h" 1
 863 000e 80F31188 		MSR basepri, r0
 864              	@ 0 "" 2
 865              		.thumb
 866 0012 7047     		bx	lr
 867              	.LBE153:
 868              	.LBE152:
 869              	.LBE151:
 870              	.LBE150:
 871              	.LBE149:
 872              		.cfi_endproc
 873              	.LFE170:
 874              		.size	chPoolFree, .-chPoolFree
 875 0014 AFF30080 		.text
 875      AFF30080 
 875      AFF30080 
ARM GAS  /tmp/cczmZGAv.s 			page 37


 876              	.Letext0:
 877              		.file 3 "../../../os/rt/include/chschd.h"
 878              		.file 4 "/opt/ARM/gcc-arm-none-eabi-4_7-2013q3/bin/../lib/gcc/arm-none-eabi/4.7.4/include/stddef.h
 879              		.file 5 "/opt/ARM/gcc-arm-none-eabi-4_7-2013q3/bin/../lib/gcc/arm-none-eabi/4.7.4/../../../../arm-
 880              		.file 6 "../../../os/rt/ports/ARMCMx/compilers/GCC/chtypes.h"
 881              		.file 7 "../../../os/rt/ports/ARMCMx/chcore.h"
 882              		.file 8 "../../../os/rt/ports/ARMCMx/chcore_v7m.h"
 883              		.file 9 "../../../os/rt/include/chmtx.h"
 884              		.file 10 "../../../os/rt/include/chmemcore.h"
 885              		.file 11 "../../../os/rt/include/chmempools.h"
 886              		.file 12 "../../../os/rt/include/chsys.h"
 887              		.file 13 "../../../os/ext/CMSIS/include/core_cm3.h"
 888              		.section	.debug_info,"",%progbits
 889              	.Ldebug_info0:
 890 0000 160B0000 		.4byte	0xb16
 891 0004 0200     		.2byte	0x2
 892 0006 00000000 		.4byte	.Ldebug_abbrev0
 893 000a 04       		.byte	0x4
 894 000b 01       		.uleb128 0x1
 895 000c DC000000 		.4byte	.LASF106
 896 0010 01       		.byte	0x1
 897 0011 DC040000 		.4byte	.LASF107
 898 0015 AE030000 		.4byte	.LASF108
 899 0019 68020000 		.4byte	.Ldebug_ranges0+0x268
 900 001d 00000000 		.4byte	0
 901 0021 00000000 		.4byte	0
 902 0025 00000000 		.4byte	.Ldebug_line0
 903 0029 02       		.uleb128 0x2
 904 002a 41010000 		.4byte	.LASF41
 905 002e 44       		.byte	0x44
 906 002f 03       		.byte	0x3
 907 0030 79       		.byte	0x79
 908 0031 32010000 		.4byte	0x132
 909 0035 03       		.uleb128 0x3
 910 0036 0D030000 		.4byte	.LASF0
 911 003a 03       		.byte	0x3
 912 003b 7A       		.byte	0x7a
 913 003c F3020000 		.4byte	0x2f3
 914 0040 02       		.byte	0x2
 915 0041 23       		.byte	0x23
 916 0042 00       		.uleb128 0
 917 0043 03       		.uleb128 0x3
 918 0044 B8020000 		.4byte	.LASF1
 919 0048 03       		.byte	0x3
 920 0049 7C       		.byte	0x7c
 921 004a F3020000 		.4byte	0x2f3
 922 004e 02       		.byte	0x2
 923 004f 23       		.byte	0x23
 924 0050 04       		.uleb128 0x4
 925 0051 03       		.uleb128 0x3
 926 0052 9F000000 		.4byte	.LASF2
 927 0056 03       		.byte	0x3
 928 0057 7E       		.byte	0x7e
 929 0058 E0010000 		.4byte	0x1e0
 930 005c 02       		.byte	0x2
 931 005d 23       		.byte	0x23
 932 005e 08       		.uleb128 0x8
ARM GAS  /tmp/cczmZGAv.s 			page 38


 933 005f 03       		.uleb128 0x3
 934 0060 FC040000 		.4byte	.LASF3
 935 0064 03       		.byte	0x3
 936 0065 7F       		.byte	0x7f
 937 0066 20020000 		.4byte	0x220
 938 006a 02       		.byte	0x2
 939 006b 23       		.byte	0x23
 940 006c 0C       		.uleb128 0xc
 941 006d 03       		.uleb128 0x3
 942 006e 59010000 		.4byte	.LASF4
 943 0072 03       		.byte	0x3
 944 0073 81       		.byte	0x81
 945 0074 F3020000 		.4byte	0x2f3
 946 0078 02       		.byte	0x2
 947 0079 23       		.byte	0x23
 948 007a 10       		.uleb128 0x10
 949 007b 03       		.uleb128 0x3
 950 007c 69020000 		.4byte	.LASF5
 951 0080 03       		.byte	0x3
 952 0081 82       		.byte	0x82
 953 0082 F3020000 		.4byte	0x2f3
 954 0086 02       		.byte	0x2
 955 0087 23       		.byte	0x23
 956 0088 14       		.uleb128 0x14
 957 0089 03       		.uleb128 0x3
 958 008a 94040000 		.4byte	.LASF6
 959 008e 03       		.byte	0x3
 960 008f 89       		.byte	0x89
 961 0090 C3030000 		.4byte	0x3c3
 962 0094 02       		.byte	0x2
 963 0095 23       		.byte	0x23
 964 0096 18       		.uleb128 0x18
 965 0097 03       		.uleb128 0x3
 966 0098 F7020000 		.4byte	.LASF7
 967 009c 03       		.byte	0x3
 968 009d 94       		.byte	0x94
 969 009e CA010000 		.4byte	0x1ca
 970 00a2 02       		.byte	0x2
 971 00a3 23       		.byte	0x23
 972 00a4 1C       		.uleb128 0x1c
 973 00a5 03       		.uleb128 0x3
 974 00a6 94010000 		.4byte	.LASF8
 975 00aa 03       		.byte	0x3
 976 00ab 98       		.byte	0x98
 977 00ac BF010000 		.4byte	0x1bf
 978 00b0 02       		.byte	0x2
 979 00b1 23       		.byte	0x23
 980 00b2 1D       		.uleb128 0x1d
 981 00b3 03       		.uleb128 0x3
 982 00b4 61040000 		.4byte	.LASF9
 983 00b8 03       		.byte	0x3
 984 00b9 9D       		.byte	0x9d
 985 00ba D5010000 		.4byte	0x1d5
 986 00be 02       		.byte	0x2
 987 00bf 23       		.byte	0x23
 988 00c0 1E       		.uleb128 0x1e
 989 00c1 04       		.uleb128 0x4
ARM GAS  /tmp/cczmZGAv.s 			page 39


 990 00c2 705F7500 		.ascii	"p_u\000"
 991 00c6 03       		.byte	0x3
 992 00c7 CF       		.byte	0xcf
 993 00c8 8E030000 		.4byte	0x38e
 994 00cc 02       		.byte	0x2
 995 00cd 23       		.byte	0x23
 996 00ce 20       		.uleb128 0x20
 997 00cf 03       		.uleb128 0x3
 998 00d0 31020000 		.4byte	.LASF10
 999 00d4 03       		.byte	0x3
 1000 00d5 D4       		.byte	0xd4
 1001 00d6 1B030000 		.4byte	0x31b
 1002 00da 02       		.byte	0x2
 1003 00db 23       		.byte	0x23
 1004 00dc 24       		.uleb128 0x24
 1005 00dd 03       		.uleb128 0x3
 1006 00de BF010000 		.4byte	.LASF11
 1007 00e2 03       		.byte	0x3
 1008 00e3 DA       		.byte	0xda
 1009 00e4 F9020000 		.4byte	0x2f9
 1010 00e8 02       		.byte	0x2
 1011 00e9 23       		.byte	0x23
 1012 00ea 28       		.uleb128 0x28
 1013 00eb 03       		.uleb128 0x3
 1014 00ec 0F040000 		.4byte	.LASF12
 1015 00f0 03       		.byte	0x3
 1016 00f1 DE       		.byte	0xde
 1017 00f2 EB010000 		.4byte	0x1eb
 1018 00f6 02       		.byte	0x2
 1019 00f7 23       		.byte	0x23
 1020 00f8 30       		.uleb128 0x30
 1021 00f9 03       		.uleb128 0x3
 1022 00fa 23030000 		.4byte	.LASF13
 1023 00fe 03       		.byte	0x3
 1024 00ff E4       		.byte	0xe4
 1025 0100 F6010000 		.4byte	0x1f6
 1026 0104 02       		.byte	0x2
 1027 0105 23       		.byte	0x23
 1028 0106 34       		.uleb128 0x34
 1029 0107 03       		.uleb128 0x3
 1030 0108 E3020000 		.4byte	.LASF14
 1031 010c 03       		.byte	0x3
 1032 010d EB       		.byte	0xeb
 1033 010e 0C040000 		.4byte	0x40c
 1034 0112 02       		.byte	0x2
 1035 0113 23       		.byte	0x23
 1036 0114 38       		.uleb128 0x38
 1037 0115 03       		.uleb128 0x3
 1038 0116 70030000 		.4byte	.LASF15
 1039 011a 03       		.byte	0x3
 1040 011b EF       		.byte	0xef
 1041 011c E0010000 		.4byte	0x1e0
 1042 0120 02       		.byte	0x2
 1043 0121 23       		.byte	0x23
 1044 0122 3C       		.uleb128 0x3c
 1045 0123 03       		.uleb128 0x3
 1046 0124 C0000000 		.4byte	.LASF16
ARM GAS  /tmp/cczmZGAv.s 			page 40


 1047 0128 03       		.byte	0x3
 1048 0129 F5       		.byte	0xf5
 1049 012a 1E020000 		.4byte	0x21e
 1050 012e 02       		.byte	0x2
 1051 012f 23       		.byte	0x23
 1052 0130 40       		.uleb128 0x40
 1053 0131 00       		.byte	0
 1054 0132 05       		.uleb128 0x5
 1055 0133 04       		.byte	0x4
 1056 0134 05       		.byte	0x5
 1057 0135 696E7400 		.ascii	"int\000"
 1058 0139 06       		.uleb128 0x6
 1059 013a 0D000000 		.4byte	.LASF19
 1060 013e 04       		.byte	0x4
 1061 013f D5       		.byte	0xd5
 1062 0140 44010000 		.4byte	0x144
 1063 0144 07       		.uleb128 0x7
 1064 0145 04       		.byte	0x4
 1065 0146 07       		.byte	0x7
 1066 0147 AA010000 		.4byte	.LASF17
 1067 014b 07       		.uleb128 0x7
 1068 014c 01       		.byte	0x1
 1069 014d 06       		.byte	0x6
 1070 014e B4000000 		.4byte	.LASF18
 1071 0152 06       		.uleb128 0x6
 1072 0153 6E040000 		.4byte	.LASF20
 1073 0157 05       		.byte	0x5
 1074 0158 2A       		.byte	0x2a
 1075 0159 5D010000 		.4byte	0x15d
 1076 015d 07       		.uleb128 0x7
 1077 015e 01       		.byte	0x1
 1078 015f 08       		.byte	0x8
 1079 0160 D5020000 		.4byte	.LASF21
 1080 0164 07       		.uleb128 0x7
 1081 0165 02       		.byte	0x2
 1082 0166 05       		.byte	0x5
 1083 0167 ED020000 		.4byte	.LASF22
 1084 016b 06       		.uleb128 0x6
 1085 016c 50010000 		.4byte	.LASF23
 1086 0170 05       		.byte	0x5
 1087 0171 36       		.byte	0x36
 1088 0172 76010000 		.4byte	0x176
 1089 0176 07       		.uleb128 0x7
 1090 0177 02       		.byte	0x2
 1091 0178 07       		.byte	0x7
 1092 0179 DD010000 		.4byte	.LASF24
 1093 017d 06       		.uleb128 0x6
 1094 017e CD020000 		.4byte	.LASF25
 1095 0182 05       		.byte	0x5
 1096 0183 4F       		.byte	0x4f
 1097 0184 88010000 		.4byte	0x188
 1098 0188 07       		.uleb128 0x7
 1099 0189 04       		.byte	0x4
 1100 018a 05       		.byte	0x5
 1101 018b 2F010000 		.4byte	.LASF26
 1102 018f 06       		.uleb128 0x6
 1103 0190 2E030000 		.4byte	.LASF27
ARM GAS  /tmp/cczmZGAv.s 			page 41


 1104 0194 05       		.byte	0x5
 1105 0195 50       		.byte	0x50
 1106 0196 9A010000 		.4byte	0x19a
 1107 019a 07       		.uleb128 0x7
 1108 019b 04       		.byte	0x4
 1109 019c 07       		.byte	0x7
 1110 019d 48030000 		.4byte	.LASF28
 1111 01a1 07       		.uleb128 0x7
 1112 01a2 08       		.byte	0x8
 1113 01a3 05       		.byte	0x5
 1114 01a4 A6000000 		.4byte	.LASF29
 1115 01a8 07       		.uleb128 0x7
 1116 01a9 08       		.byte	0x8
 1117 01aa 07       		.byte	0x7
 1118 01ab 5C000000 		.4byte	.LASF30
 1119 01af 08       		.uleb128 0x8
 1120 01b0 7D010000 		.4byte	0x17d
 1121 01b4 06       		.uleb128 0x6
 1122 01b5 15040000 		.4byte	.LASF31
 1123 01b9 06       		.byte	0x6
 1124 01ba 46       		.byte	0x46
 1125 01bb 8F010000 		.4byte	0x18f
 1126 01bf 06       		.uleb128 0x6
 1127 01c0 0C020000 		.4byte	.LASF32
 1128 01c4 06       		.byte	0x6
 1129 01c5 49       		.byte	0x49
 1130 01c6 52010000 		.4byte	0x152
 1131 01ca 06       		.uleb128 0x6
 1132 01cb 38010000 		.4byte	.LASF33
 1133 01cf 06       		.byte	0x6
 1134 01d0 4A       		.byte	0x4a
 1135 01d1 52010000 		.4byte	0x152
 1136 01d5 06       		.uleb128 0x6
 1137 01d6 A0020000 		.4byte	.LASF34
 1138 01da 06       		.byte	0x6
 1139 01db 4B       		.byte	0x4b
 1140 01dc 52010000 		.4byte	0x152
 1141 01e0 06       		.uleb128 0x6
 1142 01e1 BF020000 		.4byte	.LASF35
 1143 01e5 06       		.byte	0x6
 1144 01e6 4D       		.byte	0x4d
 1145 01e7 8F010000 		.4byte	0x18f
 1146 01eb 06       		.uleb128 0x6
 1147 01ec F0010000 		.4byte	.LASF36
 1148 01f0 06       		.byte	0x6
 1149 01f1 4E       		.byte	0x4e
 1150 01f2 7D010000 		.4byte	0x17d
 1151 01f6 06       		.uleb128 0x6
 1152 01f7 25020000 		.4byte	.LASF37
 1153 01fb 06       		.byte	0x6
 1154 01fc 50       		.byte	0x50
 1155 01fd 8F010000 		.4byte	0x18f
 1156 0201 07       		.uleb128 0x7
 1157 0202 04       		.byte	0x4
 1158 0203 07       		.byte	0x7
 1159 0204 3B020000 		.4byte	.LASF38
 1160 0208 06       		.uleb128 0x6
ARM GAS  /tmp/cczmZGAv.s 			page 42


 1161 0209 66030000 		.4byte	.LASF39
 1162 020d 07       		.byte	0x7
 1163 020e 89       		.byte	0x89
 1164 020f 6B010000 		.4byte	0x16b
 1165 0213 06       		.uleb128 0x6
 1166 0214 75010000 		.4byte	.LASF40
 1167 0218 07       		.byte	0x7
 1168 0219 8F       		.byte	0x8f
 1169 021a 1E020000 		.4byte	0x21e
 1170 021e 09       		.uleb128 0x9
 1171 021f 04       		.byte	0x4
 1172 0220 02       		.uleb128 0x2
 1173 0221 07040000 		.4byte	.LASF42
 1174 0225 04       		.byte	0x4
 1175 0226 07       		.byte	0x7
 1176 0227 B3       		.byte	0xb3
 1177 0228 3B020000 		.4byte	0x23b
 1178 022c 04       		.uleb128 0x4
 1179 022d 72313300 		.ascii	"r13\000"
 1180 0231 07       		.byte	0x7
 1181 0232 B4       		.byte	0xb4
 1182 0233 C8020000 		.4byte	0x2c8
 1183 0237 02       		.byte	0x2
 1184 0238 23       		.byte	0x23
 1185 0239 00       		.uleb128 0
 1186 023a 00       		.byte	0
 1187 023b 02       		.uleb128 0x2
 1188 023c 1B000000 		.4byte	.LASF43
 1189 0240 24       		.byte	0x24
 1190 0241 08       		.byte	0x8
 1191 0242 F5       		.byte	0xf5
 1192 0243 C8020000 		.4byte	0x2c8
 1193 0247 0A       		.uleb128 0xa
 1194 0248 723400   		.ascii	"r4\000"
 1195 024b 08       		.byte	0x8
 1196 024c 0801     		.2byte	0x108
 1197 024e 13020000 		.4byte	0x213
 1198 0252 02       		.byte	0x2
 1199 0253 23       		.byte	0x23
 1200 0254 00       		.uleb128 0
 1201 0255 0A       		.uleb128 0xa
 1202 0256 723500   		.ascii	"r5\000"
 1203 0259 08       		.byte	0x8
 1204 025a 0901     		.2byte	0x109
 1205 025c 13020000 		.4byte	0x213
 1206 0260 02       		.byte	0x2
 1207 0261 23       		.byte	0x23
 1208 0262 04       		.uleb128 0x4
 1209 0263 0A       		.uleb128 0xa
 1210 0264 723600   		.ascii	"r6\000"
 1211 0267 08       		.byte	0x8
 1212 0268 0A01     		.2byte	0x10a
 1213 026a 13020000 		.4byte	0x213
 1214 026e 02       		.byte	0x2
 1215 026f 23       		.byte	0x23
 1216 0270 08       		.uleb128 0x8
 1217 0271 0A       		.uleb128 0xa
ARM GAS  /tmp/cczmZGAv.s 			page 43


 1218 0272 723700   		.ascii	"r7\000"
 1219 0275 08       		.byte	0x8
 1220 0276 0B01     		.2byte	0x10b
 1221 0278 13020000 		.4byte	0x213
 1222 027c 02       		.byte	0x2
 1223 027d 23       		.byte	0x23
 1224 027e 0C       		.uleb128 0xc
 1225 027f 0A       		.uleb128 0xa
 1226 0280 723800   		.ascii	"r8\000"
 1227 0283 08       		.byte	0x8
 1228 0284 0C01     		.2byte	0x10c
 1229 0286 13020000 		.4byte	0x213
 1230 028a 02       		.byte	0x2
 1231 028b 23       		.byte	0x23
 1232 028c 10       		.uleb128 0x10
 1233 028d 0A       		.uleb128 0xa
 1234 028e 723900   		.ascii	"r9\000"
 1235 0291 08       		.byte	0x8
 1236 0292 0D01     		.2byte	0x10d
 1237 0294 13020000 		.4byte	0x213
 1238 0298 02       		.byte	0x2
 1239 0299 23       		.byte	0x23
 1240 029a 14       		.uleb128 0x14
 1241 029b 0A       		.uleb128 0xa
 1242 029c 72313000 		.ascii	"r10\000"
 1243 02a0 08       		.byte	0x8
 1244 02a1 0E01     		.2byte	0x10e
 1245 02a3 13020000 		.4byte	0x213
 1246 02a7 02       		.byte	0x2
 1247 02a8 23       		.byte	0x23
 1248 02a9 18       		.uleb128 0x18
 1249 02aa 0A       		.uleb128 0xa
 1250 02ab 72313100 		.ascii	"r11\000"
 1251 02af 08       		.byte	0x8
 1252 02b0 0F01     		.2byte	0x10f
 1253 02b2 13020000 		.4byte	0x213
 1254 02b6 02       		.byte	0x2
 1255 02b7 23       		.byte	0x23
 1256 02b8 1C       		.uleb128 0x1c
 1257 02b9 0A       		.uleb128 0xa
 1258 02ba 6C7200   		.ascii	"lr\000"
 1259 02bd 08       		.byte	0x8
 1260 02be 1001     		.2byte	0x110
 1261 02c0 13020000 		.4byte	0x213
 1262 02c4 02       		.byte	0x2
 1263 02c5 23       		.byte	0x23
 1264 02c6 20       		.uleb128 0x20
 1265 02c7 00       		.byte	0
 1266 02c8 0B       		.uleb128 0xb
 1267 02c9 04       		.byte	0x4
 1268 02ca 3B020000 		.4byte	0x23b
 1269 02ce 0C       		.uleb128 0xc
 1270 02cf 08       		.byte	0x8
 1271 02d0 03       		.byte	0x3
 1272 02d1 53       		.byte	0x53
 1273 02d2 F3020000 		.4byte	0x2f3
 1274 02d6 03       		.uleb128 0x3
ARM GAS  /tmp/cczmZGAv.s 			page 44


 1275 02d7 0D030000 		.4byte	.LASF0
 1276 02db 03       		.byte	0x3
 1277 02dc 54       		.byte	0x54
 1278 02dd F3020000 		.4byte	0x2f3
 1279 02e1 02       		.byte	0x2
 1280 02e2 23       		.byte	0x23
 1281 02e3 00       		.uleb128 0
 1282 02e4 03       		.uleb128 0x3
 1283 02e5 B8020000 		.4byte	.LASF1
 1284 02e9 03       		.byte	0x3
 1285 02ea 55       		.byte	0x55
 1286 02eb F3020000 		.4byte	0x2f3
 1287 02ef 02       		.byte	0x2
 1288 02f0 23       		.byte	0x23
 1289 02f1 04       		.uleb128 0x4
 1290 02f2 00       		.byte	0
 1291 02f3 0B       		.uleb128 0xb
 1292 02f4 04       		.byte	0x4
 1293 02f5 29000000 		.4byte	0x29
 1294 02f9 06       		.uleb128 0x6
 1295 02fa 45040000 		.4byte	.LASF44
 1296 02fe 03       		.byte	0x3
 1297 02ff 56       		.byte	0x56
 1298 0300 CE020000 		.4byte	0x2ce
 1299 0304 0C       		.uleb128 0xc
 1300 0305 04       		.byte	0x4
 1301 0306 03       		.byte	0x3
 1302 0307 5B       		.byte	0x5b
 1303 0308 1B030000 		.4byte	0x31b
 1304 030c 03       		.uleb128 0x3
 1305 030d 0D030000 		.4byte	.LASF0
 1306 0311 03       		.byte	0x3
 1307 0312 5C       		.byte	0x5c
 1308 0313 F3020000 		.4byte	0x2f3
 1309 0317 02       		.byte	0x2
 1310 0318 23       		.byte	0x23
 1311 0319 00       		.uleb128 0
 1312 031a 00       		.byte	0
 1313 031b 06       		.uleb128 0x6
 1314 031c A9040000 		.4byte	.LASF45
 1315 0320 03       		.byte	0x3
 1316 0321 5D       		.byte	0x5d
 1317 0322 04030000 		.4byte	0x304
 1318 0326 0C       		.uleb128 0xc
 1319 0327 1C       		.byte	0x1c
 1320 0328 03       		.byte	0x3
 1321 0329 64       		.byte	0x64
 1322 032a 83030000 		.4byte	0x383
 1323 032e 03       		.uleb128 0x3
 1324 032f 37030000 		.4byte	.LASF46
 1325 0333 03       		.byte	0x3
 1326 0334 65       		.byte	0x65
 1327 0335 F9020000 		.4byte	0x2f9
 1328 0339 02       		.byte	0x2
 1329 033a 23       		.byte	0x23
 1330 033b 00       		.uleb128 0
 1331 033c 03       		.uleb128 0x3
ARM GAS  /tmp/cczmZGAv.s 			page 45


 1332 033d FF020000 		.4byte	.LASF47
 1333 0341 03       		.byte	0x3
 1334 0342 66       		.byte	0x66
 1335 0343 E0010000 		.4byte	0x1e0
 1336 0347 02       		.byte	0x2
 1337 0348 23       		.byte	0x23
 1338 0349 08       		.uleb128 0x8
 1339 034a 03       		.uleb128 0x3
 1340 034b 71020000 		.4byte	.LASF48
 1341 034f 03       		.byte	0x3
 1342 0350 68       		.byte	0x68
 1343 0351 20020000 		.4byte	0x220
 1344 0355 02       		.byte	0x2
 1345 0356 23       		.byte	0x23
 1346 0357 0C       		.uleb128 0xc
 1347 0358 03       		.uleb128 0x3
 1348 0359 61010000 		.4byte	.LASF49
 1349 035d 03       		.byte	0x3
 1350 035e 6B       		.byte	0x6b
 1351 035f F3020000 		.4byte	0x2f3
 1352 0363 02       		.byte	0x2
 1353 0364 23       		.byte	0x23
 1354 0365 10       		.uleb128 0x10
 1355 0366 03       		.uleb128 0x3
 1356 0367 90020000 		.4byte	.LASF50
 1357 036b 03       		.byte	0x3
 1358 036c 6C       		.byte	0x6c
 1359 036d F3020000 		.4byte	0x2f3
 1360 0371 02       		.byte	0x2
 1361 0372 23       		.byte	0x23
 1362 0373 14       		.uleb128 0x14
 1363 0374 03       		.uleb128 0x3
 1364 0375 86020000 		.4byte	.LASF51
 1365 0379 03       		.byte	0x3
 1366 037a 6F       		.byte	0x6f
 1367 037b F3020000 		.4byte	0x2f3
 1368 037f 02       		.byte	0x2
 1369 0380 23       		.byte	0x23
 1370 0381 18       		.uleb128 0x18
 1371 0382 00       		.byte	0
 1372 0383 06       		.uleb128 0x6
 1373 0384 00000000 		.4byte	.LASF52
 1374 0388 03       		.byte	0x3
 1375 0389 71       		.byte	0x71
 1376 038a 26030000 		.4byte	0x326
 1377 038e 0D       		.uleb128 0xd
 1378 038f 04       		.byte	0x4
 1379 0390 03       		.byte	0x3
 1380 0391 B1       		.byte	0xb1
 1381 0392 C3030000 		.4byte	0x3c3
 1382 0396 0E       		.uleb128 0xe
 1383 0397 14000000 		.4byte	.LASF53
 1384 039b 03       		.byte	0x3
 1385 039c B8       		.byte	0xb8
 1386 039d EB010000 		.4byte	0x1eb
 1387 03a1 0E       		.uleb128 0xe
 1388 03a2 73000000 		.4byte	.LASF54
ARM GAS  /tmp/cczmZGAv.s 			page 46


 1389 03a6 03       		.byte	0x3
 1390 03a7 BF       		.byte	0xbf
 1391 03a8 EB010000 		.4byte	0x1eb
 1392 03ac 0E       		.uleb128 0xe
 1393 03ad 8D040000 		.4byte	.LASF55
 1394 03b1 03       		.byte	0x3
 1395 03b2 C6       		.byte	0xc6
 1396 03b3 1E020000 		.4byte	0x21e
 1397 03b7 0E       		.uleb128 0xe
 1398 03b8 06030000 		.4byte	.LASF56
 1399 03bc 03       		.byte	0x3
 1400 03bd CD       		.byte	0xcd
 1401 03be F6010000 		.4byte	0x1f6
 1402 03c2 00       		.byte	0
 1403 03c3 0B       		.uleb128 0xb
 1404 03c4 04       		.byte	0x4
 1405 03c5 C9030000 		.4byte	0x3c9
 1406 03c9 0F       		.uleb128 0xf
 1407 03ca CE030000 		.4byte	0x3ce
 1408 03ce 07       		.uleb128 0x7
 1409 03cf 01       		.byte	0x1
 1410 03d0 08       		.byte	0x8
 1411 03d1 5A030000 		.4byte	.LASF57
 1412 03d5 02       		.uleb128 0x2
 1413 03d6 C7020000 		.4byte	.LASF58
 1414 03da 10       		.byte	0x10
 1415 03db 09       		.byte	0x9
 1416 03dc 3A       		.byte	0x3a
 1417 03dd 0C040000 		.4byte	0x40c
 1418 03e1 03       		.uleb128 0x3
 1419 03e2 C8000000 		.4byte	.LASF59
 1420 03e6 09       		.byte	0x9
 1421 03e7 3B       		.byte	0x3b
 1422 03e8 F9020000 		.4byte	0x2f9
 1423 03ec 02       		.byte	0x2
 1424 03ed 23       		.byte	0x23
 1425 03ee 00       		.uleb128 0
 1426 03ef 03       		.uleb128 0x3
 1427 03f0 D4040000 		.4byte	.LASF60
 1428 03f4 09       		.byte	0x9
 1429 03f5 3D       		.byte	0x3d
 1430 03f6 F3020000 		.4byte	0x2f3
 1431 03fa 02       		.byte	0x2
 1432 03fb 23       		.byte	0x23
 1433 03fc 08       		.uleb128 0x8
 1434 03fd 03       		.uleb128 0x3
 1435 03fe 5F030000 		.4byte	.LASF61
 1436 0402 09       		.byte	0x9
 1437 0403 3F       		.byte	0x3f
 1438 0404 3F050000 		.4byte	0x53f
 1439 0408 02       		.byte	0x2
 1440 0409 23       		.byte	0x23
 1441 040a 0C       		.uleb128 0xc
 1442 040b 00       		.byte	0
 1443 040c 0B       		.uleb128 0xb
 1444 040d 04       		.byte	0x4
 1445 040e D5030000 		.4byte	0x3d5
ARM GAS  /tmp/cczmZGAv.s 			page 47


 1446 0412 10       		.uleb128 0x10
 1447 0413 7B030000 		.4byte	.LASF62
 1448 0417 03       		.byte	0x3
 1449 0418 0301     		.2byte	0x103
 1450 041a 1E040000 		.4byte	0x41e
 1451 041e 0B       		.uleb128 0xb
 1452 041f 04       		.byte	0x4
 1453 0420 24040000 		.4byte	0x424
 1454 0424 11       		.uleb128 0x11
 1455 0425 01       		.byte	0x1
 1456 0426 30040000 		.4byte	0x430
 1457 042a 12       		.uleb128 0x12
 1458 042b 1E020000 		.4byte	0x21e
 1459 042f 00       		.byte	0
 1460 0430 10       		.uleb128 0x10
 1461 0431 A8020000 		.4byte	.LASF63
 1462 0435 03       		.byte	0x3
 1463 0436 0801     		.2byte	0x108
 1464 0438 3C040000 		.4byte	0x43c
 1465 043c 13       		.uleb128 0x13
 1466 043d 1D040000 		.4byte	.LASF64
 1467 0441 14       		.byte	0x14
 1468 0442 03       		.byte	0x3
 1469 0443 0F01     		.2byte	0x10f
 1470 0445 95040000 		.4byte	0x495
 1471 0449 14       		.uleb128 0x14
 1472 044a B7010000 		.4byte	.LASF65
 1473 044e 03       		.byte	0x3
 1474 044f 1001     		.2byte	0x110
 1475 0451 95040000 		.4byte	0x495
 1476 0455 02       		.byte	0x2
 1477 0456 23       		.byte	0x23
 1478 0457 00       		.uleb128 0
 1479 0458 14       		.uleb128 0x14
 1480 0459 7E010000 		.4byte	.LASF66
 1481 045d 03       		.byte	0x3
 1482 045e 1101     		.2byte	0x111
 1483 0460 95040000 		.4byte	0x495
 1484 0464 02       		.byte	0x2
 1485 0465 23       		.byte	0x23
 1486 0466 04       		.uleb128 0x4
 1487 0467 14       		.uleb128 0x14
 1488 0468 3F030000 		.4byte	.LASF67
 1489 046c 03       		.byte	0x3
 1490 046d 1201     		.2byte	0x112
 1491 046f 08020000 		.4byte	0x208
 1492 0473 02       		.byte	0x2
 1493 0474 23       		.byte	0x23
 1494 0475 08       		.uleb128 0x8
 1495 0476 14       		.uleb128 0x14
 1496 0477 02050000 		.4byte	.LASF68
 1497 047b 03       		.byte	0x3
 1498 047c 1301     		.2byte	0x113
 1499 047e 12040000 		.4byte	0x412
 1500 0482 02       		.byte	0x2
 1501 0483 23       		.byte	0x23
 1502 0484 0C       		.uleb128 0xc
ARM GAS  /tmp/cczmZGAv.s 			page 48


 1503 0485 14       		.uleb128 0x14
 1504 0486 2B040000 		.4byte	.LASF69
 1505 048a 03       		.byte	0x3
 1506 048b 1501     		.2byte	0x115
 1507 048d 1E020000 		.4byte	0x21e
 1508 0491 02       		.byte	0x2
 1509 0492 23       		.byte	0x23
 1510 0493 10       		.uleb128 0x10
 1511 0494 00       		.byte	0
 1512 0495 0B       		.uleb128 0xb
 1513 0496 04       		.byte	0x4
 1514 0497 30040000 		.4byte	0x430
 1515 049b 15       		.uleb128 0x15
 1516 049c 0C       		.byte	0xc
 1517 049d 03       		.byte	0x3
 1518 049e 1F01     		.2byte	0x11f
 1519 04a0 E1040000 		.4byte	0x4e1
 1520 04a4 14       		.uleb128 0x14
 1521 04a5 B7010000 		.4byte	.LASF65
 1522 04a9 03       		.byte	0x3
 1523 04aa 2001     		.2byte	0x120
 1524 04ac 95040000 		.4byte	0x495
 1525 04b0 02       		.byte	0x2
 1526 04b1 23       		.byte	0x23
 1527 04b2 00       		.uleb128 0
 1528 04b3 14       		.uleb128 0x14
 1529 04b4 7E010000 		.4byte	.LASF66
 1530 04b8 03       		.byte	0x3
 1531 04b9 2201     		.2byte	0x122
 1532 04bb 95040000 		.4byte	0x495
 1533 04bf 02       		.byte	0x2
 1534 04c0 23       		.byte	0x23
 1535 04c1 04       		.uleb128 0x4
 1536 04c2 14       		.uleb128 0x14
 1537 04c3 3F030000 		.4byte	.LASF67
 1538 04c7 03       		.byte	0x3
 1539 04c8 2401     		.2byte	0x124
 1540 04ca 08020000 		.4byte	0x208
 1541 04ce 02       		.byte	0x2
 1542 04cf 23       		.byte	0x23
 1543 04d0 08       		.uleb128 0x8
 1544 04d1 14       		.uleb128 0x14
 1545 04d2 5D020000 		.4byte	.LASF70
 1546 04d6 03       		.byte	0x3
 1547 04d7 2C01     		.2byte	0x12c
 1548 04d9 08020000 		.4byte	0x208
 1549 04dd 02       		.byte	0x2
 1550 04de 23       		.byte	0x23
 1551 04df 0A       		.uleb128 0xa
 1552 04e0 00       		.byte	0
 1553 04e1 10       		.uleb128 0x10
 1554 04e2 7C000000 		.4byte	.LASF71
 1555 04e6 03       		.byte	0x3
 1556 04e7 2F01     		.2byte	0x12f
 1557 04e9 9B040000 		.4byte	0x49b
 1558 04ed 13       		.uleb128 0x13
 1559 04ee 25010000 		.4byte	.LASF72
ARM GAS  /tmp/cczmZGAv.s 			page 49


 1560 04f2 2C       		.byte	0x2c
 1561 04f3 03       		.byte	0x3
 1562 04f4 3601     		.2byte	0x136
 1563 04f6 28050000 		.4byte	0x528
 1564 04fa 14       		.uleb128 0x14
 1565 04fb 68040000 		.4byte	.LASF73
 1566 04ff 03       		.byte	0x3
 1567 0500 3A01     		.2byte	0x13a
 1568 0502 83030000 		.4byte	0x383
 1569 0506 02       		.byte	0x2
 1570 0507 23       		.byte	0x23
 1571 0508 00       		.uleb128 0
 1572 0509 14       		.uleb128 0x14
 1573 050a 27000000 		.4byte	.LASF74
 1574 050e 03       		.byte	0x3
 1575 050f 3E01     		.2byte	0x13e
 1576 0511 E1040000 		.4byte	0x4e1
 1577 0515 02       		.byte	0x2
 1578 0516 23       		.byte	0x23
 1579 0517 1C       		.uleb128 0x1c
 1580 0518 14       		.uleb128 0x14
 1581 0519 32040000 		.4byte	.LASF75
 1582 051d 03       		.byte	0x3
 1583 051e 4301     		.2byte	0x143
 1584 0520 B4010000 		.4byte	0x1b4
 1585 0524 02       		.byte	0x2
 1586 0525 23       		.byte	0x23
 1587 0526 28       		.uleb128 0x28
 1588 0527 00       		.byte	0
 1589 0528 10       		.uleb128 0x10
 1590 0529 F6010000 		.4byte	.LASF76
 1591 052d 03       		.byte	0x3
 1592 052e 6501     		.2byte	0x165
 1593 0530 ED040000 		.4byte	0x4ed
 1594 0534 06       		.uleb128 0x6
 1595 0535 86010000 		.4byte	.LASF77
 1596 0539 09       		.byte	0x9
 1597 053a 35       		.byte	0x35
 1598 053b D5030000 		.4byte	0x3d5
 1599 053f 0B       		.uleb128 0xb
 1600 0540 04       		.byte	0x4
 1601 0541 34050000 		.4byte	0x534
 1602 0545 06       		.uleb128 0x6
 1603 0546 4F000000 		.4byte	.LASF78
 1604 054a 0A       		.byte	0xa
 1605 054b 37       		.byte	0x37
 1606 054c 50050000 		.4byte	0x550
 1607 0550 0B       		.uleb128 0xb
 1608 0551 04       		.byte	0x4
 1609 0552 56050000 		.4byte	0x556
 1610 0556 16       		.uleb128 0x16
 1611 0557 01       		.byte	0x1
 1612 0558 1E020000 		.4byte	0x21e
 1613 055c 66050000 		.4byte	0x566
 1614 0560 12       		.uleb128 0x12
 1615 0561 39010000 		.4byte	0x139
 1616 0565 00       		.byte	0
ARM GAS  /tmp/cczmZGAv.s 			page 50


 1617 0566 02       		.uleb128 0x2
 1618 0567 55040000 		.4byte	.LASF79
 1619 056b 04       		.byte	0x4
 1620 056c 0B       		.byte	0xb
 1621 056d 39       		.byte	0x39
 1622 056e 81050000 		.4byte	0x581
 1623 0572 03       		.uleb128 0x3
 1624 0573 98020000 		.4byte	.LASF80
 1625 0577 0B       		.byte	0xb
 1626 0578 3A       		.byte	0x3a
 1627 0579 81050000 		.4byte	0x581
 1628 057d 02       		.byte	0x2
 1629 057e 23       		.byte	0x23
 1630 057f 00       		.uleb128 0
 1631 0580 00       		.byte	0
 1632 0581 0B       		.uleb128 0xb
 1633 0582 04       		.byte	0x4
 1634 0583 66050000 		.4byte	0x566
 1635 0587 0C       		.uleb128 0xc
 1636 0588 0C       		.byte	0xc
 1637 0589 0B       		.byte	0xb
 1638 058a 41       		.byte	0x41
 1639 058b BA050000 		.4byte	0x5ba
 1640 058f 03       		.uleb128 0x3
 1641 0590 48010000 		.4byte	.LASF81
 1642 0594 0B       		.byte	0xb
 1643 0595 42       		.byte	0x42
 1644 0596 81050000 		.4byte	0x581
 1645 059a 02       		.byte	0x2
 1646 059b 23       		.byte	0x23
 1647 059c 00       		.uleb128 0
 1648 059d 03       		.uleb128 0x3
 1649 059e 77020000 		.4byte	.LASF82
 1650 05a2 0B       		.byte	0xb
 1651 05a3 43       		.byte	0x43
 1652 05a4 39010000 		.4byte	0x139
 1653 05a8 02       		.byte	0x2
 1654 05a9 23       		.byte	0x23
 1655 05aa 04       		.uleb128 0x4
 1656 05ab 03       		.uleb128 0x3
 1657 05ac 69010000 		.4byte	.LASF83
 1658 05b0 0B       		.byte	0xb
 1659 05b1 45       		.byte	0x45
 1660 05b2 45050000 		.4byte	0x545
 1661 05b6 02       		.byte	0x2
 1662 05b7 23       		.byte	0x23
 1663 05b8 08       		.uleb128 0x8
 1664 05b9 00       		.byte	0
 1665 05ba 06       		.uleb128 0x6
 1666 05bb CA010000 		.4byte	.LASF84
 1667 05bf 0B       		.byte	0xb
 1668 05c0 47       		.byte	0x47
 1669 05c1 87050000 		.4byte	0x587
 1670 05c5 17       		.uleb128 0x17
 1671 05c6 92030000 		.4byte	.LASF91
 1672 05ca 02       		.byte	0x2
 1673 05cb 2002     		.2byte	0x220
ARM GAS  /tmp/cczmZGAv.s 			page 51


 1674 05cd 01       		.byte	0x1
 1675 05ce 03       		.byte	0x3
 1676 05cf E0050000 		.4byte	0x5e0
 1677 05d3 18       		.uleb128 0x18
 1678 05d4 8E010000 		.4byte	.LASF88
 1679 05d8 02       		.byte	0x2
 1680 05d9 2002     		.2byte	0x220
 1681 05db 8F010000 		.4byte	0x18f
 1682 05df 00       		.byte	0
 1683 05e0 19       		.uleb128 0x19
 1684 05e1 45000000 		.4byte	.LASF85
 1685 05e5 08       		.byte	0x8
 1686 05e6 BC01     		.2byte	0x1bc
 1687 05e8 01       		.byte	0x1
 1688 05e9 03       		.byte	0x3
 1689 05ea 19       		.uleb128 0x19
 1690 05eb D0000000 		.4byte	.LASF86
 1691 05ef 08       		.byte	0x8
 1692 05f0 CA01     		.2byte	0x1ca
 1693 05f2 01       		.byte	0x1
 1694 05f3 03       		.byte	0x3
 1695 05f4 19       		.uleb128 0x19
 1696 05f5 14030000 		.4byte	.LASF87
 1697 05f9 0C       		.byte	0xc
 1698 05fa 2A01     		.2byte	0x12a
 1699 05fc 01       		.byte	0x1
 1700 05fd 03       		.byte	0x3
 1701 05fe 1A       		.uleb128 0x1a
 1702 05ff 01       		.byte	0x1
 1703 0600 44020000 		.4byte	.LASF94
 1704 0604 01       		.byte	0x1
 1705 0605 77       		.byte	0x77
 1706 0606 01       		.byte	0x1
 1707 0607 1E020000 		.4byte	0x21e
 1708 060b 01       		.byte	0x1
 1709 060c 34060000 		.4byte	0x634
 1710 0610 1B       		.uleb128 0x1b
 1711 0611 6D7000   		.ascii	"mp\000"
 1712 0614 01       		.byte	0x1
 1713 0615 77       		.byte	0x77
 1714 0616 34060000 		.4byte	0x634
 1715 061a 1C       		.uleb128 0x1c
 1716 061b 1E030000 		.4byte	.LASF89
 1717 061f 01       		.byte	0x1
 1718 0620 78       		.byte	0x78
 1719 0621 1E020000 		.4byte	0x21e
 1720 0625 1D       		.uleb128 0x1d
 1721 0626 9B040000 		.4byte	.LASF90
 1722 062a 4A060000 		.4byte	0x64a
 1723 062e 01       		.byte	0x1
 1724 062f 44020000 		.4byte	.LASF94
 1725 0633 00       		.byte	0
 1726 0634 0B       		.uleb128 0xb
 1727 0635 04       		.byte	0x4
 1728 0636 BA050000 		.4byte	0x5ba
 1729 063a 1E       		.uleb128 0x1e
 1730 063b CE030000 		.4byte	0x3ce
ARM GAS  /tmp/cczmZGAv.s 			page 52


 1731 063f 4A060000 		.4byte	0x64a
 1732 0643 1F       		.uleb128 0x1f
 1733 0644 01020000 		.4byte	0x201
 1734 0648 0C       		.byte	0xc
 1735 0649 00       		.byte	0
 1736 064a 0F       		.uleb128 0xf
 1737 064b 3A060000 		.4byte	0x63a
 1738 064f 17       		.uleb128 0x17
 1739 0650 B8040000 		.4byte	.LASF92
 1740 0654 0C       		.byte	0xc
 1741 0655 3601     		.2byte	0x136
 1742 0657 01       		.byte	0x1
 1743 0658 03       		.byte	0x3
 1744 0659 6C060000 		.4byte	0x66c
 1745 065d 1D       		.uleb128 0x1d
 1746 065e 9C010000 		.4byte	.LASF93
 1747 0662 7C060000 		.4byte	0x67c
 1748 0666 01       		.byte	0x1
 1749 0667 B8040000 		.4byte	.LASF92
 1750 066b 00       		.byte	0
 1751 066c 1E       		.uleb128 0x1e
 1752 066d CE030000 		.4byte	0x3ce
 1753 0671 7C060000 		.4byte	0x67c
 1754 0675 1F       		.uleb128 0x1f
 1755 0676 01020000 		.4byte	0x201
 1756 067a 0B       		.byte	0xb
 1757 067b 00       		.byte	0
 1758 067c 0F       		.uleb128 0xf
 1759 067d 6C060000 		.4byte	0x66c
 1760 0681 20       		.uleb128 0x20
 1761 0682 01       		.byte	0x1
 1762 0683 51020000 		.4byte	.LASF96
 1763 0687 01       		.byte	0x1
 1764 0688 A3       		.byte	0xa3
 1765 0689 01       		.byte	0x1
 1766 068a 01       		.byte	0x1
 1767 068b BE060000 		.4byte	0x6be
 1768 068f 1B       		.uleb128 0x1b
 1769 0690 6D7000   		.ascii	"mp\000"
 1770 0693 01       		.byte	0x1
 1771 0694 A3       		.byte	0xa3
 1772 0695 34060000 		.4byte	0x634
 1773 0699 21       		.uleb128 0x21
 1774 069a 1E030000 		.4byte	.LASF89
 1775 069e 01       		.byte	0x1
 1776 069f A3       		.byte	0xa3
 1777 06a0 1E020000 		.4byte	0x21e
 1778 06a4 22       		.uleb128 0x22
 1779 06a5 70687000 		.ascii	"php\000"
 1780 06a9 01       		.byte	0x1
 1781 06aa A4       		.byte	0xa4
 1782 06ab 81050000 		.4byte	0x581
 1783 06af 1D       		.uleb128 0x1d
 1784 06b0 37000000 		.4byte	.LASF95
 1785 06b4 BE060000 		.4byte	0x6be
 1786 06b8 01       		.byte	0x1
 1787 06b9 51020000 		.4byte	.LASF96
ARM GAS  /tmp/cczmZGAv.s 			page 53


 1788 06bd 00       		.byte	0
 1789 06be 0F       		.uleb128 0xf
 1790 06bf 6C060000 		.4byte	0x66c
 1791 06c3 20       		.uleb128 0x20
 1792 06c4 01       		.byte	0x1
 1793 06c5 82040000 		.4byte	.LASF97
 1794 06c9 01       		.byte	0x1
 1795 06ca B9       		.byte	0xb9
 1796 06cb 01       		.byte	0x1
 1797 06cc 01       		.byte	0x1
 1798 06cd E7060000 		.4byte	0x6e7
 1799 06d1 1B       		.uleb128 0x1b
 1800 06d2 6D7000   		.ascii	"mp\000"
 1801 06d5 01       		.byte	0x1
 1802 06d6 B9       		.byte	0xb9
 1803 06d7 34060000 		.4byte	0x634
 1804 06db 21       		.uleb128 0x21
 1805 06dc 1E030000 		.4byte	.LASF89
 1806 06e0 01       		.byte	0x1
 1807 06e1 B9       		.byte	0xb9
 1808 06e2 1E020000 		.4byte	0x21e
 1809 06e6 00       		.byte	0
 1810 06e7 23       		.uleb128 0x23
 1811 06e8 02020000 		.4byte	.LASF98
 1812 06ec 0B       		.byte	0xb
 1813 06ed 8A       		.byte	0x8a
 1814 06ee 01       		.byte	0x1
 1815 06ef 03       		.byte	0x3
 1816 06f0 0A070000 		.4byte	0x70a
 1817 06f4 1B       		.uleb128 0x1b
 1818 06f5 6D7000   		.ascii	"mp\000"
 1819 06f8 0B       		.byte	0xb
 1820 06f9 8A       		.byte	0x8a
 1821 06fa 34060000 		.4byte	0x634
 1822 06fe 21       		.uleb128 0x21
 1823 06ff 1E030000 		.4byte	.LASF89
 1824 0703 0B       		.byte	0xb
 1825 0704 8A       		.byte	0x8a
 1826 0705 1E020000 		.4byte	0x21e
 1827 0709 00       		.byte	0
 1828 070a 24       		.uleb128 0x24
 1829 070b 01       		.byte	0x1
 1830 070c 14020000 		.4byte	.LASF101
 1831 0710 01       		.byte	0x1
 1832 0711 4C       		.byte	0x4c
 1833 0712 01       		.byte	0x1
 1834 0713 00000000 		.4byte	.LFB165
 1835 0717 0A000000 		.4byte	.LFE165
 1836 071b 02       		.byte	0x2
 1837 071c 7D       		.byte	0x7d
 1838 071d 00       		.sleb128 0
 1839 071e 01       		.byte	0x1
 1840 071f 54070000 		.4byte	0x754
 1841 0723 25       		.uleb128 0x25
 1842 0724 6D7000   		.ascii	"mp\000"
 1843 0727 01       		.byte	0x1
 1844 0728 4C       		.byte	0x4c
ARM GAS  /tmp/cczmZGAv.s 			page 54


 1845 0729 34060000 		.4byte	0x634
 1846 072d 01       		.byte	0x1
 1847 072e 50       		.byte	0x50
 1848 072f 26       		.uleb128 0x26
 1849 0730 D8010000 		.4byte	.LASF99
 1850 0734 01       		.byte	0x1
 1851 0735 4C       		.byte	0x4c
 1852 0736 39010000 		.4byte	0x139
 1853 073a 01       		.byte	0x1
 1854 073b 51       		.byte	0x51
 1855 073c 26       		.uleb128 0x26
 1856 073d 2E000000 		.4byte	.LASF100
 1857 0741 01       		.byte	0x1
 1858 0742 4C       		.byte	0x4c
 1859 0743 45050000 		.4byte	0x545
 1860 0747 01       		.byte	0x1
 1861 0748 52       		.byte	0x52
 1862 0749 27       		.uleb128 0x27
 1863 074a 84030000 		.4byte	.LASF103
 1864 074e 64070000 		.4byte	0x764
 1865 0752 01       		.byte	0x1
 1866 0753 00       		.byte	0
 1867 0754 1E       		.uleb128 0x1e
 1868 0755 CE030000 		.4byte	0x3ce
 1869 0759 64070000 		.4byte	0x764
 1870 075d 1F       		.uleb128 0x1f
 1871 075e 01020000 		.4byte	0x201
 1872 0762 10       		.byte	0x10
 1873 0763 00       		.byte	0
 1874 0764 0F       		.uleb128 0xf
 1875 0765 54070000 		.4byte	0x754
 1876 0769 28       		.uleb128 0x28
 1877 076a 01       		.byte	0x1
 1878 076b C4040000 		.4byte	.LASF102
 1879 076f 01       		.byte	0x1
 1880 0770 62       		.byte	0x62
 1881 0771 01       		.byte	0x1
 1882 0772 00000000 		.4byte	.LFB166
 1883 0776 6A000000 		.4byte	.LFE166
 1884 077a 00000000 		.4byte	.LLST0
 1885 077e 01       		.byte	0x1
 1886 077f B7080000 		.4byte	0x8b7
 1887 0783 25       		.uleb128 0x25
 1888 0784 6D7000   		.ascii	"mp\000"
 1889 0787 01       		.byte	0x1
 1890 0788 62       		.byte	0x62
 1891 0789 34060000 		.4byte	0x634
 1892 078d 01       		.byte	0x1
 1893 078e 50       		.byte	0x50
 1894 078f 29       		.uleb128 0x29
 1895 0790 7000     		.ascii	"p\000"
 1896 0792 01       		.byte	0x1
 1897 0793 62       		.byte	0x62
 1898 0794 1E020000 		.4byte	0x21e
 1899 0798 20000000 		.4byte	.LLST1
 1900 079c 29       		.uleb128 0x29
 1901 079d 6E00     		.ascii	"n\000"
ARM GAS  /tmp/cczmZGAv.s 			page 55


 1902 079f 01       		.byte	0x1
 1903 07a0 62       		.byte	0x62
 1904 07a1 39010000 		.4byte	0x139
 1905 07a5 3F000000 		.4byte	.LLST2
 1906 07a9 27       		.uleb128 0x27
 1907 07aa A0030000 		.4byte	.LASF104
 1908 07ae C7080000 		.4byte	0x8c7
 1909 07b2 01       		.byte	0x1
 1910 07b3 2A       		.uleb128 0x2a
 1911 07b4 E7060000 		.4byte	0x6e7
 1912 07b8 08000000 		.4byte	.LBB65
 1913 07bc 00000000 		.4byte	.Ldebug_ranges0+0
 1914 07c0 01       		.byte	0x1
 1915 07c1 67       		.byte	0x67
 1916 07c2 2B       		.uleb128 0x2b
 1917 07c3 FE060000 		.4byte	0x6fe
 1918 07c7 6C000000 		.4byte	.LLST3
 1919 07cb 2B       		.uleb128 0x2b
 1920 07cc F4060000 		.4byte	0x6f4
 1921 07d0 8B000000 		.4byte	.LLST4
 1922 07d4 2A       		.uleb128 0x2a
 1923 07d5 C3060000 		.4byte	0x6c3
 1924 07d9 08000000 		.4byte	.LBB66
 1925 07dd 28000000 		.4byte	.Ldebug_ranges0+0x28
 1926 07e1 0B       		.byte	0xb
 1927 07e2 8C       		.byte	0x8c
 1928 07e3 2B       		.uleb128 0x2b
 1929 07e4 DB060000 		.4byte	0x6db
 1930 07e8 6C000000 		.4byte	.LLST3
 1931 07ec 2B       		.uleb128 0x2b
 1932 07ed D1060000 		.4byte	0x6d1
 1933 07f1 8B000000 		.4byte	.LLST4
 1934 07f5 2C       		.uleb128 0x2c
 1935 07f6 F4050000 		.4byte	0x5f4
 1936 07fa 08000000 		.4byte	.LBB67
 1937 07fe 50000000 		.4byte	.Ldebug_ranges0+0x50
 1938 0802 01       		.byte	0x1
 1939 0803 BB       		.byte	0xbb
 1940 0804 34080000 		.4byte	0x834
 1941 0808 2D       		.uleb128 0x2d
 1942 0809 E0050000 		.4byte	0x5e0
 1943 080d 08000000 		.4byte	.LBB68
 1944 0811 80000000 		.4byte	.Ldebug_ranges0+0x80
 1945 0815 0C       		.byte	0xc
 1946 0816 2C01     		.2byte	0x12c
 1947 0818 2D       		.uleb128 0x2d
 1948 0819 C5050000 		.4byte	0x5c5
 1949 081d 08000000 		.4byte	.LBB69
 1950 0821 B0000000 		.4byte	.Ldebug_ranges0+0xb0
 1951 0825 08       		.byte	0x8
 1952 0826 BF01     		.2byte	0x1bf
 1953 0828 2B       		.uleb128 0x2b
 1954 0829 D3050000 		.4byte	0x5d3
 1955 082d 9E000000 		.4byte	.LLST7
 1956 0831 00       		.byte	0
 1957 0832 00       		.byte	0
 1958 0833 00       		.byte	0
ARM GAS  /tmp/cczmZGAv.s 			page 56


 1959 0834 2C       		.uleb128 0x2c
 1960 0835 4F060000 		.4byte	0x64f
 1961 0839 0A000000 		.4byte	.LBB83
 1962 083d E0000000 		.4byte	.Ldebug_ranges0+0xe0
 1963 0841 01       		.byte	0x1
 1964 0842 BD       		.byte	0xbd
 1965 0843 7E080000 		.4byte	0x87e
 1966 0847 2E       		.uleb128 0x2e
 1967 0848 10010000 		.4byte	.Ldebug_ranges0+0x110
 1968 084c 2F       		.uleb128 0x2f
 1969 084d 5D060000 		.4byte	0x65d
 1970 0851 2D       		.uleb128 0x2d
 1971 0852 EA050000 		.4byte	0x5ea
 1972 0856 0A000000 		.4byte	.LBB85
 1973 085a 40010000 		.4byte	.Ldebug_ranges0+0x140
 1974 085e 0C       		.byte	0xc
 1975 085f 4201     		.2byte	0x142
 1976 0861 2D       		.uleb128 0x2d
 1977 0862 C5050000 		.4byte	0x5c5
 1978 0866 0A000000 		.4byte	.LBB86
 1979 086a 70010000 		.4byte	.Ldebug_ranges0+0x170
 1980 086e 08       		.byte	0x8
 1981 086f CD01     		.2byte	0x1cd
 1982 0871 2B       		.uleb128 0x2b
 1983 0872 D3050000 		.4byte	0x5d3
 1984 0876 B3000000 		.4byte	.LLST8
 1985 087a 00       		.byte	0
 1986 087b 00       		.byte	0
 1987 087c 00       		.byte	0
 1988 087d 00       		.byte	0
 1989 087e 2A       		.uleb128 0x2a
 1990 087f 81060000 		.4byte	0x681
 1991 0883 14000000 		.4byte	.LBB105
 1992 0887 A0010000 		.4byte	.Ldebug_ranges0+0x1a0
 1993 088b 01       		.byte	0x1
 1994 088c BC       		.byte	0xbc
 1995 088d 2B       		.uleb128 0x2b
 1996 088e 99060000 		.4byte	0x699
 1997 0892 C7000000 		.4byte	.LLST9
 1998 0896 2B       		.uleb128 0x2b
 1999 0897 8F060000 		.4byte	0x68f
 2000 089b E6000000 		.4byte	.LLST10
 2001 089f 2E       		.uleb128 0x2e
 2002 08a0 C8010000 		.4byte	.Ldebug_ranges0+0x1c8
 2003 08a4 30       		.uleb128 0x30
 2004 08a5 A4060000 		.4byte	0x6a4
 2005 08a9 C7000000 		.4byte	.LLST9
 2006 08ad 2F       		.uleb128 0x2f
 2007 08ae AF060000 		.4byte	0x6af
 2008 08b2 00       		.byte	0
 2009 08b3 00       		.byte	0
 2010 08b4 00       		.byte	0
 2011 08b5 00       		.byte	0
 2012 08b6 00       		.byte	0
 2013 08b7 1E       		.uleb128 0x1e
 2014 08b8 CE030000 		.4byte	0x3ce
 2015 08bc C7080000 		.4byte	0x8c7
ARM GAS  /tmp/cczmZGAv.s 			page 57


 2016 08c0 1F       		.uleb128 0x1f
 2017 08c1 01020000 		.4byte	0x201
 2018 08c5 0F       		.byte	0xf
 2019 08c6 00       		.byte	0
 2020 08c7 0F       		.uleb128 0xf
 2021 08c8 B7080000 		.4byte	0x8b7
 2022 08cc 31       		.uleb128 0x31
 2023 08cd FE050000 		.4byte	0x5fe
 2024 08d1 00000000 		.4byte	.LFB167
 2025 08d5 18000000 		.4byte	.LFE167
 2026 08d9 F9000000 		.4byte	.LLST12
 2027 08dd 01       		.byte	0x1
 2028 08de FA080000 		.4byte	0x8fa
 2029 08e2 2B       		.uleb128 0x2b
 2030 08e3 10060000 		.4byte	0x610
 2031 08e7 19010000 		.4byte	.LLST13
 2032 08eb 30       		.uleb128 0x30
 2033 08ec 1A060000 		.4byte	0x61a
 2034 08f0 45010000 		.4byte	.LLST14
 2035 08f4 2F       		.uleb128 0x2f
 2036 08f5 25060000 		.4byte	0x625
 2037 08f9 00       		.byte	0
 2038 08fa 32       		.uleb128 0x32
 2039 08fb 01       		.byte	0x1
 2040 08fc 76040000 		.4byte	.LASF109
 2041 0900 01       		.byte	0x1
 2042 0901 8E       		.byte	0x8e
 2043 0902 01       		.byte	0x1
 2044 0903 1E020000 		.4byte	0x21e
 2045 0907 00000000 		.4byte	.LFB168
 2046 090b 26000000 		.4byte	.LFE168
 2047 090f 6F010000 		.4byte	.LLST15
 2048 0913 01       		.byte	0x1
 2049 0914 EB090000 		.4byte	0x9eb
 2050 0918 29       		.uleb128 0x29
 2051 0919 6D7000   		.ascii	"mp\000"
 2052 091c 01       		.byte	0x1
 2053 091d 8E       		.byte	0x8e
 2054 091e 34060000 		.4byte	0x634
 2055 0922 8F010000 		.4byte	.LLST16
 2056 0926 33       		.uleb128 0x33
 2057 0927 1E030000 		.4byte	.LASF89
 2058 092b 01       		.byte	0x1
 2059 092c 8F       		.byte	0x8f
 2060 092d 1E020000 		.4byte	0x21e
 2061 0931 01       		.byte	0x1
 2062 0932 50       		.byte	0x50
 2063 0933 2C       		.uleb128 0x2c
 2064 0934 F4050000 		.4byte	0x5f4
 2065 0938 02000000 		.4byte	.LBB126
 2066 093c F0010000 		.4byte	.Ldebug_ranges0+0x1f0
 2067 0940 01       		.byte	0x1
 2068 0941 91       		.byte	0x91
 2069 0942 6F090000 		.4byte	0x96f
 2070 0946 2D       		.uleb128 0x2d
 2071 0947 E0050000 		.4byte	0x5e0
 2072 094b 02000000 		.4byte	.LBB127
ARM GAS  /tmp/cczmZGAv.s 			page 58


 2073 094f 08020000 		.4byte	.Ldebug_ranges0+0x208
 2074 0953 0C       		.byte	0xc
 2075 0954 2C01     		.2byte	0x12c
 2076 0956 2D       		.uleb128 0x2d
 2077 0957 C5050000 		.4byte	0x5c5
 2078 095b 02000000 		.4byte	.LBB128
 2079 095f 20020000 		.4byte	.Ldebug_ranges0+0x220
 2080 0963 08       		.byte	0x8
 2081 0964 BF01     		.2byte	0x1bf
 2082 0966 34       		.uleb128 0x34
 2083 0967 D3050000 		.4byte	0x5d3
 2084 096b 20       		.byte	0x20
 2085 096c 00       		.byte	0
 2086 096d 00       		.byte	0
 2087 096e 00       		.byte	0
 2088 096f 2C       		.uleb128 0x2c
 2089 0970 FE050000 		.4byte	0x5fe
 2090 0974 0A000000 		.4byte	.LBB134
 2091 0978 38020000 		.4byte	.Ldebug_ranges0+0x238
 2092 097c 01       		.byte	0x1
 2093 097d 92       		.byte	0x92
 2094 097e A0090000 		.4byte	0x9a0
 2095 0982 2B       		.uleb128 0x2b
 2096 0983 10060000 		.4byte	0x610
 2097 0987 D4010000 		.4byte	.LLST17
 2098 098b 2E       		.uleb128 0x2e
 2099 098c 50020000 		.4byte	.Ldebug_ranges0+0x250
 2100 0990 30       		.uleb128 0x30
 2101 0991 1A060000 		.4byte	0x61a
 2102 0995 19020000 		.4byte	.LLST18
 2103 0999 2F       		.uleb128 0x2f
 2104 099a 25060000 		.4byte	0x625
 2105 099e 00       		.byte	0
 2106 099f 00       		.byte	0
 2107 09a0 35       		.uleb128 0x35
 2108 09a1 4F060000 		.4byte	0x64f
 2109 09a5 12000000 		.4byte	.LBB137
 2110 09a9 18000000 		.4byte	.LBE137
 2111 09ad 01       		.byte	0x1
 2112 09ae 93       		.byte	0x93
 2113 09af 36       		.uleb128 0x36
 2114 09b0 12000000 		.4byte	.LBB138
 2115 09b4 18000000 		.4byte	.LBE138
 2116 09b8 2F       		.uleb128 0x2f
 2117 09b9 5D060000 		.4byte	0x65d
 2118 09bd 37       		.uleb128 0x37
 2119 09be EA050000 		.4byte	0x5ea
 2120 09c2 12000000 		.4byte	.LBB139
 2121 09c6 18000000 		.4byte	.LBE139
 2122 09ca 0C       		.byte	0xc
 2123 09cb 4201     		.2byte	0x142
 2124 09cd 37       		.uleb128 0x37
 2125 09ce C5050000 		.4byte	0x5c5
 2126 09d2 12000000 		.4byte	.LBB140
 2127 09d6 18000000 		.4byte	.LBE140
 2128 09da 08       		.byte	0x8
 2129 09db CD01     		.2byte	0x1cd
ARM GAS  /tmp/cczmZGAv.s 			page 59


 2130 09dd 2B       		.uleb128 0x2b
 2131 09de D3050000 		.4byte	0x5d3
 2132 09e2 43020000 		.4byte	.LLST19
 2133 09e6 00       		.byte	0
 2134 09e7 00       		.byte	0
 2135 09e8 00       		.byte	0
 2136 09e9 00       		.byte	0
 2137 09ea 00       		.byte	0
 2138 09eb 38       		.uleb128 0x38
 2139 09ec 81060000 		.4byte	0x681
 2140 09f0 00000000 		.4byte	.LFB169
 2141 09f4 08000000 		.4byte	.LFE169
 2142 09f8 02       		.byte	0x2
 2143 09f9 7D       		.byte	0x7d
 2144 09fa 00       		.sleb128 0
 2145 09fb 01       		.byte	0x1
 2146 09fc 1B0A0000 		.4byte	0xa1b
 2147 0a00 39       		.uleb128 0x39
 2148 0a01 8F060000 		.4byte	0x68f
 2149 0a05 01       		.byte	0x1
 2150 0a06 50       		.byte	0x50
 2151 0a07 39       		.uleb128 0x39
 2152 0a08 99060000 		.4byte	0x699
 2153 0a0c 01       		.byte	0x1
 2154 0a0d 51       		.byte	0x51
 2155 0a0e 3A       		.uleb128 0x3a
 2156 0a0f A4060000 		.4byte	0x6a4
 2157 0a13 01       		.byte	0x1
 2158 0a14 51       		.byte	0x51
 2159 0a15 2F       		.uleb128 0x2f
 2160 0a16 AF060000 		.4byte	0x6af
 2161 0a1a 00       		.byte	0
 2162 0a1b 38       		.uleb128 0x38
 2163 0a1c C3060000 		.4byte	0x6c3
 2164 0a20 00000000 		.4byte	.LFB170
 2165 0a24 14000000 		.4byte	.LFE170
 2166 0a28 02       		.byte	0x2
 2167 0a29 7D       		.byte	0x7d
 2168 0a2a 00       		.sleb128 0
 2169 0a2b 01       		.byte	0x1
 2170 0a2c FE0A0000 		.4byte	0xafe
 2171 0a30 2B       		.uleb128 0x2b
 2172 0a31 D1060000 		.4byte	0x6d1
 2173 0a35 57020000 		.4byte	.LLST20
 2174 0a39 39       		.uleb128 0x39
 2175 0a3a DB060000 		.4byte	0x6db
 2176 0a3e 01       		.byte	0x1
 2177 0a3f 51       		.byte	0x51
 2178 0a40 3B       		.uleb128 0x3b
 2179 0a41 F4050000 		.4byte	0x5f4
 2180 0a45 00000000 		.4byte	.LBB143
 2181 0a49 06000000 		.4byte	.LBE143
 2182 0a4d 01       		.byte	0x1
 2183 0a4e BB       		.byte	0xbb
 2184 0a4f 7C0A0000 		.4byte	0xa7c
 2185 0a53 37       		.uleb128 0x37
 2186 0a54 E0050000 		.4byte	0x5e0
ARM GAS  /tmp/cczmZGAv.s 			page 60


 2187 0a58 00000000 		.4byte	.LBB144
 2188 0a5c 06000000 		.4byte	.LBE144
 2189 0a60 0C       		.byte	0xc
 2190 0a61 2C01     		.2byte	0x12c
 2191 0a63 37       		.uleb128 0x37
 2192 0a64 C5050000 		.4byte	0x5c5
 2193 0a68 00000000 		.4byte	.LBB145
 2194 0a6c 06000000 		.4byte	.LBE145
 2195 0a70 08       		.byte	0x8
 2196 0a71 BF01     		.2byte	0x1bf
 2197 0a73 34       		.uleb128 0x34
 2198 0a74 D3050000 		.4byte	0x5d3
 2199 0a78 20       		.byte	0x20
 2200 0a79 00       		.byte	0
 2201 0a7a 00       		.byte	0
 2202 0a7b 00       		.byte	0
 2203 0a7c 3B       		.uleb128 0x3b
 2204 0a7d 81060000 		.4byte	0x681
 2205 0a81 06000000 		.4byte	.LBB147
 2206 0a85 0C000000 		.4byte	.LBE147
 2207 0a89 01       		.byte	0x1
 2208 0a8a BC       		.byte	0xbc
 2209 0a8b B60A0000 		.4byte	0xab6
 2210 0a8f 39       		.uleb128 0x39
 2211 0a90 99060000 		.4byte	0x699
 2212 0a94 01       		.byte	0x1
 2213 0a95 51       		.byte	0x51
 2214 0a96 2B       		.uleb128 0x2b
 2215 0a97 8F060000 		.4byte	0x68f
 2216 0a9b 78020000 		.4byte	.LLST21
 2217 0a9f 36       		.uleb128 0x36
 2218 0aa0 06000000 		.4byte	.LBB148
 2219 0aa4 0C000000 		.4byte	.LBE148
 2220 0aa8 3A       		.uleb128 0x3a
 2221 0aa9 A4060000 		.4byte	0x6a4
 2222 0aad 01       		.byte	0x1
 2223 0aae 51       		.byte	0x51
 2224 0aaf 2F       		.uleb128 0x2f
 2225 0ab0 AF060000 		.4byte	0x6af
 2226 0ab4 00       		.byte	0
 2227 0ab5 00       		.byte	0
 2228 0ab6 35       		.uleb128 0x35
 2229 0ab7 4F060000 		.4byte	0x64f
 2230 0abb 0C000000 		.4byte	.LBB149
 2231 0abf 14000000 		.4byte	.LBE149
 2232 0ac3 01       		.byte	0x1
 2233 0ac4 BD       		.byte	0xbd
 2234 0ac5 36       		.uleb128 0x36
 2235 0ac6 0C000000 		.4byte	.LBB150
 2236 0aca 14000000 		.4byte	.LBE150
 2237 0ace 2F       		.uleb128 0x2f
 2238 0acf 5D060000 		.4byte	0x65d
 2239 0ad3 37       		.uleb128 0x37
 2240 0ad4 EA050000 		.4byte	0x5ea
 2241 0ad8 0C000000 		.4byte	.LBB151
 2242 0adc 14000000 		.4byte	.LBE151
 2243 0ae0 0C       		.byte	0xc
ARM GAS  /tmp/cczmZGAv.s 			page 61


 2244 0ae1 4201     		.2byte	0x142
 2245 0ae3 37       		.uleb128 0x37
 2246 0ae4 C5050000 		.4byte	0x5c5
 2247 0ae8 0C000000 		.4byte	.LBB152
 2248 0aec 14000000 		.4byte	.LBE152
 2249 0af0 08       		.byte	0x8
 2250 0af1 CD01     		.2byte	0x1cd
 2251 0af3 34       		.uleb128 0x34
 2252 0af4 D3050000 		.4byte	0x5d3
 2253 0af8 00       		.byte	0
 2254 0af9 00       		.byte	0
 2255 0afa 00       		.byte	0
 2256 0afb 00       		.byte	0
 2257 0afc 00       		.byte	0
 2258 0afd 00       		.byte	0
 2259 0afe 3C       		.uleb128 0x3c
 2260 0aff 92000000 		.4byte	.LASF105
 2261 0b03 0D       		.byte	0xd
 2262 0b04 1606     		.2byte	0x616
 2263 0b06 AF010000 		.4byte	0x1af
 2264 0b0a 01       		.byte	0x1
 2265 0b0b 01       		.byte	0x1
 2266 0b0c 3D       		.uleb128 0x3d
 2267 0b0d 636800   		.ascii	"ch\000"
 2268 0b10 03       		.byte	0x3
 2269 0b11 8901     		.2byte	0x189
 2270 0b13 28050000 		.4byte	0x528
 2271 0b17 01       		.byte	0x1
 2272 0b18 01       		.byte	0x1
 2273 0b19 00       		.byte	0
 2274              		.section	.debug_abbrev,"",%progbits
 2275              	.Ldebug_abbrev0:
 2276 0000 01       		.uleb128 0x1
 2277 0001 11       		.uleb128 0x11
 2278 0002 01       		.byte	0x1
 2279 0003 25       		.uleb128 0x25
 2280 0004 0E       		.uleb128 0xe
 2281 0005 13       		.uleb128 0x13
 2282 0006 0B       		.uleb128 0xb
 2283 0007 03       		.uleb128 0x3
 2284 0008 0E       		.uleb128 0xe
 2285 0009 1B       		.uleb128 0x1b
 2286 000a 0E       		.uleb128 0xe
 2287 000b 55       		.uleb128 0x55
 2288 000c 06       		.uleb128 0x6
 2289 000d 11       		.uleb128 0x11
 2290 000e 01       		.uleb128 0x1
 2291 000f 52       		.uleb128 0x52
 2292 0010 01       		.uleb128 0x1
 2293 0011 10       		.uleb128 0x10
 2294 0012 06       		.uleb128 0x6
 2295 0013 00       		.byte	0
 2296 0014 00       		.byte	0
 2297 0015 02       		.uleb128 0x2
 2298 0016 13       		.uleb128 0x13
 2299 0017 01       		.byte	0x1
 2300 0018 03       		.uleb128 0x3
ARM GAS  /tmp/cczmZGAv.s 			page 62


 2301 0019 0E       		.uleb128 0xe
 2302 001a 0B       		.uleb128 0xb
 2303 001b 0B       		.uleb128 0xb
 2304 001c 3A       		.uleb128 0x3a
 2305 001d 0B       		.uleb128 0xb
 2306 001e 3B       		.uleb128 0x3b
 2307 001f 0B       		.uleb128 0xb
 2308 0020 01       		.uleb128 0x1
 2309 0021 13       		.uleb128 0x13
 2310 0022 00       		.byte	0
 2311 0023 00       		.byte	0
 2312 0024 03       		.uleb128 0x3
 2313 0025 0D       		.uleb128 0xd
 2314 0026 00       		.byte	0
 2315 0027 03       		.uleb128 0x3
 2316 0028 0E       		.uleb128 0xe
 2317 0029 3A       		.uleb128 0x3a
 2318 002a 0B       		.uleb128 0xb
 2319 002b 3B       		.uleb128 0x3b
 2320 002c 0B       		.uleb128 0xb
 2321 002d 49       		.uleb128 0x49
 2322 002e 13       		.uleb128 0x13
 2323 002f 38       		.uleb128 0x38
 2324 0030 0A       		.uleb128 0xa
 2325 0031 00       		.byte	0
 2326 0032 00       		.byte	0
 2327 0033 04       		.uleb128 0x4
 2328 0034 0D       		.uleb128 0xd
 2329 0035 00       		.byte	0
 2330 0036 03       		.uleb128 0x3
 2331 0037 08       		.uleb128 0x8
 2332 0038 3A       		.uleb128 0x3a
 2333 0039 0B       		.uleb128 0xb
 2334 003a 3B       		.uleb128 0x3b
 2335 003b 0B       		.uleb128 0xb
 2336 003c 49       		.uleb128 0x49
 2337 003d 13       		.uleb128 0x13
 2338 003e 38       		.uleb128 0x38
 2339 003f 0A       		.uleb128 0xa
 2340 0040 00       		.byte	0
 2341 0041 00       		.byte	0
 2342 0042 05       		.uleb128 0x5
 2343 0043 24       		.uleb128 0x24
 2344 0044 00       		.byte	0
 2345 0045 0B       		.uleb128 0xb
 2346 0046 0B       		.uleb128 0xb
 2347 0047 3E       		.uleb128 0x3e
 2348 0048 0B       		.uleb128 0xb
 2349 0049 03       		.uleb128 0x3
 2350 004a 08       		.uleb128 0x8
 2351 004b 00       		.byte	0
 2352 004c 00       		.byte	0
 2353 004d 06       		.uleb128 0x6
 2354 004e 16       		.uleb128 0x16
 2355 004f 00       		.byte	0
 2356 0050 03       		.uleb128 0x3
 2357 0051 0E       		.uleb128 0xe
ARM GAS  /tmp/cczmZGAv.s 			page 63


 2358 0052 3A       		.uleb128 0x3a
 2359 0053 0B       		.uleb128 0xb
 2360 0054 3B       		.uleb128 0x3b
 2361 0055 0B       		.uleb128 0xb
 2362 0056 49       		.uleb128 0x49
 2363 0057 13       		.uleb128 0x13
 2364 0058 00       		.byte	0
 2365 0059 00       		.byte	0
 2366 005a 07       		.uleb128 0x7
 2367 005b 24       		.uleb128 0x24
 2368 005c 00       		.byte	0
 2369 005d 0B       		.uleb128 0xb
 2370 005e 0B       		.uleb128 0xb
 2371 005f 3E       		.uleb128 0x3e
 2372 0060 0B       		.uleb128 0xb
 2373 0061 03       		.uleb128 0x3
 2374 0062 0E       		.uleb128 0xe
 2375 0063 00       		.byte	0
 2376 0064 00       		.byte	0
 2377 0065 08       		.uleb128 0x8
 2378 0066 35       		.uleb128 0x35
 2379 0067 00       		.byte	0
 2380 0068 49       		.uleb128 0x49
 2381 0069 13       		.uleb128 0x13
 2382 006a 00       		.byte	0
 2383 006b 00       		.byte	0
 2384 006c 09       		.uleb128 0x9
 2385 006d 0F       		.uleb128 0xf
 2386 006e 00       		.byte	0
 2387 006f 0B       		.uleb128 0xb
 2388 0070 0B       		.uleb128 0xb
 2389 0071 00       		.byte	0
 2390 0072 00       		.byte	0
 2391 0073 0A       		.uleb128 0xa
 2392 0074 0D       		.uleb128 0xd
 2393 0075 00       		.byte	0
 2394 0076 03       		.uleb128 0x3
 2395 0077 08       		.uleb128 0x8
 2396 0078 3A       		.uleb128 0x3a
 2397 0079 0B       		.uleb128 0xb
 2398 007a 3B       		.uleb128 0x3b
 2399 007b 05       		.uleb128 0x5
 2400 007c 49       		.uleb128 0x49
 2401 007d 13       		.uleb128 0x13
 2402 007e 38       		.uleb128 0x38
 2403 007f 0A       		.uleb128 0xa
 2404 0080 00       		.byte	0
 2405 0081 00       		.byte	0
 2406 0082 0B       		.uleb128 0xb
 2407 0083 0F       		.uleb128 0xf
 2408 0084 00       		.byte	0
 2409 0085 0B       		.uleb128 0xb
 2410 0086 0B       		.uleb128 0xb
 2411 0087 49       		.uleb128 0x49
 2412 0088 13       		.uleb128 0x13
 2413 0089 00       		.byte	0
 2414 008a 00       		.byte	0
ARM GAS  /tmp/cczmZGAv.s 			page 64


 2415 008b 0C       		.uleb128 0xc
 2416 008c 13       		.uleb128 0x13
 2417 008d 01       		.byte	0x1
 2418 008e 0B       		.uleb128 0xb
 2419 008f 0B       		.uleb128 0xb
 2420 0090 3A       		.uleb128 0x3a
 2421 0091 0B       		.uleb128 0xb
 2422 0092 3B       		.uleb128 0x3b
 2423 0093 0B       		.uleb128 0xb
 2424 0094 01       		.uleb128 0x1
 2425 0095 13       		.uleb128 0x13
 2426 0096 00       		.byte	0
 2427 0097 00       		.byte	0
 2428 0098 0D       		.uleb128 0xd
 2429 0099 17       		.uleb128 0x17
 2430 009a 01       		.byte	0x1
 2431 009b 0B       		.uleb128 0xb
 2432 009c 0B       		.uleb128 0xb
 2433 009d 3A       		.uleb128 0x3a
 2434 009e 0B       		.uleb128 0xb
 2435 009f 3B       		.uleb128 0x3b
 2436 00a0 0B       		.uleb128 0xb
 2437 00a1 01       		.uleb128 0x1
 2438 00a2 13       		.uleb128 0x13
 2439 00a3 00       		.byte	0
 2440 00a4 00       		.byte	0
 2441 00a5 0E       		.uleb128 0xe
 2442 00a6 0D       		.uleb128 0xd
 2443 00a7 00       		.byte	0
 2444 00a8 03       		.uleb128 0x3
 2445 00a9 0E       		.uleb128 0xe
 2446 00aa 3A       		.uleb128 0x3a
 2447 00ab 0B       		.uleb128 0xb
 2448 00ac 3B       		.uleb128 0x3b
 2449 00ad 0B       		.uleb128 0xb
 2450 00ae 49       		.uleb128 0x49
 2451 00af 13       		.uleb128 0x13
 2452 00b0 00       		.byte	0
 2453 00b1 00       		.byte	0
 2454 00b2 0F       		.uleb128 0xf
 2455 00b3 26       		.uleb128 0x26
 2456 00b4 00       		.byte	0
 2457 00b5 49       		.uleb128 0x49
 2458 00b6 13       		.uleb128 0x13
 2459 00b7 00       		.byte	0
 2460 00b8 00       		.byte	0
 2461 00b9 10       		.uleb128 0x10
 2462 00ba 16       		.uleb128 0x16
 2463 00bb 00       		.byte	0
 2464 00bc 03       		.uleb128 0x3
 2465 00bd 0E       		.uleb128 0xe
 2466 00be 3A       		.uleb128 0x3a
 2467 00bf 0B       		.uleb128 0xb
 2468 00c0 3B       		.uleb128 0x3b
 2469 00c1 05       		.uleb128 0x5
 2470 00c2 49       		.uleb128 0x49
 2471 00c3 13       		.uleb128 0x13
ARM GAS  /tmp/cczmZGAv.s 			page 65


 2472 00c4 00       		.byte	0
 2473 00c5 00       		.byte	0
 2474 00c6 11       		.uleb128 0x11
 2475 00c7 15       		.uleb128 0x15
 2476 00c8 01       		.byte	0x1
 2477 00c9 27       		.uleb128 0x27
 2478 00ca 0C       		.uleb128 0xc
 2479 00cb 01       		.uleb128 0x1
 2480 00cc 13       		.uleb128 0x13
 2481 00cd 00       		.byte	0
 2482 00ce 00       		.byte	0
 2483 00cf 12       		.uleb128 0x12
 2484 00d0 05       		.uleb128 0x5
 2485 00d1 00       		.byte	0
 2486 00d2 49       		.uleb128 0x49
 2487 00d3 13       		.uleb128 0x13
 2488 00d4 00       		.byte	0
 2489 00d5 00       		.byte	0
 2490 00d6 13       		.uleb128 0x13
 2491 00d7 13       		.uleb128 0x13
 2492 00d8 01       		.byte	0x1
 2493 00d9 03       		.uleb128 0x3
 2494 00da 0E       		.uleb128 0xe
 2495 00db 0B       		.uleb128 0xb
 2496 00dc 0B       		.uleb128 0xb
 2497 00dd 3A       		.uleb128 0x3a
 2498 00de 0B       		.uleb128 0xb
 2499 00df 3B       		.uleb128 0x3b
 2500 00e0 05       		.uleb128 0x5
 2501 00e1 01       		.uleb128 0x1
 2502 00e2 13       		.uleb128 0x13
 2503 00e3 00       		.byte	0
 2504 00e4 00       		.byte	0
 2505 00e5 14       		.uleb128 0x14
 2506 00e6 0D       		.uleb128 0xd
 2507 00e7 00       		.byte	0
 2508 00e8 03       		.uleb128 0x3
 2509 00e9 0E       		.uleb128 0xe
 2510 00ea 3A       		.uleb128 0x3a
 2511 00eb 0B       		.uleb128 0xb
 2512 00ec 3B       		.uleb128 0x3b
 2513 00ed 05       		.uleb128 0x5
 2514 00ee 49       		.uleb128 0x49
 2515 00ef 13       		.uleb128 0x13
 2516 00f0 38       		.uleb128 0x38
 2517 00f1 0A       		.uleb128 0xa
 2518 00f2 00       		.byte	0
 2519 00f3 00       		.byte	0
 2520 00f4 15       		.uleb128 0x15
 2521 00f5 13       		.uleb128 0x13
 2522 00f6 01       		.byte	0x1
 2523 00f7 0B       		.uleb128 0xb
 2524 00f8 0B       		.uleb128 0xb
 2525 00f9 3A       		.uleb128 0x3a
 2526 00fa 0B       		.uleb128 0xb
 2527 00fb 3B       		.uleb128 0x3b
 2528 00fc 05       		.uleb128 0x5
ARM GAS  /tmp/cczmZGAv.s 			page 66


 2529 00fd 01       		.uleb128 0x1
 2530 00fe 13       		.uleb128 0x13
 2531 00ff 00       		.byte	0
 2532 0100 00       		.byte	0
 2533 0101 16       		.uleb128 0x16
 2534 0102 15       		.uleb128 0x15
 2535 0103 01       		.byte	0x1
 2536 0104 27       		.uleb128 0x27
 2537 0105 0C       		.uleb128 0xc
 2538 0106 49       		.uleb128 0x49
 2539 0107 13       		.uleb128 0x13
 2540 0108 01       		.uleb128 0x1
 2541 0109 13       		.uleb128 0x13
 2542 010a 00       		.byte	0
 2543 010b 00       		.byte	0
 2544 010c 17       		.uleb128 0x17
 2545 010d 2E       		.uleb128 0x2e
 2546 010e 01       		.byte	0x1
 2547 010f 03       		.uleb128 0x3
 2548 0110 0E       		.uleb128 0xe
 2549 0111 3A       		.uleb128 0x3a
 2550 0112 0B       		.uleb128 0xb
 2551 0113 3B       		.uleb128 0x3b
 2552 0114 05       		.uleb128 0x5
 2553 0115 27       		.uleb128 0x27
 2554 0116 0C       		.uleb128 0xc
 2555 0117 20       		.uleb128 0x20
 2556 0118 0B       		.uleb128 0xb
 2557 0119 01       		.uleb128 0x1
 2558 011a 13       		.uleb128 0x13
 2559 011b 00       		.byte	0
 2560 011c 00       		.byte	0
 2561 011d 18       		.uleb128 0x18
 2562 011e 05       		.uleb128 0x5
 2563 011f 00       		.byte	0
 2564 0120 03       		.uleb128 0x3
 2565 0121 0E       		.uleb128 0xe
 2566 0122 3A       		.uleb128 0x3a
 2567 0123 0B       		.uleb128 0xb
 2568 0124 3B       		.uleb128 0x3b
 2569 0125 05       		.uleb128 0x5
 2570 0126 49       		.uleb128 0x49
 2571 0127 13       		.uleb128 0x13
 2572 0128 00       		.byte	0
 2573 0129 00       		.byte	0
 2574 012a 19       		.uleb128 0x19
 2575 012b 2E       		.uleb128 0x2e
 2576 012c 00       		.byte	0
 2577 012d 03       		.uleb128 0x3
 2578 012e 0E       		.uleb128 0xe
 2579 012f 3A       		.uleb128 0x3a
 2580 0130 0B       		.uleb128 0xb
 2581 0131 3B       		.uleb128 0x3b
 2582 0132 05       		.uleb128 0x5
 2583 0133 27       		.uleb128 0x27
 2584 0134 0C       		.uleb128 0xc
 2585 0135 20       		.uleb128 0x20
ARM GAS  /tmp/cczmZGAv.s 			page 67


 2586 0136 0B       		.uleb128 0xb
 2587 0137 00       		.byte	0
 2588 0138 00       		.byte	0
 2589 0139 1A       		.uleb128 0x1a
 2590 013a 2E       		.uleb128 0x2e
 2591 013b 01       		.byte	0x1
 2592 013c 3F       		.uleb128 0x3f
 2593 013d 0C       		.uleb128 0xc
 2594 013e 03       		.uleb128 0x3
 2595 013f 0E       		.uleb128 0xe
 2596 0140 3A       		.uleb128 0x3a
 2597 0141 0B       		.uleb128 0xb
 2598 0142 3B       		.uleb128 0x3b
 2599 0143 0B       		.uleb128 0xb
 2600 0144 27       		.uleb128 0x27
 2601 0145 0C       		.uleb128 0xc
 2602 0146 49       		.uleb128 0x49
 2603 0147 13       		.uleb128 0x13
 2604 0148 20       		.uleb128 0x20
 2605 0149 0B       		.uleb128 0xb
 2606 014a 01       		.uleb128 0x1
 2607 014b 13       		.uleb128 0x13
 2608 014c 00       		.byte	0
 2609 014d 00       		.byte	0
 2610 014e 1B       		.uleb128 0x1b
 2611 014f 05       		.uleb128 0x5
 2612 0150 00       		.byte	0
 2613 0151 03       		.uleb128 0x3
 2614 0152 08       		.uleb128 0x8
 2615 0153 3A       		.uleb128 0x3a
 2616 0154 0B       		.uleb128 0xb
 2617 0155 3B       		.uleb128 0x3b
 2618 0156 0B       		.uleb128 0xb
 2619 0157 49       		.uleb128 0x49
 2620 0158 13       		.uleb128 0x13
 2621 0159 00       		.byte	0
 2622 015a 00       		.byte	0
 2623 015b 1C       		.uleb128 0x1c
 2624 015c 34       		.uleb128 0x34
 2625 015d 00       		.byte	0
 2626 015e 03       		.uleb128 0x3
 2627 015f 0E       		.uleb128 0xe
 2628 0160 3A       		.uleb128 0x3a
 2629 0161 0B       		.uleb128 0xb
 2630 0162 3B       		.uleb128 0x3b
 2631 0163 0B       		.uleb128 0xb
 2632 0164 49       		.uleb128 0x49
 2633 0165 13       		.uleb128 0x13
 2634 0166 00       		.byte	0
 2635 0167 00       		.byte	0
 2636 0168 1D       		.uleb128 0x1d
 2637 0169 34       		.uleb128 0x34
 2638 016a 00       		.byte	0
 2639 016b 03       		.uleb128 0x3
 2640 016c 0E       		.uleb128 0xe
 2641 016d 49       		.uleb128 0x49
 2642 016e 13       		.uleb128 0x13
ARM GAS  /tmp/cczmZGAv.s 			page 68


 2643 016f 34       		.uleb128 0x34
 2644 0170 0C       		.uleb128 0xc
 2645 0171 1C       		.uleb128 0x1c
 2646 0172 0E       		.uleb128 0xe
 2647 0173 00       		.byte	0
 2648 0174 00       		.byte	0
 2649 0175 1E       		.uleb128 0x1e
 2650 0176 01       		.uleb128 0x1
 2651 0177 01       		.byte	0x1
 2652 0178 49       		.uleb128 0x49
 2653 0179 13       		.uleb128 0x13
 2654 017a 01       		.uleb128 0x1
 2655 017b 13       		.uleb128 0x13
 2656 017c 00       		.byte	0
 2657 017d 00       		.byte	0
 2658 017e 1F       		.uleb128 0x1f
 2659 017f 21       		.uleb128 0x21
 2660 0180 00       		.byte	0
 2661 0181 49       		.uleb128 0x49
 2662 0182 13       		.uleb128 0x13
 2663 0183 2F       		.uleb128 0x2f
 2664 0184 0B       		.uleb128 0xb
 2665 0185 00       		.byte	0
 2666 0186 00       		.byte	0
 2667 0187 20       		.uleb128 0x20
 2668 0188 2E       		.uleb128 0x2e
 2669 0189 01       		.byte	0x1
 2670 018a 3F       		.uleb128 0x3f
 2671 018b 0C       		.uleb128 0xc
 2672 018c 03       		.uleb128 0x3
 2673 018d 0E       		.uleb128 0xe
 2674 018e 3A       		.uleb128 0x3a
 2675 018f 0B       		.uleb128 0xb
 2676 0190 3B       		.uleb128 0x3b
 2677 0191 0B       		.uleb128 0xb
 2678 0192 27       		.uleb128 0x27
 2679 0193 0C       		.uleb128 0xc
 2680 0194 20       		.uleb128 0x20
 2681 0195 0B       		.uleb128 0xb
 2682 0196 01       		.uleb128 0x1
 2683 0197 13       		.uleb128 0x13
 2684 0198 00       		.byte	0
 2685 0199 00       		.byte	0
 2686 019a 21       		.uleb128 0x21
 2687 019b 05       		.uleb128 0x5
 2688 019c 00       		.byte	0
 2689 019d 03       		.uleb128 0x3
 2690 019e 0E       		.uleb128 0xe
 2691 019f 3A       		.uleb128 0x3a
 2692 01a0 0B       		.uleb128 0xb
 2693 01a1 3B       		.uleb128 0x3b
 2694 01a2 0B       		.uleb128 0xb
 2695 01a3 49       		.uleb128 0x49
 2696 01a4 13       		.uleb128 0x13
 2697 01a5 00       		.byte	0
 2698 01a6 00       		.byte	0
 2699 01a7 22       		.uleb128 0x22
ARM GAS  /tmp/cczmZGAv.s 			page 69


 2700 01a8 34       		.uleb128 0x34
 2701 01a9 00       		.byte	0
 2702 01aa 03       		.uleb128 0x3
 2703 01ab 08       		.uleb128 0x8
 2704 01ac 3A       		.uleb128 0x3a
 2705 01ad 0B       		.uleb128 0xb
 2706 01ae 3B       		.uleb128 0x3b
 2707 01af 0B       		.uleb128 0xb
 2708 01b0 49       		.uleb128 0x49
 2709 01b1 13       		.uleb128 0x13
 2710 01b2 00       		.byte	0
 2711 01b3 00       		.byte	0
 2712 01b4 23       		.uleb128 0x23
 2713 01b5 2E       		.uleb128 0x2e
 2714 01b6 01       		.byte	0x1
 2715 01b7 03       		.uleb128 0x3
 2716 01b8 0E       		.uleb128 0xe
 2717 01b9 3A       		.uleb128 0x3a
 2718 01ba 0B       		.uleb128 0xb
 2719 01bb 3B       		.uleb128 0x3b
 2720 01bc 0B       		.uleb128 0xb
 2721 01bd 27       		.uleb128 0x27
 2722 01be 0C       		.uleb128 0xc
 2723 01bf 20       		.uleb128 0x20
 2724 01c0 0B       		.uleb128 0xb
 2725 01c1 01       		.uleb128 0x1
 2726 01c2 13       		.uleb128 0x13
 2727 01c3 00       		.byte	0
 2728 01c4 00       		.byte	0
 2729 01c5 24       		.uleb128 0x24
 2730 01c6 2E       		.uleb128 0x2e
 2731 01c7 01       		.byte	0x1
 2732 01c8 3F       		.uleb128 0x3f
 2733 01c9 0C       		.uleb128 0xc
 2734 01ca 03       		.uleb128 0x3
 2735 01cb 0E       		.uleb128 0xe
 2736 01cc 3A       		.uleb128 0x3a
 2737 01cd 0B       		.uleb128 0xb
 2738 01ce 3B       		.uleb128 0x3b
 2739 01cf 0B       		.uleb128 0xb
 2740 01d0 27       		.uleb128 0x27
 2741 01d1 0C       		.uleb128 0xc
 2742 01d2 11       		.uleb128 0x11
 2743 01d3 01       		.uleb128 0x1
 2744 01d4 12       		.uleb128 0x12
 2745 01d5 01       		.uleb128 0x1
 2746 01d6 40       		.uleb128 0x40
 2747 01d7 0A       		.uleb128 0xa
 2748 01d8 9742     		.uleb128 0x2117
 2749 01da 0C       		.uleb128 0xc
 2750 01db 01       		.uleb128 0x1
 2751 01dc 13       		.uleb128 0x13
 2752 01dd 00       		.byte	0
 2753 01de 00       		.byte	0
 2754 01df 25       		.uleb128 0x25
 2755 01e0 05       		.uleb128 0x5
 2756 01e1 00       		.byte	0
ARM GAS  /tmp/cczmZGAv.s 			page 70


 2757 01e2 03       		.uleb128 0x3
 2758 01e3 08       		.uleb128 0x8
 2759 01e4 3A       		.uleb128 0x3a
 2760 01e5 0B       		.uleb128 0xb
 2761 01e6 3B       		.uleb128 0x3b
 2762 01e7 0B       		.uleb128 0xb
 2763 01e8 49       		.uleb128 0x49
 2764 01e9 13       		.uleb128 0x13
 2765 01ea 02       		.uleb128 0x2
 2766 01eb 0A       		.uleb128 0xa
 2767 01ec 00       		.byte	0
 2768 01ed 00       		.byte	0
 2769 01ee 26       		.uleb128 0x26
 2770 01ef 05       		.uleb128 0x5
 2771 01f0 00       		.byte	0
 2772 01f1 03       		.uleb128 0x3
 2773 01f2 0E       		.uleb128 0xe
 2774 01f3 3A       		.uleb128 0x3a
 2775 01f4 0B       		.uleb128 0xb
 2776 01f5 3B       		.uleb128 0x3b
 2777 01f6 0B       		.uleb128 0xb
 2778 01f7 49       		.uleb128 0x49
 2779 01f8 13       		.uleb128 0x13
 2780 01f9 02       		.uleb128 0x2
 2781 01fa 0A       		.uleb128 0xa
 2782 01fb 00       		.byte	0
 2783 01fc 00       		.byte	0
 2784 01fd 27       		.uleb128 0x27
 2785 01fe 34       		.uleb128 0x34
 2786 01ff 00       		.byte	0
 2787 0200 03       		.uleb128 0x3
 2788 0201 0E       		.uleb128 0xe
 2789 0202 49       		.uleb128 0x49
 2790 0203 13       		.uleb128 0x13
 2791 0204 34       		.uleb128 0x34
 2792 0205 0C       		.uleb128 0xc
 2793 0206 00       		.byte	0
 2794 0207 00       		.byte	0
 2795 0208 28       		.uleb128 0x28
 2796 0209 2E       		.uleb128 0x2e
 2797 020a 01       		.byte	0x1
 2798 020b 3F       		.uleb128 0x3f
 2799 020c 0C       		.uleb128 0xc
 2800 020d 03       		.uleb128 0x3
 2801 020e 0E       		.uleb128 0xe
 2802 020f 3A       		.uleb128 0x3a
 2803 0210 0B       		.uleb128 0xb
 2804 0211 3B       		.uleb128 0x3b
 2805 0212 0B       		.uleb128 0xb
 2806 0213 27       		.uleb128 0x27
 2807 0214 0C       		.uleb128 0xc
 2808 0215 11       		.uleb128 0x11
 2809 0216 01       		.uleb128 0x1
 2810 0217 12       		.uleb128 0x12
 2811 0218 01       		.uleb128 0x1
 2812 0219 40       		.uleb128 0x40
 2813 021a 06       		.uleb128 0x6
ARM GAS  /tmp/cczmZGAv.s 			page 71


 2814 021b 9742     		.uleb128 0x2117
 2815 021d 0C       		.uleb128 0xc
 2816 021e 01       		.uleb128 0x1
 2817 021f 13       		.uleb128 0x13
 2818 0220 00       		.byte	0
 2819 0221 00       		.byte	0
 2820 0222 29       		.uleb128 0x29
 2821 0223 05       		.uleb128 0x5
 2822 0224 00       		.byte	0
 2823 0225 03       		.uleb128 0x3
 2824 0226 08       		.uleb128 0x8
 2825 0227 3A       		.uleb128 0x3a
 2826 0228 0B       		.uleb128 0xb
 2827 0229 3B       		.uleb128 0x3b
 2828 022a 0B       		.uleb128 0xb
 2829 022b 49       		.uleb128 0x49
 2830 022c 13       		.uleb128 0x13
 2831 022d 02       		.uleb128 0x2
 2832 022e 06       		.uleb128 0x6
 2833 022f 00       		.byte	0
 2834 0230 00       		.byte	0
 2835 0231 2A       		.uleb128 0x2a
 2836 0232 1D       		.uleb128 0x1d
 2837 0233 01       		.byte	0x1
 2838 0234 31       		.uleb128 0x31
 2839 0235 13       		.uleb128 0x13
 2840 0236 52       		.uleb128 0x52
 2841 0237 01       		.uleb128 0x1
 2842 0238 55       		.uleb128 0x55
 2843 0239 06       		.uleb128 0x6
 2844 023a 58       		.uleb128 0x58
 2845 023b 0B       		.uleb128 0xb
 2846 023c 59       		.uleb128 0x59
 2847 023d 0B       		.uleb128 0xb
 2848 023e 00       		.byte	0
 2849 023f 00       		.byte	0
 2850 0240 2B       		.uleb128 0x2b
 2851 0241 05       		.uleb128 0x5
 2852 0242 00       		.byte	0
 2853 0243 31       		.uleb128 0x31
 2854 0244 13       		.uleb128 0x13
 2855 0245 02       		.uleb128 0x2
 2856 0246 06       		.uleb128 0x6
 2857 0247 00       		.byte	0
 2858 0248 00       		.byte	0
 2859 0249 2C       		.uleb128 0x2c
 2860 024a 1D       		.uleb128 0x1d
 2861 024b 01       		.byte	0x1
 2862 024c 31       		.uleb128 0x31
 2863 024d 13       		.uleb128 0x13
 2864 024e 52       		.uleb128 0x52
 2865 024f 01       		.uleb128 0x1
 2866 0250 55       		.uleb128 0x55
 2867 0251 06       		.uleb128 0x6
 2868 0252 58       		.uleb128 0x58
 2869 0253 0B       		.uleb128 0xb
 2870 0254 59       		.uleb128 0x59
ARM GAS  /tmp/cczmZGAv.s 			page 72


 2871 0255 0B       		.uleb128 0xb
 2872 0256 01       		.uleb128 0x1
 2873 0257 13       		.uleb128 0x13
 2874 0258 00       		.byte	0
 2875 0259 00       		.byte	0
 2876 025a 2D       		.uleb128 0x2d
 2877 025b 1D       		.uleb128 0x1d
 2878 025c 01       		.byte	0x1
 2879 025d 31       		.uleb128 0x31
 2880 025e 13       		.uleb128 0x13
 2881 025f 52       		.uleb128 0x52
 2882 0260 01       		.uleb128 0x1
 2883 0261 55       		.uleb128 0x55
 2884 0262 06       		.uleb128 0x6
 2885 0263 58       		.uleb128 0x58
 2886 0264 0B       		.uleb128 0xb
 2887 0265 59       		.uleb128 0x59
 2888 0266 05       		.uleb128 0x5
 2889 0267 00       		.byte	0
 2890 0268 00       		.byte	0
 2891 0269 2E       		.uleb128 0x2e
 2892 026a 0B       		.uleb128 0xb
 2893 026b 01       		.byte	0x1
 2894 026c 55       		.uleb128 0x55
 2895 026d 06       		.uleb128 0x6
 2896 026e 00       		.byte	0
 2897 026f 00       		.byte	0
 2898 0270 2F       		.uleb128 0x2f
 2899 0271 34       		.uleb128 0x34
 2900 0272 00       		.byte	0
 2901 0273 31       		.uleb128 0x31
 2902 0274 13       		.uleb128 0x13
 2903 0275 00       		.byte	0
 2904 0276 00       		.byte	0
 2905 0277 30       		.uleb128 0x30
 2906 0278 34       		.uleb128 0x34
 2907 0279 00       		.byte	0
 2908 027a 31       		.uleb128 0x31
 2909 027b 13       		.uleb128 0x13
 2910 027c 02       		.uleb128 0x2
 2911 027d 06       		.uleb128 0x6
 2912 027e 00       		.byte	0
 2913 027f 00       		.byte	0
 2914 0280 31       		.uleb128 0x31
 2915 0281 2E       		.uleb128 0x2e
 2916 0282 01       		.byte	0x1
 2917 0283 31       		.uleb128 0x31
 2918 0284 13       		.uleb128 0x13
 2919 0285 11       		.uleb128 0x11
 2920 0286 01       		.uleb128 0x1
 2921 0287 12       		.uleb128 0x12
 2922 0288 01       		.uleb128 0x1
 2923 0289 40       		.uleb128 0x40
 2924 028a 06       		.uleb128 0x6
 2925 028b 9642     		.uleb128 0x2116
 2926 028d 0C       		.uleb128 0xc
 2927 028e 01       		.uleb128 0x1
ARM GAS  /tmp/cczmZGAv.s 			page 73


 2928 028f 13       		.uleb128 0x13
 2929 0290 00       		.byte	0
 2930 0291 00       		.byte	0
 2931 0292 32       		.uleb128 0x32
 2932 0293 2E       		.uleb128 0x2e
 2933 0294 01       		.byte	0x1
 2934 0295 3F       		.uleb128 0x3f
 2935 0296 0C       		.uleb128 0xc
 2936 0297 03       		.uleb128 0x3
 2937 0298 0E       		.uleb128 0xe
 2938 0299 3A       		.uleb128 0x3a
 2939 029a 0B       		.uleb128 0xb
 2940 029b 3B       		.uleb128 0x3b
 2941 029c 0B       		.uleb128 0xb
 2942 029d 27       		.uleb128 0x27
 2943 029e 0C       		.uleb128 0xc
 2944 029f 49       		.uleb128 0x49
 2945 02a0 13       		.uleb128 0x13
 2946 02a1 11       		.uleb128 0x11
 2947 02a2 01       		.uleb128 0x1
 2948 02a3 12       		.uleb128 0x12
 2949 02a4 01       		.uleb128 0x1
 2950 02a5 40       		.uleb128 0x40
 2951 02a6 06       		.uleb128 0x6
 2952 02a7 9642     		.uleb128 0x2116
 2953 02a9 0C       		.uleb128 0xc
 2954 02aa 01       		.uleb128 0x1
 2955 02ab 13       		.uleb128 0x13
 2956 02ac 00       		.byte	0
 2957 02ad 00       		.byte	0
 2958 02ae 33       		.uleb128 0x33
 2959 02af 34       		.uleb128 0x34
 2960 02b0 00       		.byte	0
 2961 02b1 03       		.uleb128 0x3
 2962 02b2 0E       		.uleb128 0xe
 2963 02b3 3A       		.uleb128 0x3a
 2964 02b4 0B       		.uleb128 0xb
 2965 02b5 3B       		.uleb128 0x3b
 2966 02b6 0B       		.uleb128 0xb
 2967 02b7 49       		.uleb128 0x49
 2968 02b8 13       		.uleb128 0x13
 2969 02b9 02       		.uleb128 0x2
 2970 02ba 0A       		.uleb128 0xa
 2971 02bb 00       		.byte	0
 2972 02bc 00       		.byte	0
 2973 02bd 34       		.uleb128 0x34
 2974 02be 05       		.uleb128 0x5
 2975 02bf 00       		.byte	0
 2976 02c0 31       		.uleb128 0x31
 2977 02c1 13       		.uleb128 0x13
 2978 02c2 1C       		.uleb128 0x1c
 2979 02c3 0B       		.uleb128 0xb
 2980 02c4 00       		.byte	0
 2981 02c5 00       		.byte	0
 2982 02c6 35       		.uleb128 0x35
 2983 02c7 1D       		.uleb128 0x1d
 2984 02c8 01       		.byte	0x1
ARM GAS  /tmp/cczmZGAv.s 			page 74


 2985 02c9 31       		.uleb128 0x31
 2986 02ca 13       		.uleb128 0x13
 2987 02cb 11       		.uleb128 0x11
 2988 02cc 01       		.uleb128 0x1
 2989 02cd 12       		.uleb128 0x12
 2990 02ce 01       		.uleb128 0x1
 2991 02cf 58       		.uleb128 0x58
 2992 02d0 0B       		.uleb128 0xb
 2993 02d1 59       		.uleb128 0x59
 2994 02d2 0B       		.uleb128 0xb
 2995 02d3 00       		.byte	0
 2996 02d4 00       		.byte	0
 2997 02d5 36       		.uleb128 0x36
 2998 02d6 0B       		.uleb128 0xb
 2999 02d7 01       		.byte	0x1
 3000 02d8 11       		.uleb128 0x11
 3001 02d9 01       		.uleb128 0x1
 3002 02da 12       		.uleb128 0x12
 3003 02db 01       		.uleb128 0x1
 3004 02dc 00       		.byte	0
 3005 02dd 00       		.byte	0
 3006 02de 37       		.uleb128 0x37
 3007 02df 1D       		.uleb128 0x1d
 3008 02e0 01       		.byte	0x1
 3009 02e1 31       		.uleb128 0x31
 3010 02e2 13       		.uleb128 0x13
 3011 02e3 11       		.uleb128 0x11
 3012 02e4 01       		.uleb128 0x1
 3013 02e5 12       		.uleb128 0x12
 3014 02e6 01       		.uleb128 0x1
 3015 02e7 58       		.uleb128 0x58
 3016 02e8 0B       		.uleb128 0xb
 3017 02e9 59       		.uleb128 0x59
 3018 02ea 05       		.uleb128 0x5
 3019 02eb 00       		.byte	0
 3020 02ec 00       		.byte	0
 3021 02ed 38       		.uleb128 0x38
 3022 02ee 2E       		.uleb128 0x2e
 3023 02ef 01       		.byte	0x1
 3024 02f0 31       		.uleb128 0x31
 3025 02f1 13       		.uleb128 0x13
 3026 02f2 11       		.uleb128 0x11
 3027 02f3 01       		.uleb128 0x1
 3028 02f4 12       		.uleb128 0x12
 3029 02f5 01       		.uleb128 0x1
 3030 02f6 40       		.uleb128 0x40
 3031 02f7 0A       		.uleb128 0xa
 3032 02f8 9742     		.uleb128 0x2117
 3033 02fa 0C       		.uleb128 0xc
 3034 02fb 01       		.uleb128 0x1
 3035 02fc 13       		.uleb128 0x13
 3036 02fd 00       		.byte	0
 3037 02fe 00       		.byte	0
 3038 02ff 39       		.uleb128 0x39
 3039 0300 05       		.uleb128 0x5
 3040 0301 00       		.byte	0
 3041 0302 31       		.uleb128 0x31
ARM GAS  /tmp/cczmZGAv.s 			page 75


 3042 0303 13       		.uleb128 0x13
 3043 0304 02       		.uleb128 0x2
 3044 0305 0A       		.uleb128 0xa
 3045 0306 00       		.byte	0
 3046 0307 00       		.byte	0
 3047 0308 3A       		.uleb128 0x3a
 3048 0309 34       		.uleb128 0x34
 3049 030a 00       		.byte	0
 3050 030b 31       		.uleb128 0x31
 3051 030c 13       		.uleb128 0x13
 3052 030d 02       		.uleb128 0x2
 3053 030e 0A       		.uleb128 0xa
 3054 030f 00       		.byte	0
 3055 0310 00       		.byte	0
 3056 0311 3B       		.uleb128 0x3b
 3057 0312 1D       		.uleb128 0x1d
 3058 0313 01       		.byte	0x1
 3059 0314 31       		.uleb128 0x31
 3060 0315 13       		.uleb128 0x13
 3061 0316 11       		.uleb128 0x11
 3062 0317 01       		.uleb128 0x1
 3063 0318 12       		.uleb128 0x12
 3064 0319 01       		.uleb128 0x1
 3065 031a 58       		.uleb128 0x58
 3066 031b 0B       		.uleb128 0xb
 3067 031c 59       		.uleb128 0x59
 3068 031d 0B       		.uleb128 0xb
 3069 031e 01       		.uleb128 0x1
 3070 031f 13       		.uleb128 0x13
 3071 0320 00       		.byte	0
 3072 0321 00       		.byte	0
 3073 0322 3C       		.uleb128 0x3c
 3074 0323 34       		.uleb128 0x34
 3075 0324 00       		.byte	0
 3076 0325 03       		.uleb128 0x3
 3077 0326 0E       		.uleb128 0xe
 3078 0327 3A       		.uleb128 0x3a
 3079 0328 0B       		.uleb128 0xb
 3080 0329 3B       		.uleb128 0x3b
 3081 032a 05       		.uleb128 0x5
 3082 032b 49       		.uleb128 0x49
 3083 032c 13       		.uleb128 0x13
 3084 032d 3F       		.uleb128 0x3f
 3085 032e 0C       		.uleb128 0xc
 3086 032f 3C       		.uleb128 0x3c
 3087 0330 0C       		.uleb128 0xc
 3088 0331 00       		.byte	0
 3089 0332 00       		.byte	0
 3090 0333 3D       		.uleb128 0x3d
 3091 0334 34       		.uleb128 0x34
 3092 0335 00       		.byte	0
 3093 0336 03       		.uleb128 0x3
 3094 0337 08       		.uleb128 0x8
 3095 0338 3A       		.uleb128 0x3a
 3096 0339 0B       		.uleb128 0xb
 3097 033a 3B       		.uleb128 0x3b
 3098 033b 05       		.uleb128 0x5
ARM GAS  /tmp/cczmZGAv.s 			page 76


 3099 033c 49       		.uleb128 0x49
 3100 033d 13       		.uleb128 0x13
 3101 033e 3F       		.uleb128 0x3f
 3102 033f 0C       		.uleb128 0xc
 3103 0340 3C       		.uleb128 0x3c
 3104 0341 0C       		.uleb128 0xc
 3105 0342 00       		.byte	0
 3106 0343 00       		.byte	0
 3107 0344 00       		.byte	0
 3108              		.section	.debug_loc,"",%progbits
 3109              	.Ldebug_loc0:
 3110              	.LLST0:
 3111 0000 00000000 		.4byte	.LFB166
 3112 0004 02000000 		.4byte	.LCFI0
 3113 0008 0200     		.2byte	0x2
 3114 000a 7D       		.byte	0x7d
 3115 000b 00       		.sleb128 0
 3116 000c 02000000 		.4byte	.LCFI0
 3117 0010 6A000000 		.4byte	.LFE166
 3118 0014 0200     		.2byte	0x2
 3119 0016 7D       		.byte	0x7d
 3120 0017 10       		.sleb128 16
 3121 0018 00000000 		.4byte	0
 3122 001c 00000000 		.4byte	0
 3123              	.LLST1:
 3124 0020 00000000 		.4byte	.LVL1
 3125 0024 22000000 		.4byte	.LVL6
 3126 0028 0100     		.2byte	0x1
 3127 002a 51       		.byte	0x51
 3128 002b 22000000 		.4byte	.LVL6
 3129 002f 3A000000 		.4byte	.LVL10
 3130 0033 0200     		.2byte	0x2
 3131 0035 70       		.byte	0x70
 3132 0036 00       		.sleb128 0
 3133 0037 00000000 		.4byte	0
 3134 003b 00000000 		.4byte	0
 3135              	.LLST2:
 3136 003f 00000000 		.4byte	.LVL1
 3137 0043 16000000 		.4byte	.LVL4
 3138 0047 0100     		.2byte	0x1
 3139 0049 52       		.byte	0x52
 3140 004a 16000000 		.4byte	.LVL4
 3141 004e 38000000 		.4byte	.LVL9
 3142 0052 0300     		.2byte	0x3
 3143 0054 73       		.byte	0x73
 3144 0055 01       		.sleb128 1
 3145 0056 9F       		.byte	0x9f
 3146 0057 38000000 		.4byte	.LVL9
 3147 005b 3A000000 		.4byte	.LVL10
 3148 005f 0300     		.2byte	0x3
 3149 0061 73       		.byte	0x73
 3150 0062 02       		.sleb128 2
 3151 0063 9F       		.byte	0x9f
 3152 0064 00000000 		.4byte	0
 3153 0068 00000000 		.4byte	0
 3154              	.LLST3:
 3155 006c 10000000 		.4byte	.LVL2
ARM GAS  /tmp/cczmZGAv.s 			page 77


 3156 0070 22000000 		.4byte	.LVL6
 3157 0074 0100     		.2byte	0x1
 3158 0076 51       		.byte	0x51
 3159 0077 22000000 		.4byte	.LVL6
 3160 007b 26000000 		.4byte	.LVL7
 3161 007f 0200     		.2byte	0x2
 3162 0081 70       		.byte	0x70
 3163 0082 00       		.sleb128 0
 3164 0083 00000000 		.4byte	0
 3165 0087 00000000 		.4byte	0
 3166              	.LLST4:
 3167 008b 10000000 		.4byte	.LVL2
 3168 008f 66000000 		.4byte	.LVL11
 3169 0093 0100     		.2byte	0x1
 3170 0095 50       		.byte	0x50
 3171 0096 00000000 		.4byte	0
 3172 009a 00000000 		.4byte	0
 3173              	.LLST7:
 3174 009e 10000000 		.4byte	.LVL2
 3175 00a2 66000000 		.4byte	.LVL11
 3176 00a6 0300     		.2byte	0x3
 3177 00a8 08       		.byte	0x8
 3178 00a9 20       		.byte	0x20
 3179 00aa 9F       		.byte	0x9f
 3180 00ab 00000000 		.4byte	0
 3181 00af 00000000 		.4byte	0
 3182              	.LLST8:
 3183 00b3 1A000000 		.4byte	.LVL5
 3184 00b7 66000000 		.4byte	.LVL11
 3185 00bb 0200     		.2byte	0x2
 3186 00bd 30       		.byte	0x30
 3187 00be 9F       		.byte	0x9f
 3188 00bf 00000000 		.4byte	0
 3189 00c3 00000000 		.4byte	0
 3190              	.LLST9:
 3191 00c7 14000000 		.4byte	.LVL3
 3192 00cb 22000000 		.4byte	.LVL6
 3193 00cf 0100     		.2byte	0x1
 3194 00d1 51       		.byte	0x51
 3195 00d2 22000000 		.4byte	.LVL6
 3196 00d6 2A000000 		.4byte	.LVL8
 3197 00da 0200     		.2byte	0x2
 3198 00dc 70       		.byte	0x70
 3199 00dd 00       		.sleb128 0
 3200 00de 00000000 		.4byte	0
 3201 00e2 00000000 		.4byte	0
 3202              	.LLST10:
 3203 00e6 14000000 		.4byte	.LVL3
 3204 00ea 66000000 		.4byte	.LVL11
 3205 00ee 0100     		.2byte	0x1
 3206 00f0 50       		.byte	0x50
 3207 00f1 00000000 		.4byte	0
 3208 00f5 00000000 		.4byte	0
 3209              	.LLST12:
 3210 00f9 00000000 		.4byte	.LFB167
 3211 00fd 02000000 		.4byte	.LCFI1
 3212 0101 0200     		.2byte	0x2
ARM GAS  /tmp/cczmZGAv.s 			page 78


 3213 0103 7D       		.byte	0x7d
 3214 0104 00       		.sleb128 0
 3215 0105 02000000 		.4byte	.LCFI1
 3216 0109 18000000 		.4byte	.LFE167
 3217 010d 0200     		.2byte	0x2
 3218 010f 7D       		.byte	0x7d
 3219 0110 08       		.sleb128 8
 3220 0111 00000000 		.4byte	0
 3221 0115 00000000 		.4byte	0
 3222              	.LLST13:
 3223 0119 00000000 		.4byte	.LVL12
 3224 011d 06000000 		.4byte	.LVL13
 3225 0121 0100     		.2byte	0x1
 3226 0123 50       		.byte	0x50
 3227 0124 06000000 		.4byte	.LVL13
 3228 0128 15000000 		.4byte	.LVL15-1
 3229 012c 0100     		.2byte	0x1
 3230 012e 53       		.byte	0x53
 3231 012f 15000000 		.4byte	.LVL15-1
 3232 0133 18000000 		.4byte	.LFE167
 3233 0137 0400     		.2byte	0x4
 3234 0139 F3       		.byte	0xf3
 3235 013a 01       		.uleb128 0x1
 3236 013b 50       		.byte	0x50
 3237 013c 9F       		.byte	0x9f
 3238 013d 00000000 		.4byte	0
 3239 0141 00000000 		.4byte	0
 3240              	.LLST14:
 3241 0145 06000000 		.4byte	.LVL13
 3242 0149 14000000 		.4byte	.LVL14
 3243 014d 0100     		.2byte	0x1
 3244 014f 50       		.byte	0x50
 3245 0150 14000000 		.4byte	.LVL14
 3246 0154 15000000 		.4byte	.LVL15-1
 3247 0158 0200     		.2byte	0x2
 3248 015a 73       		.byte	0x73
 3249 015b 00       		.sleb128 0
 3250 015c 16000000 		.4byte	.LVL15
 3251 0160 18000000 		.4byte	.LFE167
 3252 0164 0100     		.2byte	0x1
 3253 0166 50       		.byte	0x50
 3254 0167 00000000 		.4byte	0
 3255 016b 00000000 		.4byte	0
 3256              	.LLST15:
 3257 016f 00000000 		.4byte	.LFB168
 3258 0173 02000000 		.4byte	.LCFI2
 3259 0177 0200     		.2byte	0x2
 3260 0179 7D       		.byte	0x7d
 3261 017a 00       		.sleb128 0
 3262 017b 02000000 		.4byte	.LCFI2
 3263 017f 26000000 		.4byte	.LFE168
 3264 0183 0200     		.2byte	0x2
 3265 0185 7D       		.byte	0x7d
 3266 0186 08       		.sleb128 8
 3267 0187 00000000 		.4byte	0
 3268 018b 00000000 		.4byte	0
 3269              	.LLST16:
ARM GAS  /tmp/cczmZGAv.s 			page 79


 3270 018f 00000000 		.4byte	.LVL16
 3271 0193 0C000000 		.4byte	.LVL18
 3272 0197 0100     		.2byte	0x1
 3273 0199 50       		.byte	0x50
 3274 019a 0C000000 		.4byte	.LVL18
 3275 019e 12000000 		.4byte	.LVL19
 3276 01a2 0100     		.2byte	0x1
 3277 01a4 53       		.byte	0x53
 3278 01a5 12000000 		.4byte	.LVL19
 3279 01a9 1A000000 		.4byte	.LVL20
 3280 01ad 0400     		.2byte	0x4
 3281 01af F3       		.byte	0xf3
 3282 01b0 01       		.uleb128 0x1
 3283 01b1 50       		.byte	0x50
 3284 01b2 9F       		.byte	0x9f
 3285 01b3 1A000000 		.4byte	.LVL20
 3286 01b7 23000000 		.4byte	.LVL22-1
 3287 01bb 0100     		.2byte	0x1
 3288 01bd 53       		.byte	0x53
 3289 01be 23000000 		.4byte	.LVL22-1
 3290 01c2 26000000 		.4byte	.LFE168
 3291 01c6 0400     		.2byte	0x4
 3292 01c8 F3       		.byte	0xf3
 3293 01c9 01       		.uleb128 0x1
 3294 01ca 50       		.byte	0x50
 3295 01cb 9F       		.byte	0x9f
 3296 01cc 00000000 		.4byte	0
 3297 01d0 00000000 		.4byte	0
 3298              	.LLST17:
 3299 01d4 0A000000 		.4byte	.LVL17
 3300 01d8 0C000000 		.4byte	.LVL18
 3301 01dc 0100     		.2byte	0x1
 3302 01de 50       		.byte	0x50
 3303 01df 0C000000 		.4byte	.LVL18
 3304 01e3 12000000 		.4byte	.LVL19
 3305 01e7 0100     		.2byte	0x1
 3306 01e9 53       		.byte	0x53
 3307 01ea 12000000 		.4byte	.LVL19
 3308 01ee 1A000000 		.4byte	.LVL20
 3309 01f2 0400     		.2byte	0x4
 3310 01f4 F3       		.byte	0xf3
 3311 01f5 01       		.uleb128 0x1
 3312 01f6 50       		.byte	0x50
 3313 01f7 9F       		.byte	0x9f
 3314 01f8 1A000000 		.4byte	.LVL20
 3315 01fc 23000000 		.4byte	.LVL22-1
 3316 0200 0100     		.2byte	0x1
 3317 0202 53       		.byte	0x53
 3318 0203 23000000 		.4byte	.LVL22-1
 3319 0207 26000000 		.4byte	.LFE168
 3320 020b 0400     		.2byte	0x4
 3321 020d F3       		.byte	0xf3
 3322 020e 01       		.uleb128 0x1
 3323 020f 50       		.byte	0x50
 3324 0210 9F       		.byte	0x9f
 3325 0211 00000000 		.4byte	0
 3326 0215 00000000 		.4byte	0
ARM GAS  /tmp/cczmZGAv.s 			page 80


 3327              	.LLST18:
 3328 0219 0C000000 		.4byte	.LVL18
 3329 021d 22000000 		.4byte	.LVL21
 3330 0221 0100     		.2byte	0x1
 3331 0223 50       		.byte	0x50
 3332 0224 22000000 		.4byte	.LVL21
 3333 0228 23000000 		.4byte	.LVL22-1
 3334 022c 0200     		.2byte	0x2
 3335 022e 73       		.byte	0x73
 3336 022f 00       		.sleb128 0
 3337 0230 24000000 		.4byte	.LVL22
 3338 0234 26000000 		.4byte	.LFE168
 3339 0238 0100     		.2byte	0x1
 3340 023a 50       		.byte	0x50
 3341 023b 00000000 		.4byte	0
 3342 023f 00000000 		.4byte	0
 3343              	.LLST19:
 3344 0243 12000000 		.4byte	.LVL19
 3345 0247 1A000000 		.4byte	.LVL20
 3346 024b 0200     		.2byte	0x2
 3347 024d 30       		.byte	0x30
 3348 024e 9F       		.byte	0x9f
 3349 024f 00000000 		.4byte	0
 3350 0253 00000000 		.4byte	0
 3351              	.LLST20:
 3352 0257 00000000 		.4byte	.LVL25
 3353 025b 0E000000 		.4byte	.LVL28
 3354 025f 0100     		.2byte	0x1
 3355 0261 50       		.byte	0x50
 3356 0262 0E000000 		.4byte	.LVL28
 3357 0266 14000000 		.4byte	.LFE170
 3358 026a 0400     		.2byte	0x4
 3359 026c F3       		.byte	0xf3
 3360 026d 01       		.uleb128 0x1
 3361 026e 50       		.byte	0x50
 3362 026f 9F       		.byte	0x9f
 3363 0270 00000000 		.4byte	0
 3364 0274 00000000 		.4byte	0
 3365              	.LLST21:
 3366 0278 06000000 		.4byte	.LVL26
 3367 027c 0E000000 		.4byte	.LVL28
 3368 0280 0100     		.2byte	0x1
 3369 0282 50       		.byte	0x50
 3370 0283 0E000000 		.4byte	.LVL28
 3371 0287 14000000 		.4byte	.LFE170
 3372 028b 0400     		.2byte	0x4
 3373 028d F3       		.byte	0xf3
 3374 028e 01       		.uleb128 0x1
 3375 028f 50       		.byte	0x50
 3376 0290 9F       		.byte	0x9f
 3377 0291 00000000 		.4byte	0
 3378 0295 00000000 		.4byte	0
 3379              		.section	.debug_aranges,"",%progbits
 3380 0000 44000000 		.4byte	0x44
 3381 0004 0200     		.2byte	0x2
 3382 0006 00000000 		.4byte	.Ldebug_info0
 3383 000a 04       		.byte	0x4
ARM GAS  /tmp/cczmZGAv.s 			page 81


 3384 000b 00       		.byte	0
 3385 000c 0000     		.2byte	0
 3386 000e 0000     		.2byte	0
 3387 0010 00000000 		.4byte	.LFB165
 3388 0014 0A000000 		.4byte	.LFE165-.LFB165
 3389 0018 00000000 		.4byte	.LFB166
 3390 001c 6A000000 		.4byte	.LFE166-.LFB166
 3391 0020 00000000 		.4byte	.LFB167
 3392 0024 18000000 		.4byte	.LFE167-.LFB167
 3393 0028 00000000 		.4byte	.LFB168
 3394 002c 26000000 		.4byte	.LFE168-.LFB168
 3395 0030 00000000 		.4byte	.LFB169
 3396 0034 08000000 		.4byte	.LFE169-.LFB169
 3397 0038 00000000 		.4byte	.LFB170
 3398 003c 14000000 		.4byte	.LFE170-.LFB170
 3399 0040 00000000 		.4byte	0
 3400 0044 00000000 		.4byte	0
 3401              		.section	.debug_ranges,"",%progbits
 3402              	.Ldebug_ranges0:
 3403 0000 08000000 		.4byte	.LBB65
 3404 0004 1E000000 		.4byte	.LBE65
 3405 0008 26000000 		.4byte	.LBB123
 3406 000c 34000000 		.4byte	.LBE123
 3407 0010 3C000000 		.4byte	.LBB124
 3408 0014 4A000000 		.4byte	.LBE124
 3409 0018 50000000 		.4byte	.LBB125
 3410 001c 5E000000 		.4byte	.LBE125
 3411 0020 00000000 		.4byte	0
 3412 0024 00000000 		.4byte	0
 3413 0028 08000000 		.4byte	.LBB66
 3414 002c 1E000000 		.4byte	.LBE66
 3415 0030 26000000 		.4byte	.LBB120
 3416 0034 34000000 		.4byte	.LBE120
 3417 0038 3C000000 		.4byte	.LBB121
 3418 003c 4A000000 		.4byte	.LBE121
 3419 0040 50000000 		.4byte	.LBB122
 3420 0044 5E000000 		.4byte	.LBE122
 3421 0048 00000000 		.4byte	0
 3422 004c 00000000 		.4byte	0
 3423 0050 08000000 		.4byte	.LBB67
 3424 0054 0A000000 		.4byte	.LBE67
 3425 0058 10000000 		.4byte	.LBB104
 3426 005c 14000000 		.4byte	.LBE104
 3427 0060 26000000 		.4byte	.LBB111
 3428 0064 2A000000 		.4byte	.LBE111
 3429 0068 3C000000 		.4byte	.LBB114
 3430 006c 40000000 		.4byte	.LBE114
 3431 0070 50000000 		.4byte	.LBB117
 3432 0074 54000000 		.4byte	.LBE117
 3433 0078 00000000 		.4byte	0
 3434 007c 00000000 		.4byte	0
 3435 0080 08000000 		.4byte	.LBB68
 3436 0084 0A000000 		.4byte	.LBE68
 3437 0088 10000000 		.4byte	.LBB79
 3438 008c 14000000 		.4byte	.LBE79
 3439 0090 26000000 		.4byte	.LBB80
 3440 0094 2A000000 		.4byte	.LBE80
ARM GAS  /tmp/cczmZGAv.s 			page 82


 3441 0098 3C000000 		.4byte	.LBB81
 3442 009c 40000000 		.4byte	.LBE81
 3443 00a0 50000000 		.4byte	.LBB82
 3444 00a4 54000000 		.4byte	.LBE82
 3445 00a8 00000000 		.4byte	0
 3446 00ac 00000000 		.4byte	0
 3447 00b0 08000000 		.4byte	.LBB69
 3448 00b4 0A000000 		.4byte	.LBE69
 3449 00b8 10000000 		.4byte	.LBB75
 3450 00bc 14000000 		.4byte	.LBE75
 3451 00c0 26000000 		.4byte	.LBB76
 3452 00c4 2A000000 		.4byte	.LBE76
 3453 00c8 3C000000 		.4byte	.LBB77
 3454 00cc 40000000 		.4byte	.LBE77
 3455 00d0 50000000 		.4byte	.LBB78
 3456 00d4 54000000 		.4byte	.LBE78
 3457 00d8 00000000 		.4byte	0
 3458 00dc 00000000 		.4byte	0
 3459 00e0 0A000000 		.4byte	.LBB83
 3460 00e4 10000000 		.4byte	.LBE83
 3461 00e8 1A000000 		.4byte	.LBB110
 3462 00ec 1E000000 		.4byte	.LBE110
 3463 00f0 30000000 		.4byte	.LBB113
 3464 00f4 34000000 		.4byte	.LBE113
 3465 00f8 46000000 		.4byte	.LBB116
 3466 00fc 4A000000 		.4byte	.LBE116
 3467 0100 5A000000 		.4byte	.LBB119
 3468 0104 5E000000 		.4byte	.LBE119
 3469 0108 00000000 		.4byte	0
 3470 010c 00000000 		.4byte	0
 3471 0110 0A000000 		.4byte	.LBB84
 3472 0114 10000000 		.4byte	.LBE84
 3473 0118 1A000000 		.4byte	.LBB100
 3474 011c 1E000000 		.4byte	.LBE100
 3475 0120 30000000 		.4byte	.LBB101
 3476 0124 34000000 		.4byte	.LBE101
 3477 0128 46000000 		.4byte	.LBB102
 3478 012c 4A000000 		.4byte	.LBE102
 3479 0130 5A000000 		.4byte	.LBB103
 3480 0134 5E000000 		.4byte	.LBE103
 3481 0138 00000000 		.4byte	0
 3482 013c 00000000 		.4byte	0
 3483 0140 0A000000 		.4byte	.LBB85
 3484 0144 10000000 		.4byte	.LBE85
 3485 0148 1A000000 		.4byte	.LBB96
 3486 014c 1E000000 		.4byte	.LBE96
 3487 0150 30000000 		.4byte	.LBB97
 3488 0154 34000000 		.4byte	.LBE97
 3489 0158 46000000 		.4byte	.LBB98
 3490 015c 4A000000 		.4byte	.LBE98
 3491 0160 5A000000 		.4byte	.LBB99
 3492 0164 5E000000 		.4byte	.LBE99
 3493 0168 00000000 		.4byte	0
 3494 016c 00000000 		.4byte	0
 3495 0170 0A000000 		.4byte	.LBB86
 3496 0174 10000000 		.4byte	.LBE86
 3497 0178 1A000000 		.4byte	.LBB92
ARM GAS  /tmp/cczmZGAv.s 			page 83


 3498 017c 1E000000 		.4byte	.LBE92
 3499 0180 30000000 		.4byte	.LBB93
 3500 0184 34000000 		.4byte	.LBE93
 3501 0188 46000000 		.4byte	.LBB94
 3502 018c 4A000000 		.4byte	.LBE94
 3503 0190 5A000000 		.4byte	.LBB95
 3504 0194 5E000000 		.4byte	.LBE95
 3505 0198 00000000 		.4byte	0
 3506 019c 00000000 		.4byte	0
 3507 01a0 14000000 		.4byte	.LBB105
 3508 01a4 1A000000 		.4byte	.LBE105
 3509 01a8 2A000000 		.4byte	.LBB112
 3510 01ac 30000000 		.4byte	.LBE112
 3511 01b0 40000000 		.4byte	.LBB115
 3512 01b4 46000000 		.4byte	.LBE115
 3513 01b8 54000000 		.4byte	.LBB118
 3514 01bc 5A000000 		.4byte	.LBE118
 3515 01c0 00000000 		.4byte	0
 3516 01c4 00000000 		.4byte	0
 3517 01c8 14000000 		.4byte	.LBB106
 3518 01cc 1A000000 		.4byte	.LBE106
 3519 01d0 2A000000 		.4byte	.LBB107
 3520 01d4 30000000 		.4byte	.LBE107
 3521 01d8 40000000 		.4byte	.LBB108
 3522 01dc 46000000 		.4byte	.LBE108
 3523 01e0 54000000 		.4byte	.LBB109
 3524 01e4 5A000000 		.4byte	.LBE109
 3525 01e8 00000000 		.4byte	0
 3526 01ec 00000000 		.4byte	0
 3527 01f0 02000000 		.4byte	.LBB126
 3528 01f4 04000000 		.4byte	.LBE126
 3529 01f8 06000000 		.4byte	.LBB133
 3530 01fc 0A000000 		.4byte	.LBE133
 3531 0200 00000000 		.4byte	0
 3532 0204 00000000 		.4byte	0
 3533 0208 02000000 		.4byte	.LBB127
 3534 020c 04000000 		.4byte	.LBE127
 3535 0210 06000000 		.4byte	.LBB132
 3536 0214 0A000000 		.4byte	.LBE132
 3537 0218 00000000 		.4byte	0
 3538 021c 00000000 		.4byte	0
 3539 0220 02000000 		.4byte	.LBB128
 3540 0224 04000000 		.4byte	.LBE128
 3541 0228 06000000 		.4byte	.LBB131
 3542 022c 0A000000 		.4byte	.LBE131
 3543 0230 00000000 		.4byte	0
 3544 0234 00000000 		.4byte	0
 3545 0238 0A000000 		.4byte	.LBB134
 3546 023c 12000000 		.4byte	.LBE134
 3547 0240 1A000000 		.4byte	.LBB142
 3548 0244 26000000 		.4byte	.LBE142
 3549 0248 00000000 		.4byte	0
 3550 024c 00000000 		.4byte	0
 3551 0250 0A000000 		.4byte	.LBB135
 3552 0254 12000000 		.4byte	.LBE135
 3553 0258 1A000000 		.4byte	.LBB136
 3554 025c 26000000 		.4byte	.LBE136
ARM GAS  /tmp/cczmZGAv.s 			page 84


 3555 0260 00000000 		.4byte	0
 3556 0264 00000000 		.4byte	0
 3557 0268 00000000 		.4byte	.LFB165
 3558 026c 0A000000 		.4byte	.LFE165
 3559 0270 00000000 		.4byte	.LFB166
 3560 0274 6A000000 		.4byte	.LFE166
 3561 0278 00000000 		.4byte	.LFB167
 3562 027c 18000000 		.4byte	.LFE167
 3563 0280 00000000 		.4byte	.LFB168
 3564 0284 26000000 		.4byte	.LFE168
 3565 0288 00000000 		.4byte	.LFB169
 3566 028c 08000000 		.4byte	.LFE169
 3567 0290 00000000 		.4byte	.LFB170
 3568 0294 14000000 		.4byte	.LFE170
 3569 0298 00000000 		.4byte	0
 3570 029c 00000000 		.4byte	0
 3571              		.section	.debug_line,"",%progbits
 3572              	.Ldebug_line0:
 3573 0000 2A030000 		.section	.debug_str,"MS",%progbits,1
 3573      02000E02 
 3573      00000201 
 3573      FB0E0D00 
 3573      01010101 
 3574              	.LASF52:
 3575 0000 72656164 		.ascii	"ready_list_t\000"
 3575      795F6C69 
 3575      73745F74 
 3575      00
 3576              	.LASF19:
 3577 000d 73697A65 		.ascii	"size_t\000"
 3577      5F7400
 3578              	.LASF53:
 3579 0014 7264796D 		.ascii	"rdymsg\000"
 3579      736700
 3580              	.LASF43:
 3581 001b 706F7274 		.ascii	"port_intctx\000"
 3581      5F696E74 
 3581      63747800 
 3582              	.LASF74:
 3583 0027 76746C69 		.ascii	"vtlist\000"
 3583      737400
 3584              	.LASF100:
 3585 002e 70726F76 		.ascii	"provider\000"
 3585      69646572 
 3585      00
 3586              	.LASF95:
 3587 0037 5F5F6675 		.ascii	"__func__.6124\000"
 3587      6E635F5F 
 3587      2E363132 
 3587      3400
 3588              	.LASF85:
 3589 0045 706F7274 		.ascii	"port_lock\000"
 3589      5F6C6F63 
 3589      6B00
 3590              	.LASF78:
 3591 004f 6D656D67 		.ascii	"memgetfunc_t\000"
 3591      65746675 
ARM GAS  /tmp/cczmZGAv.s 			page 85


 3591      6E635F74 
 3591      00
 3592              	.LASF30:
 3593 005c 6C6F6E67 		.ascii	"long long unsigned int\000"
 3593      206C6F6E 
 3593      6720756E 
 3593      7369676E 
 3593      65642069 
 3594              	.LASF54:
 3595 0073 65786974 		.ascii	"exitcode\000"
 3595      636F6465 
 3595      00
 3596              	.LASF71:
 3597 007c 76697274 		.ascii	"virtual_timers_list_t\000"
 3597      75616C5F 
 3597      74696D65 
 3597      72735F6C 
 3597      6973745F 
 3598              	.LASF105:
 3599 0092 49544D5F 		.ascii	"ITM_RxBuffer\000"
 3599      52784275 
 3599      66666572 
 3599      00
 3600              	.LASF2:
 3601 009f 705F7072 		.ascii	"p_prio\000"
 3601      696F00
 3602              	.LASF29:
 3603 00a6 6C6F6E67 		.ascii	"long long int\000"
 3603      206C6F6E 
 3603      6720696E 
 3603      7400
 3604              	.LASF18:
 3605 00b4 7369676E 		.ascii	"signed char\000"
 3605      65642063 
 3605      68617200 
 3606              	.LASF16:
 3607 00c0 705F6D70 		.ascii	"p_mpool\000"
 3607      6F6F6C00 
 3608              	.LASF59:
 3609 00c8 6D5F7175 		.ascii	"m_queue\000"
 3609      65756500 
 3610              	.LASF86:
 3611 00d0 706F7274 		.ascii	"port_unlock\000"
 3611      5F756E6C 
 3611      6F636B00 
 3612              	.LASF106:
 3613 00dc 474E5520 		.ascii	"GNU C 4.7.4 20130913 (release) [ARM/embedded-4_7-br"
 3613      4320342E 
 3613      372E3420 
 3613      32303133 
 3613      30393133 
 3614 010f 616E6368 		.ascii	"anch revision 202601]\000"
 3614      20726576 
 3614      6973696F 
 3614      6E203230 
 3614      32363031 
 3615              	.LASF72:
ARM GAS  /tmp/cczmZGAv.s 			page 86


 3616 0125 63685F73 		.ascii	"ch_system\000"
 3616      79737465 
 3616      6D00
 3617              	.LASF26:
 3618 012f 6C6F6E67 		.ascii	"long int\000"
 3618      20696E74 
 3618      00
 3619              	.LASF33:
 3620 0138 74737461 		.ascii	"tstate_t\000"
 3620      74655F74 
 3620      00
 3621              	.LASF41:
 3622 0141 74687265 		.ascii	"thread\000"
 3622      616400
 3623              	.LASF81:
 3624 0148 6D705F6E 		.ascii	"mp_next\000"
 3624      65787400 
 3625              	.LASF23:
 3626 0150 75696E74 		.ascii	"uint16_t\000"
 3626      31365F74 
 3626      00
 3627              	.LASF4:
 3628 0159 705F6E65 		.ascii	"p_newer\000"
 3628      77657200 
 3629              	.LASF49:
 3630 0161 725F6E65 		.ascii	"r_newer\000"
 3630      77657200 
 3631              	.LASF83:
 3632 0169 6D705F70 		.ascii	"mp_provider\000"
 3632      726F7669 
 3632      64657200 
 3633              	.LASF40:
 3634 0175 72656761 		.ascii	"regarm_t\000"
 3634      726D5F74 
 3634      00
 3635              	.LASF66:
 3636 017e 76745F70 		.ascii	"vt_prev\000"
 3636      72657600 
 3637              	.LASF77:
 3638 0186 6D757465 		.ascii	"mutex_t\000"
 3638      785F7400 
 3639              	.LASF88:
 3640 018e 76616C75 		.ascii	"value\000"
 3640      6500
 3641              	.LASF8:
 3642 0194 705F666C 		.ascii	"p_flags\000"
 3642      61677300 
 3643              	.LASF93:
 3644 019c 5F5F6675 		.ascii	"__func__.5444\000"
 3644      6E635F5F 
 3644      2E353434 
 3644      3400
 3645              	.LASF17:
 3646 01aa 756E7369 		.ascii	"unsigned int\000"
 3646      676E6564 
 3646      20696E74 
 3646      00
ARM GAS  /tmp/cczmZGAv.s 			page 87


 3647              	.LASF65:
 3648 01b7 76745F6E 		.ascii	"vt_next\000"
 3648      65787400 
 3649              	.LASF11:
 3650 01bf 705F6D73 		.ascii	"p_msgqueue\000"
 3650      67717565 
 3650      756500
 3651              	.LASF84:
 3652 01ca 6D656D6F 		.ascii	"memory_pool_t\000"
 3652      72795F70 
 3652      6F6F6C5F 
 3652      7400
 3653              	.LASF99:
 3654 01d8 73697A65 		.ascii	"size\000"
 3654      00
 3655              	.LASF24:
 3656 01dd 73686F72 		.ascii	"short unsigned int\000"
 3656      7420756E 
 3656      7369676E 
 3656      65642069 
 3656      6E7400
 3657              	.LASF36:
 3658 01f0 6D73675F 		.ascii	"msg_t\000"
 3658      7400
 3659              	.LASF76:
 3660 01f6 63685F73 		.ascii	"ch_system_t\000"
 3660      79737465 
 3660      6D5F7400 
 3661              	.LASF98:
 3662 0202 6368506F 		.ascii	"chPoolAdd\000"
 3662      6F6C4164 
 3662      6400
 3663              	.LASF32:
 3664 020c 746D6F64 		.ascii	"tmode_t\000"
 3664      655F7400 
 3665              	.LASF101:
 3666 0214 6368506F 		.ascii	"chPoolObjectInit\000"
 3666      6F6C4F62 
 3666      6A656374 
 3666      496E6974 
 3666      00
 3667              	.LASF37:
 3668 0225 6576656E 		.ascii	"eventmask_t\000"
 3668      746D6173 
 3668      6B5F7400 
 3669              	.LASF10:
 3670 0231 705F7761 		.ascii	"p_waiting\000"
 3670      6974696E 
 3670      6700
 3671              	.LASF38:
 3672 023b 73697A65 		.ascii	"sizetype\000"
 3672      74797065 
 3672      00
 3673              	.LASF94:
 3674 0244 6368506F 		.ascii	"chPoolAllocI\000"
 3674      6F6C416C 
 3674      6C6F6349 
ARM GAS  /tmp/cczmZGAv.s 			page 88


 3674      00
 3675              	.LASF96:
 3676 0251 6368506F 		.ascii	"chPoolFreeI\000"
 3676      6F6C4672 
 3676      65654900 
 3677              	.LASF70:
 3678 025d 76745F6C 		.ascii	"vt_lasttime\000"
 3678      61737474 
 3678      696D6500 
 3679              	.LASF5:
 3680 0269 705F6F6C 		.ascii	"p_older\000"
 3680      64657200 
 3681              	.LASF48:
 3682 0271 725F6374 		.ascii	"r_ctx\000"
 3682      7800
 3683              	.LASF82:
 3684 0277 6D705F6F 		.ascii	"mp_object_size\000"
 3684      626A6563 
 3684      745F7369 
 3684      7A6500
 3685              	.LASF51:
 3686 0286 725F6375 		.ascii	"r_current\000"
 3686      7272656E 
 3686      7400
 3687              	.LASF50:
 3688 0290 725F6F6C 		.ascii	"r_older\000"
 3688      64657200 
 3689              	.LASF80:
 3690 0298 70685F6E 		.ascii	"ph_next\000"
 3690      65787400 
 3691              	.LASF34:
 3692 02a0 74726566 		.ascii	"trefs_t\000"
 3692      735F7400 
 3693              	.LASF63:
 3694 02a8 76697274 		.ascii	"virtual_timer_t\000"
 3694      75616C5F 
 3694      74696D65 
 3694      725F7400 
 3695              	.LASF1:
 3696 02b8 705F7072 		.ascii	"p_prev\000"
 3696      657600
 3697              	.LASF35:
 3698 02bf 74707269 		.ascii	"tprio_t\000"
 3698      6F5F7400 
 3699              	.LASF58:
 3700 02c7 6D757465 		.ascii	"mutex\000"
 3700      7800
 3701              	.LASF25:
 3702 02cd 696E7433 		.ascii	"int32_t\000"
 3702      325F7400 
 3703              	.LASF21:
 3704 02d5 756E7369 		.ascii	"unsigned char\000"
 3704      676E6564 
 3704      20636861 
 3704      7200
 3705              	.LASF14:
 3706 02e3 705F6D74 		.ascii	"p_mtxlist\000"
ARM GAS  /tmp/cczmZGAv.s 			page 89


 3706      786C6973 
 3706      7400
 3707              	.LASF22:
 3708 02ed 73686F72 		.ascii	"short int\000"
 3708      7420696E 
 3708      7400
 3709              	.LASF7:
 3710 02f7 705F7374 		.ascii	"p_state\000"
 3710      61746500 
 3711              	.LASF47:
 3712 02ff 725F7072 		.ascii	"r_prio\000"
 3712      696F00
 3713              	.LASF56:
 3714 0306 65776D61 		.ascii	"ewmask\000"
 3714      736B00
 3715              	.LASF0:
 3716 030d 705F6E65 		.ascii	"p_next\000"
 3716      787400
 3717              	.LASF87:
 3718 0314 63685379 		.ascii	"chSysLock\000"
 3718      734C6F63 
 3718      6B00
 3719              	.LASF89:
 3720 031e 6F626A70 		.ascii	"objp\000"
 3720      00
 3721              	.LASF13:
 3722 0323 705F6570 		.ascii	"p_epending\000"
 3722      656E6469 
 3722      6E6700
 3723              	.LASF27:
 3724 032e 75696E74 		.ascii	"uint32_t\000"
 3724      33325F74 
 3724      00
 3725              	.LASF46:
 3726 0337 725F7175 		.ascii	"r_queue\000"
 3726      65756500 
 3727              	.LASF67:
 3728 033f 76745F64 		.ascii	"vt_delta\000"
 3728      656C7461 
 3728      00
 3729              	.LASF28:
 3730 0348 6C6F6E67 		.ascii	"long unsigned int\000"
 3730      20756E73 
 3730      69676E65 
 3730      6420696E 
 3730      7400
 3731              	.LASF57:
 3732 035a 63686172 		.ascii	"char\000"
 3732      00
 3733              	.LASF61:
 3734 035f 6D5F6E65 		.ascii	"m_next\000"
 3734      787400
 3735              	.LASF39:
 3736 0366 73797374 		.ascii	"systime_t\000"
 3736      696D655F 
 3736      7400
 3737              	.LASF15:
ARM GAS  /tmp/cczmZGAv.s 			page 90


 3738 0370 705F7265 		.ascii	"p_realprio\000"
 3738      616C7072 
 3738      696F00
 3739              	.LASF62:
 3740 037b 76746675 		.ascii	"vtfunc_t\000"
 3740      6E635F74 
 3740      00
 3741              	.LASF103:
 3742 0384 5F5F6675 		.ascii	"__func__.6100\000"
 3742      6E635F5F 
 3742      2E363130 
 3742      3000
 3743              	.LASF91:
 3744 0392 5F5F7365 		.ascii	"__set_BASEPRI\000"
 3744      745F4241 
 3744      53455052 
 3744      4900
 3745              	.LASF104:
 3746 03a0 5F5F6675 		.ascii	"__func__.6106\000"
 3746      6E635F5F 
 3746      2E363130 
 3746      3600
 3747              	.LASF108:
 3748 03ae 2F686F6D 		.ascii	"/home/joerg/repos/chibios-projects/ChibiOS-RT/demos"
 3748      652F6A6F 
 3748      6572672F 
 3748      7265706F 
 3748      732F6368 
 3749 03e1 2F53544D 		.ascii	"/STM32/RT-STM32F103-OLIMEX_STM32_P103\000"
 3749      33322F52 
 3749      542D5354 
 3749      4D333246 
 3749      3130332D 
 3750              	.LASF42:
 3751 0407 636F6E74 		.ascii	"context\000"
 3751      65787400 
 3752              	.LASF12:
 3753 040f 705F6D73 		.ascii	"p_msg\000"
 3753      6700
 3754              	.LASF31:
 3755 0415 7274636E 		.ascii	"rtcnt_t\000"
 3755      745F7400 
 3756              	.LASF64:
 3757 041d 76697274 		.ascii	"virtual_timer\000"
 3757      75616C5F 
 3757      74696D65 
 3757      7200
 3758              	.LASF69:
 3759 042b 76745F70 		.ascii	"vt_par\000"
 3759      617200
 3760              	.LASF75:
 3761 0432 6D656173 		.ascii	"measurement_offset\000"
 3761      7572656D 
 3761      656E745F 
 3761      6F666673 
 3761      657400
 3762              	.LASF44:
ARM GAS  /tmp/cczmZGAv.s 			page 91


 3763 0445 74687265 		.ascii	"threads_queue_t\000"
 3763      6164735F 
 3763      71756575 
 3763      655F7400 
 3764              	.LASF79:
 3765 0455 706F6F6C 		.ascii	"pool_header\000"
 3765      5F686561 
 3765      64657200 
 3766              	.LASF9:
 3767 0461 705F7265 		.ascii	"p_refs\000"
 3767      667300
 3768              	.LASF73:
 3769 0468 726C6973 		.ascii	"rlist\000"
 3769      7400
 3770              	.LASF20:
 3771 046e 75696E74 		.ascii	"uint8_t\000"
 3771      385F7400 
 3772              	.LASF109:
 3773 0476 6368506F 		.ascii	"chPoolAlloc\000"
 3773      6F6C416C 
 3773      6C6F6300 
 3774              	.LASF97:
 3775 0482 6368506F 		.ascii	"chPoolFree\000"
 3775      6F6C4672 
 3775      656500
 3776              	.LASF55:
 3777 048d 77746F62 		.ascii	"wtobjp\000"
 3777      6A7000
 3778              	.LASF6:
 3779 0494 705F6E61 		.ascii	"p_name\000"
 3779      6D6500
 3780              	.LASF90:
 3781 049b 5F5F6675 		.ascii	"__func__.6114\000"
 3781      6E635F5F 
 3781      2E363131 
 3781      3400
 3782              	.LASF45:
 3783 04a9 74687265 		.ascii	"threads_list_t\000"
 3783      6164735F 
 3783      6C697374 
 3783      5F7400
 3784              	.LASF92:
 3785 04b8 63685379 		.ascii	"chSysUnlock\000"
 3785      73556E6C 
 3785      6F636B00 
 3786              	.LASF102:
 3787 04c4 6368506F 		.ascii	"chPoolLoadArray\000"
 3787      6F6C4C6F 
 3787      61644172 
 3787      72617900 
 3788              	.LASF60:
 3789 04d4 6D5F6F77 		.ascii	"m_owner\000"
 3789      6E657200 
 3790              	.LASF107:
 3791 04dc 2E2E2F2E 		.ascii	"../../../os/rt/src/chmempools.c\000"
 3791      2E2F2E2E 
 3791      2F6F732F 
ARM GAS  /tmp/cczmZGAv.s 			page 92


 3791      72742F73 
 3791      72632F63 
 3792              	.LASF3:
 3793 04fc 705F6374 		.ascii	"p_ctx\000"
 3793      7800
 3794              	.LASF68:
 3795 0502 76745F66 		.ascii	"vt_func\000"
 3795      756E6300 
 3796              		.comm	__gnu_lto_v1,1,1
 3797              		.ident	"GCC: (GNU Tools for ARM Embedded Processors) 4.7.4 20130913 (release) [ARM/embedded-4_7-br
ARM GAS  /tmp/cczmZGAv.s 			page 93


DEFINED SYMBOLS
                            *ABS*:00000000 chmempools.c
     /tmp/cczmZGAv.s:366    .text.chPoolObjectInit:00000000 $t
     /tmp/cczmZGAv.s:372    .text.chPoolObjectInit:00000000 chPoolObjectInit
     /tmp/cczmZGAv.s:393    .text.chPoolLoadArray:00000000 $t
     /tmp/cczmZGAv.s:399    .text.chPoolLoadArray:00000000 chPoolLoadArray
     /tmp/cczmZGAv.s:651    .text.chPoolAllocI:00000000 $t
     /tmp/cczmZGAv.s:657    .text.chPoolAllocI:00000000 chPoolAllocI
     /tmp/cczmZGAv.s:695    .text.chPoolAlloc:00000000 $t
     /tmp/cczmZGAv.s:701    .text.chPoolAlloc:00000000 chPoolAlloc
     /tmp/cczmZGAv.s:790    .text.chPoolFreeI:00000000 $t
     /tmp/cczmZGAv.s:796    .text.chPoolFreeI:00000000 chPoolFreeI
     /tmp/cczmZGAv.s:815    .text.chPoolFree:00000000 $t
     /tmp/cczmZGAv.s:821    .text.chPoolFree:00000000 chPoolFree
                            *COM*:00000001 __gnu_lto_v1
                     .debug_frame:00000010 $d

NO UNDEFINED SYMBOLS
