ARM GAS  /tmp/ccNhnR6l.s 			page 1


   1              		.syntax unified
   2              		.cpu cortex-m3
   3              		.fpu softvfp
   4              		.eabi_attribute 20, 1
   5              		.eabi_attribute 21, 1
   6              		.eabi_attribute 23, 3
   7              		.eabi_attribute 24, 1
   8              		.eabi_attribute 25, 1
   9              		.eabi_attribute 26, 1
  10              		.eabi_attribute 30, 2
  11              		.eabi_attribute 34, 1
  12              		.eabi_attribute 18, 4
  13              		.thumb
  14              		.file	"chmemcore.c"
  15              		.text
  16              	.Ltext0:
  17              		.section	.gnu.lto_.jmpfuncs.4e20a11463e92c06,"",%progbits
  18 0000 789C6362 		.ascii	"x\234cb`d`g\300\016\270\2404\013\003\003##\023#3\003"
  18      60646067 
  18      C00EB8A0 
  18      340B0303 
  18      23231323 
  19 0016 030002DC 		.ascii	"\003\000\002\334\000!"
  19      0021
  20              		.text
  21              		.section	.gnu.lto_.inline.4e20a11463e92c06,"",%progbits
  22 0000 789C6362 		.ascii	"x\234cb`d\340e\300\016B\2414\013\003\003\007;#\003\023"
  22      6064E065 
  22      C00E42A1 
  22      340B0303 
  22      073B2303 
  23 0015 CB027906 		.ascii	"\313\002y\006\266\005\362L@-|\274\214\214@\212\201Y"
  23      B605F24C 
  23      402D7CBC 
  23      8C8C408A 
  23      8159
  24 0027 E8402723 		.ascii	"\350@'#D\020(\313\302\300\304\300\303\015\225\341[\220"
  24      441028CB 
  24      C2C0C4C0 
  24      C30D95E1 
  24      5B90
  25 0039 8524C1CC 		.ascii	"\205$\301\314\300\306\0124\202\355\203\036D\220\001"
  25      C0C60A34 
  25      82ED831E 
  25      449001
  26 0048 00971709 		.ascii	"\000\227\027\011\323"
  26      D3
  27              		.text
  28              		.section	.gnu.lto_.pureconst.4e20a11463e92c06,"",%progbits
  29 0000 789C6362 		.ascii	"x\234cb`d`f``\340d\200\000\026\006\011F+&\011f\026\000"
  29      60646066 
  29      6060E064 
  29      80001606 
  29      09462B26 
  30 0018 03880088 		.ascii	"\003\210\000\210"
  31              		.text
  32              		.section	.gnu.lto__core_init.4e20a11463e92c06,"",%progbits
ARM GAS  /tmp/ccNhnR6l.s 			page 2


  33 0000 789CBD93 		.ascii	"x\234\275\223\277N\033A\020\306\277\331\365\235I\010"
  33      BF4E1B41 
  33      10C6BFD9 
  33      F59D4908 
  34 0010 82963458 		.ascii	"\202\2264X<\3009\246\243\240\207\202\002\244(\225u\202"
  34      3CC039A6 
  34      A3A08782 
  34      02A42895 
  34      7582
  35 0022 CB4A50F0 		.ascii	"\313JP\360'6\005\242\361\305\360\000\026\025\230\006"
  35      273605A2 
  35      F1C5F000 
  35      16159806 
  36 0032 92282220 		.ascii	"\222(\" D\205\004\015DJ\012\202\"\252\024\224VD\203"
  36      4485040D 
  36      444A0A82 
  36      22AA1494 
  36      564483
  37 0045 E4074824 		.ascii	"\344\007H$\244cf\355\263\215l\350`\357N\337\336\316"
  37      A46366ED 
  37      B38D6CE8 
  37      60EF4EDF 
  37      DECE
  38 0057 7C3BBFDB 		.ascii	"|;\277\333\333U \276\332[??'\032\370\300J\032\244J\227"
  38      DB5520BE 
  38      DA5B3F3F 
  38      271AF8C0 
  38      4A1AA44A 
  39 006c C0C79422 		.ascii	"\300\307\224\"\222\016[\012\212\012o\25539\210\2350"
  39      920E5B0A 
  39      8A0A6FAD 
  39      3339889D 
  39      30
  40 007d 5C2FFD28 		.ascii	"\\/\375(\216\026+Q4`\010\012\212\340\023\366~\035\375"
  40      8E162B51 
  40      3460080A 
  40      8AE013F6 
  40      7E1DFD
  41 0090 D4FD3044 		.ascii	"\324\3750DHAT!q\277N\273\027b\304\323\231\326c\223V"
  41      48415421 
  41      71BF4EBB 
  41      1762C4D3 
  41      99D66393 
  42 00a5 18B29457 		.ascii	"\030\262\224W\035\020g\351\261r\012#\326Y-\237\322\363"
  42      1D1067E9 
  42      B1720A23 
  42      D6592D9F 
  42      D2F3
  43 00b7 908EDB7A 		.ascii	"\220\216\333z\347\035I\233\250\267\233\247t\275\345"
  43      E71D499B 
  43      A8B79BA7 
  43      74BDE5
  44 00c6 9EA9EF95 		.ascii	"\236\251\357\225\250\000t\023\262\264M\203\314\233\245"
  44      A8007413 
  44      B2B44D83 
  44      CC9BA5
  45 00d5 4FAC9AF5 		.ascii	"O\254\232\3653k\202\365\013\253\303\372\225\325e\335"
ARM GAS  /tmp/ccNhnR6l.s 			page 3


  45      336B82F5 
  45      0BABC3FA 
  45      95D565DD 
  46 00e5 654DB27E 		.ascii	"eM\262~c\345\346`-\014\373\224\260TJ\245p{#U\207I(\274"
  46      63E5E660 
  46      2D0CFB94 
  46      B0544AA5 
  46      707B2355 
  47 00fd B330BFCB 		.ascii	"\2630\277\313{\215\312Y:`\234\026\3766\217\261\236?"
  47      7B8DCA59 
  47      3A609C16 
  47      FE368FB1 
  47      9E3F
  48 010f AF9B8EC3 		.ascii	"\257\233\216\303\246\303\257O4!*\033lRb\334\321\027"
  48      A6C3AF4F 
  48      34212A1B 
  48      6C5262DC 
  48      D117
  49 0121 2856F575 		.ascii	"(V\365u\371/ei\237\034\004D+\370\037v\031rh6\366_`\265"
  49      F92F6569 
  49      9F1C0444 
  49      2BF81F76 
  49      19726836 
  50 0139 8038AE38 		.ascii	"\2008\2568E\026\207\367e-t\242\0331\315\341Z\354_\024"
  50      451687F7 
  50      652D74A2 
  50      1B31CDE1 
  50      5AEC5F14 
  51 014d 45BD365E 		.ascii	"E\2756^\274\321W:NHp\216\035\034;\256\217\225\261I\362"
  51      BCD1573A 
  51      4E48708E 
  51      1D1C3BAE 
  51      8F95B149 
  52 0162 03EA555D 		.ascii	"\003\352U]\256j\317\213L\343\332\203\000\361YSU\313"
  52      AE6ACF8B 
  52      4CE3DA83 
  52      00F15953 
  52      55CB
  53 0174 7E88E772 		.ascii	"~\210\347rZ@u\003\264\205\306\345\234\0164\347\015\232"
  53      5A407503 
  53      B485C6E5 
  53      9C0E34E7 
  53      0D9A
  54 0186 64202584 		.ascii	"d %\204f\367a\032j\247\341\017\277\204\354\203\232)"
  54      66F7611A 
  54      6AA7E10F 
  54      BF84EC83 
  54      9A29
  55 0198 6E1392CA 		.ascii	"n\023\222\312k*\253\326\353\3733fj\321\237\236\312\033"
  55      6B2AABD6 
  55      EBFB3366 
  55      6AD19F9E 
  55      CA1B
  56 01aa DFF78607 		.ascii	"\337\367\206\007</]\273\027\362\351\334R:\237\013\322"
  56      3C2F5DBB 
  56      17F2E9DC 
  56      523A9F0B 
ARM GAS  /tmp/ccNhnR6l.s 			page 4


  56      D2
  57 01bb C1CC9C99 		.ascii	"\301\314\234\231\013\026r\306\013\360r\336,/\361\253"
  57      0B1672C6 
  57      0BF072DE 
  57      2C2FF1AB 
  58 01cb 9779135B 		.ascii	"\227y\023[\315\374{vf2/\270c#C=\367&}\325\232w\007\344"
  58      CDFC7B76 
  58      66322FB8 
  58      6323433D 
  58      F7267DD5 
  59 01e3 D3EDB2   		.ascii	"\323\355\262"
  60              		.text
  61              		.section	.gnu.lto_chCoreAlloc.4e20a11463e92c06,"",%progbits
  62 0000 789C9D54 		.ascii	"x\234\235T]HSa\030~\337s6\267\251s\363\306\360FE\014"
  62      5D485361 
  62      187EDF73 
  62      36B7A973 
  62      F3C6F046 
  63 0016 1264132C 		.ascii	"\022d\023,\364&(\004\311\213\021)]\036D\217'\\\264M"
  63      F4262804 
  63      C98B1129 
  63      5D1E448F 
  63      275CB44D 
  64 002a 3615F366 		.ascii	"6\025\363f\247\331ED\222\010A\005\213\324~\216!\375"
  64      A7D94544 
  64      92084105 
  64      8BD47E8E 
  64      21FD
  65 003c 50495196 		.ascii	"PIQ\226\220Z\224x!\322\215\020\202\006\026^z\241\020"
  65      905A9478 
  65      21D28D10 
  65      8206165E 
  65      7AA110
  66 004f ADF7FBCE 		.ascii	"\255\367\373\3169\3235\267f\373{\276\275\337\373<\357"
  66      39D335B7 
  66      66FB7BBE 
  66      BDDFFB3C 
  66      EF
  67 0060 CFF77E47 		.ascii	"\317\367~G\000\244w\372\253\216\276\037\363\350K\210"
  67      00A477FA 
  67      AB8EBE1F 
  67      F3E84B88 
  68 0070 56406178 		.ascii	"V@ax\021\340R\205 X6l\240\036\021\265y\000\265VD\213"
  68      11E05285 
  68      2058366C 
  68      A01E11B5 
  68      7900B556 
  69 0086 6EB720B2 		.ascii	"n\267 \262\005IE\005\321\202\321\263\\\323Q\011\243"
  69      05494505 
  69      D182D1B3 
  69      5CD35109 
  69      A3
  70 0097 AA3A323C 		.ascii	"\252:2<\250\236\212\255&\022\345\012\202\000\002B\033"
  70      A89E8AAD 
  70      2612E50A 
  70      82000242 
  70      1B
ARM GAS  /tmp/ccNhnR6l.s 			page 5


  71 00a8 C2D2CA5A 		.ascii	"\302\322\312Za)(\210P\001\014\005\260\244&\220F\025"
  71      61292888 
  71      50010C05 
  71      B0A42690 
  71      4615
  72 00ba 05A8E2D4 		.ascii	"\005\250\342\324\345xY.\314\017#&\323\"@5g\316N\004"
  72      E578592E 
  72      CC0F2326 
  72      D3224035 
  72      67CE4E04 
  73 00ce D3997E4C 		.ascii	"\323\231~L\247\306L\252\025\030oS\313!\342\360\036Z"
  73      A7C64CAA 
  73      15186F53 
  73      CB21E2F0 
  73      1E5A
  74 00e0 1EA76D5B 		.ascii	"\036\247m[\017\310\022\240\216\347\011\007\346\035\317"
  74      0FC812A0 
  74      8EE70907 
  74      E61DCF
  75 00ef 95B7B738 		.ascii	"\225\267\2678\352K\323\377\360\364\246\254k\347\263"
  75      EA4BD3FF 
  75      F0F4A6AC 
  75      6BE7B3
  76 00fe D296E363 		.ascii	"\322\226\343c\302\302\235\274\367\302\314j\"Z\005\343"
  76      C2C29DBC 
  76      F7C2CC6A 
  76      225A05E3 
  77 010e C669D241 		.ascii	"\306i\322AJ8N\356\374$\177\342>\032\344\002\207\020"
  77      4A384EEE 
  77      FC247FE2 
  77      3E1AE402 
  77      8710
  78 0120 257C8255 		.ascii	"%|\202U`\007\011\037c%8\010\307\010\363\011'\011\013"
  78      6007091F 
  78      63253808 
  78      C708F309 
  78      27090B
  79 0133 081F1116 		.ascii	"\010\037\021\026\022\336%t\022j\204E\204\017\011]\204"
  79      12DE2574 
  79      126A8445 
  79      840F095D 
  79      84
  80 0144 0F08DD84 		.ascii	"\017\010\335\204\367\010\213\015?zY\341\262\252\272"
  80      F7088B0D 
  80      3F7A59E1 
  80      B2AABA
  81 0153 51FFDF66 		.ascii	"Q\377\337f\034\377\031\206l\206[(\015\266\020\347iT"
  81      1CFF1986 
  81      6C865B28 
  81      0DB610E7 
  81      6954
  82 0165 75578341 		.ascii	"uW\203A\012OY\361\231g\324&\300i\336\321\251\241\235"
  82      0A4F59F1 
  82      9967D426 
  82      C069DED1 
  82      A9A19D
  83 0178 959AACED 		.ascii	"\225\232\254\355aF\033m\002|\201\030\376\276~c\255!"
ARM GAS  /tmp/ccNhnR6l.s 			page 6


  83      61461B6D 
  83      027C8118 
  83      FEBE7E63 
  83      AD21
  84 018a 2518A5F7 		.ascii	"%\030\245\367\234\322\223\360YJHv['\251?\224#\377\001"
  84      9CD293F0 
  84      594A4876 
  84      5B27A93F 
  84      9423FF01 
  85 019e 2883698C 		.ascii	"(\203i\214\2537O(hO\221Mn\317\030\333\016.\300\252\002"
  85      AB374F28 
  85      684F914D 
  85      6ECF18DB 
  85      0E2EC0AA 
  86 01b3 A39732A5 		.ascii	"\243\2272\245\007\237a0\272t\355\276\323\010\233~e%"
  86      079F6130 
  86      BA74EDBE 
  86      D3089B7E 
  86      6525
  87 01c5 1CD58F6B 		.ascii	"\034\325\217kV;\227\265\244d\342c<\361\324^\311h\247"
  87      563B97B5 
  87      A464E263 
  87      3CF1D45E 
  87      C968A7
  88 01d8 70A5FC70 		.ascii	"p\245\374pm\300\303\276\026\327\265\016\011\337\222"
  88      6DC0C3BE 
  88      16D7B50E 
  88      09DF92
  89 01e7 9F8C0E72 		.ascii	"\237\214\016r\320w\267\023\211\204K\317\024\364]3[\007"
  89      D077B713 
  89      89844BCF 
  89      14F45D33 
  89      5B07
  90 01f9 A3C59A37 		.ascii	"\243\305\2327\265wh\322\362o\303-d\243<\000;\252]\301"
  90      B57768D2 
  90      F26FC32D 
  90      64A33C00 
  90      3BAA5DC1 
  91 020d 7CF423AB 		.ascii	"|\364#\253\212g\230\317\033\006<Z\354\207\010&\251@"
  91      8A6798CF 
  91      1B063C5A 
  91      EC870826 
  91      A940
  92 021f 665B4C2A 		.ascii	"f[L*i*\334G\007\376\245\343$\036\257\344\312\256\255"
  92      692ADC47 
  92      07FEA5E3 
  92      241EAFE4 
  92      CAAEAD
  93 0232 88CB3BB9 		.ascii	"\210\313;\271\353\246\330o\232]\264\0030\007\263\337"
  93      EBA6D86F 
  93      9A5DB403 
  93      3007B3DF 
  94 0242 B16B4FC9 		.ascii	"\261kO\311\256\335\006\265P\351@\217U6w\277\264\022"
  94      AEDD06B5 
  94      50E9408F 
  94      553677BF 
  94      B412
ARM GAS  /tmp/ccNhnR6l.s 			page 7


  95 0254 B3F2695E 		.ascii	"\263\362i^\271\036\346\252HO0\223\355&k\262%F\370\\"
  95      B91EE6AA 
  95      484F3093 
  95      ED266BB2 
  95      2546F85C 
  96 0268 8A20A619 		.ascii	"\212 \246\031\320\222\034\364\255x\211~`\311K\002\351"
  96      D0921CF4 
  96      AD78897E 
  96      60C94B02 
  96      E9
  97 0279 E39FE116 		.ascii	"\343\237\341\026d\270\012\022\276\320\307fj\350\345"
  97      64B80A12 
  97      BED0C766 
  97      6AE8E5
  98 0288 B75CEE02 		.ascii	"\267\\\356\002d\273\013\237\370H\315e\272\013\022\276"
  98      64BB0B9F 
  98      F848CD65 
  98      BA0B12BE 
  99 0298 A2C5AE8E 		.ascii	"\242\305\256\2161\374\022\276\3012nX\004\\\332\020\365"
  99      31FC12BE 
  99      C1326E58 
  99      045CDA10 
  99      F5
 100 02a9 D4652C66 		.ascii	"\324e,f\246\257P\314\010l)li%\324Nqa\242\210=\011\220"
 100      A6AF50CC 
 100      086C296C 
 100      6925D44E 
 100      7161A288 
 101 02c0 F7852960 		.ascii	"\367\205)`w\271\307\343\325?\241\2107\334\343\215\204"
 101      77B9C7E3 
 101      D53FA188 
 101      37DCE38D 
 101      84
 102 02d1 65AFDC15 		.ascii	"e\257\334\025P\002r(\254xd\260D\374\003\212#\250\364"
 102      50027228 
 102      AC7864B0 
 102      44FC038A 
 102      23A8F4
 103 02e4 F790CDD3 		.ascii	"\367\220\315\323\220\\\325\333\225`'[\0343\027G\255"
 103      905CD5DB 
 103      9560275B 
 103      1C331747 
 103      AD
 104 02f5 7DED177A 		.ascii	"}\355\027z\225\352\277\004\273C\341\236\210\367d\213"
 104      95EABF04 
 104      BB43E19E 
 104      88F7648B 
 105 0305 AFD1D74F 		.ascii	"\257\321\327O\312L\266\255\257>\340\351\202\232\275"
 105      CA4CB6AD 
 105      AF3EE0E9 
 105      829ABD
 106 0314 9E24EB6D 		.ascii	"\236$\353m\364\2656\267z\375A\371Bo\247\342\345\236"
 106      F4B536B7 
 106      7AFD41F9 
 106      426FA7E2 
 106      E59E
 107 0326 72A0A937 		.ascii	"r\240\2517(\223\263\333\327\332R\321\321\036Q\272\303"
ARM GAS  /tmp/ccNhnR6l.s 			page 8


 107      2893B3DB 
 107      D7DA52D1 
 107      D11E51BA 
 107      C3
 108 0337 FE9A8AC3 		.ascii	"\376\232\212\303\265 \204\301FaC\341\213\360\007\012"
 108      B52084C1 
 108      466143E1 
 108      8BF0070A 
 109 0347 C091CD   		.ascii	"\300\221\315"
 110              		.text
 111              		.section	.gnu.lto_chCoreAllocI.4e20a11463e92c06,"",%progbits
 112 0000 789C9D54 		.ascii	"x\234\235T=hSQ\024\376\316\2757y/\005\243 \024:\265"
 112      3D685351 
 112      14FECEBD 
 112      37792F05 
 112      A320143A 
 113 0015 840E8290 		.ascii	"\204\016\202\220\010\326\237\251s\035\015\012.\241\303"
 113      08D69FA9 
 113      731D0D0A 
 113      2EA1C3
 114 0024 F3492334 		.ascii	"\363I#4\225\244C\350\222g\352P\244C\350\246\010\265"
 114      95A443E8 
 114      9267EA50 
 114      A443E8A6 
 114      08B5
 115 0036 94EA8B22 		.ascii	"\224\352\213\"\342\350\242\202\265C\220N\342\334\241"
 115      E2E8A282 
 115      B543904E 
 115      E2DCA1
 116 0045 83427172 		.ascii	"\203BqrP\010<\317\2757\357\031M\261\261/\011\337\271"
 116      50083CCF 
 116      BD37EF19 
 116      4DB1B12F 
 116      09DFB9
 117 0058 E7DCEFFC 		.ascii	"\347\334\357\374\277\010\020\177\006\237\363\374{\244"
 117      BF08107F 
 117      069FF3FC 
 117      7BA4
 118 0066 801B8C94 		.ascii	"\200\033\214\224\002\211\326.pwB\010\365\305ApF\206"
 118      0289D62E 
 118      70774208 
 118      F5C54170 
 118      4686
 119 0078 3B40704E 		.ascii	";@pN\222\262zE\244\005v\325\020RQ\343\272\361\231\311"
 119      92B27A45 
 119      A40576D5 
 119      105251E3 
 119      BAF199C9 
 120 008c 612308D6 		.ascii	"a#\010\326Z\357\2333\315\275(\032\367\265v\226\320Y"
 120      5AEF9B33 
 120      CDBD281A 
 120      F7B57696 
 120      D059
 121 009e DD3A3106 		.ascii	"\335:1\006\237\010\023\320(\240\376\214>\300\223\002"
 121      9F0813D0 
 121      28A0FE8C 
 121      3EC09302 
ARM GAS  /tmp/ccNhnR6l.s 			page 9


 122 00ae 39D2D483 		.ascii	"9\322\324\203\360\015\035Mm\365Q\225\300YC\305\177\207"
 122      F00D1D4D 
 122      6DF55195 
 122      C05943C5 
 122      7F87
 123 00c0 9C1A96F7 		.ascii	"\234\032\226\367W\274\351c\361p\214$m?\353C\221\326"
 123      57BCE963 
 123      F1708C24 
 123      6D3FEB43 
 123      91D6
 124 00d2 FA2A9B31 		.ascii	"\372*\2331\031n\267+\203\3142\015P\227\203\230\232\022"
 124      196EB72B 
 124      83CC320D 
 124      50978398 
 124      9A12
 125 00e4 285A6A78 		.ascii	"(Zjx\353\237A\273\353O\304\247v\372\255x\267\0275&\261"
 125      EB9F41BB 
 125      EB4FC4A7 
 125      76FAAD78 
 125      B7173526 
 126 00f9 D973E353 		.ascii	"\331s\343SZ\340\232\361\320]\377v\330$\371\006N\023"
 126      5AE09AF1 
 126      D05DFF76 
 126      D824F906 
 126      4E13
 127 010b 4AF48272 		.ascii	"J\364\202r\020T\242\2274\011\311\347\307|V\260\347\024"
 127      1054A297 
 127      3409C9E7 
 127      C77C56B0 
 127      E714
 128 011d E3069FD3 		.ascii	"\343\006\237\323\214\233\214\016\343\026\243\313\370"
 128      8C9B8C0E 
 128      E316A3CB 
 128      F8
 129 012a 9431C3D8 		.ascii	"\2241\303\330f\034a|\306\230e|\316\310O\012\367\202"
 129      661C617C 
 129      C698657C 
 129      CEC84F0A 
 129      F782
 130 013c E01459FF 		.ascii	"\340\024Y\377\263\275Z\257j\324\013\\\3444\264 ;Xn\354"
 130      B3BD5AAF 
 130      6AD40B5C 
 130      E434B420 
 130      3B586EEC 
 131 0150 87B74BF4 		.ascii	"\207\267K\364\212\267\337#\351\221\0303\2719|\223\215"
 131      8AB7DF23 
 131      E9911833 
 131      B9397C93 
 131      8D
 132 0161 AFE58A8C 		.ascii	"\257\345\212\214\215\212\355\326\370#\212\242\223|a"
 132      8D8AEDD6 
 132      F8238AA2 
 132      937C61
 133 0170 0702D66A 		.ascii	"\007\002\326j\363\365\364t;h^\321\353\033\323R\017\361"
 133      F3F5F474 
 133      3B685ED1 
 133      EB1BD352 
ARM GAS  /tmp/ccNhnR6l.s 			page 10


 133      0FF1
 134 0182 80F43496 		.ascii	"\200\3644\226\3603p}r\250L\244\023\321\276\034\3632"
 134      F033707D 
 134      72A84CA4 
 134      13D1BE1C 
 134      F332
 135 0194 C1046B7E 		.ascii	"\301\004k~\225\210Ii\346YW\211\3129\304\017\216\362"
 135      95884969 
 135      E6595789 
 135      CA39C40F 
 135      8EF2
 136 01a6 E37ADAC4 		.ascii	"\343z\332\304\205\254\374\326e\214{\327\\=\220\365X"
 136      85ACFCD6 
 136      658C7BD7 
 136      5C3D90F5 
 136      58
 137 01b7 3DC216E0 		.ascii	"=\302\026\340\003\266\367i\256O\3277\360\"I\200\377"
 137      03B6F769 
 137      AE4FD737 
 137      F0224980 
 137      FF
 138 01c8 1124D7DD 		.ascii	"\021$\327\335\015G\343\312u\207\3430\367%/[\314\316"
 138      0D47E3CA 
 138      7587E330 
 138      F7252F5B 
 138      CCCE
 139 01da B2366949 		.ascii	"\2626iI/\3740E03\016\250\354\230vAI?M\231\237a\226\212"
 139      2FFC3045 
 139      30330EA8 
 139      EC987641 
 139      493F4D99 
 140 01f2 7B04F13D 		.ascii	"{\004\361=\034\345@\362c;\253'L\206\301\343\305x>_\260"
 140      1CE540F2 
 140      633BAB27 
 140      4C86C1E3 
 140      C5783E5F 
 141 0207 DF855AA1 		.ascii	"\337\205Z\241\272X\250U\275\20277\357\317{\013U?\357"
 141      BA58A855 
 141      BD823737 
 141      EFCF7B0B 
 141      553FEF
 142 021a C1F52B37 		.ascii	"\301\365+7\371\224\237\212\205\013\231\212__\324\322"
 142      F9949F8A 
 142      850B998A 
 142      5F5FD4D2 
 143 022a C544BA94 		.ascii	"\305D\272\224H\227\351\216\252\225\227\374_\023\223"
 143      4897E98E 
 143      AA9597FC 
 143      5F1393
 144 0239 0A2A     		.ascii	"\012*"
 145              		.text
 146              		.section	.gnu.lto_chCoreStatus.4e20a11463e92c06,"",%progbits
 147 0000 789C9D92 		.ascii	"x\234\235\222=K\303P\024\206\337s\363a\335\\;\265t\025"
 147      3D4BC350 
 147      1486DF73 
 147      F361DD5C 
 147      3BB57415 
ARM GAS  /tmp/ccNhnR6l.s 			page 11


 148 0014 12BF0627 		.ascii	"\022\277\006'W\355\250\340X\034\342\005\035\332B\333"
 148      57EDA8E0 
 148      581CE205 
 148      1DDA42DB 
 149 0024 415C1AA3 		.ascii	"A\\\032\243\203c\021\034\354d\021\261\006\374\015\012"
 149      8363111C 
 149      EC6411B1 
 149      06FC0D0A 
 150 0034 6E1DFA0B 		.ascii	"n\035\372\013\034\2728(\305\311\305)\236sKk\375\200"
 150      1CBA3828 
 150      C5C9C529 
 150      9E734B6B 
 150      FD80
 151 0046 AA2709CF 		.ascii	"\252'\011\317\311\341>\347\344&Q >\276G\232\257S\005"
 151      C9E13EE7 
 151      E4265120 
 151      3EBE479A 
 151      AF5305
 152 0059 AC32C902 		.ascii	"\2542\311\002\251F\0278\310*\"IX\251+\252o\032\323\315"
 152      A9461738 
 152      C82A2249 
 152      58A92BAA 
 152      6F1AD3CD 
 153 006d A11586CD 		.ascii	"\241\025\206\315\306}\264\026\365\222$\243\245\272E"
 153      C67DB416 
 153      F59224A3 
 153      A5BA45
 154 007c E8DC3C52 		.ascii	"\350\334<R\032\232\010Y\010\025\354\3173\214w2\346Y"
 154      1A9A0859 
 154      0815ECCF 
 154      338C7732 
 154      E659
 155 008e 0A3912B5 		.ascii	"\0129\022\265=5Yl\214\211\266\302\254\021\361\347\201"
 155      3D35596C 
 155      8C89B6C2 
 155      AC11F1E7 
 155      81
 156 009f 4BBFF5BE 		.ascii	"K\277\365\276\314[\371\227\207\311\322C\374B\257\261"
 156      CC5BF997 
 156      87C9D243 
 156      FC42AFB1 
 157 00af 7BABEE7A 		.ascii	"{\253\356zI\035H\021\012\324\242\034\024\363\202i1/"
 157      491D4811 
 157      0AD4A21C 
 157      14F38269 
 157      312F
 158 00c1 9936F38A 		.ascii	"\2316\363\212\3510\257\231.\363\234\311\341\340(\014"
 158      E930AF99 
 158      2EF39CC9 
 158      E1E0280C 
 159 00d1 67CC2889 		.ascii	"g\314(\211u\241|\266\015\236&\211\325A\224\357\307\317"
 159      75A17CB6 
 159      0D9E2689 
 159      D54194EF 
 159      C7CF
 160 00e3 54A0981C 		.ascii	"T\240\230\034\004DM\234\221\274\216}\274\205)M\016\355"
 160      04444D9C 
ARM GAS  /tmp/ccNhnR6l.s 			page 12


 160      91BC8E7D 
 160      BC85294D 
 160      0EED
 161 00f5 0E7E0B79 		.ascii	"\016~\013yB\307|o\011\326\236d\374@R\354\231Z~T\262"
 161      42C77C6F 
 161      09D69E64 
 161      FC4052EC 
 161      995A7E54 
 162 010a 7EE84393 		.ascii	"~\350C\223\372\330\354I\355\360\370\243\346\230\366"
 162      FAD8EC49 
 162      EDF0F8A3 
 162      E698F6
 163 0119 B659DAB7 		.ascii	"\266Y\332\267\226\207e7\220.]\320h\241;\334\"\231\235"
 163      96876537 
 163      902E5DD0 
 163      68A13BDC 
 163      22999D
 164 012c F1FE90F1 		.ascii	"\361\376\220\361<\177p\226\253~\245\346W+\201\037\354"
 164      3C7F7096 
 164      AB7EA5E6 
 164      572B811F 
 164      EC
 165 013d 14753128 		.ascii	"\024u1(W\264\027 \245K\333|\347\315\015\223\371\351"
 165      57B41720 
 165      A54BDB7C 
 165      E7CD0D93 
 165      F9E9
 166 014f 92DEAB49 		.ascii	"\222\336\253I\2660\312\026\337\001t\253\226b"
 166      B630CA16 
 166      DF0174AB 
 166      9662
 167              		.text
 168              		.section	.gnu.lto_.cgraph.4e20a11463e92c06,"",%progbits
 169 0000 789C45C7 		.ascii	"x\234E\307\273\025\000\020\024D\301\273OW\232\333T\250"
 169      BB150010 
 169      1444C1BB 
 169      4F579ADB 
 169      54A8
 170 0012 02A94F31 		.ascii	"\002\251O1j\2228L6\201H@\346\212.C\335\330\255(\206"
 170      6A92384C 
 170      36814840 
 170      E68A2E43 
 170      DDD8AD28 
 171 0027 ACBF29C7 		.ascii	"\254\277)\307\337\222\323\033\007+\240\022\375"
 171      DF92D31B 
 171      072BA012 
 171      FD
 172              		.text
 173              		.section	.gnu.lto_.vars.4e20a11463e92c06,"",%progbits
 174 0000 789C6362 		.ascii	"x\234cb`d`f``\220d\200\000\2265\214\014\014\365\014"
 174      60646066 
 174      60609064 
 174      80009635 
 174      8C0C0CF5 
 175 0015 4B191959 		.ascii	"K\031\031Y\352\231\32722\001\331\313\030\231\201l\000"
 175      EA99D732 
 175      3201D9CB 
ARM GAS  /tmp/ccNhnR6l.s 			page 13


 175      1899816C 
 175      00
 176 0026 431604DC 		.ascii	"C\026\004\334"
 177              		.text
 178              		.section	.gnu.lto_.refs.4e20a11463e92c06,"",%progbits
 179 0000 789C25C5 		.ascii	"x\234%\305\201\015\000 \020\203@Zt\021\367\037\322\350"
 179      810D0020 
 179      1083405A 
 179      7411F71F 
 179      D2E8
 180 0012 13922B41 		.ascii	"\023\222+A\3400-6fWM\376v\254O\270\014\002\000k"
 180      E0302D36 
 180      66574DFE 
 180      76AC4FB8 
 180      0C02006B 
 181              		.text
 182              		.section	.gnu.lto_.statics.4e20a11463e92c06,"",%progbits
 183 0000 789C6362 		.ascii	"x\234cb`d`b\300\016@\342\214\020&\000\000\375\000\011"
 183      60646062 
 183      C00E40E2 
 183      8C102600 
 183      00FD0009 
 184              		.text
 185              		.section	.gnu.lto_.decls.4e20a11463e92c06,"",%progbits
 186 0000 789CAD54 		.ascii	"x\234\255TKh\023Q\024\275oL3M\023\253]X\352*E\324\205"
 186      4B681351 
 186      14BD6F4C 
 186      334D13AB 
 186      5D58EA2A 
 187 0017 908CDA80 		.ascii	"\220\214\332\200.\254(]X\027\272\360\263\021\302\220"
 187      2EAC285D 
 187      5817BAF0 
 187      B311C290 
 188 0027 4C471368 		.ascii	"LG\023h\023M\246 \342\342QA\305U\020\224*\"\361S\255"
 188      134DA620 
 188      E2E25141 
 188      C5551094 
 188      2A22F153 
 189 003c 8A545A8B 		.ascii	"\212TZ\213\025\265\326Z\213\026?(\335\351\"n\304\225"
 189      15B5D65A 
 189      8B163F28 
 189      DDE9226E 
 189      C495
 190 004e E84250A8 		.ascii	"\350BP\250\304\373f\336|\355\304\017^r\333\2277\367"
 190      C4FB66DE 
 190      7CEDC40F 
 190      5E72DB97 
 190      37F7
 191 0060 9E73EECD 		.ascii	"\236s\356\315I\004 \300\3420\376\253b\364\213\000\275"
 191      490420C0 
 191      E230FEAB 
 191      62F48B00 
 191      BD
 192 0071 78AEC3BB 		.ascii	"x\256\303\273v\260#\200Y\306\034\300\034\302\034\341"
 192      76B02380 
 192      59C61CC0 
 192      1CC21CE1 
ARM GAS  /tmp/ccNhnR6l.s 			page 14


 193 0081 7777301F 		.ascii	"ww0\037`N`N\202;X=\302\351X\215\230\021\314q\3141\314"
 193      604E604E 
 193      823B583D 
 193      C2E9588D 
 193      9811CC71 
 194 0098 29CC27BC 		.ascii	")\314'\274\216\360\332\000\307\232\344\270\023\036<"
 194      8EF0DA00 
 194      C79AE4B8 
 194      131E3C
 195 00a7 C61DC6DC 		.ascii	"\306\035\306\334\350\300\033\344\230u\274\177\032\363"
 195      E8C01BE4 
 195      9875BC7F 
 195      1AF3
 196 00b5 19E64B0F 		.ascii	"\031\346K\017>\353\025\034\370\316`\363\324\317\243"
 196      3EEB151C 
 196      F8CE60F3 
 196      D4CFA3
 197 00c4 33C0B906 		.ascii	"3\300\271\006=XC5\260\330^\202\274\307\213\345\304\030"
 197      3D584335 
 197      B0D85E82 
 197      BCC78BE5 
 197      C418
 198 00d6 E118931C 		.ascii	"\341\030\223\034\307\031Q8O\313\225\322\021\332\371"
 198      C7195138 
 198      4FCB95D2 
 198      11DAF9
 199 00e5 AD5A159B 		.ascii	"\255Z\025\233\341\024\305(\037\245\224hI\322\276\004"
 199      E114C528 
 199      1FA59468 
 199      49D2BE04 
 200 00f5 96429234 		.ascii	"\226B\2224\206\000Z\365S$d\240\003\236/\220f~\332\265"
 200      86005AF5 
 200      532464A0 
 200      039E2F90 
 200      667EDAB5 
 201 0109 C0C01240 		.ascii	"\300\300\022@ \260\012\256Q=\210-\000c!\014\177\037"
 201      20B00AAE 
 201      513D882D 
 201      0063210C 
 201      7F1F
 202 011b 4998AC2B 		.ascii	"I\230\254+a\200\225L\364\265\350$\014\244L\242.aIr\221"
 202      6180954C 
 202      F4B5E824 
 202      0CA44CA2 
 202      2E614972 
 203 0130 087FAC74 		.ascii	"\010\177\254tc\270\206\322+\\\351\002}\013\020\202\343"
 203      63B886D2 
 203      2B5CE902 
 203      7D0B1082 
 203      E3
 204 0141 94F6B1D6 		.ascii	"\224\366\261\326\316\247\270\266\371\373V\300eJKl\214"
 204      CEA7B8B6 
 204      F9FB56C0 
 204      654A4B6C 
 204      8C
 205 0152 24192421 		.ascii	"$\031$!\354L\020||\211\254\202Oo\277\316\011\246\310"
 205      EC4C107C 
ARM GAS  /tmp/ccNhnR6l.s 			page 15


 205      7C89AC82 
 205      4F6FBFCE 
 205      09A6C8
 206 0165 BA905B34 		.ascii	"\272\220[4\2767\252\014`\343\261yb\246_\204+\261W\206"
 206      BE37AA0C 
 206      60E3B179 
 206      62A65F84 
 206      2BB15786 
 207 0179 B8A78909 		.ascii	"\270\247\211\011<|\355\336\006\343v9\\\242\364$\233"
 207      3C7CEDDE 
 207      06E37639 
 207      5CA2F424 
 207      9B
 208 018a D564BFA8 		.ascii	"\325d\277\250W\015\340\222\006E\237I\215Rc\267}\245"
 208      570DE092 
 208      06459F49 
 208      8D5263B7 
 208      7DA5
 209 019c C77D9DFA 		.ascii	"\307}\235\372Z\200\267\035\364\333\217^q\343\327]W>"
 209      5A80B71D 
 209      F4DB8F5E 
 209      71E3D75D 
 209      573E
 210 01ae F35D1F5B 		.ascii	"\363]\037[l\254P\200\253\226\324\271\350\374B\223\344"
 210      6CAC5080 
 210      AB96D4B9 
 210      E8FC4293 
 210      E4
 211 01bf 262225C9 		.ascii	"&\"%\311\0202\216\375\275\320\241\337\012\275U\303\024"
 211      10328EFD 
 211      BDD0A1DF 
 211      0ABD55C3 
 211      14
 212 01d0 C728153C 		.ascii	"\307(\025<\276`D\376\306\270=\217\205o[3\276\273\236"
 212      BE6044FE 
 212      C6B83D8F 
 212      856F5B33 
 212      BEBB9E
 213 01e3 76F9954B 		.ascii	"v\371\225K\325\265c\311\0103lM\255\243n\255\313\340"
 213      D5B563C9 
 213      08336C4D 
 213      ADA36EAD 
 213      CBE0
 214 01f5 02AD944A 		.ascii	"\002\255\224J\264\334B+\325j\264\011\230\275hk\177#"
 214      B4DC422B 
 214      D56AB409 
 214      98BD686B 
 214      7F23
 215 0207 37646580 		.ascii	"7de\200\266\364;\014Yoa\022\217!\357\352\226xd)\375"
 215      B6F43B0C 
 215      596F6112 
 215      8F21EFEA 
 215      96786429 
 216 021c 706EF487 		.ascii	"pn\364\207\345H\342q$q;\222X\216d\247*q\226\216\221"
 216      E548E271 
 216      24713B92 
 216      588E64A7 
ARM GAS  /tmp/ccNhnR6l.s 			page 16


 216      2A71968E 
 217 0231 2667AF00 		.ascii	"&g\257\000\343\002{>|ftV\260\253\356\333c\261\221\350"
 217      E3027B3E 
 217      7C667456 
 217      B0ABEEDB 
 217      63B191E8 
 218 0245 1BB67E7D 		.ascii	"\033\266~}\2440\234\260\277Y\206L\377\345\217\223\260"
 218      A4309CB0 
 218      BF59864C 
 218      FFE58F93 
 218      B0
 219 0256 4DF45CB0 		.ascii	"M\364\\\260\234u\247\301\277\347\241\233\332\261MC\274"
 219      9C75A7C1 
 219      BFE7A19B 
 219      DAB14D43 
 219      BC
 220 0267 00B3BAE2 		.ascii	"\000\263\272\342\331\263\327\211-\370\221\257`C\205"
 220      D9B3D789 
 220      2DF891AF 
 220      604385
 221 0276 00EF2DFA 		.ascii	"\000\357-\372\251\376+\304\237\377\261\215\344\231\225"
 221      A9FE2BC4 
 221      9FFFB18D 
 221      E49995
 222 0285 B1FBF74D 		.ascii	"\261\373\367M\331\263z\372\030\277\177\337\023\273\357"
 222      D9B37AFA 
 222      18BF7FDF 
 222      13BBEF
 223 0294 AF7FB5A6 		.ascii	"\257\177\265\246u\223|\024l\223\274\236\226\314\225"
 223      75937C14 
 223      6C93BC9E 
 223      96CC95
 224 02a3 881E9388 		.ascii	"\210\036\223\210n\223\210\226ID\373g\213\033\266\274"
 224      6E938896 
 224      4944FB67 
 224      8B1BB6BC 
 225 02b3 C9E5D896 		.ascii	"\311\345\330\226\232\206\245\206\226\031]\313\027\375"
 225      9A86A586 
 225      96195DCB 
 225      17FD
 226 02c1 B321F06B 		.ascii	"\263!\360k\030\025&\347\214\355\321\031\323\244&\307"
 226      181526E7 
 226      8CEDD119 
 226      D3A426C7 
 227 02d1 628B43E0 		.ascii	"b\213C\340\235\317\270iuM\324Zl\244\226\367^8\330\""
 227      9DCFB869 
 227      754DD45A 
 227      6CA496F7 
 227      5E38D822 
 228 02e5 21E7C954 		.ascii	"!\347\311Tg\177;\015\021&\326z\253R\344X/\377\201\377"
 228      677F3B0D 
 228      1126D67A 
 228      AB52E458 
 228      2FFF81FF 
 229 02f9 952F7FD0 		.ascii	"\225/\177\320\\I\203\254\344\013\252\234\315e\265\340"
 229      5C4983AC 
 229      E40BAA9C 
ARM GAS  /tmp/ccNhnR6l.s 			page 17


 229      CD65B5E0 
 230 0309 96EDBB5B 		.ascii	"\226\355\273[; \032\217K\306+_\224\012\232T,(\222\222"
 230      3B201A8F 
 230      4BC62B5F 
 230      940A9A54 
 230      2C289292 
 231 031d E9517B58 		.ascii	"\351Q{Xa\\\201`1{H\225\265=R~\277&m\336\261M\332\247"
 231      615C8160 
 231      317B4895 
 231      B53D527E 
 231      BF266DDE 
 232 0335 28B154A1 		.ascii	"(\261T\241'\226\313\347\324\230\232Jgc\011y]l\355\352"
 232      2796CBE7 
 232      D4989A4A 
 232      67630979 
 232      5D6CEDEA 
 233 0349 356D07DA 		.ascii	"5m\007\332\244t6\307\240\272\263iV'\271\352\244D|]<"
 233      A47436C7 
 233      A0BAB369 
 233      5627B9EA 
 233      A4447C5D 
 234 035e 2165734A 		.ascii	"!esJwo\227*\025\265\256.uo<\003a%\323\201\\\233\273"
 234      776F972A 
 234      15B5AE2E 
 234      756F3C03 
 234      6125D381 
 235 0375 BBF34A80 		.ascii	"\273\363J\200\261E\034\027[\371\233\235ZJ\353-\212\275"
 235      B1451C17 
 235      5BF99B9D 
 235      5A4AEB2D 
 235      8ABD
 236 0387 D99CB65E 		.ascii	"\331\234\266^\326\264\377\246\306\232\036_\356\347\016"
 236      D6B4FFA6 
 236      C69A1E5F 
 236      EEE70E
 237 0396 9D488A3A 		.ascii	"\235H\212:\027\312rFM\355\227\323\251\242*\313bN=\250"
 237      17CA7246 
 237      4DED97D3 
 237      A9A22ACB 
 237      624E3DA8 
 238 03aa E19A22FC 		.ascii	"\341\232\"\374V\315u\311r\020\377\342]=\223\331\266"
 238      56CD75C9 
 238      7210FFE2 
 238      5D3D93D9 
 238      B6
 239 03bb 56D6024A 		.ascii	"V\326\002J&U\370\011]\303\360J"
 239      2655F809 
 239      5DC3F04A 
 240              		.text
 241              		.section	.gnu.lto_.symtab.4e20a11463e92c06,"",%progbits
 242 0000 5F636F72 		.ascii	"_core_init\000\000\000\000\000\000\000\000\000\000\000"
 242      655F696E 
 242      69740000 
 242      00000000 
 242      00000000 
 243 0015 00A00000 		.ascii	"\000\240\000\000\000chCoreAlloc\000\000\000\000\000"
 243      00636843 
ARM GAS  /tmp/ccNhnR6l.s 			page 18


 243      6F726541 
 243      6C6C6F63 
 243      00000000 
 244 002a 00000000 		.ascii	"\000\000\000\000\000\000\000\245\000\000\000chCoreA"
 244      000000A5 
 244      00000063 
 244      68436F72 
 244      6541
 245 003c 6C6C6F63 		.ascii	"llocI\000\000\000\000\000\000\000\000\000\000\000\000"
 245      49000000 
 245      00000000 
 245      00000000 
 245      00
 246 004d AF000000 		.ascii	"\257\000\000\000chCoreStatus\000\000\000\000\000\000"
 246      6368436F 
 246      72655374 
 246      61747573 
 246      00000000 
 247 0063 00000000 		.ascii	"\000\000\000\000\000\000\263\000\000\000__heap_base"
 247      0000B300 
 247      00005F5F 
 247      68656170 
 247      5F626173 
 248 0078 5F5F0000 		.ascii	"__\000\000\002\000\000\000\000\000\000\000\000\000\267"
 248      02000000 
 248      00000000 
 248      0000B7
 249 0087 0000005F 		.ascii	"\000\000\000__heap_end__\000\000\002\000\000\000\000"
 249      5F686561 
 249      705F656E 
 249      645F5F00 
 249      00020000 
 250 009d 00000000 		.ascii	"\000\000\000\000\000\300\000\000\000"
 250      00C00000 
 250      00
 251              		.text
 252              		.section	.gnu.lto_.opts,"",%progbits
 253 0000 272D6D63 		.ascii	"'-mcpu=cortex-m3''-mno-thumb-interwork''-mthumb''-g"
 253      70753D63 
 253      6F727465 
 253      782D6D33 
 253      27272D6D 
 254 0033 67646227 		.ascii	"gdb''-O2''-fomit-frame-pointer''-falign-functions=1"
 254      272D4F32 
 254      27272D66 
 254      6F6D6974 
 254      2D667261 
 255 0066 3627272D 		.ascii	"6''-ffunction-sections''-fdata-sections''-fno-commo"
 255      6666756E 
 255      6374696F 
 255      6E2D7365 
 255      6374696F 
 256 0099 6E27272D 		.ascii	"n''-flto'\000"
 256      666C746F 
 256      2700
 257              		.text
 258              		.cfi_sections	.debug_frame
ARM GAS  /tmp/ccNhnR6l.s 			page 19


 259              		.section	.text._core_init,"ax",%progbits
 260              		.align	2
 261              		.p2align 4,,15
 262              		.global	_core_init
 263              		.thumb
 264              		.thumb_func
 265              		.type	_core_init, %function
 266              	_core_init:
 267              	.LFB165:
 268              		.file 1 "../../../os/rt/src/chmemcore.c"
 269              		.loc 1 79 0
 270              		.cfi_startproc
 271              		@ args = 0, pretend = 0, frame = 0
 272              		@ frame_needed = 0, uses_anonymous_args = 0
 273              		@ link register save eliminated.
 274              		.loc 1 85 0
 275 0000 40F20001 		movw	r1, #:lower16:__heap_end__
 276              		.loc 1 84 0
 277 0004 0848     		ldr	r0, .L2
 278 0006 40F20002 		movw	r2, #:lower16:.LANCHOR0
 279              		.loc 1 85 0
 280 000a 40F20003 		movw	r3, #:lower16:.LANCHOR1
 281 000e C0F20001 		movt	r1, #:upper16:__heap_end__
 282              		.loc 1 84 0
 283 0012 C0F20002 		movt	r2, #:upper16:.LANCHOR0
 284 0016 20F00700 		bic	r0, r0, #7
 285              		.loc 1 85 0
 286 001a C0F20003 		movt	r3, #:upper16:.LANCHOR1
 287 001e 21F00701 		bic	r1, r1, #7
 288              		.loc 1 84 0
 289 0022 1060     		str	r0, [r2, #0]
 290              		.loc 1 85 0
 291 0024 1960     		str	r1, [r3, #0]
 292 0026 7047     		bx	lr
 293              	.L3:
 294              		.align	2
 295              	.L2:
 296 0028 07000000 		.word	__heap_base__+7
 297              		.cfi_endproc
 298              	.LFE165:
 299              		.size	_core_init, .-_core_init
 300 002c AFF30080 		.section	.text.chCoreAlloc,"ax",%progbits
 301              		.align	2
 302              		.p2align 4,,15
 303              		.global	chCoreAlloc
 304              		.thumb
 305              		.thumb_func
 306              		.type	chCoreAlloc, %function
 307              	chCoreAlloc:
 308              	.LFB166:
 309              		.loc 1 106 0
 310              		.cfi_startproc
 311              		@ args = 0, pretend = 0, frame = 0
 312              		@ frame_needed = 0, uses_anonymous_args = 0
 313              		@ link register save eliminated.
 314              	.LVL0:
 315              	.LBB26:
ARM GAS  /tmp/ccNhnR6l.s 			page 20


 316              	.LBB27:
 317              	.LBB28:
 318              	.LBB29:
 319              		.file 2 "../../../os/ext/CMSIS/include/core_cmFunc.h"
 320              		.loc 2 546 0
 321 0000 2023     		movs	r3, #32
 322              	@ 546 "../../../os/ext/CMSIS/include/core_cmFunc.h" 1
 323 0002 83F31188 		MSR basepri, r3
 324              	@ 0 "" 2
 325              	.LVL1:
 326              		.thumb
 327              	.LBE29:
 328              	.LBE28:
 329              	.LBE27:
 330              	.LBE26:
 331              	.LBB30:
 332              	.LBB31:
 333              		.loc 1 133 0
 334 0006 094A     		ldr	r2, .L7
 335 0008 0949     		ldr	r1, .L7+4
 336 000a 1368     		ldr	r3, [r2, #0]
 337 000c 0968     		ldr	r1, [r1, #0]
 338              		.loc 1 132 0
 339 000e 0730     		adds	r0, r0, #7
 340              	.LVL2:
 341 0010 20F00700 		bic	r0, r0, #7
 342              	.LVL3:
 343              		.loc 1 133 0
 344 0014 C91A     		subs	r1, r1, r3
 345 0016 8842     		cmp	r0, r1
 346              	.LVL4:
 347              		.loc 1 136 0
 348 0018 9ABF     		itte	ls
 349 001a 1818     		addls	r0, r3, r0
 350              	.LVL5:
 351 001c 1060     		strls	r0, [r2, #0]
 352              		.loc 1 134 0
 353 001e 0023     		movhi	r3, #0
 354              	.LVL6:
 355              	.LBE31:
 356              	.LBE30:
 357              	.LBB32:
 358              	.LBB33:
 359              	.LBB34:
 360              	.LBB35:
 361              	.LBB36:
 362              		.loc 2 546 0
 363 0020 0022     		movs	r2, #0
 364              	@ 546 "../../../os/ext/CMSIS/include/core_cmFunc.h" 1
 365 0022 82F31188 		MSR basepri, r2
 366              	@ 0 "" 2
 367              		.thumb
 368              	.LBE36:
 369              	.LBE35:
 370              	.LBE34:
 371              	.LBE33:
 372              	.LBE32:
ARM GAS  /tmp/ccNhnR6l.s 			page 21


 373              		.loc 1 113 0
 374 0026 1846     		mov	r0, r3
 375 0028 7047     		bx	lr
 376              	.L8:
 377 002a 00BF     		.align	2
 378              	.L7:
 379 002c 00000000 		.word	.LANCHOR0
 380 0030 00000000 		.word	.LANCHOR1
 381              		.cfi_endproc
 382              	.LFE166:
 383              		.size	chCoreAlloc, .-chCoreAlloc
 384 0034 AFF30080 		.section	.text.chCoreAllocI,"ax",%progbits
 384      AFF30080 
 384      AFF30080 
 385              		.align	2
 386              		.p2align 4,,15
 387              		.global	chCoreAllocI
 388              		.thumb
 389              		.thumb_func
 390              		.type	chCoreAllocI, %function
 391              	chCoreAllocI:
 392              	.LFB167:
 393              		.loc 1 127 0
 394              		.cfi_startproc
 395              		@ args = 0, pretend = 0, frame = 0
 396              		@ frame_needed = 0, uses_anonymous_args = 0
 397              		@ link register save eliminated.
 398              	.LVL7:
 399              		.loc 1 133 0
 400 0000 074A     		ldr	r2, .L12
 401 0002 0849     		ldr	r1, .L12+4
 402 0004 1368     		ldr	r3, [r2, #0]
 403 0006 0968     		ldr	r1, [r1, #0]
 404              		.loc 1 132 0
 405 0008 0730     		adds	r0, r0, #7
 406              	.LVL8:
 407 000a 20F00700 		bic	r0, r0, #7
 408              	.LVL9:
 409              		.loc 1 133 0
 410 000e C91A     		subs	r1, r1, r3
 411 0010 8842     		cmp	r0, r1
 412              	.LVL10:
 413              		.loc 1 136 0
 414 0012 9ABF     		itte	ls
 415 0014 1818     		addls	r0, r3, r0
 416              	.LVL11:
 417 0016 1060     		strls	r0, [r2, #0]
 418              		.loc 1 134 0
 419 0018 0023     		movhi	r3, #0
 420              	.LVL12:
 421              		.loc 1 138 0
 422 001a 1846     		mov	r0, r3
 423 001c 7047     		bx	lr
 424              	.L13:
 425 001e 00BF     		.align	2
 426              	.L12:
 427 0020 00000000 		.word	.LANCHOR0
ARM GAS  /tmp/ccNhnR6l.s 			page 22


 428 0024 00000000 		.word	.LANCHOR1
 429              		.cfi_endproc
 430              	.LFE167:
 431              		.size	chCoreAllocI, .-chCoreAllocI
 432 0028 AFF30080 		.section	.text.chCoreStatus,"ax",%progbits
 432      AFF30080 
 433              		.align	2
 434              		.p2align 4,,15
 435              		.global	chCoreStatus
 436              		.thumb
 437              		.thumb_func
 438              		.type	chCoreStatus, %function
 439              	chCoreStatus:
 440              	.LFB168:
 441              		.loc 1 147 0
 442              		.cfi_startproc
 443              		@ args = 0, pretend = 0, frame = 0
 444              		@ frame_needed = 0, uses_anonymous_args = 0
 445              		@ link register save eliminated.
 446              		.loc 1 149 0
 447 0000 40F20002 		movw	r2, #:lower16:.LANCHOR1
 448 0004 40F20003 		movw	r3, #:lower16:.LANCHOR0
 449 0008 C0F20002 		movt	r2, #:upper16:.LANCHOR1
 450 000c C0F20003 		movt	r3, #:upper16:.LANCHOR0
 451 0010 1068     		ldr	r0, [r2, #0]
 452 0012 1968     		ldr	r1, [r3, #0]
 453              		.loc 1 150 0
 454 0014 401A     		subs	r0, r0, r1
 455 0016 7047     		bx	lr
 456              		.cfi_endproc
 457              	.LFE168:
 458              		.size	chCoreStatus, .-chCoreStatus
 459 0018 AFF30080 		.section	.bss.endmem,"aw",%nobits
 459      AFF30080 
 460              		.align	2
 461              		.set	.LANCHOR1,. + 0
 462              		.type	endmem, %object
 463              		.size	endmem, 4
 464              	endmem:
 465 0000 00000000 		.space	4
 466              		.section	.bss.nextmem,"aw",%nobits
 467              		.align	2
 468              		.set	.LANCHOR0,. + 0
 469              		.type	nextmem, %object
 470              		.size	nextmem, 4
 471              	nextmem:
 472 0000 00000000 		.space	4
 473              		.text
 474              	.Letext0:
 475              		.file 3 "../../../os/rt/include/chschd.h"
 476              		.file 4 "/opt/ARM/gcc-arm-none-eabi-4_7-2013q3/bin/../lib/gcc/arm-none-eabi/4.7.4/include/stddef.h
 477              		.file 5 "/opt/ARM/gcc-arm-none-eabi-4_7-2013q3/bin/../lib/gcc/arm-none-eabi/4.7.4/../../../../arm-
 478              		.file 6 "../../../os/rt/ports/ARMCMx/compilers/GCC/chtypes.h"
 479              		.file 7 "../../../os/rt/ports/ARMCMx/chcore.h"
 480              		.file 8 "../../../os/rt/ports/ARMCMx/chcore_v7m.h"
 481              		.file 9 "../../../os/rt/include/chmtx.h"
 482              		.file 10 "../../../os/rt/include/chsys.h"
ARM GAS  /tmp/ccNhnR6l.s 			page 23


 483              		.file 11 "../../../os/ext/CMSIS/include/core_cm3.h"
 484              		.section	.debug_info,"",%progbits
 485              	.Ldebug_info0:
 486 0000 9C070000 		.4byte	0x79c
 487 0004 0200     		.2byte	0x2
 488 0006 00000000 		.4byte	.Ldebug_abbrev0
 489 000a 04       		.byte	0x4
 490 000b 01       		.uleb128 0x1
 491 000c F3010000 		.4byte	.LASF91
 492 0010 01       		.byte	0x1
 493 0011 2F010000 		.4byte	.LASF92
 494 0015 01040000 		.4byte	.LASF93
 495 0019 00000000 		.4byte	.Ldebug_ranges0+0
 496 001d 00000000 		.4byte	0
 497 0021 00000000 		.4byte	0
 498 0025 00000000 		.4byte	.Ldebug_line0
 499 0029 02       		.uleb128 0x2
 500 002a 70020000 		.4byte	.LASF41
 501 002e 44       		.byte	0x44
 502 002f 03       		.byte	0x3
 503 0030 79       		.byte	0x79
 504 0031 32010000 		.4byte	0x132
 505 0035 03       		.uleb128 0x3
 506 0036 84000000 		.4byte	.LASF0
 507 003a 03       		.byte	0x3
 508 003b 7A       		.byte	0x7a
 509 003c F3020000 		.4byte	0x2f3
 510 0040 02       		.byte	0x2
 511 0041 23       		.byte	0x23
 512 0042 00       		.uleb128 0
 513 0043 03       		.uleb128 0x3
 514 0044 45000000 		.4byte	.LASF1
 515 0048 03       		.byte	0x3
 516 0049 7C       		.byte	0x7c
 517 004a F3020000 		.4byte	0x2f3
 518 004e 02       		.byte	0x2
 519 004f 23       		.byte	0x23
 520 0050 04       		.uleb128 0x4
 521 0051 03       		.uleb128 0x3
 522 0052 7D000000 		.4byte	.LASF2
 523 0056 03       		.byte	0x3
 524 0057 7E       		.byte	0x7e
 525 0058 E0010000 		.4byte	0x1e0
 526 005c 02       		.byte	0x2
 527 005d 23       		.byte	0x23
 528 005e 08       		.uleb128 0x8
 529 005f 03       		.uleb128 0x3
 530 0060 A6030000 		.4byte	.LASF3
 531 0064 03       		.byte	0x3
 532 0065 7F       		.byte	0x7f
 533 0066 20020000 		.4byte	0x220
 534 006a 02       		.byte	0x2
 535 006b 23       		.byte	0x23
 536 006c 0C       		.uleb128 0xc
 537 006d 03       		.uleb128 0x3
 538 006e BE010000 		.4byte	.LASF4
 539 0072 03       		.byte	0x3
ARM GAS  /tmp/ccNhnR6l.s 			page 24


 540 0073 81       		.byte	0x81
 541 0074 F3020000 		.4byte	0x2f3
 542 0078 02       		.byte	0x2
 543 0079 23       		.byte	0x23
 544 007a 10       		.uleb128 0x10
 545 007b 03       		.uleb128 0x3
 546 007c 57010000 		.4byte	.LASF5
 547 0080 03       		.byte	0x3
 548 0081 82       		.byte	0x82
 549 0082 F3020000 		.4byte	0x2f3
 550 0086 02       		.byte	0x2
 551 0087 23       		.byte	0x23
 552 0088 14       		.uleb128 0x14
 553 0089 03       		.uleb128 0x3
 554 008a 20010000 		.4byte	.LASF6
 555 008e 03       		.byte	0x3
 556 008f 89       		.byte	0x89
 557 0090 C3030000 		.4byte	0x3c3
 558 0094 02       		.byte	0x2
 559 0095 23       		.byte	0x23
 560 0096 18       		.uleb128 0x18
 561 0097 03       		.uleb128 0x3
 562 0098 D0020000 		.4byte	.LASF7
 563 009c 03       		.byte	0x3
 564 009d 94       		.byte	0x94
 565 009e CA010000 		.4byte	0x1ca
 566 00a2 02       		.byte	0x2
 567 00a3 23       		.byte	0x23
 568 00a4 1C       		.uleb128 0x1c
 569 00a5 03       		.uleb128 0x3
 570 00a6 7F020000 		.4byte	.LASF8
 571 00aa 03       		.byte	0x3
 572 00ab 98       		.byte	0x98
 573 00ac BF010000 		.4byte	0x1bf
 574 00b0 02       		.byte	0x2
 575 00b1 23       		.byte	0x23
 576 00b2 1D       		.uleb128 0x1d
 577 00b3 03       		.uleb128 0x3
 578 00b4 9F030000 		.4byte	.LASF9
 579 00b8 03       		.byte	0x3
 580 00b9 9D       		.byte	0x9d
 581 00ba D5010000 		.4byte	0x1d5
 582 00be 02       		.byte	0x2
 583 00bf 23       		.byte	0x23
 584 00c0 1E       		.uleb128 0x1e
 585 00c1 04       		.uleb128 0x4
 586 00c2 705F7500 		.ascii	"p_u\000"
 587 00c6 03       		.byte	0x3
 588 00c7 CF       		.byte	0xcf
 589 00c8 8E030000 		.4byte	0x38e
 590 00cc 02       		.byte	0x2
 591 00cd 23       		.byte	0x23
 592 00ce 20       		.uleb128 0x20
 593 00cf 03       		.uleb128 0x3
 594 00d0 F7020000 		.4byte	.LASF10
 595 00d4 03       		.byte	0x3
 596 00d5 D4       		.byte	0xd4
ARM GAS  /tmp/ccNhnR6l.s 			page 25


 597 00d6 1B030000 		.4byte	0x31b
 598 00da 02       		.byte	0x2
 599 00db 23       		.byte	0x23
 600 00dc 24       		.uleb128 0x24
 601 00dd 03       		.uleb128 0x3
 602 00de 72000000 		.4byte	.LASF11
 603 00e2 03       		.byte	0x3
 604 00e3 DA       		.byte	0xda
 605 00e4 F9020000 		.4byte	0x2f9
 606 00e8 02       		.byte	0x2
 607 00e9 23       		.byte	0x23
 608 00ea 28       		.uleb128 0x28
 609 00eb 03       		.uleb128 0x3
 610 00ec 89010000 		.4byte	.LASF12
 611 00f0 03       		.byte	0x3
 612 00f1 DE       		.byte	0xde
 613 00f2 EB010000 		.4byte	0x1eb
 614 00f6 02       		.byte	0x2
 615 00f7 23       		.byte	0x23
 616 00f8 30       		.uleb128 0x30
 617 00f9 03       		.uleb128 0x3
 618 00fa C7000000 		.4byte	.LASF13
 619 00fe 03       		.byte	0x3
 620 00ff E4       		.byte	0xe4
 621 0100 F6010000 		.4byte	0x1f6
 622 0104 02       		.byte	0x2
 623 0105 23       		.byte	0x23
 624 0106 34       		.uleb128 0x34
 625 0107 03       		.uleb128 0x3
 626 0108 01030000 		.4byte	.LASF14
 627 010c 03       		.byte	0x3
 628 010d EB       		.byte	0xeb
 629 010e 0C040000 		.4byte	0x40c
 630 0112 02       		.byte	0x2
 631 0113 23       		.byte	0x23
 632 0114 38       		.uleb128 0x38
 633 0115 03       		.uleb128 0x3
 634 0116 90020000 		.4byte	.LASF15
 635 011a 03       		.byte	0x3
 636 011b EF       		.byte	0xef
 637 011c E0010000 		.4byte	0x1e0
 638 0120 02       		.byte	0x2
 639 0121 23       		.byte	0x23
 640 0122 3C       		.uleb128 0x3c
 641 0123 03       		.uleb128 0x3
 642 0124 D4030000 		.4byte	.LASF16
 643 0128 03       		.byte	0x3
 644 0129 F5       		.byte	0xf5
 645 012a 1E020000 		.4byte	0x21e
 646 012e 02       		.byte	0x2
 647 012f 23       		.byte	0x23
 648 0130 40       		.uleb128 0x40
 649 0131 00       		.byte	0
 650 0132 05       		.uleb128 0x5
 651 0133 04       		.byte	0x4
 652 0134 05       		.byte	0x5
 653 0135 696E7400 		.ascii	"int\000"
ARM GAS  /tmp/ccNhnR6l.s 			page 26


 654 0139 06       		.uleb128 0x6
 655 013a 1F000000 		.4byte	.LASF19
 656 013e 04       		.byte	0x4
 657 013f D5       		.byte	0xd5
 658 0140 44010000 		.4byte	0x144
 659 0144 07       		.uleb128 0x7
 660 0145 04       		.byte	0x4
 661 0146 07       		.byte	0x7
 662 0147 E6010000 		.4byte	.LASF17
 663 014b 07       		.uleb128 0x7
 664 014c 01       		.byte	0x1
 665 014d 06       		.byte	0x6
 666 014e B2010000 		.4byte	.LASF18
 667 0152 06       		.uleb128 0x6
 668 0153 BF000000 		.4byte	.LASF20
 669 0157 05       		.byte	0x5
 670 0158 2A       		.byte	0x2a
 671 0159 5D010000 		.4byte	0x15d
 672 015d 07       		.uleb128 0x7
 673 015e 01       		.byte	0x1
 674 015f 08       		.byte	0x8
 675 0160 9D010000 		.4byte	.LASF21
 676 0164 07       		.uleb128 0x7
 677 0165 02       		.byte	0x2
 678 0166 05       		.byte	0x5
 679 0167 15000000 		.4byte	.LASF22
 680 016b 06       		.uleb128 0x6
 681 016c B0020000 		.4byte	.LASF23
 682 0170 05       		.byte	0x5
 683 0171 36       		.byte	0x36
 684 0172 76010000 		.4byte	0x176
 685 0176 07       		.uleb128 0x7
 686 0177 02       		.byte	0x2
 687 0178 07       		.byte	0x7
 688 0179 D8020000 		.4byte	.LASF24
 689 017d 06       		.uleb128 0x6
 690 017e C1020000 		.4byte	.LASF25
 691 0182 05       		.byte	0x5
 692 0183 4F       		.byte	0x4f
 693 0184 88010000 		.4byte	0x188
 694 0188 07       		.uleb128 0x7
 695 0189 04       		.byte	0x4
 696 018a 05       		.byte	0x5
 697 018b 4E010000 		.4byte	.LASF26
 698 018f 06       		.uleb128 0x6
 699 0190 DD010000 		.4byte	.LASF27
 700 0194 05       		.byte	0x5
 701 0195 50       		.byte	0x50
 702 0196 9A010000 		.4byte	0x19a
 703 019a 07       		.uleb128 0x7
 704 019b 04       		.byte	0x4
 705 019c 07       		.byte	0x7
 706 019d 0B030000 		.4byte	.LASF28
 707 01a1 07       		.uleb128 0x7
 708 01a2 08       		.byte	0x8
 709 01a3 05       		.byte	0x5
 710 01a4 12010000 		.4byte	.LASF29
ARM GAS  /tmp/ccNhnR6l.s 			page 27


 711 01a8 07       		.uleb128 0x7
 712 01a9 08       		.byte	0x8
 713 01aa 07       		.byte	0x7
 714 01ab C6010000 		.4byte	.LASF30
 715 01af 08       		.uleb128 0x8
 716 01b0 7D010000 		.4byte	0x17d
 717 01b4 06       		.uleb128 0x6
 718 01b5 99000000 		.4byte	.LASF31
 719 01b9 06       		.byte	0x6
 720 01ba 46       		.byte	0x46
 721 01bb 8F010000 		.4byte	0x18f
 722 01bf 06       		.uleb128 0x6
 723 01c0 0A010000 		.4byte	.LASF32
 724 01c4 06       		.byte	0x6
 725 01c5 49       		.byte	0x49
 726 01c6 52010000 		.4byte	0x152
 727 01ca 06       		.uleb128 0x6
 728 01cb 64030000 		.4byte	.LASF33
 729 01cf 06       		.byte	0x6
 730 01d0 4A       		.byte	0x4a
 731 01d1 52010000 		.4byte	0x152
 732 01d5 06       		.uleb128 0x6
 733 01d6 00000000 		.4byte	.LASF34
 734 01da 06       		.byte	0x6
 735 01db 4B       		.byte	0x4b
 736 01dc 52010000 		.4byte	0x152
 737 01e0 06       		.uleb128 0x6
 738 01e1 27010000 		.4byte	.LASF35
 739 01e5 06       		.byte	0x6
 740 01e6 4D       		.byte	0x4d
 741 01e7 8F010000 		.4byte	0x18f
 742 01eb 06       		.uleb128 0x6
 743 01ec F1030000 		.4byte	.LASF36
 744 01f0 06       		.byte	0x6
 745 01f1 4E       		.byte	0x4e
 746 01f2 7D010000 		.4byte	0x17d
 747 01f6 06       		.uleb128 0x6
 748 01f7 66000000 		.4byte	.LASF37
 749 01fb 06       		.byte	0x6
 750 01fc 50       		.byte	0x50
 751 01fd 8F010000 		.4byte	0x18f
 752 0201 07       		.uleb128 0x7
 753 0202 04       		.byte	0x4
 754 0203 07       		.byte	0x7
 755 0204 35000000 		.4byte	.LASF38
 756 0208 06       		.uleb128 0x6
 757 0209 9B020000 		.4byte	.LASF39
 758 020d 07       		.byte	0x7
 759 020e 89       		.byte	0x89
 760 020f 6B010000 		.4byte	0x16b
 761 0213 06       		.uleb128 0x6
 762 0214 B6000000 		.4byte	.LASF40
 763 0218 07       		.byte	0x7
 764 0219 8F       		.byte	0x8f
 765 021a 1E020000 		.4byte	0x21e
 766 021e 09       		.uleb128 0x9
 767 021f 04       		.byte	0x4
ARM GAS  /tmp/ccNhnR6l.s 			page 28


 768 0220 02       		.uleb128 0x2
 769 0221 77010000 		.4byte	.LASF42
 770 0225 04       		.byte	0x4
 771 0226 07       		.byte	0x7
 772 0227 B3       		.byte	0xb3
 773 0228 3B020000 		.4byte	0x23b
 774 022c 04       		.uleb128 0x4
 775 022d 72313300 		.ascii	"r13\000"
 776 0231 07       		.byte	0x7
 777 0232 B4       		.byte	0xb4
 778 0233 C8020000 		.4byte	0x2c8
 779 0237 02       		.byte	0x2
 780 0238 23       		.byte	0x23
 781 0239 00       		.uleb128 0
 782 023a 00       		.byte	0
 783 023b 02       		.uleb128 0x2
 784 023c 49030000 		.4byte	.LASF43
 785 0240 24       		.byte	0x24
 786 0241 08       		.byte	0x8
 787 0242 F5       		.byte	0xf5
 788 0243 C8020000 		.4byte	0x2c8
 789 0247 0A       		.uleb128 0xa
 790 0248 723400   		.ascii	"r4\000"
 791 024b 08       		.byte	0x8
 792 024c 0801     		.2byte	0x108
 793 024e 13020000 		.4byte	0x213
 794 0252 02       		.byte	0x2
 795 0253 23       		.byte	0x23
 796 0254 00       		.uleb128 0
 797 0255 0A       		.uleb128 0xa
 798 0256 723500   		.ascii	"r5\000"
 799 0259 08       		.byte	0x8
 800 025a 0901     		.2byte	0x109
 801 025c 13020000 		.4byte	0x213
 802 0260 02       		.byte	0x2
 803 0261 23       		.byte	0x23
 804 0262 04       		.uleb128 0x4
 805 0263 0A       		.uleb128 0xa
 806 0264 723600   		.ascii	"r6\000"
 807 0267 08       		.byte	0x8
 808 0268 0A01     		.2byte	0x10a
 809 026a 13020000 		.4byte	0x213
 810 026e 02       		.byte	0x2
 811 026f 23       		.byte	0x23
 812 0270 08       		.uleb128 0x8
 813 0271 0A       		.uleb128 0xa
 814 0272 723700   		.ascii	"r7\000"
 815 0275 08       		.byte	0x8
 816 0276 0B01     		.2byte	0x10b
 817 0278 13020000 		.4byte	0x213
 818 027c 02       		.byte	0x2
 819 027d 23       		.byte	0x23
 820 027e 0C       		.uleb128 0xc
 821 027f 0A       		.uleb128 0xa
 822 0280 723800   		.ascii	"r8\000"
 823 0283 08       		.byte	0x8
 824 0284 0C01     		.2byte	0x10c
ARM GAS  /tmp/ccNhnR6l.s 			page 29


 825 0286 13020000 		.4byte	0x213
 826 028a 02       		.byte	0x2
 827 028b 23       		.byte	0x23
 828 028c 10       		.uleb128 0x10
 829 028d 0A       		.uleb128 0xa
 830 028e 723900   		.ascii	"r9\000"
 831 0291 08       		.byte	0x8
 832 0292 0D01     		.2byte	0x10d
 833 0294 13020000 		.4byte	0x213
 834 0298 02       		.byte	0x2
 835 0299 23       		.byte	0x23
 836 029a 14       		.uleb128 0x14
 837 029b 0A       		.uleb128 0xa
 838 029c 72313000 		.ascii	"r10\000"
 839 02a0 08       		.byte	0x8
 840 02a1 0E01     		.2byte	0x10e
 841 02a3 13020000 		.4byte	0x213
 842 02a7 02       		.byte	0x2
 843 02a8 23       		.byte	0x23
 844 02a9 18       		.uleb128 0x18
 845 02aa 0A       		.uleb128 0xa
 846 02ab 72313100 		.ascii	"r11\000"
 847 02af 08       		.byte	0x8
 848 02b0 0F01     		.2byte	0x10f
 849 02b2 13020000 		.4byte	0x213
 850 02b6 02       		.byte	0x2
 851 02b7 23       		.byte	0x23
 852 02b8 1C       		.uleb128 0x1c
 853 02b9 0A       		.uleb128 0xa
 854 02ba 6C7200   		.ascii	"lr\000"
 855 02bd 08       		.byte	0x8
 856 02be 1001     		.2byte	0x110
 857 02c0 13020000 		.4byte	0x213
 858 02c4 02       		.byte	0x2
 859 02c5 23       		.byte	0x23
 860 02c6 20       		.uleb128 0x20
 861 02c7 00       		.byte	0
 862 02c8 0B       		.uleb128 0xb
 863 02c9 04       		.byte	0x4
 864 02ca 3B020000 		.4byte	0x23b
 865 02ce 0C       		.uleb128 0xc
 866 02cf 08       		.byte	0x8
 867 02d0 03       		.byte	0x3
 868 02d1 53       		.byte	0x53
 869 02d2 F3020000 		.4byte	0x2f3
 870 02d6 03       		.uleb128 0x3
 871 02d7 84000000 		.4byte	.LASF0
 872 02db 03       		.byte	0x3
 873 02dc 54       		.byte	0x54
 874 02dd F3020000 		.4byte	0x2f3
 875 02e1 02       		.byte	0x2
 876 02e2 23       		.byte	0x23
 877 02e3 00       		.uleb128 0
 878 02e4 03       		.uleb128 0x3
 879 02e5 45000000 		.4byte	.LASF1
 880 02e9 03       		.byte	0x3
 881 02ea 55       		.byte	0x55
ARM GAS  /tmp/ccNhnR6l.s 			page 30


 882 02eb F3020000 		.4byte	0x2f3
 883 02ef 02       		.byte	0x2
 884 02f0 23       		.byte	0x23
 885 02f1 04       		.uleb128 0x4
 886 02f2 00       		.byte	0
 887 02f3 0B       		.uleb128 0xb
 888 02f4 04       		.byte	0x4
 889 02f5 29000000 		.4byte	0x29
 890 02f9 06       		.uleb128 0x6
 891 02fa 5A020000 		.4byte	.LASF44
 892 02fe 03       		.byte	0x3
 893 02ff 56       		.byte	0x56
 894 0300 CE020000 		.4byte	0x2ce
 895 0304 0C       		.uleb128 0xc
 896 0305 04       		.byte	0x4
 897 0306 03       		.byte	0x3
 898 0307 5B       		.byte	0x5b
 899 0308 1B030000 		.4byte	0x31b
 900 030c 03       		.uleb128 0x3
 901 030d 84000000 		.4byte	.LASF0
 902 0311 03       		.byte	0x3
 903 0312 5C       		.byte	0x5c
 904 0313 F3020000 		.4byte	0x2f3
 905 0317 02       		.byte	0x2
 906 0318 23       		.byte	0x23
 907 0319 00       		.uleb128 0
 908 031a 00       		.byte	0
 909 031b 06       		.uleb128 0x6
 910 031c 62040000 		.4byte	.LASF45
 911 0320 03       		.byte	0x3
 912 0321 5D       		.byte	0x5d
 913 0322 04030000 		.4byte	0x304
 914 0326 0C       		.uleb128 0xc
 915 0327 1C       		.byte	0x1c
 916 0328 03       		.byte	0x3
 917 0329 64       		.byte	0x64
 918 032a 83030000 		.4byte	0x383
 919 032e 03       		.uleb128 0x3
 920 032f 26000000 		.4byte	.LASF46
 921 0333 03       		.byte	0x3
 922 0334 65       		.byte	0x65
 923 0335 F9020000 		.4byte	0x2f9
 924 0339 02       		.byte	0x2
 925 033a 23       		.byte	0x23
 926 033b 00       		.uleb128 0
 927 033c 03       		.uleb128 0x3
 928 033d C9020000 		.4byte	.LASF47
 929 0341 03       		.byte	0x3
 930 0342 66       		.byte	0x66
 931 0343 E0010000 		.4byte	0x1e0
 932 0347 02       		.byte	0x2
 933 0348 23       		.byte	0x23
 934 0349 08       		.uleb128 0x8
 935 034a 03       		.uleb128 0x3
 936 034b 4C000000 		.4byte	.LASF48
 937 034f 03       		.byte	0x3
 938 0350 68       		.byte	0x68
ARM GAS  /tmp/ccNhnR6l.s 			page 31


 939 0351 20020000 		.4byte	0x220
 940 0355 02       		.byte	0x2
 941 0356 23       		.byte	0x23
 942 0357 0C       		.uleb128 0xc
 943 0358 03       		.uleb128 0x3
 944 0359 77020000 		.4byte	.LASF49
 945 035d 03       		.byte	0x3
 946 035e 6B       		.byte	0x6b
 947 035f F3020000 		.4byte	0x2f3
 948 0363 02       		.byte	0x2
 949 0364 23       		.byte	0x23
 950 0365 10       		.uleb128 0x10
 951 0366 03       		.uleb128 0x3
 952 0367 5A040000 		.4byte	.LASF50
 953 036b 03       		.byte	0x3
 954 036c 6C       		.byte	0x6c
 955 036d F3020000 		.4byte	0x2f3
 956 0371 02       		.byte	0x2
 957 0372 23       		.byte	0x23
 958 0373 14       		.uleb128 0x14
 959 0374 03       		.uleb128 0x3
 960 0375 7F010000 		.4byte	.LASF51
 961 0379 03       		.byte	0x3
 962 037a 6F       		.byte	0x6f
 963 037b F3020000 		.4byte	0x2f3
 964 037f 02       		.byte	0x2
 965 0380 23       		.byte	0x23
 966 0381 18       		.uleb128 0x18
 967 0382 00       		.byte	0
 968 0383 06       		.uleb128 0x6
 969 0384 8B030000 		.4byte	.LASF52
 970 0388 03       		.byte	0x3
 971 0389 71       		.byte	0x71
 972 038a 26030000 		.4byte	0x326
 973 038e 0D       		.uleb128 0xd
 974 038f 04       		.byte	0x4
 975 0390 03       		.byte	0x3
 976 0391 B1       		.byte	0xb1
 977 0392 C3030000 		.4byte	0x3c3
 978 0396 0E       		.uleb128 0xe
 979 0397 3E000000 		.4byte	.LASF53
 980 039b 03       		.byte	0x3
 981 039c B8       		.byte	0xb8
 982 039d EB010000 		.4byte	0x1eb
 983 03a1 0E       		.uleb128 0xe
 984 03a2 6D030000 		.4byte	.LASF54
 985 03a6 03       		.byte	0x3
 986 03a7 BF       		.byte	0xbf
 987 03a8 EB010000 		.4byte	0x1eb
 988 03ac 0E       		.uleb128 0xe
 989 03ad 5D030000 		.4byte	.LASF55
 990 03b1 03       		.byte	0x3
 991 03b2 C6       		.byte	0xc6
 992 03b3 1E020000 		.4byte	0x21e
 993 03b7 0E       		.uleb128 0xe
 994 03b8 AB010000 		.4byte	.LASF56
 995 03bc 03       		.byte	0x3
ARM GAS  /tmp/ccNhnR6l.s 			page 32


 996 03bd CD       		.byte	0xcd
 997 03be F6010000 		.4byte	0x1f6
 998 03c2 00       		.byte	0
 999 03c3 0B       		.uleb128 0xb
 1000 03c4 04       		.byte	0x4
 1001 03c5 C9030000 		.4byte	0x3c9
 1002 03c9 0F       		.uleb128 0xf
 1003 03ca CE030000 		.4byte	0x3ce
 1004 03ce 07       		.uleb128 0x7
 1005 03cf 01       		.byte	0x1
 1006 03d0 08       		.byte	0x8
 1007 03d1 AB020000 		.4byte	.LASF57
 1008 03d5 02       		.uleb128 0x2
 1009 03d6 6A020000 		.4byte	.LASF58
 1010 03da 10       		.byte	0x10
 1011 03db 09       		.byte	0x9
 1012 03dc 3A       		.byte	0x3a
 1013 03dd 0C040000 		.4byte	0x40c
 1014 03e1 03       		.uleb128 0x3
 1015 03e2 6F010000 		.4byte	.LASF59
 1016 03e6 09       		.byte	0x9
 1017 03e7 3B       		.byte	0x3b
 1018 03e8 F9020000 		.4byte	0x2f9
 1019 03ec 02       		.byte	0x2
 1020 03ed 23       		.byte	0x23
 1021 03ee 00       		.uleb128 0
 1022 03ef 03       		.uleb128 0x3
 1023 03f0 CC030000 		.4byte	.LASF60
 1024 03f4 09       		.byte	0x9
 1025 03f5 3D       		.byte	0x3d
 1026 03f6 F3020000 		.4byte	0x2f3
 1027 03fa 02       		.byte	0x2
 1028 03fb 23       		.byte	0x23
 1029 03fc 08       		.uleb128 0x8
 1030 03fd 03       		.uleb128 0x3
 1031 03fe 2E000000 		.4byte	.LASF61
 1032 0402 09       		.byte	0x9
 1033 0403 3F       		.byte	0x3f
 1034 0404 3F050000 		.4byte	0x53f
 1035 0408 02       		.byte	0x2
 1036 0409 23       		.byte	0x23
 1037 040a 0C       		.uleb128 0xc
 1038 040b 00       		.byte	0
 1039 040c 0B       		.uleb128 0xb
 1040 040d 04       		.byte	0x4
 1041 040e D5030000 		.4byte	0x3d5
 1042 0412 10       		.uleb128 0x10
 1043 0413 76030000 		.4byte	.LASF62
 1044 0417 03       		.byte	0x3
 1045 0418 0301     		.2byte	0x103
 1046 041a 1E040000 		.4byte	0x41e
 1047 041e 0B       		.uleb128 0xb
 1048 041f 04       		.byte	0x4
 1049 0420 24040000 		.4byte	0x424
 1050 0424 11       		.uleb128 0x11
 1051 0425 01       		.byte	0x1
 1052 0426 30040000 		.4byte	0x430
ARM GAS  /tmp/ccNhnR6l.s 			page 33


 1053 042a 12       		.uleb128 0x12
 1054 042b 1E020000 		.4byte	0x21e
 1055 042f 00       		.byte	0
 1056 0430 10       		.uleb128 0x10
 1057 0431 5F010000 		.4byte	.LASF63
 1058 0435 03       		.byte	0x3
 1059 0436 0801     		.2byte	0x108
 1060 0438 3C040000 		.4byte	0x43c
 1061 043c 13       		.uleb128 0x13
 1062 043d DC030000 		.4byte	.LASF64
 1063 0441 14       		.byte	0x14
 1064 0442 03       		.byte	0x3
 1065 0443 0F01     		.2byte	0x10f
 1066 0445 95040000 		.4byte	0x495
 1067 0449 14       		.uleb128 0x14
 1068 044a 3C020000 		.4byte	.LASF65
 1069 044e 03       		.byte	0x3
 1070 044f 1001     		.2byte	0x110
 1071 0451 95040000 		.4byte	0x495
 1072 0455 02       		.byte	0x2
 1073 0456 23       		.byte	0x23
 1074 0457 00       		.uleb128 0
 1075 0458 14       		.uleb128 0x14
 1076 0459 55030000 		.4byte	.LASF66
 1077 045d 03       		.byte	0x3
 1078 045e 1101     		.2byte	0x111
 1079 0460 95040000 		.4byte	0x495
 1080 0464 02       		.byte	0x2
 1081 0465 23       		.byte	0x23
 1082 0466 04       		.uleb128 0x4
 1083 0467 14       		.uleb128 0x14
 1084 0468 87020000 		.4byte	.LASF67
 1085 046c 03       		.byte	0x3
 1086 046d 1201     		.2byte	0x112
 1087 046f 08020000 		.4byte	0x208
 1088 0473 02       		.byte	0x2
 1089 0474 23       		.byte	0x23
 1090 0475 08       		.uleb128 0x8
 1091 0476 14       		.uleb128 0x14
 1092 0477 AE000000 		.4byte	.LASF68
 1093 047b 03       		.byte	0x3
 1094 047c 1301     		.2byte	0x113
 1095 047e 12040000 		.4byte	0x412
 1096 0482 02       		.byte	0x2
 1097 0483 23       		.byte	0x23
 1098 0484 0C       		.uleb128 0xc
 1099 0485 14       		.uleb128 0x14
 1100 0486 A1000000 		.4byte	.LASF69
 1101 048a 03       		.byte	0x3
 1102 048b 1501     		.2byte	0x115
 1103 048d 1E020000 		.4byte	0x21e
 1104 0491 02       		.byte	0x2
 1105 0492 23       		.byte	0x23
 1106 0493 10       		.uleb128 0x10
 1107 0494 00       		.byte	0
 1108 0495 0B       		.uleb128 0xb
 1109 0496 04       		.byte	0x4
ARM GAS  /tmp/ccNhnR6l.s 			page 34


 1110 0497 30040000 		.4byte	0x430
 1111 049b 15       		.uleb128 0x15
 1112 049c 0C       		.byte	0xc
 1113 049d 03       		.byte	0x3
 1114 049e 1F01     		.2byte	0x11f
 1115 04a0 E1040000 		.4byte	0x4e1
 1116 04a4 14       		.uleb128 0x14
 1117 04a5 3C020000 		.4byte	.LASF65
 1118 04a9 03       		.byte	0x3
 1119 04aa 2001     		.2byte	0x120
 1120 04ac 95040000 		.4byte	0x495
 1121 04b0 02       		.byte	0x2
 1122 04b1 23       		.byte	0x23
 1123 04b2 00       		.uleb128 0
 1124 04b3 14       		.uleb128 0x14
 1125 04b4 55030000 		.4byte	.LASF66
 1126 04b8 03       		.byte	0x3
 1127 04b9 2201     		.2byte	0x122
 1128 04bb 95040000 		.4byte	0x495
 1129 04bf 02       		.byte	0x2
 1130 04c0 23       		.byte	0x23
 1131 04c1 04       		.uleb128 0x4
 1132 04c2 14       		.uleb128 0x14
 1133 04c3 87020000 		.4byte	.LASF67
 1134 04c7 03       		.byte	0x3
 1135 04c8 2401     		.2byte	0x124
 1136 04ca 08020000 		.4byte	0x208
 1137 04ce 02       		.byte	0x2
 1138 04cf 23       		.byte	0x23
 1139 04d0 08       		.uleb128 0x8
 1140 04d1 14       		.uleb128 0x14
 1141 04d2 F1000000 		.4byte	.LASF70
 1142 04d6 03       		.byte	0x3
 1143 04d7 2C01     		.2byte	0x12c
 1144 04d9 08020000 		.4byte	0x208
 1145 04dd 02       		.byte	0x2
 1146 04de 23       		.byte	0x23
 1147 04df 0A       		.uleb128 0xa
 1148 04e0 00       		.byte	0
 1149 04e1 10       		.uleb128 0x10
 1150 04e2 44020000 		.4byte	.LASF71
 1151 04e6 03       		.byte	0x3
 1152 04e7 2F01     		.2byte	0x12f
 1153 04e9 9B040000 		.4byte	0x49b
 1154 04ed 13       		.uleb128 0x13
 1155 04ee F7030000 		.4byte	.LASF72
 1156 04f2 2C       		.byte	0x2c
 1157 04f3 03       		.byte	0x3
 1158 04f4 3601     		.2byte	0x136
 1159 04f6 28050000 		.4byte	0x528
 1160 04fa 14       		.uleb128 0x14
 1161 04fb A5020000 		.4byte	.LASF73
 1162 04ff 03       		.byte	0x3
 1163 0500 3A01     		.2byte	0x13a
 1164 0502 83030000 		.4byte	0x383
 1165 0506 02       		.byte	0x2
 1166 0507 23       		.byte	0x23
ARM GAS  /tmp/ccNhnR6l.s 			page 35


 1167 0508 00       		.uleb128 0
 1168 0509 14       		.uleb128 0x14
 1169 050a EA030000 		.4byte	.LASF74
 1170 050e 03       		.byte	0x3
 1171 050f 3E01     		.2byte	0x13e
 1172 0511 E1040000 		.4byte	0x4e1
 1173 0515 02       		.byte	0x2
 1174 0516 23       		.byte	0x23
 1175 0517 1C       		.uleb128 0x1c
 1176 0518 14       		.uleb128 0x14
 1177 0519 DE000000 		.4byte	.LASF75
 1178 051d 03       		.byte	0x3
 1179 051e 4301     		.2byte	0x143
 1180 0520 B4010000 		.4byte	0x1b4
 1181 0524 02       		.byte	0x2
 1182 0525 23       		.byte	0x23
 1183 0526 28       		.uleb128 0x28
 1184 0527 00       		.byte	0
 1185 0528 10       		.uleb128 0x10
 1186 0529 D2000000 		.4byte	.LASF76
 1187 052d 03       		.byte	0x3
 1188 052e 6501     		.2byte	0x165
 1189 0530 ED040000 		.4byte	0x4ed
 1190 0534 06       		.uleb128 0x6
 1191 0535 B9020000 		.4byte	.LASF77
 1192 0539 09       		.byte	0x9
 1193 053a 35       		.byte	0x35
 1194 053b D5030000 		.4byte	0x3d5
 1195 053f 0B       		.uleb128 0xb
 1196 0540 04       		.byte	0x4
 1197 0541 34050000 		.4byte	0x534
 1198 0545 0B       		.uleb128 0xb
 1199 0546 04       		.byte	0x4
 1200 0547 52010000 		.4byte	0x152
 1201 054b 16       		.uleb128 0x16
 1202 054c 2A030000 		.4byte	.LASF83
 1203 0550 02       		.byte	0x2
 1204 0551 2002     		.2byte	0x220
 1205 0553 01       		.byte	0x1
 1206 0554 03       		.byte	0x3
 1207 0555 66050000 		.4byte	0x566
 1208 0559 17       		.uleb128 0x17
 1209 055a A8000000 		.4byte	.LASF81
 1210 055e 02       		.byte	0x2
 1211 055f 2002     		.2byte	0x220
 1212 0561 8F010000 		.4byte	0x18f
 1213 0565 00       		.byte	0
 1214 0566 18       		.uleb128 0x18
 1215 0567 52000000 		.4byte	.LASF78
 1216 056b 08       		.byte	0x8
 1217 056c BC01     		.2byte	0x1bc
 1218 056e 01       		.byte	0x1
 1219 056f 03       		.byte	0x3
 1220 0570 18       		.uleb128 0x18
 1221 0571 EB020000 		.4byte	.LASF79
 1222 0575 08       		.byte	0x8
 1223 0576 CA01     		.2byte	0x1ca
ARM GAS  /tmp/ccNhnR6l.s 			page 36


 1224 0578 01       		.byte	0x1
 1225 0579 03       		.byte	0x3
 1226 057a 18       		.uleb128 0x18
 1227 057b 5C000000 		.4byte	.LASF80
 1228 057f 0A       		.byte	0xa
 1229 0580 2A01     		.2byte	0x12a
 1230 0582 01       		.byte	0x1
 1231 0583 03       		.byte	0x3
 1232 0584 19       		.uleb128 0x19
 1233 0585 01       		.byte	0x1
 1234 0586 BF030000 		.4byte	.LASF94
 1235 058a 01       		.byte	0x1
 1236 058b 7F       		.byte	0x7f
 1237 058c 01       		.byte	0x1
 1238 058d 1E020000 		.4byte	0x21e
 1239 0591 01       		.byte	0x1
 1240 0592 AB050000 		.4byte	0x5ab
 1241 0596 1A       		.uleb128 0x1a
 1242 0597 38030000 		.4byte	.LASF82
 1243 059b 01       		.byte	0x1
 1244 059c 7F       		.byte	0x7f
 1245 059d 39010000 		.4byte	0x139
 1246 05a1 1B       		.uleb128 0x1b
 1247 05a2 7000     		.ascii	"p\000"
 1248 05a4 01       		.byte	0x1
 1249 05a5 80       		.byte	0x80
 1250 05a6 1E020000 		.4byte	0x21e
 1251 05aa 00       		.byte	0
 1252 05ab 16       		.uleb128 0x16
 1253 05ac 3D030000 		.4byte	.LASF84
 1254 05b0 0A       		.byte	0xa
 1255 05b1 3601     		.2byte	0x136
 1256 05b3 01       		.byte	0x1
 1257 05b4 03       		.byte	0x3
 1258 05b5 C8050000 		.4byte	0x5c8
 1259 05b9 1C       		.uleb128 0x1c
 1260 05ba 8B000000 		.4byte	.LASF85
 1261 05be D8050000 		.4byte	0x5d8
 1262 05c2 01       		.byte	0x1
 1263 05c3 3D030000 		.4byte	.LASF84
 1264 05c7 00       		.byte	0
 1265 05c8 1D       		.uleb128 0x1d
 1266 05c9 CE030000 		.4byte	0x3ce
 1267 05cd D8050000 		.4byte	0x5d8
 1268 05d1 1E       		.uleb128 0x1e
 1269 05d2 01020000 		.4byte	0x201
 1270 05d6 0B       		.byte	0xb
 1271 05d7 00       		.byte	0
 1272 05d8 0F       		.uleb128 0xf
 1273 05d9 C8050000 		.4byte	0x5c8
 1274 05dd 1F       		.uleb128 0x1f
 1275 05de 01       		.byte	0x1
 1276 05df B4030000 		.4byte	.LASF95
 1277 05e3 01       		.byte	0x1
 1278 05e4 4F       		.byte	0x4f
 1279 05e5 01       		.byte	0x1
 1280 05e6 00000000 		.4byte	.LFB165
ARM GAS  /tmp/ccNhnR6l.s 			page 37


 1281 05ea 2C000000 		.4byte	.LFE165
 1282 05ee 02       		.byte	0x2
 1283 05ef 7D       		.byte	0x7d
 1284 05f0 00       		.sleb128 0
 1285 05f1 01       		.byte	0x1
 1286 05f2 11060000 		.4byte	0x611
 1287 05f6 20       		.uleb128 0x20
 1288 05f7 8F010000 		.4byte	.LASF86
 1289 05fb 01       		.byte	0x1
 1290 05fc 51       		.byte	0x51
 1291 05fd 11060000 		.4byte	0x611
 1292 0601 01       		.byte	0x1
 1293 0602 01       		.byte	0x1
 1294 0603 20       		.uleb128 0x20
 1295 0604 FD000000 		.4byte	.LASF87
 1296 0608 01       		.byte	0x1
 1297 0609 52       		.byte	0x52
 1298 060a 11060000 		.4byte	0x611
 1299 060e 01       		.byte	0x1
 1300 060f 01       		.byte	0x1
 1301 0610 00       		.byte	0
 1302 0611 1D       		.uleb128 0x1d
 1303 0612 52010000 		.4byte	0x152
 1304 0616 1C060000 		.4byte	0x61c
 1305 061a 21       		.uleb128 0x21
 1306 061b 00       		.byte	0
 1307 061c 22       		.uleb128 0x22
 1308 061d 01       		.byte	0x1
 1309 061e 7F030000 		.4byte	.LASF96
 1310 0622 01       		.byte	0x1
 1311 0623 6A       		.byte	0x6a
 1312 0624 01       		.byte	0x1
 1313 0625 1E020000 		.4byte	0x21e
 1314 0629 00000000 		.4byte	.LFB166
 1315 062d 34000000 		.4byte	.LFE166
 1316 0631 02       		.byte	0x2
 1317 0632 7D       		.byte	0x7d
 1318 0633 00       		.sleb128 0
 1319 0634 01       		.byte	0x1
 1320 0635 07070000 		.4byte	0x707
 1321 0639 23       		.uleb128 0x23
 1322 063a 38030000 		.4byte	.LASF82
 1323 063e 01       		.byte	0x1
 1324 063f 6A       		.byte	0x6a
 1325 0640 39010000 		.4byte	0x139
 1326 0644 00000000 		.4byte	.LLST0
 1327 0648 24       		.uleb128 0x24
 1328 0649 7000     		.ascii	"p\000"
 1329 064b 01       		.byte	0x1
 1330 064c 6B       		.byte	0x6b
 1331 064d 1E020000 		.4byte	0x21e
 1332 0651 01       		.byte	0x1
 1333 0652 53       		.byte	0x53
 1334 0653 25       		.uleb128 0x25
 1335 0654 7A050000 		.4byte	0x57a
 1336 0658 00000000 		.4byte	.LBB26
 1337 065c 06000000 		.4byte	.LBE26
ARM GAS  /tmp/ccNhnR6l.s 			page 38


 1338 0660 01       		.byte	0x1
 1339 0661 6D       		.byte	0x6d
 1340 0662 8F060000 		.4byte	0x68f
 1341 0666 26       		.uleb128 0x26
 1342 0667 66050000 		.4byte	0x566
 1343 066b 00000000 		.4byte	.LBB27
 1344 066f 06000000 		.4byte	.LBE27
 1345 0673 0A       		.byte	0xa
 1346 0674 2C01     		.2byte	0x12c
 1347 0676 26       		.uleb128 0x26
 1348 0677 4B050000 		.4byte	0x54b
 1349 067b 00000000 		.4byte	.LBB28
 1350 067f 06000000 		.4byte	.LBE28
 1351 0683 08       		.byte	0x8
 1352 0684 BF01     		.2byte	0x1bf
 1353 0686 27       		.uleb128 0x27
 1354 0687 59050000 		.4byte	0x559
 1355 068b 20       		.byte	0x20
 1356 068c 00       		.byte	0
 1357 068d 00       		.byte	0
 1358 068e 00       		.byte	0
 1359 068f 25       		.uleb128 0x25
 1360 0690 84050000 		.4byte	0x584
 1361 0694 06000000 		.4byte	.LBB30
 1362 0698 20000000 		.4byte	.LBE30
 1363 069c 01       		.byte	0x1
 1364 069d 6E       		.byte	0x6e
 1365 069e BF060000 		.4byte	0x6bf
 1366 06a2 28       		.uleb128 0x28
 1367 06a3 96050000 		.4byte	0x596
 1368 06a7 2E000000 		.4byte	.LLST1
 1369 06ab 29       		.uleb128 0x29
 1370 06ac 06000000 		.4byte	.LBB31
 1371 06b0 20000000 		.4byte	.LBE31
 1372 06b4 2A       		.uleb128 0x2a
 1373 06b5 A1050000 		.4byte	0x5a1
 1374 06b9 6C000000 		.4byte	.LLST2
 1375 06bd 00       		.byte	0
 1376 06be 00       		.byte	0
 1377 06bf 2B       		.uleb128 0x2b
 1378 06c0 AB050000 		.4byte	0x5ab
 1379 06c4 20000000 		.4byte	.LBB32
 1380 06c8 26000000 		.4byte	.LBE32
 1381 06cc 01       		.byte	0x1
 1382 06cd 6F       		.byte	0x6f
 1383 06ce 29       		.uleb128 0x29
 1384 06cf 20000000 		.4byte	.LBB33
 1385 06d3 26000000 		.4byte	.LBE33
 1386 06d7 2C       		.uleb128 0x2c
 1387 06d8 B9050000 		.4byte	0x5b9
 1388 06dc 26       		.uleb128 0x26
 1389 06dd 70050000 		.4byte	0x570
 1390 06e1 20000000 		.4byte	.LBB34
 1391 06e5 26000000 		.4byte	.LBE34
 1392 06e9 0A       		.byte	0xa
 1393 06ea 4201     		.2byte	0x142
 1394 06ec 26       		.uleb128 0x26
ARM GAS  /tmp/ccNhnR6l.s 			page 39


 1395 06ed 4B050000 		.4byte	0x54b
 1396 06f1 20000000 		.4byte	.LBB35
 1397 06f5 26000000 		.4byte	.LBE35
 1398 06f9 08       		.byte	0x8
 1399 06fa CD01     		.2byte	0x1cd
 1400 06fc 27       		.uleb128 0x27
 1401 06fd 59050000 		.4byte	0x559
 1402 0701 00       		.byte	0
 1403 0702 00       		.byte	0
 1404 0703 00       		.byte	0
 1405 0704 00       		.byte	0
 1406 0705 00       		.byte	0
 1407 0706 00       		.byte	0
 1408 0707 2D       		.uleb128 0x2d
 1409 0708 84050000 		.4byte	0x584
 1410 070c 00000000 		.4byte	.LFB167
 1411 0710 28000000 		.4byte	.LFE167
 1412 0714 02       		.byte	0x2
 1413 0715 7D       		.byte	0x7d
 1414 0716 00       		.sleb128 0
 1415 0717 01       		.byte	0x1
 1416 0718 2F070000 		.4byte	0x72f
 1417 071c 28       		.uleb128 0x28
 1418 071d 96050000 		.4byte	0x596
 1419 0721 8E000000 		.4byte	.LLST3
 1420 0725 2A       		.uleb128 0x2a
 1421 0726 A1050000 		.4byte	0x5a1
 1422 072a CC000000 		.4byte	.LLST4
 1423 072e 00       		.byte	0
 1424 072f 2E       		.uleb128 0x2e
 1425 0730 01       		.byte	0x1
 1426 0731 08000000 		.4byte	.LASF97
 1427 0735 01       		.byte	0x1
 1428 0736 93       		.byte	0x93
 1429 0737 01       		.byte	0x1
 1430 0738 39010000 		.4byte	0x139
 1431 073c 00000000 		.4byte	.LFB168
 1432 0740 18000000 		.4byte	.LFE168
 1433 0744 02       		.byte	0x2
 1434 0745 7D       		.byte	0x7d
 1435 0746 00       		.sleb128 0
 1436 0747 01       		.byte	0x1
 1437 0748 2F       		.uleb128 0x2f
 1438 0749 AC030000 		.4byte	.LASF88
 1439 074d 01       		.byte	0x1
 1440 074e 3F       		.byte	0x3f
 1441 074f 45050000 		.4byte	0x545
 1442 0753 05       		.byte	0x5
 1443 0754 03       		.byte	0x3
 1444 0755 00000000 		.4byte	nextmem
 1445 0759 2F       		.uleb128 0x2f
 1446 075a 98030000 		.4byte	.LASF89
 1447 075e 01       		.byte	0x1
 1448 075f 40       		.byte	0x40
 1449 0760 45050000 		.4byte	0x545
 1450 0764 05       		.byte	0x5
 1451 0765 03       		.byte	0x3
ARM GAS  /tmp/ccNhnR6l.s 			page 40


 1452 0766 00000000 		.4byte	endmem
 1453 076a 30       		.uleb128 0x30
 1454 076b 1D030000 		.4byte	.LASF90
 1455 076f 0B       		.byte	0xb
 1456 0770 1606     		.2byte	0x616
 1457 0772 AF010000 		.4byte	0x1af
 1458 0776 01       		.byte	0x1
 1459 0777 01       		.byte	0x1
 1460 0778 31       		.uleb128 0x31
 1461 0779 636800   		.ascii	"ch\000"
 1462 077c 03       		.byte	0x3
 1463 077d 8901     		.2byte	0x189
 1464 077f 28050000 		.4byte	0x528
 1465 0783 01       		.byte	0x1
 1466 0784 01       		.byte	0x1
 1467 0785 20       		.uleb128 0x20
 1468 0786 8F010000 		.4byte	.LASF86
 1469 078a 01       		.byte	0x1
 1470 078b 51       		.byte	0x51
 1471 078c 11060000 		.4byte	0x611
 1472 0790 01       		.byte	0x1
 1473 0791 01       		.byte	0x1
 1474 0792 20       		.uleb128 0x20
 1475 0793 FD000000 		.4byte	.LASF87
 1476 0797 01       		.byte	0x1
 1477 0798 52       		.byte	0x52
 1478 0799 11060000 		.4byte	0x611
 1479 079d 01       		.byte	0x1
 1480 079e 01       		.byte	0x1
 1481 079f 00       		.byte	0
 1482              		.section	.debug_abbrev,"",%progbits
 1483              	.Ldebug_abbrev0:
 1484 0000 01       		.uleb128 0x1
 1485 0001 11       		.uleb128 0x11
 1486 0002 01       		.byte	0x1
 1487 0003 25       		.uleb128 0x25
 1488 0004 0E       		.uleb128 0xe
 1489 0005 13       		.uleb128 0x13
 1490 0006 0B       		.uleb128 0xb
 1491 0007 03       		.uleb128 0x3
 1492 0008 0E       		.uleb128 0xe
 1493 0009 1B       		.uleb128 0x1b
 1494 000a 0E       		.uleb128 0xe
 1495 000b 55       		.uleb128 0x55
 1496 000c 06       		.uleb128 0x6
 1497 000d 11       		.uleb128 0x11
 1498 000e 01       		.uleb128 0x1
 1499 000f 52       		.uleb128 0x52
 1500 0010 01       		.uleb128 0x1
 1501 0011 10       		.uleb128 0x10
 1502 0012 06       		.uleb128 0x6
 1503 0013 00       		.byte	0
 1504 0014 00       		.byte	0
 1505 0015 02       		.uleb128 0x2
 1506 0016 13       		.uleb128 0x13
 1507 0017 01       		.byte	0x1
 1508 0018 03       		.uleb128 0x3
ARM GAS  /tmp/ccNhnR6l.s 			page 41


 1509 0019 0E       		.uleb128 0xe
 1510 001a 0B       		.uleb128 0xb
 1511 001b 0B       		.uleb128 0xb
 1512 001c 3A       		.uleb128 0x3a
 1513 001d 0B       		.uleb128 0xb
 1514 001e 3B       		.uleb128 0x3b
 1515 001f 0B       		.uleb128 0xb
 1516 0020 01       		.uleb128 0x1
 1517 0021 13       		.uleb128 0x13
 1518 0022 00       		.byte	0
 1519 0023 00       		.byte	0
 1520 0024 03       		.uleb128 0x3
 1521 0025 0D       		.uleb128 0xd
 1522 0026 00       		.byte	0
 1523 0027 03       		.uleb128 0x3
 1524 0028 0E       		.uleb128 0xe
 1525 0029 3A       		.uleb128 0x3a
 1526 002a 0B       		.uleb128 0xb
 1527 002b 3B       		.uleb128 0x3b
 1528 002c 0B       		.uleb128 0xb
 1529 002d 49       		.uleb128 0x49
 1530 002e 13       		.uleb128 0x13
 1531 002f 38       		.uleb128 0x38
 1532 0030 0A       		.uleb128 0xa
 1533 0031 00       		.byte	0
 1534 0032 00       		.byte	0
 1535 0033 04       		.uleb128 0x4
 1536 0034 0D       		.uleb128 0xd
 1537 0035 00       		.byte	0
 1538 0036 03       		.uleb128 0x3
 1539 0037 08       		.uleb128 0x8
 1540 0038 3A       		.uleb128 0x3a
 1541 0039 0B       		.uleb128 0xb
 1542 003a 3B       		.uleb128 0x3b
 1543 003b 0B       		.uleb128 0xb
 1544 003c 49       		.uleb128 0x49
 1545 003d 13       		.uleb128 0x13
 1546 003e 38       		.uleb128 0x38
 1547 003f 0A       		.uleb128 0xa
 1548 0040 00       		.byte	0
 1549 0041 00       		.byte	0
 1550 0042 05       		.uleb128 0x5
 1551 0043 24       		.uleb128 0x24
 1552 0044 00       		.byte	0
 1553 0045 0B       		.uleb128 0xb
 1554 0046 0B       		.uleb128 0xb
 1555 0047 3E       		.uleb128 0x3e
 1556 0048 0B       		.uleb128 0xb
 1557 0049 03       		.uleb128 0x3
 1558 004a 08       		.uleb128 0x8
 1559 004b 00       		.byte	0
 1560 004c 00       		.byte	0
 1561 004d 06       		.uleb128 0x6
 1562 004e 16       		.uleb128 0x16
 1563 004f 00       		.byte	0
 1564 0050 03       		.uleb128 0x3
 1565 0051 0E       		.uleb128 0xe
ARM GAS  /tmp/ccNhnR6l.s 			page 42


 1566 0052 3A       		.uleb128 0x3a
 1567 0053 0B       		.uleb128 0xb
 1568 0054 3B       		.uleb128 0x3b
 1569 0055 0B       		.uleb128 0xb
 1570 0056 49       		.uleb128 0x49
 1571 0057 13       		.uleb128 0x13
 1572 0058 00       		.byte	0
 1573 0059 00       		.byte	0
 1574 005a 07       		.uleb128 0x7
 1575 005b 24       		.uleb128 0x24
 1576 005c 00       		.byte	0
 1577 005d 0B       		.uleb128 0xb
 1578 005e 0B       		.uleb128 0xb
 1579 005f 3E       		.uleb128 0x3e
 1580 0060 0B       		.uleb128 0xb
 1581 0061 03       		.uleb128 0x3
 1582 0062 0E       		.uleb128 0xe
 1583 0063 00       		.byte	0
 1584 0064 00       		.byte	0
 1585 0065 08       		.uleb128 0x8
 1586 0066 35       		.uleb128 0x35
 1587 0067 00       		.byte	0
 1588 0068 49       		.uleb128 0x49
 1589 0069 13       		.uleb128 0x13
 1590 006a 00       		.byte	0
 1591 006b 00       		.byte	0
 1592 006c 09       		.uleb128 0x9
 1593 006d 0F       		.uleb128 0xf
 1594 006e 00       		.byte	0
 1595 006f 0B       		.uleb128 0xb
 1596 0070 0B       		.uleb128 0xb
 1597 0071 00       		.byte	0
 1598 0072 00       		.byte	0
 1599 0073 0A       		.uleb128 0xa
 1600 0074 0D       		.uleb128 0xd
 1601 0075 00       		.byte	0
 1602 0076 03       		.uleb128 0x3
 1603 0077 08       		.uleb128 0x8
 1604 0078 3A       		.uleb128 0x3a
 1605 0079 0B       		.uleb128 0xb
 1606 007a 3B       		.uleb128 0x3b
 1607 007b 05       		.uleb128 0x5
 1608 007c 49       		.uleb128 0x49
 1609 007d 13       		.uleb128 0x13
 1610 007e 38       		.uleb128 0x38
 1611 007f 0A       		.uleb128 0xa
 1612 0080 00       		.byte	0
 1613 0081 00       		.byte	0
 1614 0082 0B       		.uleb128 0xb
 1615 0083 0F       		.uleb128 0xf
 1616 0084 00       		.byte	0
 1617 0085 0B       		.uleb128 0xb
 1618 0086 0B       		.uleb128 0xb
 1619 0087 49       		.uleb128 0x49
 1620 0088 13       		.uleb128 0x13
 1621 0089 00       		.byte	0
 1622 008a 00       		.byte	0
ARM GAS  /tmp/ccNhnR6l.s 			page 43


 1623 008b 0C       		.uleb128 0xc
 1624 008c 13       		.uleb128 0x13
 1625 008d 01       		.byte	0x1
 1626 008e 0B       		.uleb128 0xb
 1627 008f 0B       		.uleb128 0xb
 1628 0090 3A       		.uleb128 0x3a
 1629 0091 0B       		.uleb128 0xb
 1630 0092 3B       		.uleb128 0x3b
 1631 0093 0B       		.uleb128 0xb
 1632 0094 01       		.uleb128 0x1
 1633 0095 13       		.uleb128 0x13
 1634 0096 00       		.byte	0
 1635 0097 00       		.byte	0
 1636 0098 0D       		.uleb128 0xd
 1637 0099 17       		.uleb128 0x17
 1638 009a 01       		.byte	0x1
 1639 009b 0B       		.uleb128 0xb
 1640 009c 0B       		.uleb128 0xb
 1641 009d 3A       		.uleb128 0x3a
 1642 009e 0B       		.uleb128 0xb
 1643 009f 3B       		.uleb128 0x3b
 1644 00a0 0B       		.uleb128 0xb
 1645 00a1 01       		.uleb128 0x1
 1646 00a2 13       		.uleb128 0x13
 1647 00a3 00       		.byte	0
 1648 00a4 00       		.byte	0
 1649 00a5 0E       		.uleb128 0xe
 1650 00a6 0D       		.uleb128 0xd
 1651 00a7 00       		.byte	0
 1652 00a8 03       		.uleb128 0x3
 1653 00a9 0E       		.uleb128 0xe
 1654 00aa 3A       		.uleb128 0x3a
 1655 00ab 0B       		.uleb128 0xb
 1656 00ac 3B       		.uleb128 0x3b
 1657 00ad 0B       		.uleb128 0xb
 1658 00ae 49       		.uleb128 0x49
 1659 00af 13       		.uleb128 0x13
 1660 00b0 00       		.byte	0
 1661 00b1 00       		.byte	0
 1662 00b2 0F       		.uleb128 0xf
 1663 00b3 26       		.uleb128 0x26
 1664 00b4 00       		.byte	0
 1665 00b5 49       		.uleb128 0x49
 1666 00b6 13       		.uleb128 0x13
 1667 00b7 00       		.byte	0
 1668 00b8 00       		.byte	0
 1669 00b9 10       		.uleb128 0x10
 1670 00ba 16       		.uleb128 0x16
 1671 00bb 00       		.byte	0
 1672 00bc 03       		.uleb128 0x3
 1673 00bd 0E       		.uleb128 0xe
 1674 00be 3A       		.uleb128 0x3a
 1675 00bf 0B       		.uleb128 0xb
 1676 00c0 3B       		.uleb128 0x3b
 1677 00c1 05       		.uleb128 0x5
 1678 00c2 49       		.uleb128 0x49
 1679 00c3 13       		.uleb128 0x13
ARM GAS  /tmp/ccNhnR6l.s 			page 44


 1680 00c4 00       		.byte	0
 1681 00c5 00       		.byte	0
 1682 00c6 11       		.uleb128 0x11
 1683 00c7 15       		.uleb128 0x15
 1684 00c8 01       		.byte	0x1
 1685 00c9 27       		.uleb128 0x27
 1686 00ca 0C       		.uleb128 0xc
 1687 00cb 01       		.uleb128 0x1
 1688 00cc 13       		.uleb128 0x13
 1689 00cd 00       		.byte	0
 1690 00ce 00       		.byte	0
 1691 00cf 12       		.uleb128 0x12
 1692 00d0 05       		.uleb128 0x5
 1693 00d1 00       		.byte	0
 1694 00d2 49       		.uleb128 0x49
 1695 00d3 13       		.uleb128 0x13
 1696 00d4 00       		.byte	0
 1697 00d5 00       		.byte	0
 1698 00d6 13       		.uleb128 0x13
 1699 00d7 13       		.uleb128 0x13
 1700 00d8 01       		.byte	0x1
 1701 00d9 03       		.uleb128 0x3
 1702 00da 0E       		.uleb128 0xe
 1703 00db 0B       		.uleb128 0xb
 1704 00dc 0B       		.uleb128 0xb
 1705 00dd 3A       		.uleb128 0x3a
 1706 00de 0B       		.uleb128 0xb
 1707 00df 3B       		.uleb128 0x3b
 1708 00e0 05       		.uleb128 0x5
 1709 00e1 01       		.uleb128 0x1
 1710 00e2 13       		.uleb128 0x13
 1711 00e3 00       		.byte	0
 1712 00e4 00       		.byte	0
 1713 00e5 14       		.uleb128 0x14
 1714 00e6 0D       		.uleb128 0xd
 1715 00e7 00       		.byte	0
 1716 00e8 03       		.uleb128 0x3
 1717 00e9 0E       		.uleb128 0xe
 1718 00ea 3A       		.uleb128 0x3a
 1719 00eb 0B       		.uleb128 0xb
 1720 00ec 3B       		.uleb128 0x3b
 1721 00ed 05       		.uleb128 0x5
 1722 00ee 49       		.uleb128 0x49
 1723 00ef 13       		.uleb128 0x13
 1724 00f0 38       		.uleb128 0x38
 1725 00f1 0A       		.uleb128 0xa
 1726 00f2 00       		.byte	0
 1727 00f3 00       		.byte	0
 1728 00f4 15       		.uleb128 0x15
 1729 00f5 13       		.uleb128 0x13
 1730 00f6 01       		.byte	0x1
 1731 00f7 0B       		.uleb128 0xb
 1732 00f8 0B       		.uleb128 0xb
 1733 00f9 3A       		.uleb128 0x3a
 1734 00fa 0B       		.uleb128 0xb
 1735 00fb 3B       		.uleb128 0x3b
 1736 00fc 05       		.uleb128 0x5
ARM GAS  /tmp/ccNhnR6l.s 			page 45


 1737 00fd 01       		.uleb128 0x1
 1738 00fe 13       		.uleb128 0x13
 1739 00ff 00       		.byte	0
 1740 0100 00       		.byte	0
 1741 0101 16       		.uleb128 0x16
 1742 0102 2E       		.uleb128 0x2e
 1743 0103 01       		.byte	0x1
 1744 0104 03       		.uleb128 0x3
 1745 0105 0E       		.uleb128 0xe
 1746 0106 3A       		.uleb128 0x3a
 1747 0107 0B       		.uleb128 0xb
 1748 0108 3B       		.uleb128 0x3b
 1749 0109 05       		.uleb128 0x5
 1750 010a 27       		.uleb128 0x27
 1751 010b 0C       		.uleb128 0xc
 1752 010c 20       		.uleb128 0x20
 1753 010d 0B       		.uleb128 0xb
 1754 010e 01       		.uleb128 0x1
 1755 010f 13       		.uleb128 0x13
 1756 0110 00       		.byte	0
 1757 0111 00       		.byte	0
 1758 0112 17       		.uleb128 0x17
 1759 0113 05       		.uleb128 0x5
 1760 0114 00       		.byte	0
 1761 0115 03       		.uleb128 0x3
 1762 0116 0E       		.uleb128 0xe
 1763 0117 3A       		.uleb128 0x3a
 1764 0118 0B       		.uleb128 0xb
 1765 0119 3B       		.uleb128 0x3b
 1766 011a 05       		.uleb128 0x5
 1767 011b 49       		.uleb128 0x49
 1768 011c 13       		.uleb128 0x13
 1769 011d 00       		.byte	0
 1770 011e 00       		.byte	0
 1771 011f 18       		.uleb128 0x18
 1772 0120 2E       		.uleb128 0x2e
 1773 0121 00       		.byte	0
 1774 0122 03       		.uleb128 0x3
 1775 0123 0E       		.uleb128 0xe
 1776 0124 3A       		.uleb128 0x3a
 1777 0125 0B       		.uleb128 0xb
 1778 0126 3B       		.uleb128 0x3b
 1779 0127 05       		.uleb128 0x5
 1780 0128 27       		.uleb128 0x27
 1781 0129 0C       		.uleb128 0xc
 1782 012a 20       		.uleb128 0x20
 1783 012b 0B       		.uleb128 0xb
 1784 012c 00       		.byte	0
 1785 012d 00       		.byte	0
 1786 012e 19       		.uleb128 0x19
 1787 012f 2E       		.uleb128 0x2e
 1788 0130 01       		.byte	0x1
 1789 0131 3F       		.uleb128 0x3f
 1790 0132 0C       		.uleb128 0xc
 1791 0133 03       		.uleb128 0x3
 1792 0134 0E       		.uleb128 0xe
 1793 0135 3A       		.uleb128 0x3a
ARM GAS  /tmp/ccNhnR6l.s 			page 46


 1794 0136 0B       		.uleb128 0xb
 1795 0137 3B       		.uleb128 0x3b
 1796 0138 0B       		.uleb128 0xb
 1797 0139 27       		.uleb128 0x27
 1798 013a 0C       		.uleb128 0xc
 1799 013b 49       		.uleb128 0x49
 1800 013c 13       		.uleb128 0x13
 1801 013d 20       		.uleb128 0x20
 1802 013e 0B       		.uleb128 0xb
 1803 013f 01       		.uleb128 0x1
 1804 0140 13       		.uleb128 0x13
 1805 0141 00       		.byte	0
 1806 0142 00       		.byte	0
 1807 0143 1A       		.uleb128 0x1a
 1808 0144 05       		.uleb128 0x5
 1809 0145 00       		.byte	0
 1810 0146 03       		.uleb128 0x3
 1811 0147 0E       		.uleb128 0xe
 1812 0148 3A       		.uleb128 0x3a
 1813 0149 0B       		.uleb128 0xb
 1814 014a 3B       		.uleb128 0x3b
 1815 014b 0B       		.uleb128 0xb
 1816 014c 49       		.uleb128 0x49
 1817 014d 13       		.uleb128 0x13
 1818 014e 00       		.byte	0
 1819 014f 00       		.byte	0
 1820 0150 1B       		.uleb128 0x1b
 1821 0151 34       		.uleb128 0x34
 1822 0152 00       		.byte	0
 1823 0153 03       		.uleb128 0x3
 1824 0154 08       		.uleb128 0x8
 1825 0155 3A       		.uleb128 0x3a
 1826 0156 0B       		.uleb128 0xb
 1827 0157 3B       		.uleb128 0x3b
 1828 0158 0B       		.uleb128 0xb
 1829 0159 49       		.uleb128 0x49
 1830 015a 13       		.uleb128 0x13
 1831 015b 00       		.byte	0
 1832 015c 00       		.byte	0
 1833 015d 1C       		.uleb128 0x1c
 1834 015e 34       		.uleb128 0x34
 1835 015f 00       		.byte	0
 1836 0160 03       		.uleb128 0x3
 1837 0161 0E       		.uleb128 0xe
 1838 0162 49       		.uleb128 0x49
 1839 0163 13       		.uleb128 0x13
 1840 0164 34       		.uleb128 0x34
 1841 0165 0C       		.uleb128 0xc
 1842 0166 1C       		.uleb128 0x1c
 1843 0167 0E       		.uleb128 0xe
 1844 0168 00       		.byte	0
 1845 0169 00       		.byte	0
 1846 016a 1D       		.uleb128 0x1d
 1847 016b 01       		.uleb128 0x1
 1848 016c 01       		.byte	0x1
 1849 016d 49       		.uleb128 0x49
 1850 016e 13       		.uleb128 0x13
ARM GAS  /tmp/ccNhnR6l.s 			page 47


 1851 016f 01       		.uleb128 0x1
 1852 0170 13       		.uleb128 0x13
 1853 0171 00       		.byte	0
 1854 0172 00       		.byte	0
 1855 0173 1E       		.uleb128 0x1e
 1856 0174 21       		.uleb128 0x21
 1857 0175 00       		.byte	0
 1858 0176 49       		.uleb128 0x49
 1859 0177 13       		.uleb128 0x13
 1860 0178 2F       		.uleb128 0x2f
 1861 0179 0B       		.uleb128 0xb
 1862 017a 00       		.byte	0
 1863 017b 00       		.byte	0
 1864 017c 1F       		.uleb128 0x1f
 1865 017d 2E       		.uleb128 0x2e
 1866 017e 01       		.byte	0x1
 1867 017f 3F       		.uleb128 0x3f
 1868 0180 0C       		.uleb128 0xc
 1869 0181 03       		.uleb128 0x3
 1870 0182 0E       		.uleb128 0xe
 1871 0183 3A       		.uleb128 0x3a
 1872 0184 0B       		.uleb128 0xb
 1873 0185 3B       		.uleb128 0x3b
 1874 0186 0B       		.uleb128 0xb
 1875 0187 27       		.uleb128 0x27
 1876 0188 0C       		.uleb128 0xc
 1877 0189 11       		.uleb128 0x11
 1878 018a 01       		.uleb128 0x1
 1879 018b 12       		.uleb128 0x12
 1880 018c 01       		.uleb128 0x1
 1881 018d 40       		.uleb128 0x40
 1882 018e 0A       		.uleb128 0xa
 1883 018f 9742     		.uleb128 0x2117
 1884 0191 0C       		.uleb128 0xc
 1885 0192 01       		.uleb128 0x1
 1886 0193 13       		.uleb128 0x13
 1887 0194 00       		.byte	0
 1888 0195 00       		.byte	0
 1889 0196 20       		.uleb128 0x20
 1890 0197 34       		.uleb128 0x34
 1891 0198 00       		.byte	0
 1892 0199 03       		.uleb128 0x3
 1893 019a 0E       		.uleb128 0xe
 1894 019b 3A       		.uleb128 0x3a
 1895 019c 0B       		.uleb128 0xb
 1896 019d 3B       		.uleb128 0x3b
 1897 019e 0B       		.uleb128 0xb
 1898 019f 49       		.uleb128 0x49
 1899 01a0 13       		.uleb128 0x13
 1900 01a1 3F       		.uleb128 0x3f
 1901 01a2 0C       		.uleb128 0xc
 1902 01a3 3C       		.uleb128 0x3c
 1903 01a4 0C       		.uleb128 0xc
 1904 01a5 00       		.byte	0
 1905 01a6 00       		.byte	0
 1906 01a7 21       		.uleb128 0x21
 1907 01a8 21       		.uleb128 0x21
ARM GAS  /tmp/ccNhnR6l.s 			page 48


 1908 01a9 00       		.byte	0
 1909 01aa 00       		.byte	0
 1910 01ab 00       		.byte	0
 1911 01ac 22       		.uleb128 0x22
 1912 01ad 2E       		.uleb128 0x2e
 1913 01ae 01       		.byte	0x1
 1914 01af 3F       		.uleb128 0x3f
 1915 01b0 0C       		.uleb128 0xc
 1916 01b1 03       		.uleb128 0x3
 1917 01b2 0E       		.uleb128 0xe
 1918 01b3 3A       		.uleb128 0x3a
 1919 01b4 0B       		.uleb128 0xb
 1920 01b5 3B       		.uleb128 0x3b
 1921 01b6 0B       		.uleb128 0xb
 1922 01b7 27       		.uleb128 0x27
 1923 01b8 0C       		.uleb128 0xc
 1924 01b9 49       		.uleb128 0x49
 1925 01ba 13       		.uleb128 0x13
 1926 01bb 11       		.uleb128 0x11
 1927 01bc 01       		.uleb128 0x1
 1928 01bd 12       		.uleb128 0x12
 1929 01be 01       		.uleb128 0x1
 1930 01bf 40       		.uleb128 0x40
 1931 01c0 0A       		.uleb128 0xa
 1932 01c1 9742     		.uleb128 0x2117
 1933 01c3 0C       		.uleb128 0xc
 1934 01c4 01       		.uleb128 0x1
 1935 01c5 13       		.uleb128 0x13
 1936 01c6 00       		.byte	0
 1937 01c7 00       		.byte	0
 1938 01c8 23       		.uleb128 0x23
 1939 01c9 05       		.uleb128 0x5
 1940 01ca 00       		.byte	0
 1941 01cb 03       		.uleb128 0x3
 1942 01cc 0E       		.uleb128 0xe
 1943 01cd 3A       		.uleb128 0x3a
 1944 01ce 0B       		.uleb128 0xb
 1945 01cf 3B       		.uleb128 0x3b
 1946 01d0 0B       		.uleb128 0xb
 1947 01d1 49       		.uleb128 0x49
 1948 01d2 13       		.uleb128 0x13
 1949 01d3 02       		.uleb128 0x2
 1950 01d4 06       		.uleb128 0x6
 1951 01d5 00       		.byte	0
 1952 01d6 00       		.byte	0
 1953 01d7 24       		.uleb128 0x24
 1954 01d8 34       		.uleb128 0x34
 1955 01d9 00       		.byte	0
 1956 01da 03       		.uleb128 0x3
 1957 01db 08       		.uleb128 0x8
 1958 01dc 3A       		.uleb128 0x3a
 1959 01dd 0B       		.uleb128 0xb
 1960 01de 3B       		.uleb128 0x3b
 1961 01df 0B       		.uleb128 0xb
 1962 01e0 49       		.uleb128 0x49
 1963 01e1 13       		.uleb128 0x13
 1964 01e2 02       		.uleb128 0x2
ARM GAS  /tmp/ccNhnR6l.s 			page 49


 1965 01e3 0A       		.uleb128 0xa
 1966 01e4 00       		.byte	0
 1967 01e5 00       		.byte	0
 1968 01e6 25       		.uleb128 0x25
 1969 01e7 1D       		.uleb128 0x1d
 1970 01e8 01       		.byte	0x1
 1971 01e9 31       		.uleb128 0x31
 1972 01ea 13       		.uleb128 0x13
 1973 01eb 11       		.uleb128 0x11
 1974 01ec 01       		.uleb128 0x1
 1975 01ed 12       		.uleb128 0x12
 1976 01ee 01       		.uleb128 0x1
 1977 01ef 58       		.uleb128 0x58
 1978 01f0 0B       		.uleb128 0xb
 1979 01f1 59       		.uleb128 0x59
 1980 01f2 0B       		.uleb128 0xb
 1981 01f3 01       		.uleb128 0x1
 1982 01f4 13       		.uleb128 0x13
 1983 01f5 00       		.byte	0
 1984 01f6 00       		.byte	0
 1985 01f7 26       		.uleb128 0x26
 1986 01f8 1D       		.uleb128 0x1d
 1987 01f9 01       		.byte	0x1
 1988 01fa 31       		.uleb128 0x31
 1989 01fb 13       		.uleb128 0x13
 1990 01fc 11       		.uleb128 0x11
 1991 01fd 01       		.uleb128 0x1
 1992 01fe 12       		.uleb128 0x12
 1993 01ff 01       		.uleb128 0x1
 1994 0200 58       		.uleb128 0x58
 1995 0201 0B       		.uleb128 0xb
 1996 0202 59       		.uleb128 0x59
 1997 0203 05       		.uleb128 0x5
 1998 0204 00       		.byte	0
 1999 0205 00       		.byte	0
 2000 0206 27       		.uleb128 0x27
 2001 0207 05       		.uleb128 0x5
 2002 0208 00       		.byte	0
 2003 0209 31       		.uleb128 0x31
 2004 020a 13       		.uleb128 0x13
 2005 020b 1C       		.uleb128 0x1c
 2006 020c 0B       		.uleb128 0xb
 2007 020d 00       		.byte	0
 2008 020e 00       		.byte	0
 2009 020f 28       		.uleb128 0x28
 2010 0210 05       		.uleb128 0x5
 2011 0211 00       		.byte	0
 2012 0212 31       		.uleb128 0x31
 2013 0213 13       		.uleb128 0x13
 2014 0214 02       		.uleb128 0x2
 2015 0215 06       		.uleb128 0x6
 2016 0216 00       		.byte	0
 2017 0217 00       		.byte	0
 2018 0218 29       		.uleb128 0x29
 2019 0219 0B       		.uleb128 0xb
 2020 021a 01       		.byte	0x1
 2021 021b 11       		.uleb128 0x11
ARM GAS  /tmp/ccNhnR6l.s 			page 50


 2022 021c 01       		.uleb128 0x1
 2023 021d 12       		.uleb128 0x12
 2024 021e 01       		.uleb128 0x1
 2025 021f 00       		.byte	0
 2026 0220 00       		.byte	0
 2027 0221 2A       		.uleb128 0x2a
 2028 0222 34       		.uleb128 0x34
 2029 0223 00       		.byte	0
 2030 0224 31       		.uleb128 0x31
 2031 0225 13       		.uleb128 0x13
 2032 0226 02       		.uleb128 0x2
 2033 0227 06       		.uleb128 0x6
 2034 0228 00       		.byte	0
 2035 0229 00       		.byte	0
 2036 022a 2B       		.uleb128 0x2b
 2037 022b 1D       		.uleb128 0x1d
 2038 022c 01       		.byte	0x1
 2039 022d 31       		.uleb128 0x31
 2040 022e 13       		.uleb128 0x13
 2041 022f 11       		.uleb128 0x11
 2042 0230 01       		.uleb128 0x1
 2043 0231 12       		.uleb128 0x12
 2044 0232 01       		.uleb128 0x1
 2045 0233 58       		.uleb128 0x58
 2046 0234 0B       		.uleb128 0xb
 2047 0235 59       		.uleb128 0x59
 2048 0236 0B       		.uleb128 0xb
 2049 0237 00       		.byte	0
 2050 0238 00       		.byte	0
 2051 0239 2C       		.uleb128 0x2c
 2052 023a 34       		.uleb128 0x34
 2053 023b 00       		.byte	0
 2054 023c 31       		.uleb128 0x31
 2055 023d 13       		.uleb128 0x13
 2056 023e 00       		.byte	0
 2057 023f 00       		.byte	0
 2058 0240 2D       		.uleb128 0x2d
 2059 0241 2E       		.uleb128 0x2e
 2060 0242 01       		.byte	0x1
 2061 0243 31       		.uleb128 0x31
 2062 0244 13       		.uleb128 0x13
 2063 0245 11       		.uleb128 0x11
 2064 0246 01       		.uleb128 0x1
 2065 0247 12       		.uleb128 0x12
 2066 0248 01       		.uleb128 0x1
 2067 0249 40       		.uleb128 0x40
 2068 024a 0A       		.uleb128 0xa
 2069 024b 9742     		.uleb128 0x2117
 2070 024d 0C       		.uleb128 0xc
 2071 024e 01       		.uleb128 0x1
 2072 024f 13       		.uleb128 0x13
 2073 0250 00       		.byte	0
 2074 0251 00       		.byte	0
 2075 0252 2E       		.uleb128 0x2e
 2076 0253 2E       		.uleb128 0x2e
 2077 0254 00       		.byte	0
 2078 0255 3F       		.uleb128 0x3f
ARM GAS  /tmp/ccNhnR6l.s 			page 51


 2079 0256 0C       		.uleb128 0xc
 2080 0257 03       		.uleb128 0x3
 2081 0258 0E       		.uleb128 0xe
 2082 0259 3A       		.uleb128 0x3a
 2083 025a 0B       		.uleb128 0xb
 2084 025b 3B       		.uleb128 0x3b
 2085 025c 0B       		.uleb128 0xb
 2086 025d 27       		.uleb128 0x27
 2087 025e 0C       		.uleb128 0xc
 2088 025f 49       		.uleb128 0x49
 2089 0260 13       		.uleb128 0x13
 2090 0261 11       		.uleb128 0x11
 2091 0262 01       		.uleb128 0x1
 2092 0263 12       		.uleb128 0x12
 2093 0264 01       		.uleb128 0x1
 2094 0265 40       		.uleb128 0x40
 2095 0266 0A       		.uleb128 0xa
 2096 0267 9742     		.uleb128 0x2117
 2097 0269 0C       		.uleb128 0xc
 2098 026a 00       		.byte	0
 2099 026b 00       		.byte	0
 2100 026c 2F       		.uleb128 0x2f
 2101 026d 34       		.uleb128 0x34
 2102 026e 00       		.byte	0
 2103 026f 03       		.uleb128 0x3
 2104 0270 0E       		.uleb128 0xe
 2105 0271 3A       		.uleb128 0x3a
 2106 0272 0B       		.uleb128 0xb
 2107 0273 3B       		.uleb128 0x3b
 2108 0274 0B       		.uleb128 0xb
 2109 0275 49       		.uleb128 0x49
 2110 0276 13       		.uleb128 0x13
 2111 0277 02       		.uleb128 0x2
 2112 0278 0A       		.uleb128 0xa
 2113 0279 00       		.byte	0
 2114 027a 00       		.byte	0
 2115 027b 30       		.uleb128 0x30
 2116 027c 34       		.uleb128 0x34
 2117 027d 00       		.byte	0
 2118 027e 03       		.uleb128 0x3
 2119 027f 0E       		.uleb128 0xe
 2120 0280 3A       		.uleb128 0x3a
 2121 0281 0B       		.uleb128 0xb
 2122 0282 3B       		.uleb128 0x3b
 2123 0283 05       		.uleb128 0x5
 2124 0284 49       		.uleb128 0x49
 2125 0285 13       		.uleb128 0x13
 2126 0286 3F       		.uleb128 0x3f
 2127 0287 0C       		.uleb128 0xc
 2128 0288 3C       		.uleb128 0x3c
 2129 0289 0C       		.uleb128 0xc
 2130 028a 00       		.byte	0
 2131 028b 00       		.byte	0
 2132 028c 31       		.uleb128 0x31
 2133 028d 34       		.uleb128 0x34
 2134 028e 00       		.byte	0
 2135 028f 03       		.uleb128 0x3
ARM GAS  /tmp/ccNhnR6l.s 			page 52


 2136 0290 08       		.uleb128 0x8
 2137 0291 3A       		.uleb128 0x3a
 2138 0292 0B       		.uleb128 0xb
 2139 0293 3B       		.uleb128 0x3b
 2140 0294 05       		.uleb128 0x5
 2141 0295 49       		.uleb128 0x49
 2142 0296 13       		.uleb128 0x13
 2143 0297 3F       		.uleb128 0x3f
 2144 0298 0C       		.uleb128 0xc
 2145 0299 3C       		.uleb128 0x3c
 2146 029a 0C       		.uleb128 0xc
 2147 029b 00       		.byte	0
 2148 029c 00       		.byte	0
 2149 029d 00       		.byte	0
 2150              		.section	.debug_loc,"",%progbits
 2151              	.Ldebug_loc0:
 2152              	.LLST0:
 2153 0000 00000000 		.4byte	.LVL0
 2154 0004 10000000 		.4byte	.LVL2
 2155 0008 0100     		.2byte	0x1
 2156 000a 50       		.byte	0x50
 2157 000b 10000000 		.4byte	.LVL2
 2158 000f 14000000 		.4byte	.LVL3
 2159 0013 0300     		.2byte	0x3
 2160 0015 70       		.byte	0x70
 2161 0016 79       		.sleb128 -7
 2162 0017 9F       		.byte	0x9f
 2163 0018 14000000 		.4byte	.LVL3
 2164 001c 34000000 		.4byte	.LFE166
 2165 0020 0400     		.2byte	0x4
 2166 0022 F3       		.byte	0xf3
 2167 0023 01       		.uleb128 0x1
 2168 0024 50       		.byte	0x50
 2169 0025 9F       		.byte	0x9f
 2170 0026 00000000 		.4byte	0
 2171 002a 00000000 		.4byte	0
 2172              	.LLST1:
 2173 002e 06000000 		.4byte	.LVL1
 2174 0032 10000000 		.4byte	.LVL2
 2175 0036 0100     		.2byte	0x1
 2176 0038 50       		.byte	0x50
 2177 0039 10000000 		.4byte	.LVL2
 2178 003d 14000000 		.4byte	.LVL3
 2179 0041 0300     		.2byte	0x3
 2180 0043 70       		.byte	0x70
 2181 0044 79       		.sleb128 -7
 2182 0045 9F       		.byte	0x9f
 2183 0046 14000000 		.4byte	.LVL3
 2184 004a 1C000000 		.4byte	.LVL5
 2185 004e 0100     		.2byte	0x1
 2186 0050 50       		.byte	0x50
 2187 0051 1C000000 		.4byte	.LVL5
 2188 0055 34000000 		.4byte	.LFE166
 2189 0059 0900     		.2byte	0x9
 2190 005b F3       		.byte	0xf3
 2191 005c 01       		.uleb128 0x1
 2192 005d 50       		.byte	0x50
ARM GAS  /tmp/ccNhnR6l.s 			page 53


 2193 005e 23       		.byte	0x23
 2194 005f 07       		.uleb128 0x7
 2195 0060 09       		.byte	0x9
 2196 0061 F8       		.byte	0xf8
 2197 0062 1A       		.byte	0x1a
 2198 0063 9F       		.byte	0x9f
 2199 0064 00000000 		.4byte	0
 2200 0068 00000000 		.4byte	0
 2201              	.LLST2:
 2202 006c 18000000 		.4byte	.LVL4
 2203 0070 20000000 		.4byte	.LVL6
 2204 0074 0100     		.2byte	0x1
 2205 0076 53       		.byte	0x53
 2206 0077 20000000 		.4byte	.LVL6
 2207 007b 34000000 		.4byte	.LFE166
 2208 007f 0500     		.2byte	0x5
 2209 0081 03       		.byte	0x3
 2210 0082 00000000 		.4byte	nextmem
 2211 0086 00000000 		.4byte	0
 2212 008a 00000000 		.4byte	0
 2213              	.LLST3:
 2214 008e 00000000 		.4byte	.LVL7
 2215 0092 0A000000 		.4byte	.LVL8
 2216 0096 0100     		.2byte	0x1
 2217 0098 50       		.byte	0x50
 2218 0099 0A000000 		.4byte	.LVL8
 2219 009d 0E000000 		.4byte	.LVL9
 2220 00a1 0300     		.2byte	0x3
 2221 00a3 70       		.byte	0x70
 2222 00a4 79       		.sleb128 -7
 2223 00a5 9F       		.byte	0x9f
 2224 00a6 0E000000 		.4byte	.LVL9
 2225 00aa 16000000 		.4byte	.LVL11
 2226 00ae 0100     		.2byte	0x1
 2227 00b0 50       		.byte	0x50
 2228 00b1 16000000 		.4byte	.LVL11
 2229 00b5 28000000 		.4byte	.LFE167
 2230 00b9 0900     		.2byte	0x9
 2231 00bb F3       		.byte	0xf3
 2232 00bc 01       		.uleb128 0x1
 2233 00bd 50       		.byte	0x50
 2234 00be 23       		.byte	0x23
 2235 00bf 07       		.uleb128 0x7
 2236 00c0 09       		.byte	0x9
 2237 00c1 F8       		.byte	0xf8
 2238 00c2 1A       		.byte	0x1a
 2239 00c3 9F       		.byte	0x9f
 2240 00c4 00000000 		.4byte	0
 2241 00c8 00000000 		.4byte	0
 2242              	.LLST4:
 2243 00cc 12000000 		.4byte	.LVL10
 2244 00d0 1A000000 		.4byte	.LVL12
 2245 00d4 0100     		.2byte	0x1
 2246 00d6 53       		.byte	0x53
 2247 00d7 1A000000 		.4byte	.LVL12
 2248 00db 28000000 		.4byte	.LFE167
 2249 00df 0500     		.2byte	0x5
ARM GAS  /tmp/ccNhnR6l.s 			page 54


 2250 00e1 03       		.byte	0x3
 2251 00e2 00000000 		.4byte	nextmem
 2252 00e6 00000000 		.4byte	0
 2253 00ea 00000000 		.4byte	0
 2254              		.section	.debug_aranges,"",%progbits
 2255 0000 34000000 		.4byte	0x34
 2256 0004 0200     		.2byte	0x2
 2257 0006 00000000 		.4byte	.Ldebug_info0
 2258 000a 04       		.byte	0x4
 2259 000b 00       		.byte	0
 2260 000c 0000     		.2byte	0
 2261 000e 0000     		.2byte	0
 2262 0010 00000000 		.4byte	.LFB165
 2263 0014 2C000000 		.4byte	.LFE165-.LFB165
 2264 0018 00000000 		.4byte	.LFB166
 2265 001c 34000000 		.4byte	.LFE166-.LFB166
 2266 0020 00000000 		.4byte	.LFB167
 2267 0024 28000000 		.4byte	.LFE167-.LFB167
 2268 0028 00000000 		.4byte	.LFB168
 2269 002c 18000000 		.4byte	.LFE168-.LFB168
 2270 0030 00000000 		.4byte	0
 2271 0034 00000000 		.4byte	0
 2272              		.section	.debug_ranges,"",%progbits
 2273              	.Ldebug_ranges0:
 2274 0000 00000000 		.4byte	.LFB165
 2275 0004 2C000000 		.4byte	.LFE165
 2276 0008 00000000 		.4byte	.LFB166
 2277 000c 34000000 		.4byte	.LFE166
 2278 0010 00000000 		.4byte	.LFB167
 2279 0014 28000000 		.4byte	.LFE167
 2280 0018 00000000 		.4byte	.LFB168
 2281 001c 18000000 		.4byte	.LFE168
 2282 0020 00000000 		.4byte	0
 2283 0024 00000000 		.4byte	0
 2284              		.section	.debug_line,"",%progbits
 2285              	.Ldebug_line0:
 2286 0000 5F020000 		.section	.debug_str,"MS",%progbits,1
 2286      0200EE01 
 2286      00000201 
 2286      FB0E0D00 
 2286      01010101 
 2287              	.LASF34:
 2288 0000 74726566 		.ascii	"trefs_t\000"
 2288      735F7400 
 2289              	.LASF97:
 2290 0008 6368436F 		.ascii	"chCoreStatus\000"
 2290      72655374 
 2290      61747573 
 2290      00
 2291              	.LASF22:
 2292 0015 73686F72 		.ascii	"short int\000"
 2292      7420696E 
 2292      7400
 2293              	.LASF19:
 2294 001f 73697A65 		.ascii	"size_t\000"
 2294      5F7400
 2295              	.LASF46:
ARM GAS  /tmp/ccNhnR6l.s 			page 55


 2296 0026 725F7175 		.ascii	"r_queue\000"
 2296      65756500 
 2297              	.LASF61:
 2298 002e 6D5F6E65 		.ascii	"m_next\000"
 2298      787400
 2299              	.LASF38:
 2300 0035 73697A65 		.ascii	"sizetype\000"
 2300      74797065 
 2300      00
 2301              	.LASF53:
 2302 003e 7264796D 		.ascii	"rdymsg\000"
 2302      736700
 2303              	.LASF1:
 2304 0045 705F7072 		.ascii	"p_prev\000"
 2304      657600
 2305              	.LASF48:
 2306 004c 725F6374 		.ascii	"r_ctx\000"
 2306      7800
 2307              	.LASF78:
 2308 0052 706F7274 		.ascii	"port_lock\000"
 2308      5F6C6F63 
 2308      6B00
 2309              	.LASF80:
 2310 005c 63685379 		.ascii	"chSysLock\000"
 2310      734C6F63 
 2310      6B00
 2311              	.LASF37:
 2312 0066 6576656E 		.ascii	"eventmask_t\000"
 2312      746D6173 
 2312      6B5F7400 
 2313              	.LASF11:
 2314 0072 705F6D73 		.ascii	"p_msgqueue\000"
 2314      67717565 
 2314      756500
 2315              	.LASF2:
 2316 007d 705F7072 		.ascii	"p_prio\000"
 2316      696F00
 2317              	.LASF0:
 2318 0084 705F6E65 		.ascii	"p_next\000"
 2318      787400
 2319              	.LASF85:
 2320 008b 5F5F6675 		.ascii	"__func__.5444\000"
 2320      6E635F5F 
 2320      2E353434 
 2320      3400
 2321              	.LASF31:
 2322 0099 7274636E 		.ascii	"rtcnt_t\000"
 2322      745F7400 
 2323              	.LASF69:
 2324 00a1 76745F70 		.ascii	"vt_par\000"
 2324      617200
 2325              	.LASF81:
 2326 00a8 76616C75 		.ascii	"value\000"
 2326      6500
 2327              	.LASF68:
 2328 00ae 76745F66 		.ascii	"vt_func\000"
 2328      756E6300 
ARM GAS  /tmp/ccNhnR6l.s 			page 56


 2329              	.LASF40:
 2330 00b6 72656761 		.ascii	"regarm_t\000"
 2330      726D5F74 
 2330      00
 2331              	.LASF20:
 2332 00bf 75696E74 		.ascii	"uint8_t\000"
 2332      385F7400 
 2333              	.LASF13:
 2334 00c7 705F6570 		.ascii	"p_epending\000"
 2334      656E6469 
 2334      6E6700
 2335              	.LASF76:
 2336 00d2 63685F73 		.ascii	"ch_system_t\000"
 2336      79737465 
 2336      6D5F7400 
 2337              	.LASF75:
 2338 00de 6D656173 		.ascii	"measurement_offset\000"
 2338      7572656D 
 2338      656E745F 
 2338      6F666673 
 2338      657400
 2339              	.LASF70:
 2340 00f1 76745F6C 		.ascii	"vt_lasttime\000"
 2340      61737474 
 2340      696D6500 
 2341              	.LASF87:
 2342 00fd 5F5F6865 		.ascii	"__heap_end__\000"
 2342      61705F65 
 2342      6E645F5F 
 2342      00
 2343              	.LASF32:
 2344 010a 746D6F64 		.ascii	"tmode_t\000"
 2344      655F7400 
 2345              	.LASF29:
 2346 0112 6C6F6E67 		.ascii	"long long int\000"
 2346      206C6F6E 
 2346      6720696E 
 2346      7400
 2347              	.LASF6:
 2348 0120 705F6E61 		.ascii	"p_name\000"
 2348      6D6500
 2349              	.LASF35:
 2350 0127 74707269 		.ascii	"tprio_t\000"
 2350      6F5F7400 
 2351              	.LASF92:
 2352 012f 2E2E2F2E 		.ascii	"../../../os/rt/src/chmemcore.c\000"
 2352      2E2F2E2E 
 2352      2F6F732F 
 2352      72742F73 
 2352      72632F63 
 2353              	.LASF26:
 2354 014e 6C6F6E67 		.ascii	"long int\000"
 2354      20696E74 
 2354      00
 2355              	.LASF5:
 2356 0157 705F6F6C 		.ascii	"p_older\000"
 2356      64657200 
ARM GAS  /tmp/ccNhnR6l.s 			page 57


 2357              	.LASF63:
 2358 015f 76697274 		.ascii	"virtual_timer_t\000"
 2358      75616C5F 
 2358      74696D65 
 2358      725F7400 
 2359              	.LASF59:
 2360 016f 6D5F7175 		.ascii	"m_queue\000"
 2360      65756500 
 2361              	.LASF42:
 2362 0177 636F6E74 		.ascii	"context\000"
 2362      65787400 
 2363              	.LASF51:
 2364 017f 725F6375 		.ascii	"r_current\000"
 2364      7272656E 
 2364      7400
 2365              	.LASF12:
 2366 0189 705F6D73 		.ascii	"p_msg\000"
 2366      6700
 2367              	.LASF86:
 2368 018f 5F5F6865 		.ascii	"__heap_base__\000"
 2368      61705F62 
 2368      6173655F 
 2368      5F00
 2369              	.LASF21:
 2370 019d 756E7369 		.ascii	"unsigned char\000"
 2370      676E6564 
 2370      20636861 
 2370      7200
 2371              	.LASF56:
 2372 01ab 65776D61 		.ascii	"ewmask\000"
 2372      736B00
 2373              	.LASF18:
 2374 01b2 7369676E 		.ascii	"signed char\000"
 2374      65642063 
 2374      68617200 
 2375              	.LASF4:
 2376 01be 705F6E65 		.ascii	"p_newer\000"
 2376      77657200 
 2377              	.LASF30:
 2378 01c6 6C6F6E67 		.ascii	"long long unsigned int\000"
 2378      206C6F6E 
 2378      6720756E 
 2378      7369676E 
 2378      65642069 
 2379              	.LASF27:
 2380 01dd 75696E74 		.ascii	"uint32_t\000"
 2380      33325F74 
 2380      00
 2381              	.LASF17:
 2382 01e6 756E7369 		.ascii	"unsigned int\000"
 2382      676E6564 
 2382      20696E74 
 2382      00
 2383              	.LASF91:
 2384 01f3 474E5520 		.ascii	"GNU C 4.7.4 20130913 (release) [ARM/embedded-4_7-br"
 2384      4320342E 
 2384      372E3420 
ARM GAS  /tmp/ccNhnR6l.s 			page 58


 2384      32303133 
 2384      30393133 
 2385 0226 616E6368 		.ascii	"anch revision 202601]\000"
 2385      20726576 
 2385      6973696F 
 2385      6E203230 
 2385      32363031 
 2386              	.LASF65:
 2387 023c 76745F6E 		.ascii	"vt_next\000"
 2387      65787400 
 2388              	.LASF71:
 2389 0244 76697274 		.ascii	"virtual_timers_list_t\000"
 2389      75616C5F 
 2389      74696D65 
 2389      72735F6C 
 2389      6973745F 
 2390              	.LASF44:
 2391 025a 74687265 		.ascii	"threads_queue_t\000"
 2391      6164735F 
 2391      71756575 
 2391      655F7400 
 2392              	.LASF58:
 2393 026a 6D757465 		.ascii	"mutex\000"
 2393      7800
 2394              	.LASF41:
 2395 0270 74687265 		.ascii	"thread\000"
 2395      616400
 2396              	.LASF49:
 2397 0277 725F6E65 		.ascii	"r_newer\000"
 2397      77657200 
 2398              	.LASF8:
 2399 027f 705F666C 		.ascii	"p_flags\000"
 2399      61677300 
 2400              	.LASF67:
 2401 0287 76745F64 		.ascii	"vt_delta\000"
 2401      656C7461 
 2401      00
 2402              	.LASF15:
 2403 0290 705F7265 		.ascii	"p_realprio\000"
 2403      616C7072 
 2403      696F00
 2404              	.LASF39:
 2405 029b 73797374 		.ascii	"systime_t\000"
 2405      696D655F 
 2405      7400
 2406              	.LASF73:
 2407 02a5 726C6973 		.ascii	"rlist\000"
 2407      7400
 2408              	.LASF57:
 2409 02ab 63686172 		.ascii	"char\000"
 2409      00
 2410              	.LASF23:
 2411 02b0 75696E74 		.ascii	"uint16_t\000"
 2411      31365F74 
 2411      00
 2412              	.LASF77:
 2413 02b9 6D757465 		.ascii	"mutex_t\000"
ARM GAS  /tmp/ccNhnR6l.s 			page 59


 2413      785F7400 
 2414              	.LASF25:
 2415 02c1 696E7433 		.ascii	"int32_t\000"
 2415      325F7400 
 2416              	.LASF47:
 2417 02c9 725F7072 		.ascii	"r_prio\000"
 2417      696F00
 2418              	.LASF7:
 2419 02d0 705F7374 		.ascii	"p_state\000"
 2419      61746500 
 2420              	.LASF24:
 2421 02d8 73686F72 		.ascii	"short unsigned int\000"
 2421      7420756E 
 2421      7369676E 
 2421      65642069 
 2421      6E7400
 2422              	.LASF79:
 2423 02eb 706F7274 		.ascii	"port_unlock\000"
 2423      5F756E6C 
 2423      6F636B00 
 2424              	.LASF10:
 2425 02f7 705F7761 		.ascii	"p_waiting\000"
 2425      6974696E 
 2425      6700
 2426              	.LASF14:
 2427 0301 705F6D74 		.ascii	"p_mtxlist\000"
 2427      786C6973 
 2427      7400
 2428              	.LASF28:
 2429 030b 6C6F6E67 		.ascii	"long unsigned int\000"
 2429      20756E73 
 2429      69676E65 
 2429      6420696E 
 2429      7400
 2430              	.LASF90:
 2431 031d 49544D5F 		.ascii	"ITM_RxBuffer\000"
 2431      52784275 
 2431      66666572 
 2431      00
 2432              	.LASF83:
 2433 032a 5F5F7365 		.ascii	"__set_BASEPRI\000"
 2433      745F4241 
 2433      53455052 
 2433      4900
 2434              	.LASF82:
 2435 0338 73697A65 		.ascii	"size\000"
 2435      00
 2436              	.LASF84:
 2437 033d 63685379 		.ascii	"chSysUnlock\000"
 2437      73556E6C 
 2437      6F636B00 
 2438              	.LASF43:
 2439 0349 706F7274 		.ascii	"port_intctx\000"
 2439      5F696E74 
 2439      63747800 
 2440              	.LASF66:
 2441 0355 76745F70 		.ascii	"vt_prev\000"
ARM GAS  /tmp/ccNhnR6l.s 			page 60


 2441      72657600 
 2442              	.LASF55:
 2443 035d 77746F62 		.ascii	"wtobjp\000"
 2443      6A7000
 2444              	.LASF33:
 2445 0364 74737461 		.ascii	"tstate_t\000"
 2445      74655F74 
 2445      00
 2446              	.LASF54:
 2447 036d 65786974 		.ascii	"exitcode\000"
 2447      636F6465 
 2447      00
 2448              	.LASF62:
 2449 0376 76746675 		.ascii	"vtfunc_t\000"
 2449      6E635F74 
 2449      00
 2450              	.LASF96:
 2451 037f 6368436F 		.ascii	"chCoreAlloc\000"
 2451      7265416C 
 2451      6C6F6300 
 2452              	.LASF52:
 2453 038b 72656164 		.ascii	"ready_list_t\000"
 2453      795F6C69 
 2453      73745F74 
 2453      00
 2454              	.LASF89:
 2455 0398 656E646D 		.ascii	"endmem\000"
 2455      656D00
 2456              	.LASF9:
 2457 039f 705F7265 		.ascii	"p_refs\000"
 2457      667300
 2458              	.LASF3:
 2459 03a6 705F6374 		.ascii	"p_ctx\000"
 2459      7800
 2460              	.LASF88:
 2461 03ac 6E657874 		.ascii	"nextmem\000"
 2461      6D656D00 
 2462              	.LASF95:
 2463 03b4 5F636F72 		.ascii	"_core_init\000"
 2463      655F696E 
 2463      697400
 2464              	.LASF94:
 2465 03bf 6368436F 		.ascii	"chCoreAllocI\000"
 2465      7265416C 
 2465      6C6F6349 
 2465      00
 2466              	.LASF60:
 2467 03cc 6D5F6F77 		.ascii	"m_owner\000"
 2467      6E657200 
 2468              	.LASF16:
 2469 03d4 705F6D70 		.ascii	"p_mpool\000"
 2469      6F6F6C00 
 2470              	.LASF64:
 2471 03dc 76697274 		.ascii	"virtual_timer\000"
 2471      75616C5F 
 2471      74696D65 
 2471      7200
ARM GAS  /tmp/ccNhnR6l.s 			page 61


 2472              	.LASF74:
 2473 03ea 76746C69 		.ascii	"vtlist\000"
 2473      737400
 2474              	.LASF36:
 2475 03f1 6D73675F 		.ascii	"msg_t\000"
 2475      7400
 2476              	.LASF72:
 2477 03f7 63685F73 		.ascii	"ch_system\000"
 2477      79737465 
 2477      6D00
 2478              	.LASF93:
 2479 0401 2F686F6D 		.ascii	"/home/joerg/repos/chibios-projects/ChibiOS-RT/demos"
 2479      652F6A6F 
 2479      6572672F 
 2479      7265706F 
 2479      732F6368 
 2480 0434 2F53544D 		.ascii	"/STM32/RT-STM32F103-OLIMEX_STM32_P103\000"
 2480      33322F52 
 2480      542D5354 
 2480      4D333246 
 2480      3130332D 
 2481              	.LASF50:
 2482 045a 725F6F6C 		.ascii	"r_older\000"
 2482      64657200 
 2483              	.LASF45:
 2484 0462 74687265 		.ascii	"threads_list_t\000"
 2484      6164735F 
 2484      6C697374 
 2484      5F7400
 2485              		.comm	__gnu_lto_v1,1,1
 2486              		.ident	"GCC: (GNU Tools for ARM Embedded Processors) 4.7.4 20130913 (release) [ARM/embedded-4_7-br
ARM GAS  /tmp/ccNhnR6l.s 			page 62


DEFINED SYMBOLS
                            *ABS*:00000000 chmemcore.c
     /tmp/ccNhnR6l.s:260    .text._core_init:00000000 $t
     /tmp/ccNhnR6l.s:266    .text._core_init:00000000 _core_init
     /tmp/ccNhnR6l.s:468    .bss.nextmem:00000000 .LANCHOR0
     /tmp/ccNhnR6l.s:461    .bss.endmem:00000000 .LANCHOR1
     /tmp/ccNhnR6l.s:296    .text._core_init:00000028 $d
     /tmp/ccNhnR6l.s:301    .text.chCoreAlloc:00000000 $t
     /tmp/ccNhnR6l.s:307    .text.chCoreAlloc:00000000 chCoreAlloc
     /tmp/ccNhnR6l.s:379    .text.chCoreAlloc:0000002c $d
     /tmp/ccNhnR6l.s:385    .text.chCoreAllocI:00000000 $t
     /tmp/ccNhnR6l.s:391    .text.chCoreAllocI:00000000 chCoreAllocI
     /tmp/ccNhnR6l.s:427    .text.chCoreAllocI:00000020 $d
     /tmp/ccNhnR6l.s:433    .text.chCoreStatus:00000000 $t
     /tmp/ccNhnR6l.s:439    .text.chCoreStatus:00000000 chCoreStatus
     /tmp/ccNhnR6l.s:460    .bss.endmem:00000000 $d
     /tmp/ccNhnR6l.s:464    .bss.endmem:00000000 endmem
     /tmp/ccNhnR6l.s:467    .bss.nextmem:00000000 $d
     /tmp/ccNhnR6l.s:471    .bss.nextmem:00000000 nextmem
                            *COM*:00000001 __gnu_lto_v1
                     .debug_frame:00000010 $d
     /tmp/ccNhnR6l.s:300    .text._core_init:0000002c $t
     /tmp/ccNhnR6l.s:384    .text.chCoreAlloc:00000034 $t
     /tmp/ccNhnR6l.s:432    .text.chCoreAllocI:00000028 $t

UNDEFINED SYMBOLS
__heap_end__
__heap_base__
