ARM GAS  /tmp/cczmZGAv.s 			page 1


   1              		.syntax unified
   2              		.cpu cortex-m3
   3              		.fpu softvfp
   4              		.eabi_attribute 20, 1
   5              		.eabi_attribute 21, 1
   6              		.eabi_attribute 23, 3
   7              		.eabi_attribute 24, 1
   8              		.eabi_attribute 25, 1
   9              		.eabi_attribute 26, 1
  10              		.eabi_attribute 30, 2
  11              		.eabi_attribute 34, 1
  12              		.eabi_attribute 18, 4
  13              		.thumb
  14              		.file	"chmempools.c"
  15              		.text
  16              	.Ltext0:
  17              		.section	.gnu.lto_.jmpfuncs.b41347db75126108,"",%progbits
  18 0000 789C6362 		.ascii	"x\234cb`d`g\300\016$\2404\033\003;#;\023##C=\003\003"
  18      60646067 
  18      C00E24A0 
  18      341B033B 
  18      233B1323 
  19 0019 33846261 		.ascii	"3\204bafef\000\000\023a\001N"
  19      66656600 
  19      00136101 
  19      4E
  20              		.text
  21              		.section	.gnu.lto_.inline.b41347db75126108,"",%progbits
  22 0000 789C6362 		.ascii	"x\234cb`d\340e\300\016\212\2414\033\020\2612201\357"
  22      6064E065 
  22      C00E8AA1 
  22      341B10B1 
  22      32323031 
  23 0015 1067E0BC 		.ascii	"\020g\340\274a\306\004\322\362\022H0\011\366\337\343"
  23      61C604D2 
  23      F2124830 
  23      09F6DFE3 
  24 0025 62E09CDB 		.ascii	"b\340\234\333\303\304\304\300\304 \310\005\024\341\233"
  24      C3C4C4C0 
  24      C420C805 
  24      14E19B
  25 0034 E6CCC035 		.ascii	"\346\314\3005\303\200\211\201U\220\201\201q\202\037"
  25      C3808981 
  25      55908181 
  25      71821F
  26 0043 3383300F 		.ascii	"3\2030\017PXh[\022\2120\013\232\201\254\014\034\354"
  26      5058685B 
  26      128A300B 
  26      9A81AC0C 
  26      1CEC
  27 0055 403EFB0D 		.ascii	"@>\373\0153\010\237\001\000\325\025\020e"
  27      33089F01 
  27      00D51510 
  27      65
  28              		.text
  29              		.section	.gnu.lto_.pureconst.b41347db75126108,"",%progbits
  30 0000 789C6362 		.ascii	"x\234cb`d`f``\340e\200\0006\006)F+&)f+\026)V+\000\007"
ARM GAS  /tmp/cczmZGAv.s 			page 2


  30      60646066 
  30      6060E065 
  30      80003606 
  30      29462B26 
  31 001d EA0125   		.ascii	"\352\001%"
  32              		.text
  33              		.section	.gnu.lto_chPoolObjectInit.b41347db75126108,"",%progbits
  34 0000 789C7591 		.ascii	"x\234u\2211K\003A\020\205\337\233\275H\032\3016]\300"
  34      314B0341 
  34      1085DF9B 
  34      BD481AC1 
  34      365DC0
  35 0013 60612087 		.ascii	"`a \207\330\370\023\004\253\010\202M\2648\017\014\030"
  35      D8F81304 
  35      AB08824D 
  35      B4380F0C 
  35      18
  36 0024 2EDC8985 		.ascii	".\334\211\205\2059\243? X\231\303B\214XZX\246\321\302"
  36      8539A33F 
  36      205899C3 
  36      428C585A 
  36      58A6D1C2 
  37 0038 4282C4C6 		.ascii	"B\202\304\306\322\302\302\377\241\263wF\016bfwx\003"
  37      D2C2C2FF 
  37      A1B37746 
  37      0E626677 
  37      7803
  38 004a FBBE1976 		.ascii	"\373\276\031vW@]\323Q\322|\320\203UU\032Pzc\340\264"
  38      57405DD3 
  38      51D27CD0 
  38      8355551A 
  38      507A63E0 
  39 005f 2CA42D14 		.ascii	",\244-\024\351\010;[\0319\272\032\274\361#\231{\224"
  39      E9083B5B 
  39      1939BA1A 
  39      BCF12399 
  39      7B94
  40 0071 A7CFEF4E 		.ascii	"\247\317\357N\005\2038\276\350\235\305\353>!X$v\211"
  40      058338BE 
  40      E89DC5EB 
  40      3E215824 
  40      7689
  41 0083 AFFE504A 		.ascii	"\257\376PJ\360I\224aU\340((y\257\021,\245\336\313\371"
  41      F0499461 
  41      55E02828 
  41      79AF112C 
  41      A5DECBF9 
  42 0097 69A71606 		.ascii	"i\247\026\006y\267#\250\246\356\227\225\177\335\216"
  42      79B723A8 
  42      A6EE9795 
  42      7FDD8E
  43 00a6 2650241B 		.ascii	"&P$\033\274f\005\242z\243jToU5\0128\217\343\0056\323"
  43      BC6605A2 
  43      7AA36A54 
  43      6F55350A 
  43      388FE305 
  44 00bc 2E69D4AD 		.ascii	".i\324\255\332\353mj\037[\230\021\272k\317\311I\203"
ARM GAS  /tmp/cczmZGAv.s 			page 3


  44      DAEB6D6A 
  44      1F5B9811 
  44      BA6BCFC9 
  44      4983
  45 00ce 772CA08A 		.ascii	"w,\240\212e\237\005\223\240O\237s\342\221\245t\010\260"
  45      659F0593 
  45      A04F9F73 
  45      E291A574 
  45      08B0
  46 00e0 ADB9C3BF 		.ascii	"\255\271\303\277\227SW\366.\350n\274&C\346p3\033\377"
  46      975357F6 
  46      2EE86EBC 
  46      2643E670 
  46      331BFF
  47 00f3 E53D3BDB 		.ascii	"\345=;\333\222\357\311}\236tf\2232!\0150\206\375\211"
  47      92EFC97D 
  47      9E746693 
  47      32210D30 
  47      86FD89
  48 0106 8C9B44DD 		.ascii	"\214\233D\335\366\326\353X_\271Vs\263\035Dnx\350F\241"
  48      F6D6EB58 
  48      5FB95673 
  48      B31D446E 
  48      78E846A1 
  49 011a E77AFB2D 		.ascii	"\347z\373-\277\325\016\202\203\250\346AZm'j\036\373"
  49      BFD50E82 
  49      83A8E641 
  49      5A6D276A 
  49      1EFB
  50 012c C576181C 		.ascii	"\305v\030\0345\367\374\360\007'\272_\257"
  50      35F7FCF0 
  50      0727BA5F 
  50      AF
  51              		.text
  52              		.section	.gnu.lto_chPoolLoadArray.b41347db75126108,"",%progbits
  53 0000 789C9555 		.ascii	"x\234\225UQH\024A\030\376\377\231\335\2733\205\354\321"
  53      51481441 
  53      18FEFF99 
  53      DDBB3385 
  53      ECD1
  54 0012 023BCCC2 		.ascii	"\002;\314\302L<\337\012\"(\204\320\207{\360,\010a\023"
  54      4C3CDF0A 
  54      222884D0 
  54      877BF02C 
  54      086113
  55 0025 DD36CEF0 		.ascii	"\3356\316\360\274\343N\305^\362R\037\"\022$\012,\024"
  55      BCE34EC5 
  55      5EF2521F 
  55      2212240A 
  55      2C14
  56 0037 324BCA94 		.ascii	"2K\312\224\320\250 \310\2422\301L\202D|\210\020\024"
  56      D0A820C8 
  56      A232C14C 
  56      82447C88 
  56      1014
  57 0049 021FA387 		.ascii	"\002\037\243\207|\311\376\231\331;\357\274\325\256\271"
  57      7CC9FE99 
ARM GAS  /tmp/cczmZGAv.s 			page 4


  57      D93BEFBC 
  57      D5AEB9
  58 0058 DBFD6777 		.ascii	"\333\375gw\276\377\373\377\371f\346_\006H\277\314v\202"
  58      BEFFFBFF 
  58      F966E65F 
  58      0648BFCC 
  58      7682
  59 006a AEE36E80 		.ascii	"\256\343n\200/d\321\005\310\372\346\001\256z\031j\252"
  59      2F64D105 
  59      C8FAE601 
  59      AE7A196A 
  59      AA
  60 007b C35567C8 		.ascii	"\303Ug\310\2531~c\006 ^\242\367\270!^\241#\212\367\304"
  60      AB317E63 
  60      06205EA2 
  60      F7B8215E 
  60      A1238AF7 
  61 0090 D9C9B8A6 		.ascii	"\331\311\270\246c\347Y\311\316\212`(\036\277\331\367"
  61      63E759C9 
  61      CE8A6028 
  61      1EBFD9F7 
  62 00a0 BEABAA6B 		.ascii	"\276\253\252kycc\277%\336\326#\314.\255\344\025\200"
  62      796363BF 
  62      25DED623 
  62      CC2EADE4 
  62      1580
  63 00b2 85085E10 		.ascii	"\205\010^\020\226\201\226\236G\206\037\227~s\343\223"
  63      9681969E 
  63      47861F97 
  63      7E73E393 
  64 00c2 B8A3DFC2 		.ascii	"\270\243\337\302\300O\376m\320\365\206\275]\336\350"
  64      C04FFE6D 
  64      D0F586BD 
  64      5DDEE8
  65 00d1 2C866141 		.ascii	",\206aA\322\035\257\262Pcp\000\005\305\302\300\013\226"
  65      D21DAFB2 
  65      50637000 
  65      05C5C2C0 
  65      0B96
  66 00e3 49C152B1 		.ascii	"I\301R\261:\203C\022\373;\327!\030\215C*\332\305\240"
  66      3A834312 
  66      FB3BD721 
  66      188D432A 
  66      DAC5A0
  67 00f6 44A2FB77 		.ascii	"D\242\373w;\242]ti\260\007\301\300\007X\014\214\354"
  67      3BA25D74 
  67      69B007C1 
  67      C007580C 
  67      8CEC
  68 0108 08598EEA 		.ascii	"\010Y\216\352YC\365\254\223\275O\326E\343\367\260\010"
  68      5943F5AC 
  68      93BD4FD6 
  68      45E3F7B0 
  68      08
  69 0119 DC36DE63 		.ascii	"\3346\336c\343\363\310\016\321{j:\364\304\343\371\330"
  69      E3F3C80E 
  69      D17B6A3A 
ARM GAS  /tmp/cczmZGAv.s 			page 5


  69      F4C4E3F9 
  69      D8
  70 012a 24A3CA56 		.ascii	"$\243\312V#,-D\015\205%\313\003\244\027\322\372\360"
  70      232C2D44 
  70      0D8525CB 
  70      03A417D2 
  70      FAF0
  71 013c 8FC030A9 		.ascii	"\217\3000\251&\245k\253\251\0318LPr\017\356(\247Is\205"
  71      26A56BAB 
  71      A919384C 
  71      50720FEE 
  71      28A74973 
  72 0151 6D3848A5 		.ascii	"m8H\245R\225\301?(PQ\250\254\231\201\2434\013\003\037"
  72      5295C13F 
  72      285051A8 
  72      AC9981A3 
  72      340B031F 
  73 0165 CBFB2311 		.ascii	"\313\373#\021 e\301\035R\304?\243_W\035\226\314)M\003"
  73      2065C11D 
  73      52C43FA3 
  73      5F571D96 
  73      CC294D03 
  74 0179 C7A89B99 		.ascii	"\307\250\233\231\252\201O\024\327\177\345\012\351F\221"
  74      AA814F14 
  74      D77FE50A 
  74      E94691
  75 0188 6F6919B1 		.ascii	"oi\031\261\334\014\316\010Y\330Z\357\372\276\035\243"
  75      DC0CCE08 
  75      59D85AEF 
  75      FABE1DA3 
  76 0198 89976E1A 		.ascii	"\211\227n\032\004\370\004]8y\353\366\312\261\255\001"
  76      04F8045D 
  76      3879EBF6 
  76      CAB1AD01 
  77 01a8 9FA60514 		.ascii	"\237\246\005\024Gv\202V\226\326X\336\000\012\341\035"
  77      47768256 
  77      96D658DE 
  77      000AE11D 
  78 01b8 0EC6FB4F 		.ascii	"\016\306\373OZ\350I#L\016O\333\3039\222@I4\341$QRn6"
  78      5AE84923 
  78      4C0E4FDB 
  78      C3399240 
  78      4934E124 
  79 01d0 BBFE9067 		.ascii	"\273\376\220g\253\266#URm\226\235\332\253cS\266\340"
  79      ABB62355 
  79      526D969D 
  79      DAAB6353 
  79      B6E0
  80 01e2 98C1C519 		.ascii	"\230\301\305\031|\306,vYR\261\2114\305\014\234\"N\031"
  80      7CC62C76 
  80      5952B189 
  80      34C50C9C 
  80      224E19
  81 01f5 6816BAEA 		.ascii	"h\026\272\352D\3710\3605AL\314;\002\245\304\317\357"
  81      44F930F0 
  81      35414CCC 
  81      3B02A5C4 
ARM GAS  /tmp/cczmZGAv.s 			page 6


  81      CFEF
  82 0207 C21DB470 		.ascii	"\302\035\264p\027\243Y\025\310\223\012\2620\236\337"
  82      17A35915 
  82      C8930AB2 
  82      309EDF
  83 0216 AC8EE459 		.ascii	"\254\216\344Y}MW~iN\271\344$\313\021O:\321=(\247\226"
  83      7D4D577E 
  83      694EB9E4 
  83      24CB114F 
  83      3AD13D28 
  84 022c A7FC16C6 		.ascii	"\247\374\026\306\25788:G;\227\305\016\234\310f\007\032"
  84      AF38383A 
  84      473B97C5 
  84      0E9CC866 
  84      071A
  85 023e F84C1DEE 		.ascii	"\370L\035\356\265\336\347\337\313\262\330\203\260\355"
  85      B5DEE7DF 
  85      CBB2D883 
  85      B0ED
  86 024c 1E24B966 		.ascii	"\036$\271f\345A\235\331n'\032\370\222:\233<\366\326"
  86      E5419DD9 
  86      6E271AF8 
  86      923A9B3C 
  86      F6D6
  87 025e 33F01516 		.ascii	"3\360\025\026&\344\253\243z_\254\016\273\211.)\205\313"
  87      26E4ABA3 
  87      7A5FAC0E 
  87      BB892E29 
  87      85CB
  88 0270 498AA51C 		.ascii	"I\212\245\034\251\005\021\364\347\330\276\335\327yG"
  88      A90511F4 
  88      E7D8BEDD 
  88      D77947
  89 027f C2D34DEA 		.ascii	"\302\323M\352\220\277\024\310\256\035\252F\232\"6a\257"
  89      90BF14C8 
  89      AE1DAA46 
  89      9A223661 
  89      AF
  90 0290 F1B9C1BD 		.ascii	"\361\271\301\275\011\264\307DY5\\R\341T\227\021\351"
  90      09B4C744 
  90      59355C52 
  90      E1549711 
  90      E9
  91 02a1 E2515309 		.ascii	"\342QS\011Pd\361\355\262Keb\224%\352^\"\002u\247\241"
  91      5064F1ED 
  91      B24B6562 
  91      9425EA5E 
  91      220275A7 
  92 02b6 E707FE1A 		.ascii	"\347\007\376\032\270\230\210`\323o\266E\240\3748\243"
  92      B8988860 
  92      D36FB645 
  92      A0FC38A3 
  93 02c6 9B9B7F18 		.ascii	"\233\233\177\030,\\\004\232\234&\036=\"1\021K\227\345"
  93      2C5C049A 
  93      9C261E3D 
  93      2231114B 
  93      97E5
ARM GAS  /tmp/cczmZGAv.s 			page 7


  94 02d8 791E903E 		.ascii	"y\036\220>R)\325\017D\011G1&\304\363\226\227\373\324"
  94      5229D50F 
  94      44094731 
  94      26C4F396 
  94      97FBD4
  95 02eb 3F1CF345 		.ascii	"?\034\363E[}\261\250\3513\203!+\024\011\207\233c\345"
  95      5B7DB1A8 
  95      E9338321 
  95      2B140987 
  95      9B63E5
  96 02fe 26B05004 		.ascii	"&\260P\004#\330\242\205\033/E\212\267\200\233Z\314\346"
  96      23D8A285 
  96      1B2F458A 
  96      B7809B5A 
  96      CCE6
  97 0310 B60B56AA 		.ascii	"\266\013V\252C\020\364\366\206\3466\353\360\026h$\034"
  97      4310F4F6 
  97      86E636EB 
  97      F0166824 
  97      1C
  98 0321 6D8DF94E 		.ascii	"m\215\371N\005\374\225\376\016\302\233\341\250U\337"
  98      05FC95FE 
  98      0EC29BE1 
  98      A855DF
  99 0330 7E3444F8 		.ascii	"~4D\370\262T\244\325\321\352\253\364\327V\327nr\013"
  99      B254A4D5 
  99      D1EAABF4 
  99      D756D76E 
  99      720B
 100 0342 A4193ADD 		.ascii	"\244\031:\335\326b\0228\337_\033\36066\304\254H\264"
 100      D6621238 
 100      DF5F1BF0 
 100      3636C4AC 
 100      48B4
 101 0354 A9CC7BB0 		.ascii	"\251\314{\260\002X\024\334\024<\034\275\014<\022\214"
 101      025814DC 
 101      143C1CBD 
 101      0C3C128C 
 102 0364 FC05DB0C 		.ascii	"\374\005\333\014\222\377"
 102      92FF
 103              		.text
 104              		.section	.gnu.lto_chPoolAllocI.b41347db75126108,"",%progbits
 105 0000 789C9552 		.ascii	"x\234\225RAk\023Q\020\236\231\267o7\253\2509\011\236"
 105      416B1351 
 105      109E99B7 
 105      6F37ABA8 
 105      39099E
 106 0013 0CB58752 		.ascii	"\014\265\207R!\361\017\364\256xj\300\213\220\012.+\265"
 106      21F10FF4 
 106      AE786AC0 
 106      8B900A2E 
 106      2BB5
 107 0025 18121A11 		.ascii	"\030\022\032\021\361\2225\366\007\224\236\252\245]j"
 107      F19235F6 
 107      07949EAA 
 107      A55D6A
 108 0034 45F6E4B9 		.ascii	"E\366\344\271'\025\254\036J\351ID\360R\360`\017\342"
ARM GAS  /tmp/cczmZGAv.s 			page 8


 108      2715AC1E 
 108      4AE94944 
 108      F052F060 
 108      0FE2
 109 0046 A57A9160 		.ascii	"\245z\221`\234\231\315\213FS\261\273\233|og\347\373"
 109      9C99CD8B 
 109      4653B1BB 
 109      9B7C6F67 
 109      E7FB
 110 0058 BE79338F 		.ascii	"\276y3\217\000\371\376\373\272\314\277\017\006`\222"
 110      00F9FEFB 
 110      BACCBF0F 
 110      066092
 111 0067 1103405A 		.ascii	"\021\003@Z\334\005\270_\"2\253S\220Lx\007EH.\030\364"
 111      DC05B85F 
 111      2232AB53 
 111      904C7807 
 111      45482E18 
 112 007c F3B04776 		.ascii	"\363\260GvE\302\3767\011[\027\366\021e\301\006m2\236"
 112      45C2FE37 
 112      095B17F6 
 112      1165C106 
 112      6D329E
 113 008f F5B17D45 		.ascii	"\365\261}E\275\354\030\254'\311\322\342\253\316\305"
 113      BDEC18AC 
 113      27C9D2E2 
 113      ABCEC5
 114 009e CE5EAF77 		.ascii	"\316^\257w6\226\3505\204\355\037\037O\237\201\030\021"
 114      3696E835 
 114      84ED1F1F 
 114      4F9F8118 
 114      11
 115 00af 4A2048E0 		.ascii	"J H\340\015Wu\010o?8\032\313(\253\233\336;\032\315S"
 115      0D577508 
 115      6F3F381A 
 115      CB28AB9B 
 115      DE3B1ACD 
 116 00c4 DA56F605 		.ascii	"\332V\366\005\377\207\367 q<Kp\016\225\232\336\370'"
 116      FF87F720 
 116      713C4B70 
 116      0E959ADE 
 116      F827
 117 00d6 B3BBF69C 		.ascii	"\263\273\366\234\336f\376\013z\271\327k\217\303F_&F"
 117      DE66FE0B 
 117      7AB9D76B 
 117      8FC3465F 
 117      2646
 118 00e8 9F604215 		.ascii	"\237`B\025\272k\317h\204\004g\300)\204\032>\3011 \254"
 118      BA6BCF68 
 118      840467C0 
 118      29841A3E 
 118      C13120AC 
 119 00fc E1531C07 		.ascii	"\341S\034\007\323\177\267\214\353\214>\343c\306\002"
 119      D37FB78C 
 119      EB8C3EE3 
 119      63C602
 120 010b E30663D8 		.ascii	"\343\006c\330\377.\003\201\205$)R\376~S\235\364\232"
ARM GAS  /tmp/cczmZGAv.s 			page 9


 120      FF2E0381 
 120      85242952 
 120      FE7E539D 
 120      F49A
 121 011d 16941156 		.ascii	"\026\224\021V\331I\026f\033:W?\247wj\230\241\205\010"
 121      D9491666 
 121      1B3A573F 
 121      A7776A98 
 121      A18508
 122 0130 CD7998E4 		.ascii	"\315y\230\344)\230G\360\020c\014(B-\317g\332\262\345"
 122      299847F0 
 122      10630C28 
 122      422DCF67 
 122      DAB2E5
 123 0143 BF995F67 		.ascii	"\277\231_g\353\015\320{\223\363r\237H\346\360\032\026"
 123      EB0DD07B 
 123      93F3729F 
 123      48E6F01A 
 123      16
 124 0154 3EE1EC40 		.ascii	">\341\354@N\310v\250'U\311Z\235R\343\257\351wt\251v"
 124      4EC876A8 
 124      2755C95A 
 124      9D52E3AF 
 124      E97774A9 
 125 0169 C8B9407D 		.ascii	"\310\271@}\262\243\315\340`\311\314K\3136\347\035^\356"
 125      B2A3CDE0 
 125      60C9CC4B 
 125      CB36E71D 
 125      5EEE
 126 017b DDDFAB8D 		.ascii	"\335\337\253\215\\\021U\031\372AQ\335\371\2748s_u\302"
 126      5C115519 
 126      FA4151DD 
 126      F9BC3873 
 126      5F75C2
 127 018e 513AB939 		.ascii	"Q:\27199s\335\337\246\031\020%-\374c\203\354\225\236"
 127      3973DDDF 
 127      A6191025 
 127      2DFC6383 
 127      EC959E
 128 01a1 500B395B 		.ascii	"P\0139[.\265\240\036\307Fy\354\007j\302\215\331\014"
 128      2EB5A01E 
 128      C74679EC 
 128      076AC28D 
 128      D90C
 129 01b3 546307BC 		.ascii	"Tc\007\274l\340\021F\222\304\0021\036\327\266\303p\327"
 129      6CE01146 
 129      92C40231 
 129      1ED7B6C3 
 129      70D7
 130 01c5 43E7EBE7 		.ascii	"C\347\353\347#\345\014\336\267\373\312\313]\300\235"
 130      23E50CDE 
 130      B7FBCACB 
 130      5DC09D
 131 01d4 ECA493D3 		.ascii	"\354\244\223\323\236\274\003\344\006\033\236<\203'\""
 131      9EBC03E4 
 131      061B9E3C 
 131      832722
ARM GAS  /tmp/cczmZGAv.s 			page 10


 132 01e3 762B9B93 		.ascii	"v+\233\223\003\202*\"\373-\225\313\225\374i\264*\363"
 132      03822A22 
 132      FB2D95CB 
 132      95FC69B4 
 132      2AF3
 133 01f5 B72BADF9 		.ascii	"\267+\255\371\250\022\315\326\343z\263\321\270\325*"
 133      A812CDD6 
 133      E37AB3D1 
 133      B8D52A
 134 0204 47E035AE 		.ascii	"G\3405\256\3175\251\336\374\011J\225\3175"
 134      CF35A9DE 
 134      FC094A95 
 134      CF35
 135              		.text
 136              		.section	.gnu.lto_chPoolAlloc.b41347db75126108,"",%progbits
 137 0000 789C9554 		.ascii	"x\234\225TML\023Q\020\236y\373SJ[\323\203\027.\330\020"
 137      4D4C1351 
 137      109E79FB 
 137      534A5BD3 
 137      83172ED8 
 138 0015 4C504897 		.ascii	"LPH\227\233^H4$Fbz\260\304\213\311J`]\003\204\322\246"
 138      9B5E4834 
 138      2446627A 
 138      B0C48BC9 
 138      4A605D03 
 139 002c 05825E58 		.ascii	"\005\202^X+\007/&\304\304\004\177\260\"ZK11\361/\306"
 139      2B072F26 
 139      C4C4047F 
 139      B0225A4B 
 139      3131F12F 
 140 0041 8B1AD183 		.ascii	"\213\032\321\203\030N\306xB\022C\274\020.\340\305\230"
 140      184EC678 
 140      421243BC 
 140      102EE0C5 
 140      98
 141 0052 E0BCB7BB 		.ascii	"\340\274\267\273-K)\201\327v\347u\336\314|\363\315\233"
 141      2D4B2981 
 141      D776E775 
 141      DECC7CF3 
 141      CD9B
 142 0064 5906489F 		.ascii	"Y\006H\237\312u\206~\250\002\314p\351\003d\023\213\000"
 142      CA75867E 
 142      A802CC70 
 142      E9036413 
 142      8B00
 143 0076 57238C49 		.ascii	"W#\214ISm`5\311\353a\260Z%Tm\265\314\224\273\\\255\376"
 143      536D6035 
 143      C9EB61B0 
 143      5A25546D 
 143      B5CC94BB 
 144 008d E16AC555 		.ascii	"\341j\305U\253\210|C\000cL\222\025\025\307\316\011,"
 144      AB887C43 
 144      00634C92 
 144      1515C7CE 
 144      092C
 145 009f B901A62D 		.ascii	"\271\001\246-\353\346\3045\353tvys\363\220\211\300\200"
 145      EBE6C435 
ARM GAS  /tmp/cczmZGAv.s 			page 11


 145      EB747679 
 145      73F39089 
 145      C080
 146 00b1 2174212C 		.ascii	"!t!,\345V\202u`\"B\004\270d {\023s\\?f]W\011\270\337"
 146      E5568275 
 146      60224204 
 146      B864207B 
 146      13735C3F 
 147 00cb 7C610DF7 		.ascii	"|a\015\367\347'\013\277\177\271+\373sS\204\333F\356"
 147      E7270BBF 
 147      7FB92BFB 
 147      735384DB 
 147      46EE
 148 00dd EFEE701B 		.ascii	"\357\356p\033\263o\331jQ}\307\336/o\2165\302\214C\327"
 148      B36FD96A 
 148      517DC7DE 
 148      2F6F8E35 
 148      C28C43D7 
 149 00f1 44954193 		.ascii	"D\225A\223`\2721[d;\204 \0138\210\250\343cl\204\032"
 149      60BA315B 
 149      643B8420 
 149      0B3888A8 
 149      E3636C84 
 150 0106 D0F10136 		.ascii	"\320\361\0016\200\237\344#\222\265$gH\006H>$\031t\316"
 150      809FE423 
 150      92B52467 
 150      4806483E 
 150      241974CE 
 151 011a 438EA4A5 		.ascii	"C\216\244\245\300\270e\205\321\376\337\345\\\355Y.\371"
 151      C0B86585 
 151      D1FEDFE5 
 151      5CED592E 
 151      F9
 152 012b 55C40986 		.ascii	"U\304\011\206o\244\317To\333\324\361\240\010O8\271\355"
 152      6FA4CF54 
 152      6FDBD4F1 
 152      A0084F38 
 152      B9ED
 153 013d CCCB77E4 		.ascii	"\314\313w\344c\320,2\317/\374\\\331)\365\362\342J\037"
 153      63D02C32 
 153      CF2FFC5C 
 153      D929F5F2 
 153      E24A1F
 154 0150 1D022C40 		.ascii	"\035\002,@\026\327n\334\372u\334\003F\351\025)=\035"
 154      16D76EDC 
 154      FA75DC03 
 154      46E91529 
 154      3D1D
 155 0162 0B1E48DE 		.ascii	"\013\036H\336\212\327\351B)G\361\000\250\207\3338eM"
 155      8AD7E942 
 155      2947F100 
 155      A887DB38 
 155      654D
 156 0174 9E30B1C6 		.ascii	"\2360\261\306\023\266t|\3179\366\213\000\234\325\016"
 156      13B6747C 
 156      CF39F68B 
 156      009CD50E 
ARM GAS  /tmp/cczmZGAv.s 			page 12


 157 0184 99AB3AE6 		.ascii	"\231\253:\346)I\336^\367W\244]37\350\010\276@\366\374"
 157      2949DE5E 
 157      F757A45D 
 157      3337E808 
 157      BE40F6FC 
 158 0198 6A6EC4C9 		.ascii	"jn\304\311\265\262Yu\234\266\303\315\347.\355\032\255"
 158      B5B25975 
 158      9CB6C3CD 
 158      E72EED1A 
 158      AD
 159 01a9 C4F68560 		.ascii	"\304\366\205`\353-\260\2015\315p\224:J\272C,M\254e\004"
 159      EB2DB081 
 159      35CD7094 
 159      3A4ABA43 
 159      2C4DAC65 
 160 01be 5E271A00 		.ascii	"^'\032\000\304L^\340\217\325\\\036]n?$\035_R\014\035"
 160      C44C5EE0 
 160      8FD55C1E 
 160      5D6E3F24 
 160      1D5F520C 
 161 01d3 5F513C83 		.ascii	"_Q<\203\327\344\023\214\377\306^[M\012\356\356M!\316"
 161      D7E4138C 
 161      FFC65E5B 
 161      4D0AEEEE 
 161      4D21CE
 162 01e6 0764AA4D 		.ascii	"\007d\252M\342\234x\327\272\246~\017v\2009\316J\011"
 162      E29C78D7 
 162      BAA67E0F 
 162      768039CE 
 162      4A09
 163 01f8 BB14873C 		.ascii	"\273\024\207<;&\025\333o\017\011\217\012j~\027\235*"
 163      3B2615DB 
 163      6F0F098F 
 163      0A6A7E17 
 163      9D2A
 164 020a B21E16E8 		.ascii	"\262\036\026\3504j.x\255\210\023\254\036\207\271\340"
 164      346A2E78 
 164      AD8813AC 
 164      1E87B9E0 
 165 021a 82DF1BA9 		.ascii	"\202\337\033\251\344\310\315\202\333\010R\316\271\220"
 165      E4C8CD82 
 165      DB0852CE 
 165      B990
 166 0228 80E06F01 		.ascii	"\200\340o\001\3274 0B\3251$7\302W\220\013%\204 \201"
 166      D7342030 
 166      42D53124 
 166      37C25790 
 166      0B258420 
 167 023d 70020113 		.ascii	"p\002\001\023\017\210\242\203\267\346A\027U-\017\222"
 167      0F88A283 
 167      B7E64117 
 167      552D0F92 
 168 024d 8EAFB758 		.ascii	"\216\257\267X\204\204\333\267b\217}\341\245\311\204"
 168      8484DBB7 
 168      628F7DE1 
 168      A5C984
 169 025c CA99AB32 		.ascii	"\312\231\2532zbU\316\237\216sv\333\345\347\326\3674"
ARM GAS  /tmp/cczmZGAv.s 			page 13


 169      7A6255CE 
 169      9F8E7376 
 169      DBE5E7D6 
 169      F734
 170 026e 807C551D 		.ascii	"\200|U\035\300y\321\222\037\252\015\240\216\317hS\216"
 170      C079D192 
 170      1FAA0DA0 
 170      8ECF6853 
 170      8E
 171 027f E34C9C8E 		.ascii	"\343L\234\216\317\261^(\026\001\227\236*v\352\2024\300"
 171      CFB15E28 
 171      1601979E 
 171      2A76EA82 
 171      34C0
 172 0291 7708511B 		.ascii	"w\010Q\033I4:$d^,e\276\320\317_?(\212\305#\310\311\236"
 172      49343A24 
 172      645E2C65 
 172      BED0CF5F 
 172      3F288AC5 
 173 02a9 FE54241A 		.ascii	"\376T$\032\325\354o2\243\245\207\264L\332\320\214\336"
 173      D5EC6F32 
 173      A3A587B4 
 173      4CDAD08C 
 173      DE
 174 02ba 84994825 		.ascii	"\204\231H%\223\003\231\250\001,\221RF\272\007\206\315"
 174      930399A8 
 174      012C9152 
 174      46BA0786 
 174      CD
 175 02cb 23DB2C53 		.ascii	"#\333,S\311\364PF;\031\217\265\307F\311\305H\246\315"
 175      C9F45046 
 175      3B198FB5 
 175      C746C9C5 
 175      48A6CD
 176 02de AE916389 		.ascii	"\256\221c\211h/\264l\2654G\207\264\366XgG\247\3267h"
 176      682FB46C 
 176      B5344787 
 176      B4F65867 
 176      47A7D637 
 177 02f3 0C0C5F34 		.ascii	"\014\014_45ai$N\015\017\032d\034\216u\306#=\335\031"
 177      35616924 
 177      4E0D0F1A 
 177      641C8E75 
 177      C6233DDD 
 178 0308 3395EE6B 		.ascii	"3\225\356k\211\034n\005\226\006\037\341'\323\227\341"
 178      891C6E05 
 178      96061FE1 
 178      27D397E1 
 179 0318 3FBBD555 		.ascii	"?\273\325U\250"
 179      A8
 180              		.text
 181              		.section	.gnu.lto_chPoolFreeI.b41347db75126108,"",%progbits
 182 0000 789C7D91 		.ascii	"x\234}\2211K\303P\020\307\377w/)\202\010NB'K\025\204"
 182      314BC350 
 182      10C7FF77 
 182      2F298208 
 182      4E42274B 
ARM GAS  /tmp/cczmZGAv.s 			page 14


 183 0016 0AC9D7D0 		.ascii	"\012\311\327\320\261\202 B\024\014\201*\226\204\326"
 183      B1822042 
 183      140C812A 
 183      9684D6
 184 0025 D9C6EAE0 		.ascii	"\331\306\352\340X\334t\262\224\352\322.NN*\010\016E"
 184      58DC74B2 
 184      94EAD22E 
 184      4E4E2A08 
 184      0E45
 185 0037 3AB9081D 		.ascii	":\271\010\035:\370=\352\275\227\250--^\362\270\227\334"
 185      3AF83DEA 
 185      BD97A82D 
 185      2D5EF2B8 
 185      97DC
 186 0049 FDFEF7EE 		.ascii	"\375\376\367\356\036\203\344\231\266\254\254\005\006"
 186      1E83E499 
 186      B6ACAC05 
 186      06
 187 0056 1CF1A440 		.ascii	"\034\361\244@\334\350\003g9&\322\033AjL\265mCr\036\315"
 187      DCE80367 
 187      3926D21B 
 187      416A4CB5 
 187      6D43721E 
 188 006b 38BE6ABC 		.ascii	"8\276j\274\3267\352\303\321h9\320\177\367\011\275\317"
 188      D637EAC3 
 188      D16839D0 
 188      7FF709BD 
 188      CF
 189 007c F6521601 		.ascii	"\366R\026\001\021r\320\236aM\326H\271\363\370\227c\254"
 189      1172D09E 
 189      614DD648 
 189      B9F3F897 
 189      63AC
 190 008e 9046BF3A 		.ascii	"\220F\277:O\364/:\350\334\251A7\363\314/\303Qm\025\255"
 190      4FF42F3A 
 190      E8DCA941 
 190      37F3CC2F 
 190      C3516D15 
 191 00a3 542720C5 		.ascii	"T' \305X3\022\222\301\323\0224\236k1\012&\367q~F1\211"
 191      58331292 
 191      C1D31234 
 191      9E6B310A 
 191      26F7717E 
 192 00ba CB529823 		.ascii	"\313R\230#\362\250-\240\022\337\022o\301\243[\312\353"
 192      F2A82DA0 
 192      12DF126F 
 192      C1A35BCA 
 192      EB
 193 00cb 1C1B1771 		.ascii	"\034\033\027q\274\310\0365\345\373\320h\031+j\257\007"
 193      BCC81E35 
 193      E5FBD068 
 193      192B6AAF 
 193      07
 194 00dc B5256A7A 		.ascii	"\265%jz\243\336\300\272)\217\356\311F\222\357KE\364"
 194      A3DEC0BA 
 194      298FEEC9 
 194      4692EF4B 
ARM GAS  /tmp/cczmZGAv.s 			page 15


 194      45F4
 195 00ee 50DF7DEF 		.ascii	"P\337}\357>\244\001\237\254u\024d\020\352\006\327\024"
 195      3EA4019F 
 195      AC751464 
 195      10EA06D7 
 195      14
 196 00ff 90CD3EA9 		.ascii	"\220\315>\251\2549Fb{\177w%\344\346\245\235p\023PF "
 196      AC394662 
 196      7B7F7725 
 196      E4E6A59D 
 196      70135046 
 197 0114 333D9D55 		.ascii	"3=\235U2PJ\211|\302}tOg\200\023\325v\306\253\231\243"
 197      32504A89 
 197      7CC27D74 
 197      4F678013 
 197      D576C6AB 
 198 012a F64132F2 		.ascii	"\366A2\362\204\373\261\242\016H\177\322%r\216\343&o"
 198      84FBB1A2 
 198      0E487FD2 
 198      25728EE3 
 198      266F
 199 013c 58752B27 		.ascii	"Xu+'n\265\342\273~\251\034\224\2430<\256:>TT\212\270"
 199      6EB5E2BB 
 199      7EA91C94 
 199      A3303CAE 
 199      3A3E5454 
 200 0152 1C59E1C1 		.ascii	"\034Y\341\301Q\364\0151\221r*"
 200      51F40D31 
 200      91722A
 201              		.text
 202              		.section	.gnu.lto_chPoolFree.b41347db75126108,"",%progbits
 203 0000 789C8D53 		.ascii	"x\234\215SMh\023A\024~o6\351*z\350I\310\245]\374\003"
 203      4D681341 
 203      147E6F36 
 203      E92A7AE8 
 203      49C8A55D 
 204 0016 6DC97AD3 		.ascii	"m\311z\323\243R\220\366\220C\023\012\"\214\245]\007"
 204      A35290F6 
 204      9043130A 
 204      228CA55D 
 204      07
 205 0027 52C97697 		.ascii	"R\311v\227MR\352\305l\243\207^\204\"\010*\012\366'\261"
 205      4D52EAC5 
 205      6CA3875E 
 205      8422082A 
 205      0AF627B1 
 206 003b A2A15ABD 		.ascii	"\242\241Z\275\252\005\301CZz\362\342\311\202z\365\242"
 206      AA05C143 
 206      5A7AF2E2 
 206      C9827AF5 
 206      A2
 207 004c 172FC637 		.ascii	"\027/\3067\263K\223m\222\326Iv\3360\363\276\357}\357"
 207      B34B936D 
 207      92D64976 
 207      DE30F3BE 
 207      EF7DEF
 208 005f CD1B0648 		.ascii	"\315\033\006H\277\366\221\240o,\006\360\214,j\200la"
ARM GAS  /tmp/cczmZGAv.s 			page 16


 208      BFF691A0 
 208      6F2C06F0 
 208      8C2C6A80 
 208      6C61
 209 0071 1B60CE60 		.ascii	"\033`\316`\210rA\220\022\303\322\230B\342qX\364\375"
 209      88724190 
 209      12C3D298 
 209      42E27158 
 209      F4FD
 210 0083 7B0B1FCB 		.ascii	"{\013\037\313\303\345\235F\243_\310\335q\204\372\227"
 210      C3E59D46 
 210      A35FC8DD 
 210      7184FA97 
 211 0093 CAB10408 		.ascii	"\312\261\004\010D0@Z\006\261h\214\255\265%\355\367Z"
 211      4430405A 
 211      06B1688C 
 211      ADB525ED 
 211      F75A
 212 00a5 CF07B6B1 		.ascii	"\317\007\266\261\323(\235\204eIr\333\037\026\25018\201"
 212      D3289D84 
 212      654972DB 
 212      1F16A831 
 212      3881
 213 00b7 92823C58 		.ascii	"\222\202<X;\005\266\372\306\030\234V\276\253G:\004\243"
 213      3B05B6FA 
 213      C6189C56 
 213      BEAB473A 
 213      04A3
 214 00c9 73FA3438 		.ascii	"s\37248\212\310q\221\200\214\3542Y\0358>%\3454\342p"
 214      8AC87191 
 214      808CEC32 
 214      591D383E 
 214      25E534E2 
 215 00de C7F77B25 		.ascii	"\307\367{%\205\032\243\322\312$\323D\"\027\332'B\205"
 215      851AA3D2 
 215      CA24D344 
 215      2217DA27 
 215      4285
 216 00f0 4EA1E158 		.ascii	"N\241\341X\241\235\346\010+@\202\302\012\304\031\014"
 216      A19DE608 
 216      2B4082C2 
 216      0AC4190C 
 217 0100 2855D5CD 		.ascii	"(U\325\315\257?:\244\020\2514\271\323!\300&\224\361"
 217      AF3F3AA4 
 217      10A934B9 
 217      D321C026 
 217      94F1
 218 0112 E7DDFBDF 		.ascii	"\347\335\373\337.D\202\221\340U\022\312\261\032\011"
 218      2E448291 
 218      E05512CA 
 218      B11A09
 219 0121 29AF6D9E 		.ascii	")\257m\2362#\215j\002\350\203\207\370\304\177pQ`O\204"
 219      32238D6A 
 219      02E88387 
 219      F8C47F70 
 219      51604F84 
 220 0135 76F7F871 		.ascii	"v\367\370qx\254+\002\231U\007\345\032\307%\022)\357"
ARM GAS  /tmp/cczmZGAv.s 			page 17


 220      78AC2B02 
 220      995507E5 
 220      1AC72512 
 220      29EF
 221 0147 EF4F45DB 		.ascii	"\357OE\333W\271EG\335hb\034W\002\0328\200\203)\216\357"
 221      57B94547 
 221      DD68621C 
 221      57021A38 
 221      8083298E 
 222 015c 2FDF8735 		.ascii	"/\337\2075\3066.\322\277\202x0W\200g\034\327U\275^\253"
 222      C6362ED2 
 222      BF827830 
 222      5780671C 
 222      D755BD5E 
 223 0171 397A511C 		.ascii	"9zQ\034\337\322\256\012Z\207\362\325\255\332:\225\367"
 223      DFD2AE0A 
 223      5A87F2D5 
 223      ADDA3A95 
 223      F7
 224 0182 0DB958A8 		.ascii	"\015\271X\250\017\300Y\212\245=\2422\012<\304(\273\204"
 224      0FC0598A 
 224      A53DA232 
 224      0A3CC428 
 224      BB84
 225 0194 EA1D500F 		.ascii	"\352\035P\017\344Z\363\225\020rd>\036\340\"\240\303"
 225      E45AF395 
 225      1072643E 
 225      1EE022A0 
 225      C3
 226 01a5 0452970D 		.ascii	"\004R\227\015\273 \232\263*M=\300}\256\335\352\000\354"
 226      BB209AB3 
 226      2A4D3DC0 
 226      7DAEDDEA 
 226      00EC
 227 01b7 1CED4A4B 		.ascii	"\034\355JK}\3664`\227>\354\322\214\034\237\007wQ}\361"
 227      7DF63460 
 227      973EECD2 
 227      8C1C9F07 
 227      77517DF1 
 228 01cb EBBFBA11 		.ascii	"\353\277\272\021\366\353\306\015U\327w\335\272\221c"
 228      F6EBC60D 
 228      55D777DD 
 228      BA9163
 229 01da 8D164D9E 		.ascii	"\215\026M\236\260\3758\276\302>\265\261\015X\377+\242"
 229      B0FD38BE 
 229      C23EB5B1 
 229      0D58FF2B 
 229      A2
 230 01eb D24765A1 		.ascii	"\322Ge\241\350\255IW#\2314\203\277\2237\275\202\231"
 230      E8AD4957 
 230      23993483 
 230      BF9337BD 
 230      8299
 231 01fd F72CD3CA 		.ascii	"\367,\323\312\332\302v\035'\227OZ\300l7\346L\336p\343"
 231      DAC2761D 
 231      27974F5A 
 231      C06C37E6 
ARM GAS  /tmp/cczmZGAv.s 			page 18


 231      4CDE70E3 
 232 0211 3313B9A2 		.ascii	"3\023\271\2428\263\307\335u\274B\336\274\224N\015\245"
 232      38B3C7DD 
 232      75BC42DE 
 232      BC944E0D 
 232      A5
 233 0222 66096739 		.ascii	"f\011g9\236\030\2379o'\2630\330\352)f\013\346P*3\222"
 233      9E189F39 
 233      6F27B330 
 233      D8EA2966 
 233      0BE6502A 
 234 0238 31A7A6AD 		.ascii	"1\247\246\255\\\361\2720\225\247e_.N[\344\334\233\312"
 234      5CF1BA30 
 234      95A7655F 
 234      2E4E5BE4 
 234      DC9BCA
 235 024b A48DC989 		.ascii	"\244\215\311\211\274p\275\251A\343\3249`\036\350$\302"
 235      BC70BDA9 
 235      41E3D439 
 235      601EE824 
 235      C2
 236 025c F16E82E6 		.ascii	"\361n\202\346f\335\177\351k\373:"
 236      66DD7FE9 
 236      6BFB3A
 237              		.text
 238              		.section	.gnu.lto_.cgraph.b41347db75126108,"",%progbits
 239 0000 789C45C7 		.ascii	"x\234E\307\253\021\200\000\020\003\321$wtJ\037\261H"
 239      AB118000 
 239      1003D124 
 239      77744A1F 
 239      B148
 240 0012 66F038BE 		.ascii	"f\3608\276\205 \251\004G\003 \030n\315\316\023\210\000"
 240      8520A904 
 240      47032018 
 240      6ECDCE13 
 240      8800
 241 0024 D0E24B13 		.ascii	"\320\342K\023\015\364'\354\261\243f\232\245\205Vi\245"
 241      0DF427EC 
 241      B1A3669A 
 241      A5855669 
 241      A5
 242 0035 A3B4D159 		.ascii	"\243\264\321Y\332\351\346W\012\303q)\003\367;<\213\023"
 242      DAE9E657 
 242      0AC37129 
 242      03F73B3C 
 242      8B13
 243 0047 2180     		.ascii	"!\200"
 244              		.text
 245              		.section	.gnu.lto_.vars.b41347db75126108,"",%progbits
 246 0000 789C6362 		.ascii	"x\234cb`d`f`\000\222P\000\000\000r\000\010"
 246      60646066 
 246      60009250 
 246      00000072 
 246      0008
 247              		.text
 248              		.section	.gnu.lto_.refs.b41347db75126108,"",%progbits
 249 0000 789C6362 		.ascii	"x\234cb`d`f```b\200\001\000\000\204\000\011"
ARM GAS  /tmp/cczmZGAv.s 			page 19


 249      60646066 
 249      60606062 
 249      80010000 
 249      840009
 250              		.text
 251              		.section	.gnu.lto_.statics.b41347db75126108,"",%progbits
 252 0000 789C6362 		.ascii	"x\234cb`d`b\300\016@\342\214\020&\000\000\375\000\011"
 252      60646062 
 252      C00E40E2 
 252      8C102600 
 252      00FD0009 
 253              		.text
 254              		.section	.gnu.lto_.decls.b41347db75126108,"",%progbits
 255 0000 789CAD58 		.ascii	"x\234\255X\177h[E\034\277{I\233fI\323n\340\350d\330"
 255      7F685B45 
 255      1CBF7B49 
 255      9B6649D3 
 255      6EE0E864 
 256 0015 AA9BE0B0 		.ascii	"\252\233\340\260\315\272\225\315?\\q\010\332\201\277"
 256      CDBA95CD 
 256      3F5C7108 
 256      DA81BF
 257 0024 1005111E 		.ascii	"\020\005\021\036\261M\336\226H\233\304\364M6\377zD\334"
 257      B14DDE96 
 257      489BC4F4 
 257      4D36FF7A 
 257      44DC
 258 0036 C6861807 		.ascii	"\306\206\030\007\262\356\017G\306V\334\217\242l\003"
 258      B2EE0F47 
 258      C656DC8F 
 258      A26C03
 259 0045 9B4E562A 		.ascii	"\233NV*\223\331\312\034S7\335\350\244\005E\252 n8\335"
 259      93D9CA1C 
 259      5337DDE8 
 259      A40545AA 
 259      206E38DD 
 260 0059 9C75F17B 		.ascii	"\234u\361{\357\335\273\334\275\344^\333\340\321\313"
 260      EFDDBBDC 
 260      BDE45EDB 
 260      E0D1CB
 261 0068 BBF7F2FD 		.ascii	"\273\367\362\375~?\337\317\347\276w\357R\005aDZZA\250"
 261      7E3FDFCF 
 261      E7BE77EF 
 261      52056144 
 261      5A5A41A8 
 262 007c 08EDC662 		.ascii	"\010\355\306b\204\"0\366\301\263\015\250\324j\241\347"
 262      842230F6 
 262      C1B30DA8 
 262      D46AA1E7 
 263 008c A14F40BF 		.ascii	"\241O@\277\014}\022\372\024\364\031T\336\210\035\361"
 263      0C7D12FA 
 263      14F41954 
 263      DE881DF1 
 264 009c 3F043D04 		.ascii	"?\004=\004=\010\375\024\364\002\364\343\320\017C\367"
 264      3D08FD14 
 264      F402F4E3 
 264      D00F43F7 
ARM GAS  /tmp/cczmZGAv.s 			page 20


 265 00ac 403F06FD 		.ascii	"@?\006\375$\364a\350\230\372\221\353o\216x\0234F\015"
 265      24F461E8 
 265      98FA91EB 
 265      6F8E7813 
 265      34460D
 266 00bf 17EF388D 		.ascii	"\027\3578\215\337Ic\337\202~\007\372,\215?\304a|Lq<"
 266      DF4963DF 
 266      827E07FA 
 266      2C8D3FC4 
 266      617C4C71 
 267 00d4 34D65D9A 		.ascii	"4\326]\2327\301\362`\021\3532\027\337\306:C\261;)\246"
 267      37C1F260 
 267      11EB3217 
 267      DFC63A43 
 267      B13B29A6 
 268 00e8 1DBF40B1 		.ascii	"\035\277@\261G\240{9\254a\212\207i<r\255s\340\020\375"
 268      47A07B39 
 268      AC618A87 
 268      693C72AD 
 268      73E010FD 
 269 00fc 1A684C1B 		.ascii	"\032hL\033\247\206b\331\334*q\232\017\346$*od\256|\016"
 269      A78662D9 
 269      DC2A719A 
 269      0FE6242A 
 269      6F64AE7C 
 270 0111 5EB67E76 		.ascii	"^\266~vl\205\213\207\251\017\271\326;r'\332-\222\304"
 270      6C858B87 
 270      A90FB9D6 
 270      3B7227DA 
 270      2D92C4
 271 0124 AA94B333 		.ascii	"\252\224\2633n\245\232iF\007\214\374t\356-\243\353v"
 271      6EA59A69 
 271      46078CFC 
 271      74EE2DA3 
 271      EB76
 272 0136 B1E85B8A 		.ascii	"\261\350[\212\3367\240\345w\030\006\326U\274\341\036"
 272      DE37A0E5 
 272      771806D6 
 272      55BCE11E 
 273 0146 B40CA938 		.ascii	"\264\014\2518\344G\250\305\034\005\375\026{\004\343"
 273      E447A8C5 
 273      1C05FD16 
 273      7B04E3
 274 0155 8378A939 		.ascii	"\203x\2519\362\2308(\200v\033F\226\270v\215\207\226"
 274      F2983828 
 274      80761B46 
 274      96B8768D 
 274      8796
 275 0167 A0F7489C 		.ascii	"\240\367H\234\226qH\323\216\360*\213@\362^\211\016\033"
 275      967148D3 
 275      8EF02A8B 
 275      40F25E89 
 275      0E1B
 276 0179 460E6CB0 		.ascii	"F\016l\260\212\017\343%\020C\301h\025:j\230\215\022"
 276      8A0FE325 
 276      1043C168 
 276      153A6A98 
ARM GAS  /tmp/cczmZGAv.s 			page 21


 276      8D12
 277 018b A7974634 		.ascii	"\247\227F4\372\367\211\345\326x\356\310$\267#\020Q\305"
 277      FAF789E5 
 277      D678EEC8 
 277      24B72310 
 277      51C5
 278 019d 1FE25516 		.ascii	"\037\342U\026\216a\341\220\247\210>??\260\271\202\032"
 278      8E61E190 
 278      A7883E3F 
 278      3FB0B982 
 278      1A
 279 01ae 9EFB511E 		.ascii	"\236\373Q\036X\0209j+\021\312\327\362\270\242&\012z"
 279      5810396A 
 279      2B11CAD7 
 279      F2B8A226 
 279      0A7A
 280 01c0 0CC3ED50 		.ascii	"\014\303\355PE\350!\036z_m\005h\314A\253\3708\016@\300"
 280      45E8211E 
 280      7A5F6D05 
 280      68CC41AB 
 280      F8380E40 
 281 01d5 2E3BE0A5 		.ascii	".;\340\245\357C\225A\355\261\325l\033\261\311\247\220"
 281      EF439541 
 281      EDB1D56C 
 281      1BB1C9A7 
 281      90
 282 01e6 A0D0A6A0 		.ascii	"\240\320\246\240\3471\025\356RS\025X\\\366~\264\253"
 282      E73115EE 
 282      52531558 
 282      5CF67EB4 
 282      AB
 283 01f7 249C0C9E 		.ascii	"$\234\014\236\237\377S\330\017\370/c\252\317\335w&/"
 283      9FFF53D8 
 283      0FF82F63 
 283      AACFDD77 
 283      262F
 284 0209 84114DB1 		.ascii	"\204\021M\261F\240c\336[VV`\353k{D6\322\006\302\345"
 284      46A063DE 
 284      5B565660 
 284      EB6B7B44 
 284      36D206C2 
 285 021e 34B6C98C 		.ascii	"4\266\311\214\216\2348\357Y\010\237\2262>B!8VHg\300"
 285      8E9C38EF 
 285      59089F96 
 285      323E4221 
 285      38564867 
 286 0233 45DE1171 		.ascii	"E\336\021q\205XD\201\357\213\036\327\231\341\245)\230"
 286      85584481 
 286      EF8B1ED7 
 286      99E1A529 
 286      98
 287 0244 7530816D 		.ascii	"u0\201mmN\1770\365\225b9\013iY`\362T\316@\034[7\261"
 287      6D4E7F30 
 287      F5956239 
 287      0B695960 
 287      F254CE40 
 288 025c 957DA7A0 		.ascii	"\225}\247\240;%\365\256\316\251^\235K\345\0110\2455"
ARM GAS  /tmp/cczmZGAv.s 			page 22


 288      3B25F5AE 
 288      CEA95E9D 
 288      4BE50930 
 288      A535
 289 026e A9E2A378 		.ascii	"\251\342\243x%\362\250\370\030\024\275\212O\232\237"
 289      25F2A8F8 
 289      1814BD8A 
 289      4F9A9F
 290 027d C3F03967 		.ascii	"\303\3609g\301\036*\025\254GP\225\023\271`\332p*+h\207"
 290      C11E2A15 
 290      AC475095 
 290      13B960DA 
 290      702A2B68 
 291 0292 62EB373A 		.ascii	"b\3537:8r\216\256\276\025\350\220a\354%3l\305UP\301"
 291      38728EAE 
 291      BE15E890 
 291      61EC2533 
 291      6CC55550 
 292 02a7 34CBE366 		.ascii	"4\313\343f4\343\227\254q\336\311*\333O\231\323@\275"
 292      34E397AC 
 292      71DEC92A 
 292      DB4F99D3 
 292      40BD
 293 02b9 24719A22 		.ascii	"$q\232\"\357k\315\353\030\363\035o\227\372\232|(\365"
 293      EF6BCDEB 
 293      18F31D6F 
 293      97FA9A7C 
 293      28F5
 294 02cb 87D020A9 		.ascii	"\207\320 \251\276\261l\223\2719#\352\035\027\204\376"
 294      BEB16C93 
 294      B93923EA 
 294      1D1784FE 
 295 02db 0C2BBCF2 		.ascii	"\014+\274\362\325\357\360_:\353\227\344P\322\2753\200"
 295      D5EFF05F 
 295      3AEB97E4 
 295      50D2BD33 
 295      80
 296 02ec 1CB5ED90 		.ascii	"\034\265\355\220}\202\311~iye\315U|\026\222U\361\004"
 296      7D82C97E 
 296      697965CD 
 296      557C1692 
 296      55F104
 297 02ff 90B8321F 		.ascii	"\220\2702\037\315;\211lW\315\270\304\347v@*\033\311"
 297      CD3B896C 
 297      57CDB8C4 
 297      E776402A 
 297      1BC9
 298 0311 AE7CB626 		.ascii	"\256|\266&\231\353@\203\373l\311\025\237(S\374B\271"
 298      99EB4083 
 298      FB6CC915 
 298      9F2853FC 
 298      42B9
 299 0323 E2D3D7A9 		.ascii	"\342\323\327\251\342;\033\027\262e|WIr,\250\372\003"
 299      E23B1B17 
 299      B2657C57 
 299      49722CA8 
 299      FA03
ARM GAS  /tmp/cczmZGAv.s 			page 23


 300 0335 5375F6C0 		.ascii	"Su\366\300}\356\262^\206L\013\022Y\005\202\331\334\331"
 300      7DEEB25E 
 300      864C0B12 
 300      590582D9 
 300      DCD9
 301 0347 6C179D51 		.ascii	"l\027\235Q\313m\233,G\323\342\212[\211Y,\024\364+K\364"
 301      CB6D9B2C 
 301      47D3E28A 
 301      5B89592C 
 301      14F42B4B 
 302 035c E6C3EE79 		.ascii	"\346\303\356yN\002\340\221\205\34799g\236\327\02621"
 302      4E02E091 
 302      85E73939 
 302      679ED716 
 302      3231
 303 036e AE6B61BA 		.ascii	"\256ka\272\322\304(\342Z\020\246\351/\306\376\332\320"
 303      D2C428E2 
 303      5A10A6E9 
 303      2FC6FEDA 
 303      D0
 304 037f BDEEF4A7 		.ascii	"\275\356\364\247H9J\350\343\262\352\317z0\365)\270W"
 304      48394AE8 
 304      E3B2EACF 
 304      7A30F529 
 304      B857
 305 0391 BFBC82A7 		.ascii	"\277\274\202\247\312*\370GW\241,\372\012\332\351\261"
 305      CA2AF847 
 305      57A12CFA 
 305      0ADAE9B1 
 306 03a1 399D0FBB 		.ascii	"9\235\017\273S\232\001\204]\363\244\244\342\237\231"
 306      539A0184 
 306      5DF3A4A4 
 306      E29F99
 307 03b0 CF916A29 		.ascii	"\317\221j)\315\224Q\372E\244\364\000:h\\\274\2303\262"
 307      CD9451FA 
 307      45A4F400 
 307      3A685CBC 
 307      9833B2
 308 03c3 4DD9E962 		.ascii	"M\331\351b\261y1\312\231\347\310\201\020=\256L\017\216"
 308      B17931CA 
 308      99E7C881 
 308      103DAE4C 
 308      0F8E
 309 03d5 350D70C7 		.ascii	"5\015p\307\225:\206ON\241\245\263\03437\232\232d\326"
 309      953A864F 
 309      4EA1A5B3 
 309      1C33379A 
 309      9A64D6
 310 03e8 2ABE0E2F 		.ascii	"*\276\016/8\025\337\300\326+qYi\314\206EL\252d\257\371"
 310      3815DFC0 
 310      D62B7159 
 310      69CC8645 
 310      4CAA64AF 
 311 03fd 3BC871CE 		.ascii	";\310q\316\247\004\346\362\266\261wa\006\276\330t(q"
 311      A704E6F2 
 311      B6B17761 
 311      06BED874 
ARM GAS  /tmp/cczmZGAv.s 			page 24


 311      2871
 312 040f B3ACA586 		.ascii	"\263\254\245\206*\376\003[#\223\225\301\016\023A\277"
 312      2AFE035B 
 312      239395C1 
 312      0E1341BF 
 313 041f CB52B8C9 		.ascii	"\313R\270\311\345\025\364\363\243F!\177\333\016h\356"
 313      E515F4F3 
 313      A346217F 
 313      DB0E68EE 
 314 042f F3D82FBA 		.ascii	"\363\330/\272\233\373C\322t\024\224\247?\013U\274\010"
 314      9BFB43D2 
 314      741494A7 
 314      3F0B55BC 
 314      08
 315 0440 D3A41672 		.ascii	"\323\244\026r\220\274e\356\361\037\261*\035\035\376"
 315      90BC65EE 
 315      F11FB12A 
 315      1D1DFE
 316 044f FA1C3B49 		.ascii	"\372\034;I\372\034'I\237x\222\3641&\276\322I\222*\231"
 316      FA1C2749 
 316      9F7892F4 
 316      3126BED2 
 316      49922A99 
 317 0463 7FDC2965 		.ascii	"\177\334)e#\313A\241\341\356T\241\344?R%\355\212\220"
 317      23CB41A1 
 317      E1EE54A1 
 317      E43F5225 
 317      ED8A90
 318 0476 4DE5A3CC 		.ascii	"M\345\243\314\322Gc\315V\201\377\257\024\337\376\205"
 318      D24763CD 
 318      5681FFAF 
 318      14DFFE85 
 319 0486 42368231 		.ascii	"B6\2021\266\021\344\274\366N0\344e\032\037\375\366'"
 319      B611E4BC 
 319      F64E30E4 
 319      651A1FFD 
 319      F627
 320 0498 BAD0649B 		.ascii	"\272\320d\233\301]\362v\227,l\331f@|n\313\017T\356\233"
 320      C15DF276 
 320      972C6CD9 
 320      66407C6E 
 320      CB0F54EE 
 321 04ad 01711EAF 		.ascii	"\001q\036\257\021f\2738\317\335@\305\277s2\033\330Q"
 321      1166BB38 
 321      CFDD40C5 
 321      BF73321B 
 321      D851
 322 04bf DBB2F928 		.ascii	"\333\262\371(3T\361\333\312\302'd\207\"\233\220\006"
 322      3354F1DB 
 322      CAC22764 
 322      87229B90 
 322      06
 323 04d0 818D6D07 		.ascii	"\201\215m\007\303?\331\001jtp\377\027\036iB\012\372"
 323      C33FD901 
 323      6A7470FF 
 323      171E6942 
 323      0AFA
ARM GAS  /tmp/cczmZGAv.s 			page 25


 324 04e2 C4CB2FAE 		.ascii	"\304\313/\256y*\020ga\352]\005p\332\251xw\025\374\367"
 324      792A1067 
 324      61EA5D05 
 324      70DAA978 
 324      7715FCF7 
 325 04f6 48F90705 		.ascii	"H\371\007\005\376{\234\374\311\221\345Z\263,\031\005"
 325      FE7B9CFC 
 325      C991E55A 
 325      B32C1905 
 326 0506 7D5E0D77 		.ascii	"}^\015w\347\377\025d\334\313\377\377\360n\025\334sR"
 326      E7FF1564 
 326      DCCBFFFF 
 326      F06E15DC 
 326      7352
 327 0518 EEEC378F 		.ascii	"\356\3547\217`\307\270\223\267\371\354#\262d\024\364"
 327      60C7B893 
 327      B7F9EC23 
 327      B26414F4 
 328 0528 8DC01DD5 		.ascii	"\215\300\035\325\367i}\251\314\366H:\225\352\215\350"
 328      F7697DA9 
 328      CCF6483A 
 328      95EA8DE8 
 329 0538 B54F3DFB 		.ascii	"\265O=\373R\313\023hE[[\330\372K\365\2073z8\221\214"
 329      52CB1368 
 329      455B5BD8 
 329      FA4BF587 
 329      337A3891 
 330 054d F66E8D69 		.ascii	"\366n\215i\341h\034\254\211e\177[\034\005L\227\270\326"
 330      E1681CAC 
 330      89657F5B 
 330      1C054C97 
 330      B8D6
 331 055f 1DD332BE 		.ascii	"\035\3232\276t<\222\324\266\351\276\276\264y\255\355"
 331      743C92D4 
 331      B6E9BEBE 
 331      B479ADED 
 332 056f 4FBCA945 		.ascii	"O\274\251E\364W\302\251\264\036\336\370\3023\341-\321"
 332      F457C2A9 
 332      B41EDEF8 
 332      C233E12D 
 332      D1
 333 0580 686B77A6 		.ascii	"hkw\246\2575\231Jj\255ZwO\242\265#\262\276u\315\352"
 333      AF35994A 
 333      6AAD5A77 
 333      4FA2B523 
 333      B2BE75CD 
 334 0595 F6B5AFAF 		.ascii	"\366\265\257\257\015\367$\222\004\2537\321C\354\302"
 334      0DF72492 
 334      04AB37D1 
 334      43ECC2
 335 05a4 825DB8A3 		.ascii	"\202]\270\243m}[\007\313\240_\217\305\264\315\200\036"
 335      6D7D5B07 
 335      CBA05F8F 
 335      C5B4CD80 
 335      1E
 336 05b5 02A454CF 		.ascii	"\002\244T\317kZT\217\020\254 $\266E\3237oMF#\372\203"
 336      6B5A548F 
ARM GAS  /tmp/cczmZGAv.s 			page 26


 336      10AC2024 
 336      B645D337 
 336      6F4D4623 
 337 05cb 6EE94753 		.ascii	"n\351GS\031\215d\017\376\351L\352\215\004d\337\030\215"
 337      198D640F 
 337      FEE94CEA 
 337      8D0464DF 
 337      188D
 338 05dd 3F0F5C9E 		.ascii	"?\017\\\2363\303mJ&\364\026G\200\376L\224\347\036EJ"
 338      33C36D4A 
 338      26F41647 
 338      80FE4C94 
 338      E71E454A 
 339 05f1 5FDA4B60 		.ascii	"_\332K`\353\354\020\015V\210\247S\335\261\215\231L\367"
 339      EBEC100D 
 339      5688A753 
 339      DDB18D99 
 339      4CF7
 340 0603 769CC6C9 		.ascii	"v\234\306\311\240\365lcoo*\272)\300\335\320\361\223"
 340      A0F56C63 
 340      6F6F2ABA 
 340      29C0DDD0 
 340      F193
 341 0615 194DDBE4 		.ascii	"\031M\333\344\005\022\351E\245\007\336h\274;S\027\211"
 341      0512E945 
 341      A507DE68 
 341      BC3B5317 
 341      89
 342 0626 984C22F5 		.ascii	"\230L\"\365\366\240m]\373\352\325u[\023I}\355\232\210"
 342      F6A06D5D 
 342      FBEAD575 
 342      5B13497D 
 342      ED9A88
 343 0639 AEFF6FBA 		.ascii	"\256\377o\2722\242\360'~\317)\016\250\240\230\2372\210"
 343      32A2F027 
 343      7ECF290E 
 343      A8A0989F 
 343      3288
 344 064b C584ACD6 		.ascii	"\305\204\254\326\361w\355\035\374\335\232\216\377\000"
 344      F177ED1D 
 344      FCDD9A8E 
 344      FF00
 345 0659 A69DFFE5 		.ascii	"\246\235\377\345"
 346              		.text
 347              		.section	.gnu.lto_.symtab.b41347db75126108,"",%progbits
 348 0000 6368506F 		.ascii	"chPoolObjectInit\000\000\000\000\000\000\000\000\000"
 348      6F6C4F62 
 348      6A656374 
 348      496E6974 
 348      00000000 
 349 0019 000000A0 		.ascii	"\000\000\000\240\000\000\000chPoolLoadArray\000\000"
 349      00000063 
 349      68506F6F 
 349      6C4C6F61 
 349      64417272 
 350 0031 00000000 		.ascii	"\000\000\000\000\000\000\000\000\000\000\311\000\000"
 350      00000000 
ARM GAS  /tmp/cczmZGAv.s 			page 27


 350      0000C900 
 350      00
 351 003e 00636850 		.ascii	"\000chPoolAllocI\000\000\000\000\000\000\000\000\000"
 351      6F6F6C41 
 351      6C6C6F63 
 351      49000000 
 351      00000000 
 352 0054 000000D5 		.ascii	"\000\000\000\325\000\000\000chPoolAlloc\000\000\000"
 352      00000063 
 352      68506F6F 
 352      6C416C6C 
 352      6F630000 
 353 0069 00000000 		.ascii	"\000\000\000\000\000\000\000\000\000\333\000\000\000"
 353      00000000 
 353      00DB0000 
 353      00
 354 0076 6368506F 		.ascii	"chPoolFreeI\000\000\000\000\000\000\000\000\000\000"
 354      6F6C4672 
 354      65654900 
 354      00000000 
 354      00000000 
 355 008b 0000DF00 		.ascii	"\000\000\337\000\000\000chPoolFree\000\000\000\000\000"
 355      00006368 
 355      506F6F6C 
 355      46726565 
 355      00000000 
 356 00a0 00000000 		.ascii	"\000\000\000\000\000\000\000\350\000\000\000"
 356      000000E8 
 356      000000
 357              		.text
 358              		.section	.gnu.lto_.opts,"",%progbits
 359 0000 272D6D63 		.ascii	"'-mcpu=cortex-m3''-mno-thumb-interwork''-mthumb''-g"
 359      70753D63 
 359      6F727465 
 359      782D6D33 
 359      27272D6D 
 360 0033 67646227 		.ascii	"gdb''-O2''-fomit-frame-pointer''-falign-functions=1"
 360      272D4F32 
 360      27272D66 
 360      6F6D6974 
 360      2D667261 
 361 0066 3627272D 		.ascii	"6''-ffunction-sections''-fdata-sections''-fno-commo"
 361      6666756E 
 361      6374696F 
 361      6E2D7365 
 361      6374696F 
 362 0099 6E27272D 		.ascii	"n''-flto'\000"
 362      666C746F 
 362      2700
 363              		.text
 364              		.cfi_sections	.debug_frame
 365              		.section	.text.chPoolObjectInit,"ax",%progbits
 366              		.align	2
 367              		.p2align 4,,15
 368              		.global	chPoolObjectInit
 369              		.thumb
 370              		.thumb_func
ARM GAS  /tmp/cczmZGAv.s 			page 28


 371              		.type	chPoolObjectInit, %function
 372              	chPoolObjectInit:
 373              	.LFB165:
 374              		.file 1 "../../../os/rt/src/chmempools.c"
 375              		.loc 1 76 0
 376              		.cfi_startproc
 377              		@ args = 0, pretend = 0, frame = 0
 378              		@ frame_needed = 0, uses_anonymous_args = 0
 379              		@ link register save eliminated.
 380              	.LVL0:
 381              		.loc 1 80 0
 382 0000 0023     		movs	r3, #0
 383 0002 0360     		str	r3, [r0, #0]
 384              		.loc 1 81 0
 385 0004 4160     		str	r1, [r0, #4]
 386              		.loc 1 82 0
 387 0006 8260     		str	r2, [r0, #8]
 388 0008 7047     		bx	lr
 389              		.cfi_endproc
 390              	.LFE165:
 391              		.size	chPoolObjectInit, .-chPoolObjectInit
 392 000a 00BFAFF3 		.section	.text.chPoolLoadArray,"ax",%progbits
 392      0080
 393              		.align	2
 394              		.p2align 4,,15
 395              		.global	chPoolLoadArray
 396              		.thumb
 397              		.thumb_func
 398              		.type	chPoolLoadArray, %function
 399              	chPoolLoadArray:
 400              	.LFB166:
 401              		.loc 1 98 0
 402              		.cfi_startproc
 403              		@ args = 0, pretend = 0, frame = 0
 404              		@ frame_needed = 0, uses_anonymous_args = 0
 405              		@ link register save eliminated.
 406              	.LVL1:
 407 0000 F0B4     		push	{r4, r5, r6, r7}
 408              	.LCFI0:
 409              		.cfi_def_cfa_offset 16
 410              		.cfi_offset 4, -16
 411              		.cfi_offset 5, -12
 412              		.cfi_offset 6, -8
 413              		.cfi_offset 7, -4
 414              		.loc 1 102 0
 415 0002 002A     		cmp	r2, #0
 416 0004 2FD0     		beq	.L2
 417 0006 531E     		subs	r3, r2, #1
 418              	.LBB65:
 419              	.LBB66:
 420              	.LBB67:
 421              	.LBB68:
 422              	.LBB69:
 423              	.LBB70:
 424              		.file 2 "../../../os/ext/CMSIS/include/core_cmFunc.h"
 425              		.loc 2 546 0
 426 0008 2026     		movs	r6, #32
ARM GAS  /tmp/cczmZGAv.s 			page 29


 427              	.LBE70:
 428              	.LBE69:
 429              	.LBE68:
 430              	.LBE67:
 431              	.LBB83:
 432              	.LBB84:
 433              	.LBB85:
 434              	.LBB86:
 435              	.LBB87:
 436 000a 0025     		movs	r5, #0
 437 000c 03F00104 		and	r4, r3, #1
 438              	.LVL2:
 439              	.LBE87:
 440              	.LBE86:
 441              	.LBE85:
 442              	.LBE84:
 443              	.LBE83:
 444              	.LBB104:
 445              	.LBB79:
 446              	.LBB75:
 447              	.LBB71:
 448              	@ 546 "../../../os/ext/CMSIS/include/core_cmFunc.h" 1
 449 0010 86F31188 		MSR basepri, r6
 450              	@ 0 "" 2
 451              	.LVL3:
 452              		.thumb
 453              	.LBE71:
 454              	.LBE75:
 455              	.LBE79:
 456              	.LBE104:
 457              	.LBB105:
 458              	.LBB106:
 459              		.loc 1 169 0
 460 0014 0268     		ldr	r2, [r0, #0]
 461              	.LVL4:
 462 0016 0A60     		str	r2, [r1, #0]
 463              		.loc 1 170 0
 464 0018 0160     		str	r1, [r0, #0]
 465              	.LVL5:
 466              	.LBE106:
 467              	.LBE105:
 468              	.LBB110:
 469              	.LBB100:
 470              	.LBB96:
 471              	.LBB92:
 472              	.LBB88:
 473              		.loc 2 546 0
 474              	@ 546 "../../../os/ext/CMSIS/include/core_cmFunc.h" 1
 475 001a 85F31188 		MSR basepri, r5
 476              	@ 0 "" 2
 477              		.thumb
 478              	.LBE88:
 479              	.LBE92:
 480              	.LBE96:
 481              	.LBE100:
 482              	.LBE110:
 483              	.LBE66:
ARM GAS  /tmp/cczmZGAv.s 			page 30


 484              	.LBE65:
 485              		.loc 1 104 0
 486 001e 4268     		ldr	r2, [r0, #4]
 487 0020 8918     		adds	r1, r1, r2
 488              	.LVL6:
 489              		.loc 1 102 0
 490 0022 03B3     		cbz	r3, .L2
 491 0024 54B1     		cbz	r4, .L6
 492              	.LVL7:
 493              	.LBB123:
 494              	.LBB120:
 495              	.LBB111:
 496              	.LBB80:
 497              	.LBB76:
 498              	.LBB72:
 499              		.loc 2 546 0
 500              	@ 546 "../../../os/ext/CMSIS/include/core_cmFunc.h" 1
 501 0026 86F31188 		MSR basepri, r6
 502              	@ 0 "" 2
 503              	.LVL8:
 504              		.thumb
 505              	.LBE72:
 506              	.LBE76:
 507              	.LBE80:
 508              	.LBE111:
 509              	.LBB112:
 510              	.LBB107:
 511              		.loc 1 169 0
 512 002a 0268     		ldr	r2, [r0, #0]
 513 002c 0A60     		str	r2, [r1, #0]
 514              		.loc 1 170 0
 515 002e 0160     		str	r1, [r0, #0]
 516              	.LBE107:
 517              	.LBE112:
 518              	.LBB113:
 519              	.LBB101:
 520              	.LBB97:
 521              	.LBB93:
 522              	.LBB89:
 523              		.loc 2 546 0
 524              	@ 546 "../../../os/ext/CMSIS/include/core_cmFunc.h" 1
 525 0030 85F31188 		MSR basepri, r5
 526              	@ 0 "" 2
 527              		.thumb
 528              	.LBE89:
 529              	.LBE93:
 530              	.LBE97:
 531              	.LBE101:
 532              	.LBE113:
 533              	.LBE120:
 534              	.LBE123:
 535              		.loc 1 104 0
 536 0034 4268     		ldr	r2, [r0, #4]
 537              		.loc 1 102 0
 538 0036 013B     		subs	r3, r3, #1
 539              	.LVL9:
 540              		.loc 1 104 0
ARM GAS  /tmp/cczmZGAv.s 			page 31


 541 0038 1144     		add	r1, r1, r2
 542              	.LVL10:
 543              		.loc 1 102 0
 544 003a 14D0     		beq	.L2
 545              	.L6:
 546              	.LBB124:
 547              	.LBB121:
 548              	.LBB114:
 549              	.LBB81:
 550              	.LBB77:
 551              	.LBB73:
 552              		.loc 2 546 0
 553              	@ 546 "../../../os/ext/CMSIS/include/core_cmFunc.h" 1
 554 003c 86F31188 		MSR basepri, r6
 555              	@ 0 "" 2
 556              		.thumb
 557              	.LBE73:
 558              	.LBE77:
 559              	.LBE81:
 560              	.LBE114:
 561              	.LBB115:
 562              	.LBB108:
 563              		.loc 1 169 0
 564 0040 0468     		ldr	r4, [r0, #0]
 565 0042 0C60     		str	r4, [r1, #0]
 566              		.loc 1 170 0
 567 0044 0160     		str	r1, [r0, #0]
 568              	.LBE108:
 569              	.LBE115:
 570              	.LBB116:
 571              	.LBB102:
 572              	.LBB98:
 573              	.LBB94:
 574              	.LBB90:
 575              		.loc 2 546 0
 576              	@ 546 "../../../os/ext/CMSIS/include/core_cmFunc.h" 1
 577 0046 85F31188 		MSR basepri, r5
 578              	@ 0 "" 2
 579              		.thumb
 580              	.LBE90:
 581              	.LBE94:
 582              	.LBE98:
 583              	.LBE102:
 584              	.LBE116:
 585              	.LBE121:
 586              	.LBE124:
 587              		.loc 1 104 0
 588 004a 4468     		ldr	r4, [r0, #4]
 589              		.loc 1 105 0
 590 004c 013B     		subs	r3, r3, #1
 591              		.loc 1 104 0
 592 004e 0A19     		adds	r2, r1, r4
 593              	.LBB125:
 594              	.LBB122:
 595              	.LBB117:
 596              	.LBB82:
 597              	.LBB78:
ARM GAS  /tmp/cczmZGAv.s 			page 32


 598              	.LBB74:
 599              		.loc 2 546 0
 600              	@ 546 "../../../os/ext/CMSIS/include/core_cmFunc.h" 1
 601 0050 86F31188 		MSR basepri, r6
 602              	@ 0 "" 2
 603              		.thumb
 604              	.LBE74:
 605              	.LBE78:
 606              	.LBE82:
 607              	.LBE117:
 608              	.LBB118:
 609              	.LBB109:
 610              		.loc 1 169 0
 611 0054 0768     		ldr	r7, [r0, #0]
 612 0056 0F51     		str	r7, [r1, r4]
 613              		.loc 1 170 0
 614 0058 0260     		str	r2, [r0, #0]
 615              	.LBE109:
 616              	.LBE118:
 617              	.LBB119:
 618              	.LBB103:
 619              	.LBB99:
 620              	.LBB95:
 621              	.LBB91:
 622              		.loc 2 546 0
 623              	@ 546 "../../../os/ext/CMSIS/include/core_cmFunc.h" 1
 624 005a 85F31188 		MSR basepri, r5
 625              	@ 0 "" 2
 626              		.thumb
 627              	.LBE91:
 628              	.LBE95:
 629              	.LBE99:
 630              	.LBE103:
 631              	.LBE119:
 632              	.LBE122:
 633              	.LBE125:
 634              		.loc 1 104 0
 635 005e 4168     		ldr	r1, [r0, #4]
 636              		.loc 1 102 0
 637 0060 013B     		subs	r3, r3, #1
 638              		.loc 1 104 0
 639 0062 1144     		add	r1, r2, r1
 640              		.loc 1 102 0
 641 0064 EAD1     		bne	.L6
 642              	.LVL11:
 643              	.L2:
 644              		.loc 1 107 0
 645 0066 F0BC     		pop	{r4, r5, r6, r7}
 646 0068 7047     		bx	lr
 647              		.cfi_endproc
 648              	.LFE166:
 649              		.size	chPoolLoadArray, .-chPoolLoadArray
 650 006a 00BFAFF3 		.section	.text.chPoolAllocI,"ax",%progbits
 650      0080
 651              		.align	2
 652              		.p2align 4,,15
 653              		.global	chPoolAllocI
ARM GAS  /tmp/cczmZGAv.s 			page 33


 654              		.thumb
 655              		.thumb_func
 656              		.type	chPoolAllocI, %function
 657              	chPoolAllocI:
 658              	.LFB167:
 659              		.loc 1 119 0
 660              		.cfi_startproc
 661              		@ args = 0, pretend = 0, frame = 0
 662              		@ frame_needed = 0, uses_anonymous_args = 0
 663              	.LVL12:
 664 0000 08B5     		push	{r3, lr}
 665              	.LCFI1:
 666              		.cfi_def_cfa_offset 8
 667              		.cfi_offset 3, -8
 668              		.cfi_offset 14, -4
 669              		.loc 1 119 0
 670 0002 0346     		mov	r3, r0
 671              		.loc 1 125 0
 672 0004 0068     		ldr	r0, [r0, #0]
 673              	.LVL13:
 674 0006 10B1     		cbz	r0, .L16
 675              		.loc 1 126 0
 676 0008 0168     		ldr	r1, [r0, #0]
 677 000a 1960     		str	r1, [r3, #0]
 678 000c 08BD     		pop	{r3, pc}
 679              	.L16:
 680              		.loc 1 127 0
 681 000e 9A68     		ldr	r2, [r3, #8]
 682 0010 0AB1     		cbz	r2, .L17
 683              		.loc 1 128 0
 684 0012 5868     		ldr	r0, [r3, #4]
 685              	.LVL14:
 686 0014 9047     		blx	r2
 687              	.LVL15:
 688              	.L17:
 689              		.loc 1 130 0
 690 0016 08BD     		pop	{r3, pc}
 691              		.cfi_endproc
 692              	.LFE167:
 693              		.size	chPoolAllocI, .-chPoolAllocI
 694 0018 AFF30080 		.section	.text.chPoolAlloc,"ax",%progbits
 694      AFF30080 
 695              		.align	2
 696              		.p2align 4,,15
 697              		.global	chPoolAlloc
 698              		.thumb
 699              		.thumb_func
 700              		.type	chPoolAlloc, %function
 701              	chPoolAlloc:
 702              	.LFB168:
 703              		.loc 1 142 0
 704              		.cfi_startproc
 705              		@ args = 0, pretend = 0, frame = 0
 706              		@ frame_needed = 0, uses_anonymous_args = 0
 707              	.LVL16:
 708 0000 08B5     		push	{r3, lr}
 709              	.LCFI2:
ARM GAS  /tmp/cczmZGAv.s 			page 34


 710              		.cfi_def_cfa_offset 8
 711              		.cfi_offset 3, -8
 712              		.cfi_offset 14, -4
 713              	.LBB126:
 714              	.LBB127:
 715              	.LBB128:
 716              	.LBB129:
 717              		.loc 2 546 0
 718 0002 2022     		movs	r2, #32
 719              	.LBE129:
 720              	.LBE128:
 721              	.LBE127:
 722              	.LBE126:
 723              		.loc 1 142 0
 724 0004 0346     		mov	r3, r0
 725              	.LBB133:
 726              	.LBB132:
 727              	.LBB131:
 728              	.LBB130:
 729              		.loc 2 546 0
 730              	@ 546 "../../../os/ext/CMSIS/include/core_cmFunc.h" 1
 731 0006 82F31188 		MSR basepri, r2
 732              	@ 0 "" 2
 733              	.LVL17:
 734              		.thumb
 735              	.LBE130:
 736              	.LBE131:
 737              	.LBE132:
 738              	.LBE133:
 739              	.LBB134:
 740              	.LBB135:
 741              		.loc 1 125 0
 742 000a 0068     		ldr	r0, [r0, #0]
 743              	.LVL18:
 744 000c 28B1     		cbz	r0, .L22
 745              		.loc 1 126 0
 746 000e 0268     		ldr	r2, [r0, #0]
 747 0010 1A60     		str	r2, [r3, #0]
 748              	.LVL19:
 749              	.L23:
 750              	.LBE135:
 751              	.LBE134:
 752              	.LBB137:
 753              	.LBB138:
 754              	.LBB139:
 755              	.LBB140:
 756              	.LBB141:
 757              		.loc 2 546 0
 758 0012 0023     		movs	r3, #0
 759              	@ 546 "../../../os/ext/CMSIS/include/core_cmFunc.h" 1
 760 0014 83F31188 		MSR basepri, r3
 761              	@ 0 "" 2
 762              		.thumb
 763              	.LBE141:
 764              	.LBE140:
 765              	.LBE139:
 766              	.LBE138:
ARM GAS  /tmp/cczmZGAv.s 			page 35


 767              	.LBE137:
 768              		.loc 1 149 0
 769 0018 08BD     		pop	{r3, pc}
 770              	.LVL20:
 771              	.L22:
 772              	.LBB142:
 773              	.LBB136:
 774              		.loc 1 127 0
 775 001a 9968     		ldr	r1, [r3, #8]
 776 001c 0029     		cmp	r1, #0
 777 001e F8D0     		beq	.L23
 778              		.loc 1 128 0
 779 0020 5868     		ldr	r0, [r3, #4]
 780              	.LVL21:
 781 0022 8847     		blx	r1
 782              	.LVL22:
 783 0024 F5E7     		b	.L23
 784              	.LBE136:
 785              	.LBE142:
 786              		.cfi_endproc
 787              	.LFE168:
 788              		.size	chPoolAlloc, .-chPoolAlloc
 789 0026 00BFAFF3 		.section	.text.chPoolFreeI,"ax",%progbits
 789      0080AFF3 
 789      0080
 790              		.align	2
 791              		.p2align 4,,15
 792              		.global	chPoolFreeI
 793              		.thumb
 794              		.thumb_func
 795              		.type	chPoolFreeI, %function
 796              	chPoolFreeI:
 797              	.LFB169:
 798              		.loc 1 163 0
 799              		.cfi_startproc
 800              		@ args = 0, pretend = 0, frame = 0
 801              		@ frame_needed = 0, uses_anonymous_args = 0
 802              		@ link register save eliminated.
 803              	.LVL23:
 804              		.loc 1 169 0
 805 0000 0368     		ldr	r3, [r0, #0]
 806              	.LVL24:
 807 0002 0B60     		str	r3, [r1, #0]
 808              		.loc 1 170 0
 809 0004 0160     		str	r1, [r0, #0]
 810 0006 7047     		bx	lr
 811              		.cfi_endproc
 812              	.LFE169:
 813              		.size	chPoolFreeI, .-chPoolFreeI
 814 0008 AFF30080 		.section	.text.chPoolFree,"ax",%progbits
 814      AFF30080 
 815              		.align	2
 816              		.p2align 4,,15
 817              		.global	chPoolFree
 818              		.thumb
 819              		.thumb_func
 820              		.type	chPoolFree, %function
ARM GAS  /tmp/cczmZGAv.s 			page 36


 821              	chPoolFree:
 822              	.LFB170:
 823              		.loc 1 185 0
 824              		.cfi_startproc
 825              		@ args = 0, pretend = 0, frame = 0
 826              		@ frame_needed = 0, uses_anonymous_args = 0
 827              		@ link register save eliminated.
 828              	.LVL25:
 829              	.LBB143:
 830              	.LBB144:
 831              	.LBB145:
 832              	.LBB146:
 833              		.loc 2 546 0
 834 0000 2023     		movs	r3, #32
 835              	@ 546 "../../../os/ext/CMSIS/include/core_cmFunc.h" 1
 836 0002 83F31188 		MSR basepri, r3
 837              	@ 0 "" 2
 838              	.LVL26:
 839              		.thumb
 840              	.LBE146:
 841              	.LBE145:
 842              	.LBE144:
 843              	.LBE143:
 844              	.LBB147:
 845              	.LBB148:
 846              		.loc 1 169 0
 847 0006 0268     		ldr	r2, [r0, #0]
 848 0008 0A60     		str	r2, [r1, #0]
 849              		.loc 1 170 0
 850 000a 0160     		str	r1, [r0, #0]
 851              	.LVL27:
 852              	.LBE148:
 853              	.LBE147:
 854              	.LBB149:
 855              	.LBB150:
 856              	.LBB151:
 857              	.LBB152:
 858              	.LBB153:
 859              		.loc 2 546 0
 860 000c 0020     		movs	r0, #0
 861              	.LVL28:
 862              	@ 546 "../../../os/ext/CMSIS/include/core_cmFunc.h" 1
 863 000e 80F31188 		MSR basepri, r0
 864              	@ 0 "" 2
 865              		.thumb
 866 0012 7047     		bx	lr
 867              	.LBE153:
 868              	.LBE152:
 869              	.LBE151:
 870              	.LBE150:
 871              	.LBE149:
 872              		.cfi_endproc
 873              	.LFE170:
 874              		.size	chPoolFree, .-chPoolFree
 875 0014 AFF30080 		.text
 875      AFF30080 
 875      AFF30080 
ARM GAS  /tmp/cczmZGAv.s 			page 37


 876              	.Letext0:
 877              		.file 3 "../../../os/rt/include/chschd.h"
 878              		.file 4 "/opt/ARM/gcc-arm-none-eabi-4_7-2013q3/bin/../lib/gcc/arm-none-eabi/4.7.4/include/stddef.h
 879              		.file 5 "/opt/ARM/gcc-arm-none-eabi-4_7-2013q3/bin/../lib/gcc/arm-none-eabi/4.7.4/../../../../arm-
 880              		.file 6 "../../../os/rt/ports/ARMCMx/compilers/GCC/chtypes.h"
 881              		.file 7 "../../../os/rt/ports/ARMCMx/chcore.h"
 882              		.file 8 "../../../os/rt/ports/ARMCMx/chcore_v7m.h"
 883              		.file 9 "../../../os/rt/include/chmtx.h"
 884              		.file 10 "../../../os/rt/include/chmemcore.h"
 885              		.file 11 "../../../os/rt/include/chmempools.h"
 886              		.file 12 "../../../os/rt/include/chsys.h"
 887              		.file 13 "../../../os/ext/CMSIS/include/core_cm3.h"