ARM GAS  /tmp/ccNhnR6l.s 			page 1


   1              		.syntax unified
   2              		.cpu cortex-m3
   3              		.fpu softvfp
   4              		.eabi_attribute 20, 1
   5              		.eabi_attribute 21, 1
   6              		.eabi_attribute 23, 3
   7              		.eabi_attribute 24, 1
   8              		.eabi_attribute 25, 1
   9              		.eabi_attribute 26, 1
  10              		.eabi_attribute 30, 2
  11              		.eabi_attribute 34, 1
  12              		.eabi_attribute 18, 4
  13              		.thumb
  14              		.file	"chmemcore.c"
  15              		.text
  16              	.Ltext0:
  17              		.section	.gnu.lto_.jmpfuncs.4e20a11463e92c06,"",%progbits
  18 0000 789C6362 		.ascii	"x\234cb`d`g\300\016\270\2404\013\003\003##\023#3\003"
  18      60646067 
  18      C00EB8A0 
  18      340B0303 
  18      23231323 
  19 0016 030002DC 		.ascii	"\003\000\002\334\000!"
  19      0021
  20              		.text
  21              		.section	.gnu.lto_.inline.4e20a11463e92c06,"",%progbits
  22 0000 789C6362 		.ascii	"x\234cb`d\340e\300\016B\2414\013\003\003\007;#\003\023"
  22      6064E065 
  22      C00E42A1 
  22      340B0303 
  22      073B2303 
  23 0015 CB027906 		.ascii	"\313\002y\006\266\005\362L@-|\274\214\214@\212\201Y"
  23      B605F24C 
  23      402D7CBC 
  23      8C8C408A 
  23      8159
  24 0027 E8402723 		.ascii	"\350@'#D\020(\313\302\300\304\300\303\015\225\341[\220"
  24      441028CB 
  24      C2C0C4C0 
  24      C30D95E1 
  24      5B90
  25 0039 8524C1CC 		.ascii	"\205$\301\314\300\306\0124\202\355\203\036D\220\001"
  25      C0C60A34 
  25      82ED831E 
  25      449001
  26 0048 00971709 		.ascii	"\000\227\027\011\323"
  26      D3
  27              		.text
  28              		.section	.gnu.lto_.pureconst.4e20a11463e92c06,"",%progbits
  29 0000 789C6362 		.ascii	"x\234cb`d`f``\340d\200\000\026\006\011F+&\011f\026\000"
  29      60646066 
  29      6060E064 
  29      80001606 
  29      09462B26 
  30 0018 03880088 		.ascii	"\003\210\000\210"
  31              		.text
  32              		.section	.gnu.lto__core_init.4e20a11463e92c06,"",%progbits
ARM GAS  /tmp/ccNhnR6l.s 			page 2


  33 0000 789CBD93 		.ascii	"x\234\275\223\277N\033A\020\306\277\331\365\235I\010"
  33      BF4E1B41 
  33      10C6BFD9 
  33      F59D4908 
  34 0010 82963458 		.ascii	"\202\2264X<\3009\246\243\240\207\202\002\244(\225u\202"
  34      3CC039A6 
  34      A3A08782 
  34      02A42895 
  34      7582
  35 0022 CB4A50F0 		.ascii	"\313JP\360'6\005\242\361\305\360\000\026\025\230\006"
  35      273605A2 
  35      F1C5F000 
  35      16159806 
  36 0032 92282220 		.ascii	"\222(\" D\205\004\015DJ\012\202\"\252\024\224VD\203"
  36      4485040D 
  36      444A0A82 
  36      22AA1494 
  36      564483
  37 0045 E4074824 		.ascii	"\344\007H$\244cf\355\263\215l\350`\357N\337\336\316"
  37      A46366ED 
  37      B38D6CE8 
  37      60EF4EDF 
  37      DECE
  38 0057 7C3BBFDB 		.ascii	"|;\277\333\333U \276\332[??'\032\370\300J\032\244J\227"
  38      DB5520BE 
  38      DA5B3F3F 
  38      271AF8C0 
  38      4A1AA44A 
  39 006c C0C79422 		.ascii	"\300\307\224\"\222\016[\012\212\012o\25539\210\2350"
  39      920E5B0A 
  39      8A0A6FAD 
  39      3339889D 
  39      30
  40 007d 5C2FFD28 		.ascii	"\\/\375(\216\026+Q4`\010\012\212\340\023\366~\035\375"
  40      8E162B51 
  40      3460080A 
  40      8AE013F6 
  40      7E1DFD
  41 0090 D4FD3044 		.ascii	"\324\3750DHAT!q\277N\273\027b\304\323\231\326c\223V"
  41      48415421 
  41      71BF4EBB 
  41      1762C4D3 
  41      99D66393 
  42 00a5 18B29457 		.ascii	"\030\262\224W\035\020g\351\261r\012#\326Y-\237\322\363"
  42      1D1067E9 
  42      B1720A23 
  42      D6592D9F 
  42      D2F3
  43 00b7 908EDB7A 		.ascii	"\220\216\333z\347\035I\233\250\267\233\247t\275\345"
  43      E71D499B 
  43      A8B79BA7 
  43      74BDE5
  44 00c6 9EA9EF95 		.ascii	"\236\251\357\225\250\000t\023\262\264M\203\314\233\245"
  44      A8007413 
  44      B2B44D83 
  44      CC9BA5
  45 00d5 4FAC9AF5 		.ascii	"O\254\232\3653k\202\365\013\253\303\372\225\325e\335"
ARM GAS  /tmp/ccNhnR6l.s 			page 3


  45      336B82F5 
  45      0BABC3FA 
  45      95D565DD 
  46 00e5 654DB27E 		.ascii	"eM\262~c\345\346`-\014\373\224\260TJ\245p{#U\207I(\274"
  46      63E5E660 
  46      2D0CFB94 
  46      B0544AA5 
  46      707B2355 
  47 00fd B330BFCB 		.ascii	"\2630\277\313{\215\312Y:`\234\026\3766\217\261\236?"
  47      7B8DCA59 
  47      3A609C16 
  47      FE368FB1 
  47      9E3F
  48 010f AF9B8EC3 		.ascii	"\257\233\216\303\246\303\257O4!*\033lRb\334\321\027"
  48      A6C3AF4F 
  48      34212A1B 
  48      6C5262DC 
  48      D117
  49 0121 2856F575 		.ascii	"(V\365u\371/ei\237\034\004D+\370\037v\031rh6\366_`\265"
  49      F92F6569 
  49      9F1C0444 
  49      2BF81F76 
  49      19726836 
  50 0139 8038AE38 		.ascii	"\2008\2568E\026\207\367e-t\242\0331\315\341Z\354_\024"
  50      451687F7 
  50      652D74A2 
  50      1B31CDE1 
  50      5AEC5F14 
  51 014d 45BD365E 		.ascii	"E\2756^\274\321W:NHp\216\035\034;\256\217\225\261I\362"
  51      BCD1573A 
  51      4E48708E 
  51      1D1C3BAE 
  51      8F95B149 
  52 0162 03EA555D 		.ascii	"\003\352U]\256j\317\213L\343\332\203\000\361YSU\313"
  52      AE6ACF8B 
  52      4CE3DA83 
  52      00F15953 
  52      55CB
  53 0174 7E88E772 		.ascii	"~\210\347rZ@u\003\264\205\306\345\234\0164\347\015\232"
  53      5A407503 
  53      B485C6E5 
  53      9C0E34E7 
  53      0D9A
  54 0186 64202584 		.ascii	"d %\204f\367a\032j\247\341\017\277\204\354\203\232)"
  54      66F7611A 
  54      6AA7E10F 
  54      BF84EC83 
  54      9A29
  55 0198 6E1392CA 		.ascii	"n\023\222\312k*\253\326\353\3733fj\321\237\236\312\033"
  55      6B2AABD6 
  55      EBFB3366 
  55      6AD19F9E 
  55      CA1B
  56 01aa DFF78607 		.ascii	"\337\367\206\007</]\273\027\362\351\334R:\237\013\322"
  56      3C2F5DBB 
  56      17F2E9DC 
  56      523A9F0B 
ARM GAS  /tmp/ccNhnR6l.s 			page 4


  56      D2
  57 01bb C1CC9C99 		.ascii	"\301\314\234\231\013\026r\306\013\360r\336,/\361\253"
  57      0B1672C6 
  57      0BF072DE 
  57      2C2FF1AB 
  58 01cb 9779135B 		.ascii	"\227y\023[\315\374{vf2/\270c#C=\367&}\325\232w\007\344"
  58      CDFC7B76 
  58      66322FB8 
  58      6323433D 
  58      F7267DD5 
  59 01e3 D3EDB2   		.ascii	"\323\355\262"
  60              		.text
  61              		.section	.gnu.lto_chCoreAlloc.4e20a11463e92c06,"",%progbits
  62 0000 789C9D54 		.ascii	"x\234\235T]HSa\030~\337s6\267\251s\363\306\360FE\014"
  62      5D485361 
  62      187EDF73 
  62      36B7A973 
  62      F3C6F046 
  63 0016 1264132C 		.ascii	"\022d\023,\364&(\004\311\213\021)]\036D\217'\\\264M"
  63      F4262804 
  63      C98B1129 
  63      5D1E448F 
  63      275CB44D 
  64 002a 3615F366 		.ascii	"6\025\363f\247\331ED\222\010A\005\213\324~\216!\375"
  64      A7D94544 
  64      92084105 
  64      8BD47E8E 
  64      21FD
  65 003c 50495196 		.ascii	"PIQ\226\220Z\224x!\322\215\020\202\006\026^z\241\020"
  65      905A9478 
  65      21D28D10 
  65      8206165E 
  65      7AA110
  66 004f ADF7FBCE 		.ascii	"\255\367\373\3169\3235\267f\373{\276\275\337\373<\357"
  66      39D335B7 
  66      66FB7BBE 
  66      BDDFFB3C 
  66      EF
  67 0060 CFF77E47 		.ascii	"\317\367~G\000\244w\372\253\216\276\037\363\350K\210"
  67      00A477FA 
  67      AB8EBE1F 
  67      F3E84B88 
  68 0070 56406178 		.ascii	"V@ax\021\340R\205 X6l\240\036\021\265y\000\265VD\213"
  68      11E05285 
  68      2058366C 
  68      A01E11B5 
  68      7900B556 
  69 0086 6EB720B2 		.ascii	"n\267 \262\005IE\005\321\202\321\263\\\323Q\011\243"
  69      05494505 
  69      D182D1B3 
  69      5CD35109 
  69      A3
  70 0097 AA3A323C 		.ascii	"\252:2<\250\236\212\255&\022\345\012\202\000\002B\033"
  70      A89E8AAD 
  70      2612E50A 
  70      82000242 
  70      1B
ARM GAS  /tmp/ccNhnR6l.s 			page 5


  71 00a8 C2D2CA5A 		.ascii	"\302\322\312Za)(\210P\001\014\005\260\244&\220F\025"
  71      61292888 
  71      50010C05 
  71      B0A42690 
  71      4615
  72 00ba 05A8E2D4 		.ascii	"\005\250\342\324\345xY.\314\017#&\323\"@5g\316N\004"
  72      E578592E 
  72      CC0F2326 
  72      D3224035 
  72      67CE4E04 
  73 00ce D3997E4C 		.ascii	"\323\231~L\247\306L\252\025\030oS\313!\342\360\036Z"
  73      A7C64CAA 
  73      15186F53 
  73      CB21E2F0 
  73      1E5A
  74 00e0 1EA76D5B 		.ascii	"\036\247m[\017\310\022\240\216\347\011\007\346\035\317"
  74      0FC812A0 
  74      8EE70907 
  74      E61DCF
  75 00ef 95B7B738 		.ascii	"\225\267\2678\352K\323\377\360\364\246\254k\347\263"
  75      EA4BD3FF 
  75      F0F4A6AC 
  75      6BE7B3
  76 00fe D296E363 		.ascii	"\322\226\343c\302\302\235\274\367\302\314j\"Z\005\343"
  76      C2C29DBC 
  76      F7C2CC6A 
  76      225A05E3 
  77 010e C669D241 		.ascii	"\306i\322AJ8N\356\374$\177\342>\032\344\002\207\020"
  77      4A384EEE 
  77      FC247FE2 
  77      3E1AE402 
  77      8710
  78 0120 257C8255 		.ascii	"%|\202U`\007\011\037c%8\010\307\010\363\011'\011\013"
  78      6007091F 
  78      63253808 
  78      C708F309 
  78      27090B
  79 0133 081F1116 		.ascii	"\010\037\021\026\022\336%t\022j\204E\204\017\011]\204"
  79      12DE2574 
  79      126A8445 
  79      840F095D 
  79      84
  80 0144 0F08DD84 		.ascii	"\017\010\335\204\367\010\213\015?zY\341\262\252\272"
  80      F7088B0D 
  80      3F7A59E1 
  80      B2AABA
  81 0153 51FFDF66 		.ascii	"Q\377\337f\034\377\031\206l\206[(\015\266\020\347iT"
  81      1CFF1986 
  81      6C865B28 
  81      0DB610E7 
  81      6954
  82 0165 75578341 		.ascii	"uW\203A\012OY\361\231g\324&\300i\336\321\251\241\235"
  82      0A4F59F1 
  82      9967D426 
  82      C069DED1 
  82      A9A19D
  83 0178 959AACED 		.ascii	"\225\232\254\355aF\033m\002|\201\030\376\276~c\255!"
ARM GAS  /tmp/ccNhnR6l.s 			page 6


  83      61461B6D 
  83      027C8118 
  83      FEBE7E63 
  83      AD21
  84 018a 2518A5F7 		.ascii	"%\030\245\367\234\322\223\360YJHv['\251?\224#\377\001"
  84      9CD293F0 
  84      594A4876 
  84      5B27A93F 
  84      9423FF01 
  85 019e 2883698C 		.ascii	"(\203i\214\2537O(hO\221Mn\317\030\333\016.\300\252\002"
  85      AB374F28 
  85      684F914D 
  85      6ECF18DB 
  85      0E2EC0AA 
  86 01b3 A39732A5 		.ascii	"\243\2272\245\007\237a0\272t\355\276\323\010\233~e%"
  86      079F6130 
  86      BA74EDBE 
  86      D3089B7E 
  86      6525
  87 01c5 1CD58F6B 		.ascii	"\034\325\217kV;\227\265\244d\342c<\361\324^\311h\247"
  87      563B97B5 
  87      A464E263 
  87      3CF1D45E 
  87      C968A7
  88 01d8 70A5FC70 		.ascii	"p\245\374pm\300\303\276\026\327\265\016\011\337\222"
  88      6DC0C3BE 
  88      16D7B50E 
  88      09DF92
  89 01e7 9F8C0E72 		.ascii	"\237\214\016r\320w\267\023\211\204K\317\024\364]3[\007"
  89      D077B713 
  89      89844BCF 
  89      14F45D33 
  89      5B07
  90 01f9 A3C59A37 		.ascii	"\243\305\2327\265wh\322\362o\303-d\243<\000;\252]\301"
  90      B57768D2 
  90      F26FC32D 
  90      64A33C00 
  90      3BAA5DC1 
  91 020d 7CF423AB 		.ascii	"|\364#\253\212g\230\317\033\006<Z\354\207\010&\251@"
  91      8A6798CF 
  91      1B063C5A 
  91      EC870826 
  91      A940
  92 021f 665B4C2A 		.ascii	"f[L*i*\334G\007\376\245\343$\036\257\344\312\256\255"
  92      692ADC47 
  92      07FEA5E3 
  92      241EAFE4 
  92      CAAEAD
  93 0232 88CB3BB9 		.ascii	"\210\313;\271\353\246\330o\232]\264\0030\007\263\337"
  93      EBA6D86F 
  93      9A5DB403 
  93      3007B3DF 
  94 0242 B16B4FC9 		.ascii	"\261kO\311\256\335\006\265P\351@\217U6w\277\264\022"
  94      AEDD06B5 
  94      50E9408F 
  94      553677BF 
  94      B412
ARM GAS  /tmp/ccNhnR6l.s 			page 7


  95 0254 B3F2695E 		.ascii	"\263\362i^\271\036\346\252HO0\223\355&k\262%F\370\\"
  95      B91EE6AA 
  95      484F3093 
  95      ED266BB2 
  95      2546F85C 
  96 0268 8A20A619 		.ascii	"\212 \246\031\320\222\034\364\255x\211~`\311K\002\351"
  96      D0921CF4 
  96      AD78897E 
  96      60C94B02 
  96      E9
  97 0279 E39FE116 		.ascii	"\343\237\341\026d\270\012\022\276\320\307fj\350\345"
  97      64B80A12 
  97      BED0C766 
  97      6AE8E5
  98 0288 B75CEE02 		.ascii	"\267\\\356\002d\273\013\237\370H\315e\272\013\022\276"
  98      64BB0B9F 
  98      F848CD65 
  98      BA0B12BE 
  99 0298 A2C5AE8E 		.ascii	"\242\305\256\2161\374\022\276\3012nX\004\\\332\020\365"
  99      31FC12BE 
  99      C1326E58 
  99      045CDA10 
  99      F5
 100 02a9 D4652C66 		.ascii	"\324e,f\246\257P\314\010l)li%\324Nqa\242\210=\011\220"
 100      A6AF50CC 
 100      086C296C 
 100      6925D44E 
 100      7161A288 
 101 02c0 F7852960 		.ascii	"\367\205)`w\271\307\343\325?\241\2107\334\343\215\204"
 101      77B9C7E3 
 101      D53FA188 
 101      37DCE38D 
 101      84
 102 02d1 65AFDC15 		.ascii	"e\257\334\025P\002r(\254xd\260D\374\003\212#\250\364"
 102      50027228 
 102      AC7864B0 
 102      44FC038A 
 102      23A8F4
 103 02e4 F790CDD3 		.ascii	"\367\220\315\323\220\\\325\333\225`'[\0343\027G\255"
 103      905CD5DB 
 103      9560275B 
 103      1C331747 
 103      AD
 104 02f5 7DED177A 		.ascii	"}\355\027z\225\352\277\004\273C\341\236\210\367d\213"
 104      95EABF04 
 104      BB43E19E 
 104      88F7648B 
 105 0305 AFD1D74F 		.ascii	"\257\321\327O\312L\266\255\257>\340\351\202\232\275"
 105      CA4CB6AD 
 105      AF3EE0E9 
 105      829ABD
 106 0314 9E24EB6D 		.ascii	"\236$\353m\364\2656\267z\375A\371Bo\247\342\345\236"
 106      F4B536B7 
 106      7AFD41F9 
 106      426FA7E2 
 106      E59E
 107 0326 72A0A937 		.ascii	"r\240\2517(\223\263\333\327\332R\321\321\036Q\272\303"
ARM GAS  /tmp/ccNhnR6l.s 			page 8


 107      2893B3DB 
 107      D7DA52D1 
 107      D11E51BA 
 107      C3
 108 0337 FE9A8AC3 		.ascii	"\376\232\212\303\265 \204\301FaC\341\213\360\007\012"
 108      B52084C1 
 108      466143E1 
 108      8BF0070A 
 109 0347 C091CD   		.ascii	"\300\221\315"
 110              		.text
 111              		.section	.gnu.lto_chCoreAllocI.4e20a11463e92c06,"",%progbits
 112 0000 789C9D54 		.ascii	"x\234\235T=hSQ\024\376\316\2757y/\005\243 \024:\265"
 112      3D685351 
 112      14FECEBD 
 112      37792F05 
 112      A320143A 
 113 0015 840E8290 		.ascii	"\204\016\202\220\010\326\237\251s\035\015\012.\241\303"
 113      08D69FA9 
 113      731D0D0A 
 113      2EA1C3
 114 0024 F3492334 		.ascii	"\363I#4\225\244C\350\222g\352P\244C\350\246\010\265"
 114      95A443E8 
 114      9267EA50 
 114      A443E8A6 
 114      08B5
 115 0036 94EA8B22 		.ascii	"\224\352\213\"\342\350\242\202\265C\220N\342\334\241"
 115      E2E8A282 
 115      B543904E 
 115      E2DCA1
 116 0045 83427172 		.ascii	"\203BqrP\010<\317\2757\357\031M\261\261/\011\337\271"
 116      50083CCF 
 116      BD37EF19 
 116      4DB1B12F 
 116      09DFB9
 117 0058 E7DCEFFC 		.ascii	"\347\334\357\374\277\010\020\177\006\237\363\374{\244"
 117      BF08107F 
 117      069FF3FC 
 117      7BA4
 118 0066 801B8C94 		.ascii	"\200\033\214\224\002\211\326.pwB\010\365\305ApF\206"
 118      0289D62E 
 118      70774208 
 118      F5C54170 
 118      4686
 119 0078 3B40704E 		.ascii	";@pN\222\262zE\244\005v\325\020RQ\343\272\361\231\311"
 119      92B27A45 
 119      A40576D5 
 119      105251E3 
 119      BAF199C9 
 120 008c 612308D6 		.ascii	"a#\010\326Z\357\2333\315\275(\032\367\265v\226\320Y"
 120      5AEF9B33 
 120      CDBD281A 
 120      F7B57696 
 120      D059
 121 009e DD3A3106 		.ascii	"\335:1\006\237\010\023\320(\240\376\214>\300\223\002"
 121      9F0813D0 
 121      28A0FE8C 
 121      3EC09302 
ARM GAS  /tmp/ccNhnR6l.s 			page 9


 122 00ae 39D2D483 		.ascii	"9\322\324\203\360\015\035Mm\365Q\225\300YC\305\177\207"
 122      F00D1D4D 
 122      6DF55195 
 122      C05943C5 
 122      7F87
 123 00c0 9C1A96F7 		.ascii	"\234\032\226\367W\274\351c\361p\214$m?\353C\221\326"
 123      57BCE963 
 123      F1708C24 
 123      6D3FEB43 
 123      91D6
 124 00d2 FA2A9B31 		.ascii	"\372*\2331\031n\267+\203\3142\015P\227\203\230\232\022"
 124      196EB72B 
 124      83CC320D 
 124      50978398 
 124      9A12
 125 00e4 285A6A78 		.ascii	"(Zjx\353\237A\273\353O\304\247v\372\255x\267\0275&\261"
 125      EB9F41BB 
 125      EB4FC4A7 
 125      76FAAD78 
 125      B7173526 
 126 00f9 D973E353 		.ascii	"\331s\343SZ\340\232\361\320]\377v\330$\371\006N\023"
 126      5AE09AF1 
 126      D05DFF76 
 126      D824F906 
 126      4E13
 127 010b 4AF48272 		.ascii	"J\364\202r\020T\242\2274\011\311\347\307|V\260\347\024"
 127      1054A297 
 127      3409C9E7 
 127      C77C56B0 
 127      E714
 128 011d E3069FD3 		.ascii	"\343\006\237\323\214\233\214\016\343\026\243\313\370"
 128      8C9B8C0E 
 128      E316A3CB 
 128      F8
 129 012a 9431C3D8 		.ascii	"\2241\303\330f\034a|\306\230e|\316\310O\012\367\202"
 129      661C617C 
 129      C698657C 
 129      CEC84F0A 
 129      F782
 130 013c E01459FF 		.ascii	"\340\024Y\377\263\275Z\257j\324\013\\\3444\264 ;Xn\354"
 130      B3BD5AAF 
 130      6AD40B5C 
 130      E434B420 
 130      3B586EEC 
 131 0150 87B74BF4 		.ascii	"\207\267K\364\212\267\337#\351\221\0303\2719|\223\215"
 131      8AB7DF23 
 131      E9911833 
 131      B9397C93 
 131      8D
 132 0161 AFE58A8C 		.ascii	"\257\345\212\214\215\212\355\326\370#\212\242\223|a"
 132      8D8AEDD6 
 132      F8238AA2 
 132      937C61
 133 0170 0702D66A 		.ascii	"\007\002\326j\363\365\364t;h^\321\353\033\323R\017\361"
 133      F3F5F474 
 133      3B685ED1 
 133      EB1BD352 
ARM GAS  /tmp/ccNhnR6l.s 			page 10


 133      0FF1
 134 0182 80F43496 		.ascii	"\200\3644\226\3603p}r\250L\244\023\321\276\034\3632"
 134      F033707D 
 134      72A84CA4 
 134      13D1BE1C 
 134      F332
 135 0194 C1046B7E 		.ascii	"\301\004k~\225\210Ii\346YW\211\3129\304\017\216\362"
 135      95884969 
 135      E6595789 
 135      CA39C40F 
 135      8EF2
 136 01a6 E37ADAC4 		.ascii	"\343z\332\304\205\254\374\326e\214{\327\\=\220\365X"
 136      85ACFCD6 
 136      658C7BD7 
 136      5C3D90F5 
 136      58
 137 01b7 3DC216E0 		.ascii	"=\302\026\340\003\266\367i\256O\3277\360\"I\200\377"
 137      03B6F769 
 137      AE4FD737 
 137      F0224980 
 137      FF
 138 01c8 1124D7DD 		.ascii	"\021$\327\335\015G\343\312u\207\3430\367%/[\314\316"
 138      0D47E3CA 
 138      7587E330 
 138      F7252F5B 
 138      CCCE
 139 01da B2366949 		.ascii	"\2626iI/\3740E03\016\250\354\230vAI?M\231\237a\226\212"
 139      2FFC3045 
 139      30330EA8 
 139      EC987641 
 139      493F4D99 
 140 01f2 7B04F13D 		.ascii	"{\004\361=\034\345@\362c;\253'L\206\301\343\305x>_\260"
 140      1CE540F2 
 140      633BAB27 
 140      4C86C1E3 
 140      C5783E5F 
 141 0207 DF855AA1 		.ascii	"\337\205Z\241\272X\250U\275\20277\357\317{\013U?\357"
 141      BA58A855 
 141      BD823737 
 141      EFCF7B0B 
 141      553FEF
 142 021a C1F52B37 		.ascii	"\301\365+7\371\224\237\212\205\013\231\212__\324\322"
 142      F9949F8A 
 142      850B998A 
 142      5F5FD4D2 
 143 022a C544BA94 		.ascii	"\305D\272\224H\227\351\216\252\225\227\374_\023\223"
 143      4897E98E 
 143      AA9597FC 
 143      5F1393
 144 0239 0A2A     		.ascii	"\012*"
 145              		.text
 146              		.section	.gnu.lto_chCoreStatus.4e20a11463e92c06,"",%progbits
 147 0000 789C9D92 		.ascii	"x\234\235\222=K\303P\024\206\337s\363a\335\\;\265t\025"
 147      3D4BC350 
 147      1486DF73 
 147      F361DD5C 
 147      3BB57415 
ARM GAS  /tmp/ccNhnR6l.s 			page 11


 148 0014 12BF0627 		.ascii	"\022\277\006'W\355\250\340X\034\342\005\035\332B\333"
 148      57EDA8E0 
 148      581CE205 
 148      1DDA42DB 
 149 0024 415C1AA3 		.ascii	"A\\\032\243\203c\021\034\354d\021\261\006\374\015\012"
 149      8363111C 
 149      EC6411B1 
 149      06FC0D0A 
 150 0034 6E1DFA0B 		.ascii	"n\035\372\013\034\2728(\305\311\305)\236sKk\375\200"
 150      1CBA3828 
 150      C5C9C529 
 150      9E734B6B 
 150      FD80
 151 0046 AA2709CF 		.ascii	"\252'\011\317\311\341>\347\344&Q >\276G\232\257S\005"
 151      C9E13EE7 
 151      E4265120 
 151      3EBE479A 
 151      AF5305
 152 0059 AC32C902 		.ascii	"\2542\311\002\251F\0278\310*\"IX\251+\252o\032\323\315"
 152      A9461738 
 152      C82A2249 
 152      58A92BAA 
 152      6F1AD3CD 
 153 006d A11586CD 		.ascii	"\241\025\206\315\306}\264\026\365\222$\243\245\272E"
 153      C67DB416 
 153      F59224A3 
 153      A5BA45
 154 007c E8DC3C52 		.ascii	"\350\334<R\032\232\010Y\010\025\354\3173\214w2\346Y"
 154      1A9A0859 
 154      0815ECCF 
 154      338C7732 
 154      E659
 155 008e 0A3912B5 		.ascii	"\0129\022\265=5Yl\214\211\266\302\254\021\361\347\201"
 155      3D35596C 
 155      8C89B6C2 
 155      AC11F1E7 
 155      81
 156 009f 4BBFF5BE 		.ascii	"K\277\365\276\314[\371\227\207\311\322C\374B\257\261"
 156      CC5BF997 
 156      87C9D243 
 156      FC42AFB1 
 157 00af 7BABEE7A 		.ascii	"{\253\356zI\035H\021\012\324\242\034\024\363\202i1/"
 157      491D4811 
 157      0AD4A21C 
 157      14F38269 
 157      312F
 158 00c1 9936F38A 		.ascii	"\2316\363\212\3510\257\231.\363\234\311\341\340(\014"
 158      E930AF99 
 158      2EF39CC9 
 158      E1E0280C 
 159 00d1 67CC2889 		.ascii	"g\314(\211u\241|\266\015\236&\211\325A\224\357\307\317"
 159      75A17CB6 
 159      0D9E2689 
 159      D54194EF 
 159      C7CF
 160 00e3 54A0981C 		.ascii	"T\240\230\034\004DM\234\221\274\216}\274\205)M\016\355"
 160      04444D9C 
ARM GAS  /tmp/ccNhnR6l.s 			page 12


 160      91BC8E7D 
 160      BC85294D 
 160      0EED
 161 00f5 0E7E0B79 		.ascii	"\016~\013yB\307|o\011\326\236d\374@R\354\231Z~T\262"
 161      42C77C6F 
 161      09D69E64 
 161      FC4052EC 
 161      995A7E54 
 162 010a 7EE84393 		.ascii	"~\350C\223\372\330\354I\355\360\370\243\346\230\366"
 162      FAD8EC49 
 162      EDF0F8A3 
 162      E698F6
 163 0119 B659DAB7 		.ascii	"\266Y\332\267\226\207e7\220.]\320h\241;\334\"\231\235"
 163      96876537 
 163      902E5DD0 
 163      68A13BDC 
 163      22999D
 164 012c F1FE90F1 		.ascii	"\361\376\220\361<\177p\226\253~\245\346W+\201\037\354"
 164      3C7F7096 
 164      AB7EA5E6 
 164      572B811F 
 164      EC
 165 013d 14753128 		.ascii	"\024u1(W\264\027 \245K\333|\347\315\015\223\371\351"
 165      57B41720 
 165      A54BDB7C 
 165      E7CD0D93 
 165      F9E9
 166 014f 92DEAB49 		.ascii	"\222\336\253I\2660\312\026\337\001t\253\226b"
 166      B630CA16 
 166      DF0174AB 
 166      9662
 167              		.text
 168              		.section	.gnu.lto_.cgraph.4e20a11463e92c06,"",%progbits
 169 0000 789C45C7 		.ascii	"x\234E\307\273\025\000\020\024D\301\273OW\232\333T\250"
 169      BB150010 
 169      1444C1BB 
 169      4F579ADB 
 169      54A8
 170 0012 02A94F31 		.ascii	"\002\251O1j\2228L6\201H@\346\212.C\335\330\255(\206"
 170      6A92384C 
 170      36814840 
 170      E68A2E43 
 170      DDD8AD28 
 171 0027 ACBF29C7 		.ascii	"\254\277)\307\337\222\323\033\007+\240\022\375"
 171      DF92D31B 
 171      072BA012 
 171      FD
 172              		.text
 173              		.section	.gnu.lto_.vars.4e20a11463e92c06,"",%progbits
 174 0000 789C6362 		.ascii	"x\234cb`d`f``\220d\200\000\2265\214\014\014\365\014"
 174      60646066 
 174      60609064 
 174      80009635 
 174      8C0C0CF5 
 175 0015 4B191959 		.ascii	"K\031\031Y\352\231\32722\001\331\313\030\231\201l\000"
 175      EA99D732 
 175      3201D9CB 
ARM GAS  /tmp/ccNhnR6l.s 			page 13


 175      1899816C 
 175      00
 176 0026 431604DC 		.ascii	"C\026\004\334"
 177              		.text
 178              		.section	.gnu.lto_.refs.4e20a11463e92c06,"",%progbits
 179 0000 789C25C5 		.ascii	"x\234%\305\201\015\000 \020\203@Zt\021\367\037\322\350"
 179      810D0020 
 179      1083405A 
 179      7411F71F 
 179      D2E8
 180 0012 13922B41 		.ascii	"\023\222+A\3400-6fWM\376v\254O\270\014\002\000k"
 180      E0302D36 
 180      66574DFE 
 180      76AC4FB8 
 180      0C02006B 
 181              		.text
 182              		.section	.gnu.lto_.statics.4e20a11463e92c06,"",%progbits
 183 0000 789C6362 		.ascii	"x\234cb`d`b\300\016@\342\214\020&\000\000\375\000\011"
 183      60646062 
 183      C00E40E2 
 183      8C102600 
 183      00FD0009 
 184              		.text
 185              		.section	.gnu.lto_.decls.4e20a11463e92c06,"",%progbits
 186 0000 789CAD54 		.ascii	"x\234\255TKh\023Q\024\275oL3M\023\253]X\352*E\324\205"
 186      4B681351 
 186      14BD6F4C 
 186      334D13AB 
 186      5D58EA2A 
 187 0017 908CDA80 		.ascii	"\220\214\332\200.\254(]X\027\272\360\263\021\302\220"
 187      2EAC285D 
 187      5817BAF0 
 187      B311C290 
 188 0027 4C471368 		.ascii	"LG\023h\023M\246 \342\342QA\305U\020\224*\"\361S\255"
 188      134DA620 
 188      E2E25141 
 188      C5551094 
 188      2A22F153 
 189 003c 8A545A8B 		.ascii	"\212TZ\213\025\265\326Z\213\026?(\335\351\"n\304\225"
 189      15B5D65A 
 189      8B163F28 
 189      DDE9226E 
 189      C495
 190 004e E84250A8 		.ascii	"\350BP\250\304\373f\336|\355\304\017^r\333\2277\367"
 190      C4FB66DE 
 190      7CEDC40F 
 190      5E72DB97 
 190      37F7
 191 0060 9E73EECD 		.ascii	"\236s\356\315I\004 \300\3420\376\253b\364\213\000\275"
 191      490420C0 
 191      E230FEAB 
 191      62F48B00 
 191      BD
 192 0071 78AEC3BB 		.ascii	"x\256\303\273v\260#\200Y\306\034\300\034\302\034\341"
 192      76B02380 
 192      59C61CC0 
 192      1CC21CE1 
ARM GAS  /tmp/ccNhnR6l.s 			page 14


 193 0081 7777301F 		.ascii	"ww0\037`N`N\202;X=\302\351X\215\230\021\314q\3141\314"
 193      604E604E 
 193      823B583D 
 193      C2E9588D 
 193      9811CC71 
 194 0098 29CC27BC 		.ascii	")\314'\274\216\360\332\000\307\232\344\270\023\036<"
 194      8EF0DA00 
 194      C79AE4B8 
 194      131E3C
 195 00a7 C61DC6DC 		.ascii	"\306\035\306\334\350\300\033\344\230u\274\177\032\363"
 195      E8C01BE4 
 195      9875BC7F 
 195      1AF3
 196 00b5 19E64B0F 		.ascii	"\031\346K\017>\353\025\034\370\316`\363\324\317\243"
 196      3EEB151C 
 196      F8CE60F3 
 196      D4CFA3
 197 00c4 33C0B906 		.ascii	"3\300\271\006=XC5\260\330^\202\274\307\213\345\304\030"
 197      3D584335 
 197      B0D85E82 
 197      BCC78BE5 
 197      C418
 198 00d6 E118931C 		.ascii	"\341\030\223\034\307\031Q8O\313\225\322\021\332\371"
 198      C7195138 
 198      4FCB95D2 
 198      11DAF9
 199 00e5 AD5A159B 		.ascii	"\255Z\025\233\341\024\305(\037\245\224hI\322\276\004"
 199      E114C528 
 199      1FA59468 
 199      49D2BE04 
 200 00f5 96429234 		.ascii	"\226B\2224\206\000Z\365S$d\240\003\236/\220f~\332\265"
 200      86005AF5 
 200      532464A0 
 200      039E2F90 
 200      667EDAB5 
 201 0109 C0C01240 		.ascii	"\300\300\022@ \260\012\256Q=\210-\000c!\014\177\037"
 201      20B00AAE 
 201      513D882D 
 201      0063210C 
 201      7F1F
 202 011b 4998AC2B 		.ascii	"I\230\254+a\200\225L\364\265\350$\014\244L\242.aIr\221"
 202      6180954C 
 202      F4B5E824 
 202      0CA44CA2 
 202      2E614972 
 203 0130 087FAC74 		.ascii	"\010\177\254tc\270\206\322+\\\351\002}\013\020\202\343"
 203      63B886D2 
 203      2B5CE902 
 203      7D0B1082 
 203      E3
 204 0141 94F6B1D6 		.ascii	"\224\366\261\326\316\247\270\266\371\373V\300eJKl\214"
 204      CEA7B8B6 
 204      F9FB56C0 
 204      654A4B6C 
 204      8C
 205 0152 24192421 		.ascii	"$\031$!\354L\020||\211\254\202Oo\277\316\011\246\310"
 205      EC4C107C 
ARM GAS  /tmp/ccNhnR6l.s 			page 15


 205      7C89AC82 
 205      4F6FBFCE 
 205      09A6C8
 206 0165 BA905B34 		.ascii	"\272\220[4\2767\252\014`\343\261yb\246_\204+\261W\206"
 206      BE37AA0C 
 206      60E3B179 
 206      62A65F84 
 206      2BB15786 
 207 0179 B8A78909 		.ascii	"\270\247\211\011<|\355\336\006\343v9\\\242\364$\233"
 207      3C7CEDDE 
 207      06E37639 
 207      5CA2F424 
 207      9B
 208 018a D564BFA8 		.ascii	"\325d\277\250W\015\340\222\006E\237I\215Rc\267}\245"
 208      570DE092 
 208      06459F49 
 208      8D5263B7 
 208      7DA5
 209 019c C77D9DFA 		.ascii	"\307}\235\372Z\200\267\035\364\333\217^q\343\327]W>"
 209      5A80B71D 
 209      F4DB8F5E 
 209      71E3D75D 
 209      573E
 210 01ae F35D1F5B 		.ascii	"\363]\037[l\254P\200\253\226\324\271\350\374B\223\344"
 210      6CAC5080 
 210      AB96D4B9 
 210      E8FC4293 
 210      E4
 211 01bf 262225C9 		.ascii	"&\"%\311\0202\216\375\275\320\241\337\012\275U\303\024"
 211      10328EFD 
 211      BDD0A1DF 
 211      0ABD55C3 
 211      14
 212 01d0 C728153C 		.ascii	"\307(\025<\276`D\376\306\270=\217\205o[3\276\273\236"
 212      BE6044FE 
 212      C6B83D8F 
 212      856F5B33 
 212      BEBB9E
 213 01e3 76F9954B 		.ascii	"v\371\225K\325\265c\311\0103lM\255\243n\255\313\340"
 213      D5B563C9 
 213      08336C4D 
 213      ADA36EAD 
 213      CBE0
 214 01f5 02AD944A 		.ascii	"\002\255\224J\264\334B+\325j\264\011\230\275hk\177#"
 214      B4DC422B 
 214      D56AB409 
 214      98BD686B 
 214      7F23
 215 0207 37646580 		.ascii	"7de\200\266\364;\014Yoa\022\217!\357\352\226xd)\375"
 215      B6F43B0C 
 215      596F6112 
 215      8F21EFEA 
 215      96786429 
 216 021c 706EF487 		.ascii	"pn\364\207\345H\342q$q;\222X\216d\247*q\226\216\221"
 216      E548E271 
 216      24713B92 
 216      588E64A7 
ARM GAS  /tmp/ccNhnR6l.s 			page 16


 216      2A71968E 
 217 0231 2667AF00 		.ascii	"&g\257\000\343\002{>|ftV\260\253\356\333c\261\221\350"
 217      E3027B3E 
 217      7C667456 
 217      B0ABEEDB 
 217      63B191E8 
 218 0245 1BB67E7D 		.ascii	"\033\266~}\2440\234\260\277Y\206L\377\345\217\223\260"
 218      A4309CB0 
 218      BF59864C 
 218      FFE58F93 
 218      B0
 219 0256 4DF45CB0 		.ascii	"M\364\\\260\234u\247\301\277\347\241\233\332\261MC\274"
 219      9C75A7C1 
 219      BFE7A19B 
 219      DAB14D43 
 219      BC
 220 0267 00B3BAE2 		.ascii	"\000\263\272\342\331\263\327\211-\370\221\257`C\205"
 220      D9B3D789 
 220      2DF891AF 
 220      604385
 221 0276 00EF2DFA 		.ascii	"\000\357-\372\251\376+\304\237\377\261\215\344\231\225"
 221      A9FE2BC4 
 221      9FFFB18D 
 221      E49995
 222 0285 B1FBF74D 		.ascii	"\261\373\367M\331\263z\372\030\277\177\337\023\273\357"
 222      D9B37AFA 
 222      18BF7FDF 
 222      13BBEF
 223 0294 AF7FB5A6 		.ascii	"\257\177\265\246u\223|\024l\223\274\236\226\314\225"
 223      75937C14 
 223      6C93BC9E 
 223      96CC95
 224 02a3 881E9388 		.ascii	"\210\036\223\210n\223\210\226ID\373g\213\033\266\274"
 224      6E938896 
 224      4944FB67 
 224      8B1BB6BC 
 225 02b3 C9E5D896 		.ascii	"\311\345\330\226\232\206\245\206\226\031]\313\027\375"
 225      9A86A586 
 225      96195DCB 
 225      17FD
 226 02c1 B321F06B 		.ascii	"\263!\360k\030\025&\347\214\355\321\031\323\244&\307"
 226      181526E7 
 226      8CEDD119 
 226      D3A426C7 
 227 02d1 628B43E0 		.ascii	"b\213C\340\235\317\270iuM\324Zl\244\226\367^8\330\""
 227      9DCFB869 
 227      754DD45A 
 227      6CA496F7 
 227      5E38D822 
 228 02e5 21E7C954 		.ascii	"!\347\311Tg\177;\015\021&\326z\253R\344X/\377\201\377"
 228      677F3B0D 
 228      1126D67A 
 228      AB52E458 
 228      2FFF81FF 
 229 02f9 952F7FD0 		.ascii	"\225/\177\320\\I\203\254\344\013\252\234\315e\265\340"
 229      5C4983AC 
 229      E40BAA9C 
ARM GAS  /tmp/ccNhnR6l.s 			page 17


 229      CD65B5E0 
 230 0309 96EDBB5B 		.ascii	"\226\355\273[; \032\217K\306+_\224\012\232T,(\222\222"
 230      3B201A8F 
 230      4BC62B5F 
 230      940A9A54 
 230      2C289292 
 231 031d E9517B58 		.ascii	"\351Q{Xa\\\201`1{H\225\265=R~\277&m\336\261M\332\247"
 231      615C8160 
 231      317B4895 
 231      B53D527E 
 231      BF266DDE 
 232 0335 28B154A1 		.ascii	"(\261T\241'\226\313\347\324\230\232Jgc\011y]l\355\352"
 232      2796CBE7 
 232      D4989A4A 
 232      67630979 
 232      5D6CEDEA 
 233 0349 356D07DA 		.ascii	"5m\007\332\244t6\307\240\272\263iV'\271\352\244D|]<"
 233      A47436C7 
 233      A0BAB369 
 233      5627B9EA 
 233      A4447C5D 
 234 035e 2165734A 		.ascii	"!esJwo\227*\025\265\256.uo<\003a%\323\201\\\233\273"
 234      776F972A 
 234      15B5AE2E 
 234      756F3C03 
 234      6125D381 
 235 0375 BBF34A80 		.ascii	"\273\363J\200\261E\034\027[\371\233\235ZJ\353-\212\275"
 235      B1451C17 
 235      5BF99B9D 
 235      5A4AEB2D 
 235      8ABD
 236 0387 D99CB65E 		.ascii	"\331\234\266^\326\264\377\246\306\232\036_\356\347\016"
 236      D6B4FFA6 
 236      C69A1E5F 
 236      EEE70E
 237 0396 9D488A3A 		.ascii	"\235H\212:\027\312rFM\355\227\323\251\242*\313bN=\250"
 237      17CA7246 
 237      4DED97D3 
 237      A9A22ACB 
 237      624E3DA8 
 238 03aa E19A22FC 		.ascii	"\341\232\"\374V\315u\311r\020\377\342]=\223\331\266"
 238      56CD75C9 
 238      7210FFE2 
 238      5D3D93D9 
 238      B6
 239 03bb 56D6024A 		.ascii	"V\326\002J&U\370\011]\303\360J"
 239      2655F809 
 239      5DC3F04A 
 240              		.text
 241              		.section	.gnu.lto_.symtab.4e20a11463e92c06,"",%progbits
 242 0000 5F636F72 		.ascii	"_core_init\000\000\000\000\000\000\000\000\000\000\000"
 242      655F696E 
 242      69740000 
 242      00000000 
 242      00000000 
 243 0015 00A00000 		.ascii	"\000\240\000\000\000chCoreAlloc\000\000\000\000\000"
 243      00636843 
ARM GAS  /tmp/ccNhnR6l.s 			page 18


 243      6F726541 
 243      6C6C6F63 
 243      00000000 
 244 002a 00000000 		.ascii	"\000\000\000\000\000\000\000\245\000\000\000chCoreA"
 244      000000A5 
 244      00000063 
 244      68436F72 
 244      6541
 245 003c 6C6C6F63 		.ascii	"llocI\000\000\000\000\000\000\000\000\000\000\000\000"
 245      49000000 
 245      00000000 
 245      00000000 
 245      00
 246 004d AF000000 		.ascii	"\257\000\000\000chCoreStatus\000\000\000\000\000\000"
 246      6368436F 
 246      72655374 
 246      61747573 
 246      00000000 
 247 0063 00000000 		.ascii	"\000\000\000\000\000\000\263\000\000\000__heap_base"
 247      0000B300 
 247      00005F5F 
 247      68656170 
 247      5F626173 
 248 0078 5F5F0000 		.ascii	"__\000\000\002\000\000\000\000\000\000\000\000\000\267"
 248      02000000 
 248      00000000 
 248      0000B7
 249 0087 0000005F 		.ascii	"\000\000\000__heap_end__\000\000\002\000\000\000\000"
 249      5F686561 
 249      705F656E 
 249      645F5F00 
 249      00020000 
 250 009d 00000000 		.ascii	"\000\000\000\000\000\300\000\000\000"
 250      00C00000 
 250      00
 251              		.text
 252              		.section	.gnu.lto_.opts,"",%progbits
 253 0000 272D6D63 		.ascii	"'-mcpu=cortex-m3''-mno-thumb-interwork''-mthumb''-g"
 253      70753D63 
 253      6F727465 
 253      782D6D33 
 253      27272D6D 
 254 0033 67646227 		.ascii	"gdb''-O2''-fomit-frame-pointer''-falign-functions=1"
 254      272D4F32 
 254      27272D66 
 254      6F6D6974 
 254      2D667261 
 255 0066 3627272D 		.ascii	"6''-ffunction-sections''-fdata-sections''-fno-commo"
 255      6666756E 
 255      6374696F 
 255      6E2D7365 
 255      6374696F 
 256 0099 6E27272D 		.ascii	"n''-flto'\000"
 256      666C746F 
 256      2700
 257              		.text
 258              		.cfi_sections	.debug_frame
ARM GAS  /tmp/ccNhnR6l.s 			page 19


 259              		.section	.text._core_init,"ax",%progbits
 260              		.align	2
 261              		.p2align 4,,15
 262              		.global	_core_init
 263              		.thumb
 264              		.thumb_func
 265              		.type	_core_init, %function
 266              	_core_init:
 267              	.LFB165:
 268              		.file 1 "../../../os/rt/src/chmemcore.c"
 269              		.loc 1 79 0
 270              		.cfi_startproc
 271              		@ args = 0, pretend = 0, frame = 0
 272              		@ frame_needed = 0, uses_anonymous_args = 0
 273              		@ link register save eliminated.
 274              		.loc 1 85 0
 275 0000 40F20001 		movw	r1, #:lower16:__heap_end__
 276              		.loc 1 84 0
 277 0004 0848     		ldr	r0, .L2
 278 0006 40F20002 		movw	r2, #:lower16:.LANCHOR0
 279              		.loc 1 85 0
 280 000a 40F20003 		movw	r3, #:lower16:.LANCHOR1
 281 000e C0F20001 		movt	r1, #:upper16:__heap_end__
 282              		.loc 1 84 0
 283 0012 C0F20002 		movt	r2, #:upper16:.LANCHOR0
 284 0016 20F00700 		bic	r0, r0, #7
 285              		.loc 1 85 0
 286 001a C0F20003 		movt	r3, #:upper16:.LANCHOR1
 287 001e 21F00701 		bic	r1, r1, #7
 288              		.loc 1 84 0
 289 0022 1060     		str	r0, [r2, #0]
 290              		.loc 1 85 0
 291 0024 1960     		str	r1, [r3, #0]
 292 0026 7047     		bx	lr
 293              	.L3:
 294              		.align	2
 295              	.L2:
 296 0028 07000000 		.word	__heap_base__+7
 297              		.cfi_endproc
 298              	.LFE165:
 299              		.size	_core_init, .-_core_init
 300 002c AFF30080 		.section	.text.chCoreAlloc,"ax",%progbits
 301              		.align	2
 302              		.p2align 4,,15
 303              		.global	chCoreAlloc
 304              		.thumb
 305              		.thumb_func
 306              		.type	chCoreAlloc, %function
 307              	chCoreAlloc:
 308              	.LFB166:
 309              		.loc 1 106 0
 310              		.cfi_startproc
 311              		@ args = 0, pretend = 0, frame = 0
 312              		@ frame_needed = 0, uses_anonymous_args = 0
 313              		@ link register save eliminated.
 314              	.LVL0:
 315              	.LBB26:
ARM GAS  /tmp/ccNhnR6l.s 			page 20


 316              	.LBB27:
 317              	.LBB28:
 318              	.LBB29:
 319              		.file 2 "../../../os/ext/CMSIS/include/core_cmFunc.h"
 320              		.loc 2 546 0
 321 0000 2023     		movs	r3, #32
 322              	@ 546 "../../../os/ext/CMSIS/include/core_cmFunc.h" 1
 323 0002 83F31188 		MSR basepri, r3
 324              	@ 0 "" 2
 325              	.LVL1:
 326              		.thumb
 327              	.LBE29:
 328              	.LBE28:
 329              	.LBE27:
 330              	.LBE26:
 331              	.LBB30:
 332              	.LBB31:
 333              		.loc 1 133 0
 334 0006 094A     		ldr	r2, .L7
 335 0008 0949     		ldr	r1, .L7+4
 336 000a 1368     		ldr	r3, [r2, #0]
 337 000c 0968     		ldr	r1, [r1, #0]
 338              		.loc 1 132 0
 339 000e 0730     		adds	r0, r0, #7
 340              	.LVL2:
 341 0010 20F00700 		bic	r0, r0, #7
 342              	.LVL3:
 343              		.loc 1 133 0
 344 0014 C91A     		subs	r1, r1, r3
 345 0016 8842     		cmp	r0, r1
 346              	.LVL4:
 347              		.loc 1 136 0
 348 0018 9ABF     		itte	ls
 349 001a 1818     		addls	r0, r3, r0
 350              	.LVL5:
 351 001c 1060     		strls	r0, [r2, #0]
 352              		.loc 1 134 0
 353 001e 0023     		movhi	r3, #0
 354              	.LVL6:
 355              	.LBE31:
 356              	.LBE30:
 357              	.LBB32:
 358              	.LBB33:
 359              	.LBB34:
 360              	.LBB35:
 361              	.LBB36:
 362              		.loc 2 546 0
 363 0020 0022     		movs	r2, #0
 364              	@ 546 "../../../os/ext/CMSIS/include/core_cmFunc.h" 1
 365 0022 82F31188 		MSR basepri, r2
 366              	@ 0 "" 2
 367              		.thumb
 368              	.LBE36:
 369              	.LBE35:
 370              	.LBE34:
 371              	.LBE33:
 372              	.LBE32:
ARM GAS  /tmp/ccNhnR6l.s 			page 21


 373              		.loc 1 113 0
 374 0026 1846     		mov	r0, r3
 375 0028 7047     		bx	lr
 376              	.L8:
 377 002a 00BF     		.align	2
 378              	.L7:
 379 002c 00000000 		.word	.LANCHOR0
 380 0030 00000000 		.word	.LANCHOR1
 381              		.cfi_endproc
 382              	.LFE166:
 383              		.size	chCoreAlloc, .-chCoreAlloc
 384 0034 AFF30080 		.section	.text.chCoreAllocI,"ax",%progbits
 384      AFF30080 
 384      AFF30080 
 385              		.align	2
 386              		.p2align 4,,15
 387              		.global	chCoreAllocI
 388              		.thumb
 389              		.thumb_func
 390              		.type	chCoreAllocI, %function
 391              	chCoreAllocI:
 392              	.LFB167:
 393              		.loc 1 127 0
 394              		.cfi_startproc
 395              		@ args = 0, pretend = 0, frame = 0
 396              		@ frame_needed = 0, uses_anonymous_args = 0
 397              		@ link register save eliminated.
 398              	.LVL7:
 399              		.loc 1 133 0
 400 0000 074A     		ldr	r2, .L12
 401 0002 0849     		ldr	r1, .L12+4
 402 0004 1368     		ldr	r3, [r2, #0]
 403 0006 0968     		ldr	r1, [r1, #0]
 404              		.loc 1 132 0
 405 0008 0730     		adds	r0, r0, #7
 406              	.LVL8:
 407 000a 20F00700 		bic	r0, r0, #7
 408              	.LVL9:
 409              		.loc 1 133 0
 410 000e C91A     		subs	r1, r1, r3
 411 0010 8842     		cmp	r0, r1
 412              	.LVL10:
 413              		.loc 1 136 0
 414 0012 9ABF     		itte	ls
 415 0014 1818     		addls	r0, r3, r0
 416              	.LVL11:
 417 0016 1060     		strls	r0, [r2, #0]
 418              		.loc 1 134 0
 419 0018 0023     		movhi	r3, #0
 420              	.LVL12:
 421              		.loc 1 138 0
 422 001a 1846     		mov	r0, r3
 423 001c 7047     		bx	lr
 424              	.L13:
 425 001e 00BF     		.align	2
 426              	.L12:
 427 0020 00000000 		.word	.LANCHOR0
ARM GAS  /tmp/ccNhnR6l.s 			page 22


 428 0024 00000000 		.word	.LANCHOR1
 429              		.cfi_endproc
 430              	.LFE167:
 431              		.size	chCoreAllocI, .-chCoreAllocI
 432 0028 AFF30080 		.section	.text.chCoreStatus,"ax",%progbits
 432      AFF30080 
 433              		.align	2
 434              		.p2align 4,,15
 435              		.global	chCoreStatus
 436              		.thumb
 437              		.thumb_func
 438              		.type	chCoreStatus, %function
 439              	chCoreStatus:
 440              	.LFB168:
 441              		.loc 1 147 0
 442              		.cfi_startproc
 443              		@ args = 0, pretend = 0, frame = 0
 444              		@ frame_needed = 0, uses_anonymous_args = 0
 445              		@ link register save eliminated.
 446              		.loc 1 149 0
 447 0000 40F20002 		movw	r2, #:lower16:.LANCHOR1
 448 0004 40F20003 		movw	r3, #:lower16:.LANCHOR0
 449 0008 C0F20002 		movt	r2, #:upper16:.LANCHOR1
 450 000c C0F20003 		movt	r3, #:upper16:.LANCHOR0
 451 0010 1068     		ldr	r0, [r2, #0]
 452 0012 1968     		ldr	r1, [r3, #0]
 453              		.loc 1 150 0
 454 0014 401A     		subs	r0, r0, r1
 455 0016 7047     		bx	lr
 456              		.cfi_endproc
 457              	.LFE168:
 458              		.size	chCoreStatus, .-chCoreStatus
 459 0018 AFF30080 		.section	.bss.endmem,"aw",%nobits
 459      AFF30080 
 460              		.align	2
 461              		.set	.LANCHOR1,. + 0
 462              		.type	endmem, %object
 463              		.size	endmem, 4
 464              	endmem:
 465 0000 00000000 		.space	4
 466              		.section	.bss.nextmem,"aw",%nobits
 467              		.align	2
 468              		.set	.LANCHOR0,. + 0
 469              		.type	nextmem, %object
 470              		.size	nextmem, 4
 471              	nextmem:
 472 0000 00000000 		.space	4
 473              		.text
 474              	.Letext0:
 475              		.file 3 "../../../os/rt/include/chschd.h"
 476              		.file 4 "/opt/ARM/gcc-arm-none-eabi-4_7-2013q3/bin/../lib/gcc/arm-none-eabi/4.7.4/include/stddef.h
 477              		.file 5 "/opt/ARM/gcc-arm-none-eabi-4_7-2013q3/bin/../lib/gcc/arm-none-eabi/4.7.4/../../../../arm-
 478              		.file 6 "../../../os/rt/ports/ARMCMx/compilers/GCC/chtypes.h"
 479              		.file 7 "../../../os/rt/ports/ARMCMx/chcore.h"
 480              		.file 8 "../../../os/rt/ports/ARMCMx/chcore_v7m.h"
 481              		.file 9 "../../../os/rt/include/chmtx.h"
 482              		.file 10 "../../../os/rt/include/chsys.h"
ARM GAS  /tmp/ccNhnR6l.s 			page 23


 483              		.file 11 "../../../os/ext/CMSIS/include/core_cm3.h"