ARM GAS  /tmp/ccOy41Td.s 			page 1


   1              		.syntax unified
   2              		.cpu cortex-m3
   3              		.fpu softvfp
   4              		.eabi_attribute 20, 1
   5              		.eabi_attribute 21, 1
   6              		.eabi_attribute 23, 3
   7              		.eabi_attribute 24, 1
   8              		.eabi_attribute 25, 1
   9              		.eabi_attribute 26, 1
  10              		.eabi_attribute 30, 2
  11              		.eabi_attribute 34, 1
  12              		.eabi_attribute 18, 4
  13              		.thumb
  14              		.file	"chmsg.c"
  15              		.text
  16              	.Ltext0:
  17              		.section	.gnu.lto_.jmpfuncs.d021b7b789cbe214,"",%progbits
  18 0000 789C6362 		.ascii	"x\234cb`d`g\300\016T\24143\0033#\223$C*#\003\003\017"
  18      60646067 
  18      C00E54A1 
  18      34330333 
  18      23932443 
  19 0019 50391042 		.ascii	"P9\020By|\014L\314L\014,\014\014\214%\014\000%\200\001"
  19      797C0C4C 
  19      CC4C0C2C 
  19      0C0C8C25 
  19      0C002580 
  20 002e D6       		.ascii	"\326"
  21              		.text
  22              		.section	.gnu.lto_.inline.d021b7b789cbe214,"",%progbits
  23 0000 789C6362 		.ascii	"x\234cb`d\340e\300\016\"\24143\003\203\230\034##P%\003"
  23      6064E065 
  23      C00E22A1 
  23      34330383 
  23      981C2323 
  24 0017 B3E48AC3 		.ascii	"\263\344\212\303\214\014\2347\314\230\030\230.\360\263"
  24      8C0C9C37 
  24      CC981898 
  24      2EF0B3
  25 0026 30307133 		.ascii	"00q3\000\205\301\344\004?F\006aA G\346\301-F\006\266"
  25      0085C1E4 
  25      043F4606 
  25      61412047 
  25      E6C12D46 
  26 003c 05F24C30 		.ascii	"\005\362L0Y\006\016\001 \311\262@\036\"\312\314\303"
  26      59060E01 
  26      20C9B240 
  26      1E22CACC 
  26      C3
  27 004d C0C034C1 		.ascii	"\300\3004\301o\202\037\003\000\375U\013l"
  27      6F821F03 
  27      00FD550B 
  27      6C
  28              		.text
  29              		.section	.gnu.lto_.pureconst.d021b7b789cbe214,"",%progbits
  30 0000 789C6362 		.ascii	"x\234cb`d`f```g\200\000f\006+F+&+\000\003#\000\302"
  30      60646066 
ARM GAS  /tmp/ccOy41Td.s 			page 2


  30      60606067 
  30      80006606 
  30      2B462B26 
  31              		.text
  32              		.section	.gnu.lto_chMsgSend.d021b7b789cbe214,"",%progbits
  33 0000 789C8D54 		.ascii	"x\234\215T]HTA\024>g\346\336\275k\231\232E$\305\266"
  33      5D485441 
  33      143E67E6 
  33      DEBD6B99 
  33      9A4524C5 
  34 0015 44413FE6 		.ascii	"DA?\346F/\365\024\205 Y\370\220\322\213\260J]o\255\320"
  34      462FF514 
  34      852059F8 
  34      90D28BB0 
  34      4A5D6FAD 
  35 002a E6B6BB8A 		.ascii	"\346\266\273\212\365\342m\353\241\227H\202\300r\203"
  35      F5E26DEB 
  35      A1974882 
  35      C07283
  36 0039 D47EA887 		.ascii	"\324~\250\207\250\240X\010\262\037\023\333\302\247 "
  36      A8A05808 
  36      B21F13DB 
  36      C2A720
  37 0048 A988C08A 		.ascii	"\251\210\300\212\350!z\350!\301\330\316\314\334\273"
  37      E8217AE8 
  37      21C1D8CE 
  37      CCDCBB
  38 0057 EDBABBE6 		.ascii	"\355\272\273\346\250w\306\231\363\235\357\314w\316\034"
  38      A877C699 
  38      F39DEFCC 
  38      77CE1C
  39 0066 06483F85 		.ascii	"\006H?\205c\033\375\245\014\200q\232Q\007d\375\223\000"
  39      631BFDA5 
  39      0C80719A 
  39      510764FD 
  39      9300
  40 0078 A7FC8CF1 		.ascii	"\247\374\214\361\361J\2607h\351\235`o\345\250\251m\015"
  40      F14AB037 
  40      68E99D60 
  40      6FE5A8A9 
  40      6D0D
  41 008a 512CC853 		.ascii	"Q,\310S\037\343\032\366\035\220.\265\2650d\333\027\372"
  41      1FE31AF6 
  41      1D902EB5 
  41      B53064DB 
  41      17FA
  42 009c 9F27F624 		.ascii	"\237'\366$>e2k,\261\333\216\220\036\235^Q\003\026\""
  42      3E65326B 
  42      2CB1DB8E 
  42      901E9D5E 
  42      51031622 
  43 00b0 F841CC0C 		.ascii	"\370A\314\014\264|r\205\373\371,\261\322\301q\211{\235"
  43      B47C7285 
  43      FBF92CB1 
  43      D2C17189 
  43      7B9D
  44 00c2 3CAC605E 		.ascii	"<\254`^\007\206\305`\375\247m\227Nc\340C\211\034\354"
ARM GAS  /tmp/ccOy41Td.s 			page 3


  44      0786C560 
  44      FDA76D97 
  44      4E63E043 
  44      891CEC
  45 00d5 5900614E 		.ascii	"Y\000aN\240\232$\274\375=\363\205\315\013L\247F\266"
  45      A09A24BC 
  45      FD3DF385 
  45      CD0B4CA7 
  45      46B6
  46 00e7 CC263DA3 		.ascii	"\314&=\243\354\311\247L\337:\030q\370%u\275\244\036"
  46      ECC9A74C 
  46      DF3A1871 
  46      F82575BD 
  46      A41E
  47 00f9 1BFC8185 		.ascii	"\033\374\201\205.P\332\366+[\235A\203\264\235*+BF\347"
  47      2E50DAF6 
  47      2B5B9D41 
  47      83B49D2A 
  47      2B4246E7 
  48 010d 2002AA41 		.ascii	" \002\252A\010\3420\256\005\206A\274I\0168\315\327i"
  48      08E230AE 
  48      058641BC 
  48      490E38CD 
  48      D769
  49 011f D668FF2A 		.ascii	"\326h\377*\355{h\036\242\331\000u^M\3635\372\237\206"
  49      ED7B681E 
  49      A2D90075 
  49      5E4DF335 
  49      FA9F86
  50 0132 0E676CBB 		.ascii	"\016gl\273\212)|\247\344\222c\277\230E\346\232\211M"
  50      8A297CA7 
  50      E49263BF 
  50      9845E69A 
  50      894D
  51 0144 2C781A12 		.ascii	",x\032\022\255\244V\020o\021\255\211\270\0316\0219\227"
  51      ADA45610 
  51      6F11AD89 
  51      B8193611 
  51      3997
  52 0156 93875F86 		.ascii	"\223\207_\206Kh\241\301N\302\214\355\265\320\213\235"
  52      4B68A1C1 
  52      4EC28CED 
  52      B5D08B9D 
  53 0166 88C28508 		.ascii	"\210\302\205\010\327+\363\017\320&>)]\256\262\011\032"
  53      D72BF30F 
  53      D0263E29 
  53      5DAEB209 
  53      1A
  54 0177 0736C595 		.ascii	"\0076\305\225S\025\204)\316h\027UhN\204\240L\346Ii\031"
  54      53158429 
  54      CE681755 
  54      684E84A0 
  54      4CE64969 
  55 018c 83BD32FE 		.ascii	"\203\2752\376\341s3\357k\347\315\215\330,\243C\200W"
  55      E17333EF 
  55      6BE7CD8D 
  55      D82CA343 
ARM GAS  /tmp/ccOy41Td.s 			page 4


  55      8057
  56 019e 90C0EFE7 		.ascii	"\220\300\357\347/N\357\310##\371\356R$A\274\223G)\336"
  56      2F4EEFC8 
  56      2323F9EE 
  56      522441BC 
  56      934729DE 
  57 01b2 C34DAA38 		.ascii	"\303M\2528\022D~\000|\220\302+\366\300.\013\027\345"
  57      12447E00 
  57      7C90C22B 
  57      F6C02E0B 
  57      17E5
  58 01c4 B9CD1E3F 		.ascii	"\271\315\036?r\216\027\253\232\200\304\276\364\343\221"
  58      728E17AB 
  58      9A80C4BE 
  58      F4E391
  59 01d3 4A7517A9 		.ascii	"Ju\027\251\234\356(W\316\350\33652\235\000!)\021S\254"
  59      9CEE2857 
  59      CEE8DE35 
  59      329D0021 
  59      291153AC 
  60 01e7 A6581072 		.ascii	"\246X\020r\206\317\016>DW~\355$\234\240W\243\262\260"
  60      86CF0E3E 
  60      44577EED 
  60      249CA057 
  60      A3B2B0
  61 01fa 24C70977 		.ascii	"$\307\011w\235\2345\244\027\256\274L\351n\004\215)="
  61      9D9C35A4 
  61      17AEBC4C 
  61      E96E048D 
  61      293D
  62 020c 87BF4225 		.ascii	"\207\277B%\260\262t\030\216vmB\212\024\227\001i2Ac\311"
  62      B0B27418 
  62      8E766D42 
  62      8A149701 
  62      69324163 
  63 0221 0AE5A8F0 		.ascii	"\012\345\250\360u\005\361\006E-k\3347o&\334d\227\366"
  63      7505F106 
  63      452D6BDC 
  63      376F26DC 
  63      6497F6
  64 0234 454A3E47 		.ascii	"EJ>G\\\230/MI|\373]\346O~\365P}?\223\011}*\277\371\225"
  64      5C982F4D 
  64      497CFB5D 
  64      E64F7EF5 
  64      507D3F93 
  65 024e E4147211 		.ascii	"\344\024r\021\001T\321z\224\022\256\373\326_\231\373"
  65      0154D17A 
  65      9412AEFB 
  65      D65F99FB 
  66 025e 94863199 		.ascii	"\224\2061\231\206\352<\360\022W\177\200\015\016\330"
  66      86EA3CF0 
  66      12577F80 
  66      0D0ED8
  67 026d C8F60352 		.ascii	"\310\366\003R\3767W\270\3771z]\306ju\241\331\314CV\004"
  67      FE3757B8 
  67      FF317A5D 
  67      C66A75A1 
ARM GAS  /tmp/ccOy41Td.s 			page 5


  67      D9CC4356 
  68 0282 599C6EC2 		.ascii	"Y\234n\302pu\225\224z\011\312\352\202K~\3439\300\326"
  68      70759594 
  68      7A09CAEA 
  68      824B7EE3 
  68      39C0D6
  69 0295 F4CBE972 		.ascii	"\364\313\351r\267\330<\022]U\254\312Ti\224\271\267|"
  69      B7D83C12 
  69      5D55ACCA 
  69      546994B9 
  69      B77C
  70 02a7 01635F31 		.ascii	"\001c_1\224\305\011+\016\0259b7\213\202\034\257\344"
  70      94C5092B 
  70      0E153962 
  70      378B821C 
  70      AFE4
  71 02b9 AF417B93 		.ascii	"\257A{\223\034F7\027N\333X\212\355\350\264\006\342\260"
  71      1C463717 
  71      4EDB588A 
  71      EDE8B406 
  71      E2B0
  72 02cb C4FD1548 		.ascii	"\304\375\025HS=\210P\037V\317\301,#\014\303\354\273"
  72      533D8850 
  72      1F56CFC1 
  72      2C230CC3 
  72      ECBB
  73 02dd AE8272FA 		.ascii	"\256\202r\372.W\227\370\234\364\271\261\030\316s+]\356"
  73      2E5797F8 
  73      9CF4B9B1 
  73      18CE732B 
  73      5DEE
  74 02ef 133CBFDE 		.ascii	"\023<\277\336\351I\017\250:\241\002\355u[\224\350\237"
  74      E9490FA8 
  74      3AA102ED 
  74      755B94E8 
  74      9F
  75 0300 261AC55A 		.ascii	"&\032\305ZT\211N%Ga\273\012\342=\365F\206\317=\370\270"
  75      54894E25 
  75      4761BB0A 
  75      E23DF546 
  75      86CF3DF8 
  76 0315 907E2546 		.ascii	"\220~%F\311~\365N\026\366\333R\375*\210\017h\361\317"
  76      C97EF54E 
  76      16F6DB52 
  76      FD2A880F 
  76      68F1CF
  77 0328 8FD3A082 		.ascii	"\217\323\240\202\230B\237\334\230\004LO\362\254X\312"
  77      98429FDC 
  77      98044C4F 
  77      F2AC58CA 
  78 0338 C17E910B 		.ascii	"\301~\221\013\322]\330\256\252\253\013\250\337\256X"
  78      D25DD8AE 
  78      AAAB0BA8 
  78      DFAE58
  79 0347 201A0FC4 		.ascii	" \032\017\304\242f\300\014\205cG\352L\340f<\342\237"
  79      A266C00C 
  79      856347EA 
ARM GAS  /tmp/ccOy41Td.s 			page 6


  79      4CE0663C 
  79      E29F
  80 0359 73DE79CC 		.ascii	"s\336y\314<\332\335a\221M\314\014u\324\205\200\305#"
  80      3CDADD61 
  80      914DCC0C 
  80      75D48580 
  80      C523
  81 036b 9CCCF59E 		.ascii	"\234\314\365\236\203G\273\255\215s\254#]\321x,\260\273"
  81      8347BBAD 
  81      8D73AC23 
  81      5DD1782C 
  81      B0BB
  82 037d B9A9BEA9 		.ascii	"\271\251\276\251\227 fW\324j\357\331\036&Xm\256\245"
  82      97206657 
  82      D46AEFD9 
  82      1E26586D 
  82      AEA5
  83 038f D51B0FD4 		.ascii	"\325\033\017\3247\2654\266\374s/,\315pC\3671\223\214"
  83      37B534B6 
  83      FC732F2C 
  83      CD7043F7 
  83      31938C
  84 03a2 AB9A5A9A 		.ascii	"\253\232Z\232\375\207\016\306\254H\264\263\326\277~"
  84      FD870EC6 
  84      AC48B4B3 
  84      D6BF7E
  85 03b1 2BB02818 		.ascii	"+\260(\030a+\334\025=\001<~<\362\027\354m\241\367"
  85      612BDC15 
  85      3D013C7E 
  85      3CF217EC 
  85      6DA1F7
  86              		.text
  87              		.section	.gnu.lto_chMsgWait.d021b7b789cbe214,"",%progbits
  88 0000 789C9D54 		.ascii	"x\234\235TMHTQ\024>\347\375\370FMG\024\372%\033\202"
  88      4D485451 
  88      143EE7FD 
  88      F8464D47 
  88      14FA251B 
  89 0015 C04A1CA1 		.ascii	"\300J\034\241E.\013#\222p\221\022D0I=\037)8j3\243\250"
  89      452E0B23 
  89      92709112 
  89      4430493D 
  89      1F29386A 
  90 002c 8B7C4D2D 		.ascii	"\213|M-f!\"\2014)5\375a%\265\010\012\252M\321\217\213"
  90      66212281 
  90      342935FD 
  90      6125B508 
  90      0AAA4DD1 
  91 0042 C924A845 		.ascii	"\311$\250EaDh\310,\244Z$(\032v\356\275\357\2153\243"
  91      614468C8 
  91      2CA45A24 
  91      281A76EE 
  91      BDEF8D33 
  92 0057 330D5E9D 		.ascii	"3\015^\235w.\367\236\363\235s\276s\356\221\000\351o"
  92      772EF79E 
  92      F39D73BE 
  92      73EE9100 
ARM GAS  /tmp/ccOy41Td.s 			page 7


  92      E96F
  93 0069 F5DA47BF 		.ascii	"\365\332G\277C\016\200o$Q\005\224\006&\000.\270$I\236"
  93      430E806F 
  93      24510594 
  93      0626002E 
  93      B824499E 
  94 007d D3C02C53 		.ascii	"\323\300,S\206\307\000\314J\031\025q\256 \262\015A\365"
  94      86C700CC 
  94      4A191571 
  94      AE20B20D 
  94      41F5
  95 008f 4AB282BD 		.ascii	"J\262\202\275\3079\246c'\3344\315\313\003\257\203G\202"
  95      C739A663 
  95      27DC34CD 
  95      CB03AF83 
  95      4782
  96 00a1 DF979777 		.ascii	"\337\227\227w\030\354\264\001!\2728\275i\013\030\210"
  96      18ECB401 
  96      21BA38BD 
  96      690B1888 
  97 00b1 E0022625 		.ascii	"\340\002&%P\222\275\013\273\337\257\202\233-;\231\333"
  97      5092BD0B 
  97      BBDFAF82 
  97      9B2D3B99 
  97      DB
  98 00c2 75092387 		.ascii	"u\011#\207e\204k\031%8S\270\321ld\006\263p6p\321\214"
  98      65846B19 
  98      253853B8 
  98      D16C6406 
  98      B3703670 
  99 00d8 07294129 		.ascii	"\007)A)2\3237\221\316\377[\016\255\012s\351z\353z\002"
  99      32D33791 
  99      CEFF5B0E 
  99      AD0A73E9 
  99      7AEB7A02 
 100 00ec 1D197AF2 		.ascii	"\035\031z\362I\315&\322T:\347\265\365X\215\364\015O"
 100      49CD26D2 
 100      543AE7B5 
 100      F5588DF4 
 100      0D4F
 101 00fe 7DCEEC2F 		.ascii	"}\316\354/\372kz\373\370\275\234\027\322\313\357\313"
 101      FA6B7AFB 
 101      F8BD9C17 
 101      D2CBEFCB 
 102 010e BD005B11 		.ascii	"\275\000[\021<x\003w\222\232\220*\311[$\235$\357\222"
 102      3C780377 
 102      929A902A 
 102      C95B249D 
 102      24EF92
 103 0121 2C223942 		.ascii	",\"9B\262\230\344m\222%$\357\221\244\245\302%\323,B"
 103      B298E46D 
 103      922524EF 
 103      91A4A5C2 
 103      25D32C42 
 104 0135 71DE6011 		.ascii	"q\336`\021r\214I\3267u\344\233m\3441\220P\250Z\026\204"
 104      728C49D6 
 104      3775E49B 
ARM GAS  /tmp/ccOy41Td.s 			page 8


 104      6DE43190 
 104      50A85A16 
 105 014a 709F4E32 		.ascii	"p\237N2TK\225\340\014\257\326T\377\302dy\306|\330\241"
 105      544B95E0 
 105      0CAFD654 
 105      FFC26479 
 105      C67CD8A1 
 106 015e 4A9700EF 		.ascii	"J\227\000\357 \210\243\203\203\323UI\316(\274\007\024"
 106      2088A383 
 106      83D35549 
 106      CE28BC07 
 106      14
 107 016f 9E074793 		.ascii	"\236\007G\223\\\262\027\362\202jK1\362\017@)|\300kf"
 107      5CB217F2 
 107      826A4B31 
 107      F20F4029 
 107      7CC06B66 
 108 0183 F8808139 		.ascii	"\370\200\2019I\260\361\353\217\326\265&x\204\340I\326"
 108      49B0F1EB 
 108      8FD6B526 
 108      7884E049 
 108      D6
 109 0194 F322171D 		.ascii	"\363\"\027\035q/\354\2412\310\\8\344!\270\212\006\346"
 109      712FECA1 
 109      32C85C38 
 109      E421B88A 
 109      06E6
 110 01a6 4A3DB060 		.ascii	"J=\260`:\014\314\303f\361&\031n\036\367\017p\212}B\032"
 110      3A0CCCC3 
 110      66F12619 
 110      6E1EF70F 
 110      708A7D42 
 111 01bb DFD1765E 		.ascii	"\337\321v^\304GtY\004\255nb\017\336!\006\022\3331\015"
 111      C4477459 
 111      04AD6E62 
 111      0FDE2106 
 111      12DB310D 
 112 01cf 2B3A0364 		.ascii	"+:\003d!R\003.\311\251\204<\343\204$\327@Ggb\006\371"
 112      2152032E 
 112      C9A9843C 
 112      E38424D7 
 112      40476762 
 113 01e5 56061B24 		.ascii	"V\006\033$\202b. \0364\321\361T\345;z\032\363q6\026"
 113      82622E20 
 113      1E34D1F1 
 113      54E53B7A 
 113      1AF37136 
 114 01fa E4588107 		.ascii	"\344X\201\007\237s2\212z\240\233\236\000f\001\025v\322"
 114      9F73328A 
 114      7AA09B9E 
 114      00660115 
 114      76D2
 115 020c 2E56C051 		.ascii	".V\300Q\336\302\233\031\214.\336\226mR\235\004\265\022"
 115      DEC29B19 
 115      8C2EDE96 
 115      6D529D04 
 115      B512
ARM GAS  /tmp/ccOy41Td.s 			page 9


 116 021e 621D7338 		.ascii	"b\035s8\247\311\343\240\374\210\214\242\235\201Eq\001"
 116      A7C9E3A0 
 116      FC888CA2 
 116      9D814571 
 116      01
 117 022f 362062BC 		.ascii	"6 b\274'\012\241\220\276N\333R\021\275\310(\231\215"
 117      270AA190 
 117      BE4EDB52 
 117      11BDC828 
 117      998D
 118 0241 FC44DB81 		.ascii	"\374D\333\201\262\316\252\201]4XI?\254\331\250j\272"
 118      B2CEAA81 
 118      5D345849 
 118      3FACD9A8 
 118      6ABA
 119 0253 F4153BFD 		.ascii	"\364\025;\375P\256\235?[a\355\177\225W$\230D\314\256"
 119      50AE9D3F 
 119      5B61ED7F 
 119      95572498 
 119      44CCAE
 120 0266 F2AA55F9 		.ascii	"\362\252U\371\276+S1\253\364\230\241\225 #\\\274g\242"
 120      BE2B5331 
 120      ABF498A1 
 120      9520235C 
 120      BC67A2
 121 0279 6BF64CB1 		.ascii	"k\366L\261\305\237H1\337NQ\2012\213+\252X,\336\3271"
 121      C59F4831 
 121      DF4E5181 
 121      328B2BAA 
 121      582CDED7 
 122 028e 2AEC38B2 		.ascii	"*\3548\262\011\363\236\320\310ZD:\033\232\336(.t,I\002"
 122      09F39ED0 
 122      C85A443A 
 122      1B9ADE28 
 122      2E742C49 
 123 02a3 649C1527 		.ascii	"d\234\025'\267L<>\262\254\011\253\302.\213(B2\017\270"
 123      B74C3C3E 
 123      B2AC09AB 
 123      C22E8B28 
 123      42320FB8 
 124 02b7 841B1E9D 		.ascii	"\204\033\036\235\317]\303\220y+I\366F\241\3074\233U"
 124      CF5DC390 
 124      792B49F6 
 124      46A1C734 
 124      9B55
 125 02c9 CA20FAD7 		.ascii	"\312 \372\327nN1\365\254@\252\376D\316\213c\016X\270"
 125      6E4E31F5 
 125      AC40AAFE 
 125      44CE8B63 
 125      0E58B8
 126 02dc 56F82738 		.ascii	"V\370'8`\016$th\201\240%e:\246\031\222|\255\236\224"
 126      600E2474 
 126      6881A025 
 126      653AA619 
 126      927CAD9E 
 127 02f1 1E7C28EA 		.ascii	"\036|(\3528\325\377\344[6\243\222\255\264\243\362+\257"
 127      38D5FFE4 
ARM GAS  /tmp/ccOy41Td.s 			page 10


 127      5B36A392 
 127      ADB4A3F2 
 127      2BAF
 128 0303 F29774A3 		.ascii	"\362\227t\243\322\203\217h\263\202c\315F\017>\306R~"
 128      D2838F68 
 128      B38263CD 
 128      460F3EC6 
 128      527E
 129 0315 3001180D 		.ascii	"0\001\030\015\251\366;(\026\000\307\330C\241\327\307"
 129      A9F63B28 
 129      1600C7D8 
 129      43A1D7C7 
 130 0325 74B75554 		.ascii	"t\267UT\270\305\177\233\337\355\013\270\375>\335\255"
 130      B8C57F9B 
 130      DFED0BB8 
 130      FD3EDDAD 
 131 0335 3779FD67 		.ascii	"7y\375g+t\220\002\355;R\256\233[\365\226\216F\303Ri"
 131      2B749002 
 131      ED3B52AE 
 131      9B5BF596 
 131      8E46C352 
 132 034a 0257DA7B 		.ascii	"\002W\332{\277\336\324H\012j\347\351\226\016cw\212Z"
 132      BFDED448 
 132      0A6AE7E9 
 132      960E6377 
 132      8A5A
 133 035c 7B9B2FE0 		.ascii	"{\233/\340w\037\254\253\255\256\355\"]\275\315g4t\356"
 133      771FACAB 
 133      ADAEED22 
 133      5DBDCD67 
 133      3474EE
 134 036f F7927E79 		.ascii	"\367\222~y\242\246\321\025pW\327\326\327\324\257\340"
 134      A2A6D115 
 134      7057D7D6 
 134      D7D4AFE0 
 135 037f 324DDD7B 		.ascii	"2M\335{\270\243U'\345\242\332\372:\327\231\323~\243"
 135      B8A35527 
 135      E5A2DAFA 
 135      3AD799D3 
 135      7EA3
 136 0391 DDD75CEE 		.ascii	"\335\327\\\356\332U\011\222\0174\257\341m\363u\203\034"
 136      DA550992 
 136      0F34AFE1 
 136      6DF37583 
 136      1C
 137 03a2 38D7FE0F 		.ascii	"8\327\376\017\314\271\315k"
 137      CCB9CD6B 
 138              		.text
 139              		.section	.gnu.lto_chMsgRelease.d021b7b789cbe214,"",%progbits
 140 0000 789C8D52 		.ascii	"x\234\215RAL\023Q\020}\363\227\002z\342JL\332B\344`"
 140      414C1351 
 140      107DF397 
 140      027AE24A 
 140      4CDA42E4 
 141 0015 4276BDE1 		.ascii	"Bv\275\341QBb\344\320\003m<n\032\\\177l\023\2266\273"
 141      514262E4 
 141      D0036D3C 
ARM GAS  /tmp/ccOy41Td.s 			page 11


 141      6E1A5C7F 
 141      6C139636 
 142 002a 2D412E5D 		.ascii	"-A.]*W\222F\203\361B\002\002A\321D=h\274\030=iR\015"
 142      2A579246 
 142      83F14202 
 142      0241D144 
 142      3D68BC18 
 143 0042 17AF2692 		.ascii	"\027\257&\222\030o\204\213\211\001/u\376\337B\273@\301"
 143      186F848B 
 143      89012F75 
 143      FEDF42BB 
 143      40C1
 144 0054 BFFB7726 		.ascii	"\277\373w&\177\336\274y\363g\005\210\237\223\253\237"
 144      7FDEBC79 
 144      F3670588 
 144      9F93AB9F 
 145 0064 F7B801BC 		.ascii	"\367\270\001\274gK\006H\324\266\201\371\244 R\016\247"
 145      674B0648 
 145      D4B681F9 
 145      A420520E 
 145      A7
 146 0075 5404556E 		.ascii	"T\004Un\205\231\365\345\015\363\373V\367\007\361q\247"
 146      8599F5E5 
 146      0DF3FB56 
 146      F707F171 
 146      A7
 147 0086 51B98CB5 		.ascii	"Q\271\214\265 xP\273\037\334\224\004\2018!K\330}\366"
 147      207850BB 
 147      1FDC9404 
 147      8138214B 
 147      D87DF6
 148 0099 87FA2189 		.ascii	"\207\372!\211\220\204\262\002]\212Dck!\326\020\030\320"
 148      9084B202 
 148      5D8A4463 
 148      6B21D610 
 148      18D0
 149 00ab D8FD0B27 		.ascii	"\330\375\013'\221\354\030\274\201\213D6\255p\242`\373"
 149      91EC18BC 
 149      818B4436 
 149      AD70A260 
 149      FB
 150 00bc 842DAF18 		.ascii	"\204-\257\030\026\202\240\217\362:[\257\011e\225\316"
 150      1682A08F 
 150      F23A5BAF 
 150      096595CE 
 151 00cc 34E72BC7 		.ascii	"4\347+\307\370\304\011!\256\011\207M\353|\322Z\203X"
 151      F8C40921 
 151      AE09874D 
 151      EB7CD25A 
 151      8358
 152 00de 6DEAAEEE 		.ascii	"m\352\256\3564\032\011I]\002C\232r\257\376\343\2278"
 152      341A0949 
 152      5D02439A 
 152      72AFFEE3 
 152      9738
 153 00f0 4553FB65 		.ascii	"ES\373e1\234\203\300\027T\351\355\342\322\317k\221b"
 153      319C83C0 
ARM GAS  /tmp/ccOy41Td.s 			page 12


 153      1754E9ED 
 153      E2D2CF6B 
 153      9162
 154 0102 AC759306 		.ascii	"\254u\223\006\271\344F\244\244\272\371*7\306\032\365"
 154      B9E446A4 
 154      A4BAF92A 
 154      37C61AF5 
 155 0112 0788E321 		.ascii	"\007\210\343!-\007\217\257K\215k\321\036\205\0375\303"
 155      2D078FAF 
 155      4B8D6BD1 
 155      1E851F35 
 155      C3
 156 0123 DD9A4075 		.ascii	"\335\232@uu\212r.\264\312\"Y:O\3068S\271\303\241v\232"
 156      758A722E 
 156      B4CA2259 
 156      3A4FC638 
 156      53B9C3A1 
 157 0139 5A1B8D61 		.ascii	"Z\033\215a\323ZH\203s8X\334W\304\376.}\373\234\210\364"
 157      D35A4883 
 157      733858DC 
 157      57C4FE2E 
 157      7DFB9C88 
 158 014e 2D6C7AAD 		.ascii	"-lz\255\373~\245\277\321\013\007\346p\020\364J\352\241"
 158      FB7EA5BF 
 158      D10B07E6 
 158      7010F44A 
 158      EAA1
 159 0160 2C111DCA 		.ascii	",\021\035\312a6I\275\241\250\350\304:\014\256\303\364"
 159      613649BD 
 159      A1A8E8C4 
 159      3A0CAEC3 
 159      F4
 160 0171 6C7A1A8A 		.ascii	"lz\032\212\337\333\372\375_\343\303Y\343{\247\033x\323"
 160      DFDBFAFD 
 160      5FE3C359 
 160      E37BA71B 
 160      78D3
 161 0183 697C36BD 		.ascii	"i|6\275`\247\305\323\234\227M/)\256\017\266A\365\347"
 161      60A7C5D3 
 161      9C974D2F 
 161      29AE0FB6 
 161      41F5E7
 162 0196 322A7D42 		.ascii	"2*}B5\315?\247\202^2M+|\013\276\345\225,\337s,'\347"
 162      35CD3FA7 
 162      825E324D 
 162      2B7C0BBE 
 162      E5952CDF 
 163 01ae FA774D07 		.ascii	"\372wM\007\242T4\330\213\315LN\225\345\225c\300b\301"
 163      A25434D8 
 163      8BCD4C4E 
 163      95E59563 
 163      C062C1
 164 01c1 2BF9D668 		.ascii	"+\371\326h:5\226\232\345\014\247\340\311\354\314\210"
 164      3A35969A 
 164      E50CA7E0 
 164      C9ECCC88 
 165 01d1 6BE630DC 		.ascii	"k\3460\334\216\224\263%k,\225\031\317X\371ig\252|GZ"
ARM GAS  /tmp/ccOy41Td.s 			page 13


 165      8E94B325 
 165      6B2C9519 
 165      CF58F969 
 165      67AA7C47 
 166 01e6 1AE9B837 		.ascii	"\032\351\2707\312\323\016\203\373R\231t\362\366\244"
 166      CAD30E83 
 166      FB529974 
 166      F2F6A4
 167 01f5 2F8B5E7E 		.ascii	"/\213^~89t\025\302C\217+\335\202w\017\211c%\217\030"
 167      38397415 
 167      C2438F2B 
 167      DD82770F 
 167      8963258F 
 168 020a B4BE1CFE 		.ascii	"\264\276\034\376\001\256\367\323C"
 168      01AEF7D3 
 168      43
 169              		.text
 170              		.section	.gnu.lto_.cgraph.d021b7b789cbe214,"",%progbits
 171 0000 789C6362 		.ascii	"x\234cb`d`f``(b\200\002\246\245\214\365\014\014\023"
 171      60646066 
 171      60602862 
 171      8002A6A5 
 171      8CF50C0C 
 172 0015 CE31D4D7 		.ascii	"\3161\324\327\317\353`dZ\306X\317\210\340-g\254g\202"
 172      CFEB6064 
 172      5AC658CF 
 172      88E02D67 
 172      AC6782
 173 0028 F318D730 		.ascii	"\363\030\3270\3263\203y\015\015\214\214k\031\353Y\340"
 173      D6338379 
 173      0D0D8C8C 
 173      6B19EB59 
 173      E0
 174 0039 9C958CF5 		.ascii	"\234\225\214\365\2540\0163\003\013C\363\251\343\314"
 174      AC300E33 
 174      030B43F3 
 174      A9E3CC
 175 0048 CC407B16 		.ascii	"\314@{\026w\275\221g\006\212<\336\312\307\314\304\312"
 175      77BD9167 
 175      068A3CDE 
 175      CAC7CCC4 
 175      CA
 176 0059 D0FCF01F 		.ascii	"\320\374\360\037#\003\0003##\036"
 176      23030033 
 176      23231E
 177              		.text
 178              		.section	.gnu.lto_.vars.d021b7b789cbe214,"",%progbits
 179 0000 789C6362 		.ascii	"x\234cb`d`f```g\200\000\306\325\214\014\014\365\014"
 179      60646066 
 179      60606067 
 179      8000C6D5 
 179      8C0C0CF5 
 180 0015 00060801 		.ascii	"\000\006\010\001:"
 180      3A
 181              		.text
 182              		.section	.gnu.lto_.refs.d021b7b789cbe214,"",%progbits
 183 0000 789C6362 		.ascii	"x\234cb`d`f``\340a\200\000F db\004\221\014\014\000\001"
ARM GAS  /tmp/ccOy41Td.s 			page 14


 183      60646066 
 183      6060E061 
 183      80004620 
 183      64620491 
 184 0018 DD001A   		.ascii	"\335\000\032"
 185              		.text
 186              		.section	.gnu.lto_.statics.d021b7b789cbe214,"",%progbits
 187 0000 789C6362 		.ascii	"x\234cb`d`b\300\016@\342\214\020&\000\000\375\000\011"
 187      60646062 
 187      C00E40E2 
 187      8C102600 
 187      00FD0009 
 188              		.text
 189              		.section	.gnu.lto_.decls.d021b7b789cbe214,"",%progbits
 190 0000 789CAD5A 		.ascii	"x\234\255Z{t\024\325\031\277\367N\262\273!\220 >\032"
 190      7B7414D5 
 190      19BFF74E 
 190      B2BB2190 
 190      203E1A
 191 0013 AD3D893D 		.ascii	"\255=\211=\322\203\036\311\202P\036\265r\254x\004=\322"
 191      D2831EC9 
 191      82501EB5 
 191      72AC7804 
 191      3DD2
 192 0025 F6883DFE 		.ascii	"\366\210=\376\265g\273\331\014\311\326}9;\201\360\337"
 192      B567BBD9 
 192      0CC9D67D 
 192      393B81F0 
 192      DF
 193 0036 185BF141 		.ascii	"\030[\361AkDQ^\201\010\362\312\251\017\024\004\201\372"
 193      6B44515E 
 193      8108F2CA 
 193      A90F1404 
 193      81FA
 194 0048 38449410 		.ascii	"8D\224\0200b\024\320P)M\243\306H\245\306\022m$\375\356"
 194      306214D0 
 194      50294DA3 
 194      C648A5C6 
 194      126D24FD 
 195 005d 9D993B33 		.ascii	"\235\231;3\2733;\231\2049\2713wf\356\375}\337\367\373"
 195      BB333B99 
 195      8439B933 
 195      7766EEFD 
 195      7DDFF7FB 
 196 0071 BE7BEF37 		.ascii	"\276{\3577wC\020F\364\350\200\313\020\034\322\015\010"
 196      77431046 
 196      F4E880CB 
 196      101CD20D 
 196      08
 197 0082 55152004 		.ascii	"U\025 \004\177\350f(\364m3R\017\037\224\255Pf\300\303"
 197      7FE86628 
 197      F46D3352 
 197      0F1F94AD 
 197      5066C0C3 
 198 0096 5F40B915 		.ascii	"_@\271\025\312\355P\356\304j\273\2730\262\034\264\355"
 198      CAED50EE 
 198      C46ABBBB 
ARM GAS  /tmp/ccOy41Td.s 			page 15


 198      30B21CB4 
 198      ED
 199 00a7 E55056C2 		.ascii	"\345PV\302\363\022\270\216\325\360^\202\262\035\312"
 199      F312B88E 
 199      D5F05E82 
 199      B21DCA
 200 00b6 3D70B300 		.ascii	"=p\263\000\312\323P\366\303\3753p]\015e\007\324K\341"
 200      CAD350F6 
 200      C3FD3370 
 200      5D0D6507 
 200      D44BE1
 201 00c9 3A07AE03 		.ascii	":\007\256\003\232\374\265p?\017\312:(s\241\024\303\263"
 201      9AFCB570 
 201      3F0FCA3A 
 201      2873A114 
 201      C3B3
 202 00db 85708D42 		.ascii	"\205p\215B\371\021\305\207r\036\236]\200\262\223\312"
 202      F911C587 
 202      721E9E5D 
 202      80B293CA 
 203 00eb 85FB57E1 		.ascii	"\205\373W\341\372%\224\357\241\010\232>\267kz\023\250"
 203      FA2594EF 
 203      A1089A3E 
 203      B76B7A13 
 203      A8
 204 00fc 37E15C9D 		.ascii	"7\341\\\235\251m\3435\035u\2357a\325\006\263\216f\335"
 204      A96DE335 
 204      1D759D37 
 204      61D506B3 
 204      8E66DD
 205 010f 4B359DA9 		.ascii	"K5\235\251nTW\252\237\337\244\037\325\3552\254\352\245"
 205      6E5457AA 
 205      9FDFA41F 
 205      D5ED32AC 
 205      EAA5
 206 0121 EB443459 		.ascii	"\353D4Y\267:pG\371-\312\322\203rf\326a\013\224\233\264"
 206      B73A7047 
 206      F92DCAD2 
 206      837266D6 
 206      610B949B 
 207 0136 7E44EBA3 		.ascii	"~D\353\243\373bk\026^\021zXQ\032\224\323\233\225\262"
 207      FB626B16 
 207      5E117A58 
 207      511A94D3 
 207      9B95B2
 208 0149 55807725 		.ascii	"U\200w%\012\341\022\300\017\260\332\330\"\265\323D\364"
 208      0AE112C0 
 208      0FB0DAD8 
 208      22B5D344 
 208      F4
 209 015a 9CA2342A 		.ascii	"\234\2424*\212\202C\270\031\027\001(\301\350z\264]a"
 209      8A8243B8 
 209      19170128 
 209      C1E87AB4 
 209      5D61
 210 016c 8786A85D 		.ascii	"\207\206\250]\212Q\313\366W\372\204\021\242?\307\320"
 210      8A51CBF6 
ARM GAS  /tmp/ccOy41Td.s 			page 16


 210      57FA8411 
 210      A23FC7D0 
 211 017c C1A121BC 		.ascii	"\301\241!\274\011_\217.,\337\365\003Q\241B\030\027\231"
 211      095F8F2E 
 211      2CDFF503 
 211      51A14218 
 211      1799
 212 018e 1567F76A 		.ascii	"\025g\367j+\025X}\255\327\206\254v\016\243u9Z\2574\237"
 212      2B15587D 
 212      ADD786AC 
 212      760EA375 
 212      395AAF34 
 213 01a3 6E7C5099 		.ascii	"n|P\231?04\344\277\002\255\244\2665?\004j\311\314\014"
 213      3F3034E4 
 213      BF02ADA4 
 213      B6353F04 
 213      6AC9CC0C 
 214 01b7 7633FF5D 		.ascii	"v3\377]\223\031\025\334\214\202,3\26633Z\261nG\313\027"
 214      931915DC 
 214      8C822C33 
 214      B633335A 
 214      B16E47CB 
 215 01cc 564ABC60 		.ascii	"VJ\274`\375\225a\265a\203\2237\016N\326\255\362eq\342"
 215      FD9561B5 
 215      61839337 
 215      0E4ED6AD 
 215      F26571E2 
 216 01e0 B35A495F 		.ascii	"\263ZI_Si\003t\010\343!\375\300\372;z\343G\027\003\302"
 216      53690374 
 216      08E321FD 
 216      C0FA3B7A 
 216      E3471703 
 217 01f5 DE0E8AB7 		.ascii	"\336\016\212\267\015_\301j\002\213E\210\217GiH\250\366"
 217      0D5FC16A 
 217      028B4588 
 217      8F476948 
 217      A8F6
 218 0207 4F404F50 		.ascii	"O@OP\354\0123\023\315\005\034\3426\026\300\307\230\351"
 218      EC0A3313 
 218      CD051CE2 
 218      3616C0C7 
 218      98E9
 219 0219 3BF0044D 		.ascii	";\360\004M/F\216\242\222C\237\"\355yO\3237\357\224\241"
 219      2F468EA2 
 219      92439F22 
 219      ED794FD3 
 219      37EF94A1 
 220 022d DC63C235 		.ascii	"\334c\3025\250\031DR\317\372B\370%\\\014\230\337s\314"
 220      A8194452 
 220      CFFA42F8 
 220      255C0C98 
 220      DF73CC
 221 0240 CE0DBDD8 		.ascii	"\316\015\275\330^y\275\256\036z\033\355\260\301|\200"
 221      5E79BDAE 
 221      1E7A1BED 
 221      B0C17C80 
 222 0250 E898DDE5 		.ascii	"\350\230\335\345^\020+r\020\265a3\374\030y\215\305\310"
ARM GAS  /tmp/ccOy41Td.s 			page 17


 222      5E102B72 
 222      10B56133 
 222      FC18798D 
 222      C5C8
 223 0262 C384C7DB 		.ascii	"\303\204\307\333\311\354!8|\254\375\014\253\221\030"
 223      C9EC2138 
 223      7CACFD0C 
 223      AB9118
 224 0271 F1F6FEC1 		.ascii	"\361\366\376\301\240\036\034\376\254x\363[\203\305\317"
 224      A01E1CFE 
 224      AC78F35B 
 224      83C5CF
 225 0280 47955F0B 		.ascii	"G\225_\013\215R\344\275\003A\2539\225=M?\2743;?\233"
 225      8D52E4BD 
 225      0341AB39 
 225      953D4D3F 
 225      BC333B3F 
 226 0295 0147FF28 		.ascii	"\001G\377(\214M-\310\232}\316\366\023\324\314$\276e"
 226      8C4D2DC8 
 226      9A7DCEF6 
 226      13D4CC24 
 226      BE65
 227 02a7 1B646F99 		.ascii	"\033do\231\202\354\314\226\343\207\355\202\014\233\334"
 227      82ECCC96 
 227      E387ED82 
 227      0C9BDC
 228 02b6 E71EE284 		.ascii	"\347\036\342\204K\277\226I?\312\244\037\264\225~\320"
 228      4BBF9649 
 228      3FCAA41F 
 228      B4957ED0 
 229 02c6 24BDF7F9 		.ascii	"$\275\367\371OJm\204\0279\011\017\341\233/\037\206\313"
 229      4F4A6D84 
 229      1739090F 
 229      E19B2F1F 
 229      86CB
 230 02d8 DB58FCFE 		.ascii	"\333X\374\376Q\300\334\3107\332\312u\217\315)\266z\020"
 230      51C0DCC8 
 230      37DACA75 
 230      8FCD29B6 
 230      7A10
 231 02ea EE750F32 		.ascii	"\356u\0172\335\377,\350\272\367>\277\343\330u\243\035"
 231      DDFF2CE8 
 231      BAF73EBF 
 231      E3D875A3 
 231      1D
 232 02fb 4BAA2E8D 		.ascii	"K\252.\215\034\264\375\216\321\215%\035\361I\216\330"
 232      1CB4FD8E 
 232      D18D251D 
 232      F1498ED8 
 233 030b E982E81C 		.ascii	"\351\202\350\034OV\304\2479b\227'Dg\035Ws\304n\027\304"
 233      4F56C4A7 
 233      39629727 
 233      44671D57 
 233      73C46E17 
 234 0320 F1C3D471 		.ascii	"\361\303\324q\035G\354\363\204\350\254\343\006\216\330"
 234      1D47ECF3 
 234      84E8ACE3 
ARM GAS  /tmp/ccOy41Td.s 			page 18


 234      068ED8
 235 032f EF825836 		.ascii	"\357\202X6L\0357q\304AO\210\316:n\345\210\255w\346G"
 235      4C1D3771 
 235      C4414F88 
 235      CE3A6EE5 
 235      88AD77E6 
 236 0344 ACB0D331 		.ascii	"\254\260\3231'\246\262\227\264\2671\037\023\004\265"
 236      27A6B297 
 236      B4B7311F 
 236      1304B5
 237 0353 08FACC71 		.ascii	"\010\372\314qf\313\311\303\301\021\304?\207zA0\246\275"
 237      66CBC9C3 
 237      C111C43F 
 237      877A4130 
 237      A6BD
 238 0365 216FD39E 		.ascii	"!o\323\236\035\031\352\262\264\223\203\266os[\352\334"
 238      1D19EAB2 
 238      B49383B6 
 238      6F735BEA 
 238      DC
 239 0376 C34AC5DC 		.ascii	"\303J\305\334\3171;'\215.\254,\323\025O\027\337tK\027"
 239      CF313B27 
 239      8D2EAC2C 
 239      D3154F17 
 239      DF744B17 
 240 038a D9DC68CA 		.ascii	"\331\334h\312.\313\234Z\207\360gx\"\234?\327\262\307"
 240      2ECB9C5A 
 240      87F06778 
 240      229C3FD7 
 240      B2C7
 241 039c 2B8D3AAF 		.ascii	"+\215:\257\016\261\274\277U\240\355\263\322c\315\341"
 241      0EB1BCBF 
 241      55A0EDB3 
 241      D263CDE1 
 242 03ac 6EBD9D43 		.ascii	"n\275\235C\345_\346P9d\270\302e\236\3143v\276nP\312"
 242      E55FE650 
 242      3964B8C2 
 242      659ECC33 
 242      76BE6E50 
 243 03c1 7C7A1EDE 		.ascii	"|z\036\336\301\021\273[z\260=\005\303\030=\014\323s"
 243      C111BB5B 
 243      7AB03D05 
 243      C3183D0C 
 243      D373
 244 03d3 B27E96A9 		.ascii	"\262~\226\251p\202/\033-\253y\326\241f\362\026\016]"
 244      70822F1B 
 244      2DAB79D6 
 244      A166F216 
 244      0E5D
 245 03e5 1370824E 		.ascii	"\023p\202N\233\342\377\\\333l/\346L\032\2759\3370s>"
 245      9BE2FF5C 
 245      DB6C2FE6 
 245      4C1ABD39 
 245      DF30733E 
 246 03f9 37CC796D 		.ascii	"7\314ym\224\346|m2\347\177\336\314\231b2G\315b.E+\334"
 246      94E67C6D 
 246      32E77FDE 
ARM GAS  /tmp/ccOy41Td.s 			page 19


 246      CC996232 
 246      47CD622E 
 247 0410 B218AAD6 		.ascii	"\262\030\252\326\000\276\024\345\346\020\364\251\236"
 247      00BE14E5 
 247      E610F4A9 
 247      9E
 248 041d 43B4BF50 		.ascii	"C\264\277Pb\023\343\005&Q\372\367\313y\246?\355\333"
 248      6213E305 
 248      2651FAF7 
 248      CB79A63F 
 248      EDDB
 249 042f FA62CF88 		.ascii	"\372b\317\210\223d+\346\005\21698\222\251\3222\027\315"
 249      93642BE6 
 249      058E3938 
 249      92A9D232 
 249      17CD
 250 0441 A153D1B2 		.ascii	"\241S\321\262\002\035\260\177\317h3y\317\271\362\003"
 250      021DB07F 
 250      CF683379 
 250      CFB9F203 
 251 0451 84DAF497 		.ascii	"\204\332\364\227\002\0362\217\3542Bf\177v\310\014/\367"
 251      021E328F 
 251      EC324266 
 251      7F76C80C 
 251      2FF7
 252 0463 5DC30DEA 		.ascii	"]\303\015\352i\332w\324e\021\260\265H;\010z\266@\017"
 252      69DA77D4 
 252      6511B0B5 
 252      483B087A 
 252      B6400F
 253 0476 C041179C 		.ascii	"\300A\027\234\012\027\367\015#\2076\363\262\214L\000"
 253      0A17F70D 
 253      238736F3 
 253      B28C4C00 
 254 0486 F19B392F 		.ascii	"\361\2339/}k\265\230\033\006\016e\352Qb\227\011\323"
 254      7D6BB598 
 254      1B060E65 
 254      EA516297 
 254      09D3
 255 0498 A77A1477 		.ascii	"\247z\024w\255]d\023\3058g\255\012\341]\230h\210\335"
 255      AD5D6413 
 255      C53867AD 
 255      0AE15D98 
 255      6888DD
 256 04ab 6B471420 		.ascii	"kG\024 \271\207Y\301\020~\214LD\240\335rr\215\301\374"
 256      B98759C1 
 256      107E8C4C 
 256      44A0DD72 
 256      728DC1FC 
 257 04bf 4ECE7CF7 		.ascii	"N\316|\367^\267\241c\345\276\302\302\275b\342\376\026"
 257      5EB7A163 
 257      E5BEC2C2 
 257      BD62E2FE 
 257      16
 258 04d0 3367B758 		.ascii	"3g\267X\362\0003\367\2173\356_\347\334\367\257\311\342"
 258      F20033F7 
 258      8F33EE5F 
ARM GAS  /tmp/ccOy41Td.s 			page 20


 258      E7DCF7AF 
 258      C9E2
 259 04e2 3E0F0E35 		.ascii	">\017\0165m\205-\367+\314\334\257\261\343\2368rO\373"
 259      6D852DF7 
 259      2BCCDCAF 
 259      B1E39E38 
 259      724FFB
 260 04f5 76AFB938 		.ascii	"v\257\2718\237\331!\274\233c\366]\345\005\261\302\331"
 260      9FD921BC 
 260      9B63F65D 
 260      E505B1C2 
 260      D9
 261 0506 9B2B4CDE 		.ascii	"\233+L\336|\022\274IB\370)0'\204W\232}z\224\373\264"
 261      7C12BC49 
 261      42F82930 
 261      2784579A 
 261      7D7A94FB 
 262 051b 739FE153 		.ascii	"s\237\341S+\201z}\222\2431\326\351\360$\307\354\277"
 262      2B817A7D 
 262      92A331D6 
 262      E9F024C7 
 262      ECBF
 263 052d 29BF3153 		.ascii	")\2771S\\\351Q'\243O\215\310\373\245\027\304\212\034"
 263      5CE95127 
 263      A34F8DC8 
 263      FBA517C4 
 263      8A1C
 264 053f 44D7CF58 		.ascii	"D\327\317X\005[\322<\202z\231\354&\333\000j2\005\320"
 264      055BD23C 
 264      827A99EC 
 264      26DB006A 
 264      3205D0
 265 0552 C6F7DEFF 		.ascii	"\306\367\336\377\273\335G\264`\212z=\220\033\013u\314"
 265      BBDD47B4 
 265      608A7A3D 
 265      901B0B75 
 265      CC
 266 0563 AEDD25F9 		.ascii	"\256\335%\371I\037^\004\021\264\212C\366\035/\311\317"
 266      491F5E04 
 266      11B48A43 
 266      F61D2FC9 
 266      CF
 267 0574 91DBB7A0 		.ascii	"\221\333\267\240W\216\314\003u\013\263\257\271\220O"
 267      578ECC03 
 267      750BB3AF 
 267      B9904F
 268 0583 921F15EB 		.ascii	"\222\037\025\353\001\251\222e\212\320&S\204n\200\010"
 268      01A99265 
 268      8AD02653 
 268      846E8008 
 269 0593 15200164 		.ascii	"\025 \001d\021\272\221\235\2373\342\324yR\335LL\251"
 269      11BA919D 
 269      9F33E2D4 
 269      7952DD4C 
 269      4CA9
 270 05a5 E836CEC1 		.ascii	"\3506\316\301\2407\016*,\036s\226\266\316,\355\305B"
 270      A0370E2A 
ARM GAS  /tmp/ccOy41Td.s 			page 21


 270      2C1E7396 
 270      B6CE2CED 
 270      C542
 271 05b7 2313DA5D 		.ascii	"#\023\332]\232_\334,W/\252\273]\257q\314\301\277\271"
 271      9A5FDC2C 
 271      572FAABB 
 271      5DAF71CC 
 271      C1BFB9
 272 05ca 4DB1B3B2 		.ascii	"M\261\263\262\224\315\305d\271D+\207\354{\335m\272\272"
 272      94CDC564 
 272      B9442B87 
 272      EC7BDD6D 
 272      BABA
 273 05dc C54E4D57 		.ascii	"\305NMWV\324)\314\330=\3216E\325\351\200^\357\0218i"
 273      56D429CC 
 273      D83DD136 
 273      45D5E980 
 273      5EEF1138 
 274 05f1 ED3C32F6 		.ascii	"\355<2\366\236z\342l\275\372\370Z\264IQVP\245\365h\376"
 274      9E7AE26C 
 274      BDFAF85A 
 274      B4495156 
 274      50A5F568 
 275 0606 0F6BB615 		.ascii	"\017k\266\025\227\243=~{\301\230ujT;\251\363\316\267"
 275      97A33D7E 
 275      7BC19875 
 275      6A543BA9 
 275      F3CEB7
 276 0619 BCD38922 		.ascii	"\274\323\211\"\007m5\235T1\350gh3\035\231\007\032\346"
 276      076D359D 
 276      5431E867 
 276      68331D99 
 276      071AE6
 277 062c 1BBAD2EE 		.ascii	"\033\272\322\356\365N\266\252\346\022b\346%\317\026"
 277      F54EB6AA 
 277      E61262E6 
 277      25CF16
 278 063b BB2AC699 		.ascii	"\273*\306\231\270\335\344\012\255\2463D\320w\234\240"
 278      B8DDE40A 
 278      ADA63344 
 278      D0779CA0 
 279 064b C1F5495D 		.ascii	"\301\365I]\006S\264AU\224i\016M^%\345\316Na-\366xP\324"
 279      0653B441 
 279      5594690E 
 279      4D5E25E5 
 279      CE4E612D 
 280 0663 714B8D02 		.ascii	"qK\215\002\355#\226\335n\315I\371\334\374\240\217O\000"
 280      ED2396DD 
 280      6ECD49F9 
 280      DCFCA08F 
 280      4F00
 281 0675 DBAFB277 		.ascii	"\333\257\262wr\010\277L\350\242\267\027\35481\\'\207"
 281      7208BF4C 
 281      E8A2B717 
 281      EC38315C 
 281      2787
 282 0687 F04EDE69 		.ascii	"\360N\336i\300\213\223\2257\033\312\230\225H\353]kb"
ARM GAS  /tmp/ccOy41Td.s 			page 22


 282      C08B9395 
 282      371BCA98 
 282      9548EB5D 
 282      6B62
 283 0699 26845FCF 		.ascii	"&\204_\317\245\3524\210m\366L\325\201l\252\350'-\266"
 283      A5EA3488 
 283      6DF64CD5 
 283      816CAAE8 
 283      272DB6
 284 06ac 70D3C8B9 		.ascii	"p\323\310\271\351i:\371\261e\311\010\341\267=(\222?"
 284      E9693AF9 
 284      B165C908 
 284      E1B73D28 
 284      923F
 285 06be B8DEB173 		.ascii	"\270\336\261s\232U\223\365\\\223\256\336\305V=\016\345"
 285      9A5593F5 
 285      5C93AEDE 
 285      C5563D0E 
 285      E5
 286 06cf D3438D08 		.ascii	"\323C\215\010\202Zx\377\376\336*k\377\303\326\376?E"
 286      825A78FF 
 286      FEDE2A6B 
 286      FFC3D6FE 
 286      3F45
 287 06e1 CFD2FE4A 		.ascii	"\317\322\376J\363|\345\364\320P\271\335\242r\332\330"
 287      F37CE5F4 
 287      D050B9DD 
 287      A272DAD8 
 288 06f1 3FBE0159 		.ascii	"?\276\001Y\027\225#lQ\331m\304T\2275\373\313\207C\320"
 288      1795236C 
 288      51D96DC4 
 288      549735FB 
 288      CB8743D0 
 289 0705 01D6AFC3 		.ascii	"\001\326\257\303v\001\3570-\340\375G7\332m\224\010\271"
 289      7601EF30 
 289      2DE0FD47 
 289      37DA6D94 
 289      08B9
 290 0717 59AB559E 		.ascii	"Y\253U\236\261\030^\235\245w'\323\373\010\327\273}}"
 290      B1185E9D 
 290      A57727D3 
 290      FB08D7BB 
 290      7D7D
 291 0729 3EBDAD38 		.ascii	">\275\2558T\253\343\266:\0377\351\334\275\316.k\365"
 291      54ABE3B6 
 291      3A1F37E9 
 291      DCBDCE2E 
 291      6BF5
 292 073b D9A41C1F 		.ascii	"\331\244\034\0373-h\337\276un\211\236z\270\257Vg8f\377"
 292      332D68DF 
 292      BE756E89 
 292      9E7AB8AF 
 292      56673866 
 293 0750 D5234D39 		.ascii	"\325#M9\364\324\221\3565\022\364\005Gl\375\311\010\026"
 293      F4D491EE 
 293      3512F405 
 293      476CFDC9 
ARM GAS  /tmp/ccOy41Td.s 			page 23


 293      0816
 294 0762 709BBCE8 		.ascii	"p\233\274\350\337\034\261\253\351b\355\024\236\347\230"
 294      DF1CB1AB 
 294      E962ED14 
 294      9EE798
 295 0771 DD2E5ABA 		.ascii	"\335.Z\272o@\253\210C\034q\320\005\321v\023-\3670\007"
 295      6F40AB88 
 295      431C71D0 
 295      05D17613 
 295      2DF73007 
 296 0785 4F089F80 		.ascii	"O\010\237\200\354\012d\235dy\325'\354|\212\235?e\347"
 296      EC0A649D 
 296      6479D527 
 296      EC7C8A9D 
 296      3F65E7
 297 0798 7FB0F33F 		.ascii	"\177\260\363?\315\337\005\217\370\365A\323\371\236\021"
 297      CDDF058F 
 297      F8F541D3 
 297      F99E11
 298 07a7 2E5931EA 		.ascii	".Y1\352\036/\316\303\346\367\2747\375\265\337<j>c\361"
 298      1E2FCEC3 
 298      E6F7BC37 
 298      FDB5DF3C 
 298      6A3E63F1 
 299 07bb FAB89FAF 		.ascii	"\372\270\237\257\203G\362\214\032+\014\265\273\327v"
 299      8347F28C 
 299      1A2B0CB5 
 299      BBD776
 300 07ca D0F49A06 		.ascii	"\320\364\232\006\315\340"
 300      CDE0
 301 07d0 61BB4153 		.ascii	"a\273AS\340\351\307.\203\210\313\262\324?\253n\023p"
 301      E0E9C72E 
 301      8388CBB2 
 301      D43FAB6E 
 301      1370
 302 07e2 F55B0F7D 		.ascii	"\365[\017}\217\235\365\317\002\"h\027\353x\316\326\210"
 302      8F9DF5CF 
 302      02226817 
 302      EB78CED6 
 302      88
 303 07f3 7366230E 		.ascii	"sf#\016U\331\030Qh\211\255\257\010\215\255\003\034\261"
 303      55D91851 
 303      6889ADAF 
 303      088DAD03 
 303      1CB1
 304 0805 B56DF4DF 		.ascii	"\265m\364\337\253*\346a\216\331\356\362c\204\025\321"
 304      AB2AE661 
 304      8ED9EEF2 
 304      638415D1 
 305 0815 32029407 		.ascii	"2\002\224\007\225I\372\366\224\362\2202i\233\211\227"
 305      9549FAF6 
 305      94F29032 
 305      699B8997 
 306 0825 F11C8064 		.ascii	"\361\034\200d\361\373\035\373\"\374\200\363{f\313+m"
 306      F1FB1DFB 
 306      22FC80F3 
 306      7B66CB2B 
ARM GAS  /tmp/ccOy41Td.s 			page 24


 306      6D
 307 0836 5AE6E919 		.ascii	"Z\346\351\031k\220a\235\342X\027\226\237z\233ou\011"
 307      6B90619D 
 307      E2581796 
 307      9F7A9B6F 
 307      7509
 308 0848 96F1C5EE 		.ascii	"\226\361\305\356\315;]\352k\27564$ \257\315\011\352"
 308      CD3B5DEA 
 308      6BBD3634 
 308      2420AFCD 
 308      09EA
 309 085a E134F634 		.ascii	"\3414\3664}xl\266\275\302#\372l\363\222\2634\010Y\231"
 309      7D786CB6 
 309      BDC223FA 
 309      6CF392B3 
 309      34085999 
 310 086e C21C6BA2 		.ascii	"\302\034k\242`\337\323\262e(\260\251\226\363\330\365"
 310      60DFD3B2 
 310      6528B0A9 
 310      96F3D8F5 
 311 087e AEBE9466 		.ascii	"\256\276\224f\375rKE9+\362\220`\371\220\260\320\231"
 311      FD724B45 
 311      392BF290 
 311      60F990B0 
 311      D099
 312 0890 F58EA001 		.ascii	"\365\216\240\001\316]W\233\333\247\222\373b\301>\225"
 312      CE5D579B 
 312      DBA792FB 
 312      62C13E95 
 313 08a0 94800ED9 		.ascii	"\224\200\016\331\347:Rl\327\212\334\303<\224C\370\033"
 313      E73A526C 
 313      D78ADCC3 
 313      3C9443F8 
 313      1B
 314 08b1 98870B43 		.ascii	"\230\207\013C\270\237\315\267\377e\347\001vV\004z~X"
 314      B89FCDB7 
 314      FF65E701 
 314      7656047A 
 314      7E58
 315 08c3 18C617EF 		.ascii	"\030\306\027\357W\3067h\010\177\313\262a:\271\265\336"
 315      57C63768 
 315      087FCBB2 
 315      613AB9B5 
 315      DE
 316 08d4 75314676 		.ascii	"u1Fv\010\237\347\210\235\236\020-\244\262\221\255\016"
 316      089FE788 
 316      9D9E102D 
 316      A4B291AD 
 316      0E
 317 08e5 D5101EE2 		.ascii	"\325\020\036\342\210\335\355\206\243<\307\270\011\223"
 317      88DDED86 
 317      A33CC7B8 
 317      0993
 318 08f3 A065CC53 		.ascii	"\240e\314S\014s\201\027\304\361\316~\3525\371\351K\360"
 318      0C738117 
 318      C4F1CE7E 
 318      EA35F9E9 
ARM GAS  /tmp/ccOy41Td.s 			page 25


 318      4BF0
 319 0905 534108F7 		.ascii	"SA\010\3671\337<\312|\363\030;/\027Lk\344\223\001}\215"
 319      31DF3CCA 
 319      7CF3183B 
 319      2F174C6B 
 319      E493017D 
 320 091a ECFF8DFD 		.ascii	"\354\377\215\375zd\277h\347\306\237\347=\372F\201\262"
 320      7A64BF68 
 320      E7C69FE7 
 320      3DFA4681 
 320      B2
 321 092b B02660FC 		.ascii	"\260&`\374/\326\216Q\357\321o\344\346\3644=\363\221"
 321      2FD68E51 
 321      EFD16FE4 
 321      E6F4343D 
 321      F391
 322 093d CBDEBAED 		.ascii	"\313\336\272\355^\240\035\255\035&Z\217\251\233<\037"
 322      5EA01DAD 
 322      1D265A8F 
 322      A99B3C1F 
 323 094d 305A7BD8 		.ascii	"0Z{\330\371q3\241\273\270=\355_\274l$\035\326\204\236"
 323      F97133A1 
 323      BBB83DED 
 323      5FBC6C24 
 323      1DD6849E 
 324 0961 823E25F0 		.ascii	"\202>%\360\257\213\254\011\206&\273\316cg\245P\354\320"
 324      AF8BAC09 
 324      8626BBCE 
 324      6367A550 
 324      ECD0
 325 0973 EF48DE7E 		.ascii	"\357H\336~O\033\375.A\215\352\206\363\252\022\365\267"
 325      4F1BFD2E 
 325      418DEA86 
 325      F3AA12F5 
 325      B7
 326 0984 52FBF0A3 		.ascii	"R\373\360\243\275\236\021.a5\313\177\307\261&\316\222"
 326      BD9E112E 
 326      6135CB7F 
 326      C7B126CE 
 326      92
 327 0995 5669AB8E 		.ascii	"Vi\253\2161\310\364\032\266*P\221-\177\026o\351\327"
 327      31C8F41A 
 327      B62A5091 
 327      2D7F166F 
 327      E9D7
 328 09a7 B0568F40 		.ascii	"\260V\217@\376\032G\371>{\342\350g\2463\334ZG\302\017"
 328      FE1A47F9 
 328      3E7BE2E8 
 328      67A633DC 
 328      5A47C20F 
 329 09bb E4EDB7CE 		.ascii	"\344\355\267\316\350G?\035;:\032\225\206\262\006\372"
 329      E8473F1D 
 329      3B3A1A95 
 329      86B206FA 
 330 09cb E96836BF 		.ascii	"\351h6\277\307d\376o9\306\230\2744e\267\013\341\015"
 330      C764FE6F 
 330      39C698BC 
ARM GAS  /tmp/ccOy41Td.s 			page 26


 330      3465B70B 
 330      E10D
 331 09dd 23A0A9D9 		.ascii	"#\240\251\331\221&\363h0\332AL\354\011\350\273S{O\235"
 331      9126F368 
 331      30DA414C 
 331      EC09E8BB 
 331      537B4F9D 
 332 09f1 3B3BCB49 		.ascii	";;\313I\037\202\336\012`\255\367\030L\347\257e\354\027"
 332      1F82DE0A 
 332      60ADF718 
 332      4CE7AF65 
 332      EC17
 333 0a03 DF3F290F 		.ascii	"\337?)\017\340\373\215\021\347\364\357\0030|\204\000"
 333      E0FB8D11 
 333      E7F4EF03 
 333      307C8400 
 334 0a13 80BC1770 		.ascii	"\200\274\027p\376\341\237\266\320U\326\352\274\212s"
 334      FEE19FB6 
 334      D055D6EA 
 334      BC8A73
 335 0a22 1CB52FAF 		.ascii	"\034\265/\257\243\266xvT-\307\030\227\327Q\331\355B"
 335      A3B67876 
 335      542DC718 
 335      97D751D9 
 335      ED42
 336 0a34 78FB081C 		.ascii	"x\373\010\034\325\342\350\250\261\026N\364vP}V\320w"
 336      D5E2E8A8 
 336      B1164EF4 
 336      76507D56 
 336      D077
 337 0a46 985AAF77 		.ascii	"\230Z\257wR\206\240\017-^B\0019#Gd1,\373\346\375\372"
 337      5286A00F 
 337      2D5E4201 
 337      39234764 
 337      312CFBE6 
 338 0a5c 771573D1 		.ascii	"w\025s\321\364\312\312\240\372\227\312\004%9\230NIr"
 338      F4CACAA0 
 338      FA97CA04 
 338      2539984E 
 338      4972
 339 0a6e 26F8ABBB 		.ascii	"&\370\253\273\027\314]P\037\214\246\022\351X\\\2242"
 339      17CC5D50 
 339      1F8CA612 
 339      E9585C94 
 339      32
 340 0a7f C17973E7 		.ascii	"\301ys\347\006\243\265\362\322\264\230\251\254E\376"
 340      06A3B5F2 
 340      D2B498A9 
 340      AC45FE
 341 0a8e BA58529E 		.ascii	"\272XR\236\025\226\345`*-\323\306\301\232htrDJLN\246"
 341      1596E560 
 341      2A2DD3C6 
 341      C19A6874 
 341      72444A4C 
 342 0aa4 92E26431 		.ascii	"\222\342d1R\025\233<=<s\362\215S\246N\273\177Z\260*"
 342      52159B3C 
 342      3D3C73F2 
ARM GAS  /tmp/ccOy41Td.s 			page 27


 342      8D53A64E 
 342      BB7F5AB0 
 343 0ab9 96A402E2 		.ascii	"\226\244\002\342\261*\332.hi\027\234^9\263rz\220k\001"
 343      B12ADA2E 
 343      6869179C 
 343      5E39B372 
 343      7A906B01 
 344 0acd 7FD6F7B1 		.ascii	"\177\326\367\261d4^W-\0063r5\010\005\341\205\211LMX"
 344      64345E57 
 344      2D063372 
 344      350805E1 
 344      85894C4D 
 345 0ae2 F6C3CDB4 		.ascii	"\366\303\315\264\033\301\014\271V\022#\325\025Yf\350"
 345      1BC10CB9 
 345      561223D5 
 345      155966E8 
 346 0af2 BDA2B599 		.ascii	"\275\242\265\231hm5\364\362\245\303I\261^\206KZ\022"
 346      686D35F4 
 346      F2A5C349 
 346      B15E864B 
 346      5A12
 347 0b04 17FBE5B4 		.ascii	"\027\373\345\264\024K\205\345@\235\016C\237\307R\376"
 347      144B85E5 
 347      409D0E43 
 347      9FC752FE 
 348 0b14 682A2943 		.ascii	"h*)C\263\211yY\251\215\246$\0210\213\351\3430 D\345"
 348      B3897959 
 348      A98DA624 
 348      11308BE9 
 348      E3302044 
 349 0b29 FAEBDC7B 		.ascii	"\372\353\334{\204\027\317L@\257\200$\326\200\211a\231"
 349      8417CF4C 
 349      40AF8024 
 349      D6808961 
 349      99
 350 0b3a 48D389F4 		.ascii	"H\323\211\364s\"\315 \322L\"\315\"\322lA\232:\005\312"
 350      7322CD20 
 350      D24C22CD 
 350      22D26C41 
 350      9A3A05CA 
 351 0b4e 541297E0 		.ascii	"T\022\227\3402\2550\035\006d?\325|\211(\3015\025\257"
 351      32AD301D 
 351      06643FD5 
 351      7C8928C1 
 351      3515AF
 352 0b61 16A58268 		.ascii	"\026\245\202hmD\242\346D\022\"<c\356\364\313\211T58"
 352      6D44A2E6 
 352      4412223C 
 352      63EEF4CB 
 352      89543538 
 353 0b75 15EE17C5 		.ascii	"\025\356\027\305#5\031\277,\211\2132\314,Z\361I\325"
 353      233519BF 
 353      2C898B32 
 353      CC2C5AF1 
 353      49D5
 354 0b87 4B81B580 		.ascii	"K\201\265\200X\037\223\243\320\320\267DNU\375!],.\026"
 354      581F93A3 
ARM GAS  /tmp/ccOy41Td.s 			page 28


 354      D0D0B744 
 354      4E55FD21 
 354      5D2C2E16 
 355 0b9b 93722292 		.ascii	"\223r\"\222\271\017Z\212KhEH\207\353JTJ3\341x,#\207"
 355      B90F5A8A 
 355      4B684548 
 355      87EB4A54 
 355      4A33E178 
 356 0bb2 E5A27478 		.ascii	"\345\242txI$&\307\2225\245\372\213\373\353\304:\220"
 356      492426C7 
 356      9235A5FA 
 356      8BFBEBC4 
 356      3A90
 357 0bc4 36261D06 		.ascii	"6&\035\006TvS\310\252\360@L\213IpTMa\242\016\210,wt"
 357      547653C8 
 357      AAF0404C 
 357      8B497054 
 357      4D61A20E 
 358 0bdc 4B42AEA7 		.ascii	"KB\256\247\201\224P\261\340\232Z\222\004\033Y/\320&"
 358      819450B1 
 358      E09A5A92 
 358      041B592F 
 358      D026
 359 0bee C1BC05A2 		.ascii	"\301\274\005\242\241\035Uc\0145$\022g>\202\207\351T"
 359      A11D5563 
 359      0C352412 
 359      673E8287 
 359      E954
 360 0c00 2A5E14AD 		.ascii	"*^\024\255]\220\251Y\010\342~\234%%#E\251\204LMe\024"
 360      5D90A959 
 360      08E27E9C 
 360      25252345 
 360      A9844C4D 
 361 0c16 11392D40 		.ascii	"\0219-@Mm|/\3301\226\325\356\026\343b$#\216\213\326"
 361      4D6D7C2F 
 361      D83196D5 
 361      EE16E362 
 361      24238E8B 
 362 0c2b 2E8CD6CE 		.ascii	".\214\326\316K-\214\213bza1\273\273\033L\\z\307XV\277"
 362      4B2D8C8B 
 362      627A6131 
 362      BBBB1B4C 
 362      5C7AC758 
 363 0c41 37729F58 		.ascii	"7r\237X\307^\2043K3\262\010^+\342\365\261\224\214\245"
 363      C75E8433 
 363      4B33B208 
 363      5E2BE2F5 
 363      B1948CA5 
 364 0c55 1A4B7E49 		.ascii	"\032K~I\265\304'\261@*\224\230\353$\315u\222\352\272"
 364      B5C427B1 
 364      402A9498 
 364      EB24CD75 
 364      92EABA
 365 0c68 22785A27 		.ascii	"\"xZ'I@z\241D\273]\2768&\311u\221xX\216%`\224iP\245"
 365      49407AA1 
 365      44BB5DBE 
 365      3826C975 
ARM GAS  /tmp/ccOy41Td.s 			page 29


 365      9178588E 
 366 0c82 96A76179 		.ascii	"\226\247ay\234\345\336\277Xf\334\320+\015\345\"\252"
 366      9CE5DEBF 
 366      5866DCD0 
 366      2B0DE522 
 366      AA
 367 0c93 0CBCD082 		.ascii	"\014\274\320\202y\352\014\250\300\253j1.G\240\262\250"
 367      79EA0CA8 
 367      C0AB6A31 
 367      2E47A0B2 
 367      A8
 368 0ca4 2E190DB3 		.ascii	".\031\015\263\306\264\346\243\235\"R1\\\342\221\214"
 368      C6B4E6A3 
 368      9D225231 
 368      5CE2918C 
 369 0cb4 4CFBC123 		.ascii	"L\373\301#*\326/\311\321$\010\237\220\000^\352$1\001"
 369      2AD62FC9 
 369      D124089F 
 369      90005EEA 
 369      243101
 370 0cc7 4A86538B 		.ascii	"J\206S\213\026eD\231Dk\003a\326=\034\036\247W*gL\235"
 370      16654499 
 370      446B0361 
 370      D63D1C1E 
 370      A7572A67 
 371 0cdd 32A5307C 		.ascii	"2\2450|+8\302\362l\366\377\001\353\365\262\371"
 371      2B38C2F2 
 371      6CF6FF01 
 371      EBF5B2F9 
 372              		.text
 373              		.section	.gnu.lto_.symtab.d021b7b789cbe214,"",%progbits
 374 0000 63684D73 		.ascii	"chMsgSend\000\000\000\000\000\000\000\000\000\000\000"
 374      6753656E 
 374      64000000 
 374      00000000 
 374      00000000 
 375 0014 00A70000 		.ascii	"\000\247\000\000\000chMsgWait\000\000\000\000\000\000"
 375      0063684D 
 375      73675761 
 375      69740000 
 375      00000000 
 376 0028 00000000 		.ascii	"\000\000\000\000\000\0006\001\000\000chMsgRelease\000"
 376      00003601 
 376      00006368 
 376      4D736752 
 376      656C6561 
 377 003f 00000000 		.ascii	"\000\000\000\000\000\000\000\000\000\000\000:\001\000"
 377      00000000 
 377      0000003A 
 377      0100
 378 004d 00636853 		.ascii	"\000chSchGoSleepS\000\000\002\000\000\000\000\000\000"
 378      6368476F 
 378      536C6565 
 378      70530000 
 378      02000000 
 379 0064 00000042 		.ascii	"\000\000\000B\001\000\000chSchReadyI\000\000\002\000"
 379      01000063 
ARM GAS  /tmp/ccOy41Td.s 			page 30


 379      68536368 
 379      52656164 
 379      79490000 
 380 007a 00000000 		.ascii	"\000\000\000\000\000\000\000\000F\001\000\000chSchW"
 380      00000000 
 380      46010000 
 380      63685363 
 380      6857
 381 008c 616B6575 		.ascii	"akeupS\000\000\002\000\000\000\000\000\000\000\000\000"
 381      70530000 
 381      02000000 
 381      00000000 
 381      0000
 382 009e 4A010000 		.ascii	"J\001\000\000ch\000\000\002\000\000\000\000\000\000"
 382      63680000 
 382      02000000 
 382      000000
 383 00ad 0000004C 		.ascii	"\000\000\000L\001\000\000"
 383      010000
 384              		.text
 385              		.section	.gnu.lto_.opts,"",%progbits
 386 0000 272D6D63 		.ascii	"'-mcpu=cortex-m3''-mno-thumb-interwork''-mthumb''-g"
 386      70753D63 
 386      6F727465 
 386      782D6D33 
 386      27272D6D 
 387 0033 67646227 		.ascii	"gdb''-O2''-fomit-frame-pointer''-falign-functions=1"
 387      272D4F32 
 387      27272D66 
 387      6F6D6974 
 387      2D667261 
 388 0066 3627272D 		.ascii	"6''-ffunction-sections''-fdata-sections''-fno-commo"
 388      6666756E 
 388      6374696F 
 388      6E2D7365 
 388      6374696F 
 389 0099 6E27272D 		.ascii	"n''-flto'\000"
 389      666C746F 
 389      2700
 390              		.text
 391              		.cfi_sections	.debug_frame
 392              		.section	.text.chMsgSend,"ax",%progbits
 393              		.align	2
 394              		.p2align 4,,15
 395              		.global	chMsgSend
 396              		.thumb
 397              		.thumb_func
 398              		.type	chMsgSend, %function
 399              	chMsgSend:
 400              	.LFB165:
 401              		.file 1 "../../../os/rt/src/chmsg.c"
 402              		.loc 1 88 0
 403              		.cfi_startproc
 404              		@ args = 0, pretend = 0, frame = 0
 405              		@ frame_needed = 0, uses_anonymous_args = 0
 406              	.LVL0:
 407              		.loc 1 89 0
ARM GAS  /tmp/ccOy41Td.s 			page 31


 408 0000 0E4A     		ldr	r2, .L5
 409              		.loc 1 88 0
 410 0002 70B5     		push	{r4, r5, r6, lr}
 411              	.LCFI0:
 412              		.cfi_def_cfa_offset 16
 413              		.cfi_offset 4, -16
 414              		.cfi_offset 5, -12
 415              		.cfi_offset 6, -8
 416              		.cfi_offset 14, -4
 417              		.loc 1 89 0
 418 0004 9469     		ldr	r4, [r2, #24]
 419              	.LVL1:
 420              	.LBB52:
 421              	.LBB53:
 422              	.LBB54:
 423              	.LBB55:
 424              		.file 2 "../../../os/ext/CMSIS/include/core_cmFunc.h"
 425              		.loc 2 546 0
 426 0006 2025     		movs	r5, #32
 427              	@ 546 "../../../os/ext/CMSIS/include/core_cmFunc.h" 1
 428 0008 85F31188 		MSR basepri, r5
 429              	@ 0 "" 2
 430              		.thumb
 431              	.LBE55:
 432              	.LBE54:
 433              	.LBE53:
 434              	.LBE52:
 435              		.loc 1 95 0
 436 000c 00F12805 		add	r5, r0, #40
 437 0010 2562     		str	r5, [r4, #32]
 438              	.LVL2:
 439              		.loc 1 97 0
 440 0012 067F     		ldrb	r6, [r0, #28]	@ zero_extendqisi2
 441              	.LBB56:
 442              	.LBB57:
 443              		.file 3 "../../../os/rt/include/chschd.h"
 444              		.loc 3 510 0
 445 0014 C26A     		ldr	r2, [r0, #44]
 446              	.LBE57:
 447              	.LBE56:
 448              		.loc 1 97 0
 449 0016 0E2E     		cmp	r6, #14
 450              	.LBB60:
 451              	.LBB58:
 452              		.loc 3 509 0
 453 0018 2560     		str	r5, [r4, #0]
 454              	.LBE58:
 455              	.LBE60:
 456              		.loc 1 94 0
 457 001a 2163     		str	r1, [r4, #48]
 458              	.LBB61:
 459              	.LBB59:
 460              		.loc 3 510 0
 461 001c 6260     		str	r2, [r4, #4]
 462              		.loc 3 511 0
 463 001e C462     		str	r4, [r0, #44]
 464 0020 1460     		str	r4, [r2, #0]
ARM GAS  /tmp/ccOy41Td.s 			page 32


 465              	.LBE59:
 466              	.LBE61:
 467              		.loc 1 97 0
 468 0022 07D0     		beq	.L4
 469              	.LVL3:
 470              	.L2:
 471              		.loc 1 99 0
 472 0024 0C20     		movs	r0, #12
 473 0026 FFF7FEFF 		bl	chSchGoSleepS
 474              	.LVL4:
 475              		.loc 1 100 0
 476 002a 206A     		ldr	r0, [r4, #32]
 477              	.LVL5:
 478              	.LBB62:
 479              	.LBB63:
 480              	.LBB64:
 481              	.LBB65:
 482              	.LBB66:
 483              		.loc 2 546 0
 484 002c 0021     		movs	r1, #0
 485              	@ 546 "../../../os/ext/CMSIS/include/core_cmFunc.h" 1
 486 002e 81F31188 		MSR basepri, r1
 487              	@ 0 "" 2
 488              		.thumb
 489              	.LBE66:
 490              	.LBE65:
 491              	.LBE64:
 492              	.LBE63:
 493              	.LBE62:
 494              		.loc 1 103 0
 495 0032 70BD     		pop	{r4, r5, r6, pc}
 496              	.LVL6:
 497              	.L4:
 498              		.loc 1 98 0
 499 0034 FFF7FEFF 		bl	chSchReadyI
 500              	.LVL7:
 501 0038 F4E7     		b	.L2
 502              	.L6:
 503 003a 00BF     		.align	2
 504              	.L5:
 505 003c 00000000 		.word	ch
 506              		.cfi_endproc
 507              	.LFE165:
 508              		.size	chMsgSend, .-chMsgSend
 509              		.section	.text.chMsgWait,"ax",%progbits
 510              		.align	2
 511              		.p2align 4,,15
 512              		.global	chMsgWait
 513              		.thumb
 514              		.thumb_func
 515              		.type	chMsgWait, %function
 516              	chMsgWait:
 517              	.LFB166:
 518              		.loc 1 119 0
 519              		.cfi_startproc
 520              		@ args = 0, pretend = 0, frame = 0
 521              		@ frame_needed = 0, uses_anonymous_args = 0
ARM GAS  /tmp/ccOy41Td.s 			page 33


 522              	.LVL8:
 523 0000 10B5     		push	{r4, lr}
 524              	.LCFI1:
 525              		.cfi_def_cfa_offset 8
 526              		.cfi_offset 4, -8
 527              		.cfi_offset 14, -4
 528              	.LBB67:
 529              	.LBB68:
 530              	.LBB69:
 531              	.LBB70:
 532              		.loc 2 546 0
 533 0002 2023     		movs	r3, #32
 534              	@ 546 "../../../os/ext/CMSIS/include/core_cmFunc.h" 1
 535 0004 83F31188 		MSR basepri, r3
 536              	@ 0 "" 2
 537              		.thumb
 538              	.LBE70:
 539              	.LBE69:
 540              	.LBE68:
 541              	.LBE67:
 542              		.loc 1 123 0
 543 0008 0B4C     		ldr	r4, .L10
 544 000a A269     		ldr	r2, [r4, #24]
 545              	.LVL9:
 546              	.LBB71:
 547              	.LBB72:
 548              		.file 4 "../../../os/rt/include/chmsg.h"
 549              		.loc 4 81 0
 550 000c 1346     		mov	r3, r2
 551 000e 53F8280F 		ldr	r0, [r3, #40]!
 552              	.LBE72:
 553              	.LBE71:
 554              		.loc 1 123 0
 555 0012 9842     		cmp	r0, r3
 556 0014 08D0     		beq	.L9
 557              	.LVL10:
 558              	.L8:
 559              	.LBB73:
 560              	.LBB74:
 561              		.loc 3 517 0
 562 0016 0168     		ldr	r1, [r0, #0]
 563 0018 9162     		str	r1, [r2, #40]
 564              	.LBE74:
 565              	.LBE73:
 566              		.loc 1 126 0
 567 001a 0D22     		movs	r2, #13
 568              	.LVL11:
 569              	.LBB76:
 570              	.LBB75:
 571              		.loc 3 517 0
 572 001c 4B60     		str	r3, [r1, #4]
 573              	.LBE75:
 574              	.LBE76:
 575              		.loc 1 126 0
 576 001e 0277     		strb	r2, [r0, #28]
 577              	.LVL12:
 578              	.LBB77:
ARM GAS  /tmp/ccOy41Td.s 			page 34


 579              	.LBB78:
 580              	.LBB79:
 581              	.LBB80:
 582              	.LBB81:
 583              		.loc 2 546 0
 584 0020 0023     		movs	r3, #0
 585              	@ 546 "../../../os/ext/CMSIS/include/core_cmFunc.h" 1
 586 0022 83F31188 		MSR basepri, r3
 587              	@ 0 "" 2
 588              		.thumb
 589              	.LBE81:
 590              	.LBE80:
 591              	.LBE79:
 592              	.LBE78:
 593              	.LBE77:
 594              		.loc 1 129 0
 595 0026 10BD     		pop	{r4, pc}
 596              	.LVL13:
 597              	.L9:
 598              		.loc 1 124 0
 599 0028 0E20     		movs	r0, #14
 600 002a FFF7FEFF 		bl	chSchGoSleepS
 601              	.LVL14:
 602 002e A269     		ldr	r2, [r4, #24]
 603 0030 1346     		mov	r3, r2
 604 0032 53F8280F 		ldr	r0, [r3, #40]!
 605 0036 EEE7     		b	.L8
 606              	.L11:
 607              		.align	2
 608              	.L10:
 609 0038 00000000 		.word	ch
 610              		.cfi_endproc
 611              	.LFE166:
 612              		.size	chMsgWait, .-chMsgWait
 613 003c AFF30080 		.section	.text.chMsgRelease,"ax",%progbits
 614              		.align	2
 615              		.p2align 4,,15
 616              		.global	chMsgRelease
 617              		.thumb
 618              		.thumb_func
 619              		.type	chMsgRelease, %function
 620              	chMsgRelease:
 621              	.LFB167:
 622              		.loc 1 141 0
 623              		.cfi_startproc
 624              		@ args = 0, pretend = 0, frame = 0
 625              		@ frame_needed = 0, uses_anonymous_args = 0
 626              	.LVL15:
 627 0000 08B5     		push	{r3, lr}
 628              	.LCFI2:
 629              		.cfi_def_cfa_offset 8
 630              		.cfi_offset 3, -8
 631              		.cfi_offset 14, -4
 632              	.LBB82:
 633              	.LBB83:
 634              	.LBB84:
 635              	.LBB85:
ARM GAS  /tmp/ccOy41Td.s 			page 35


 636              		.loc 2 546 0
 637 0002 2023     		movs	r3, #32
 638              	@ 546 "../../../os/ext/CMSIS/include/core_cmFunc.h" 1
 639 0004 83F31188 		MSR basepri, r3
 640              	@ 0 "" 2
 641              		.thumb
 642              	.LBE85:
 643              	.LBE84:
 644              	.LBE83:
 645              	.LBE82:
 646              	.LBB86:
 647              	.LBB87:
 648              		.loc 4 113 0
 649 0008 FFF7FEFF 		bl	chSchWakeupS
 650              	.LVL16:
 651              	.LBE87:
 652              	.LBE86:
 653              	.LBB88:
 654              	.LBB89:
 655              	.LBB90:
 656              	.LBB91:
 657              	.LBB92:
 658              		.loc 2 546 0
 659 000c 0020     		movs	r0, #0
 660              	@ 546 "../../../os/ext/CMSIS/include/core_cmFunc.h" 1
 661 000e 80F31188 		MSR basepri, r0
 662              	@ 0 "" 2
 663              		.thumb
 664 0012 08BD     		pop	{r3, pc}
 665              	.LBE92:
 666              	.LBE91:
 667              	.LBE90:
 668              	.LBE89:
 669              	.LBE88:
 670              		.cfi_endproc
 671              	.LFE167:
 672              		.size	chMsgRelease, .-chMsgRelease
 673 0014 AFF30080 		.text
 673      AFF30080 
 673      AFF30080 
 674              	.Letext0:
 675              		.file 5 "/opt/ARM/gcc-arm-none-eabi-4_7-2013q3/bin/../lib/gcc/arm-none-eabi/4.7.4/../../../../arm-
 676              		.file 6 "../../../os/rt/ports/ARMCMx/compilers/GCC/chtypes.h"
 677              		.file 7 "../../../os/rt/ports/ARMCMx/chcore.h"
 678              		.file 8 "../../../os/rt/ports/ARMCMx/chcore_v7m.h"
 679              		.file 9 "../../../os/rt/include/chmtx.h"
 680              		.file 10 "../../../os/rt/include/chsys.h"
 681              		.file 11 "../../../os/ext/CMSIS/include/core_cm3.h"