ARM GAS  /tmp/ccOy41Td.s 			page 1


   1              		.syntax unified
   2              		.cpu cortex-m3
   3              		.fpu softvfp
   4              		.eabi_attribute 20, 1
   5              		.eabi_attribute 21, 1
   6              		.eabi_attribute 23, 3
   7              		.eabi_attribute 24, 1
   8              		.eabi_attribute 25, 1
   9              		.eabi_attribute 26, 1
  10              		.eabi_attribute 30, 2
  11              		.eabi_attribute 34, 1
  12              		.eabi_attribute 18, 4
  13              		.thumb
  14              		.file	"chmsg.c"
  15              		.text
  16              	.Ltext0:
  17              		.section	.gnu.lto_.jmpfuncs.d021b7b789cbe214,"",%progbits
  18 0000 789C6362 		.ascii	"x\234cb`d`g\300\016T\24143\0033#\223$C*#\003\003\017"
  18      60646067 
  18      C00E54A1 
  18      34330333 
  18      23932443 
  19 0019 50391042 		.ascii	"P9\020By|\014L\314L\014,\014\014\214%\014\000%\200\001"
  19      797C0C4C 
  19      CC4C0C2C 
  19      0C0C8C25 
  19      0C002580 
  20 002e D6       		.ascii	"\326"
  21              		.text
  22              		.section	.gnu.lto_.inline.d021b7b789cbe214,"",%progbits
  23 0000 789C6362 		.ascii	"x\234cb`d\340e\300\016\"\24143\003\203\230\034##P%\003"
  23      6064E065 
  23      C00E22A1 
  23      34330383 
  23      981C2323 
  24 0017 B3E48AC3 		.ascii	"\263\344\212\303\214\014\2347\314\230\030\230.\360\263"
  24      8C0C9C37 
  24      CC981898 
  24      2EF0B3
  25 0026 30307133 		.ascii	"00q3\000\205\301\344\004?F\006aA G\346\301-F\006\266"
  25      0085C1E4 
  25      043F4606 
  25      61412047 
  25      E6C12D46 
  26 003c 05F24C30 		.ascii	"\005\362L0Y\006\016\001 \311\262@\036\"\312\314\303"
  26      59060E01 
  26      20C9B240 
  26      1E22CACC 
  26      C3
  27 004d C0C034C1 		.ascii	"\300\3004\301o\202\037\003\000\375U\013l"
  27      6F821F03 
  27      00FD550B 
  27      6C
  28              		.text
  29              		.section	.gnu.lto_.pureconst.d021b7b789cbe214,"",%progbits
  30 0000 789C6362 		.ascii	"x\234cb`d`f```g\200\000f\006+F+&+\000\003#\000\302"
  30      60646066 
ARM GAS  /tmp/ccOy41Td.s 			page 2


  30      60606067 
  30      80006606 
  30      2B462B26 
  31              		.text
  32              		.section	.gnu.lto_chMsgSend.d021b7b789cbe214,"",%progbits
  33 0000 789C8D54 		.ascii	"x\234\215T]HTA\024>g\346\336\275k\231\232E$\305\266"
  33      5D485441 
  33      143E67E6 
  33      DEBD6B99 
  33      9A4524C5 
  34 0015 44413FE6 		.ascii	"DA?\346F/\365\024\205 Y\370\220\322\213\260J]o\255\320"
  34      462FF514 
  34      852059F8 
  34      90D28BB0 
  34      4A5D6FAD 
  35 002a E6B6BB8A 		.ascii	"\346\266\273\212\365\342m\353\241\227H\202\300r\203"
  35      F5E26DEB 
  35      A1974882 
  35      C07283
  36 0039 D47EA887 		.ascii	"\324~\250\207\250\240X\010\262\037\023\333\302\247 "
  36      A8A05808 
  36      B21F13DB 
  36      C2A720
  37 0048 A988C08A 		.ascii	"\251\210\300\212\350!z\350!\301\330\316\314\334\273"
  37      E8217AE8 
  37      21C1D8CE 
  37      CCDCBB
  38 0057 EDBABBE6 		.ascii	"\355\272\273\346\250w\306\231\363\235\357\314w\316\034"
  38      A877C699 
  38      F39DEFCC 
  38      77CE1C
  39 0066 06483F85 		.ascii	"\006H?\205c\033\375\245\014\200q\232Q\007d\375\223\000"
  39      631BFDA5 
  39      0C80719A 
  39      510764FD 
  39      9300
  40 0078 A7FC8CF1 		.ascii	"\247\374\214\361\361J\2607h\351\235`o\345\250\251m\015"
  40      F14AB037 
  40      68E99D60 
  40      6FE5A8A9 
  40      6D0D
  41 008a 512CC853 		.ascii	"Q,\310S\037\343\032\366\035\220.\265\2650d\333\027\372"
  41      1FE31AF6 
  41      1D902EB5 
  41      B53064DB 
  41      17FA
  42 009c 9F27F624 		.ascii	"\237'\366$>e2k,\261\333\216\220\036\235^Q\003\026\""
  42      3E65326B 
  42      2CB1DB8E 
  42      901E9D5E 
  42      51031622 
  43 00b0 F841CC0C 		.ascii	"\370A\314\014\264|r\205\373\371,\261\322\301q\211{\235"
  43      B47C7285 
  43      FBF92CB1 
  43      D2C17189 
  43      7B9D
  44 00c2 3CAC605E 		.ascii	"<\254`^\007\206\305`\375\247m\227Nc\340C\211\034\354"
ARM GAS  /tmp/ccOy41Td.s 			page 3


  44      0786C560 
  44      FDA76D97 
  44      4E63E043 
  44      891CEC
  45 00d5 5900614E 		.ascii	"Y\000aN\240\232$\274\375=\363\205\315\013L\247F\266"
  45      A09A24BC 
  45      FD3DF385 
  45      CD0B4CA7 
  45      46B6
  46 00e7 CC263DA3 		.ascii	"\314&=\243\354\311\247L\337:\030q\370%u\275\244\036"
  46      ECC9A74C 
  46      DF3A1871 
  46      F82575BD 
  46      A41E
  47 00f9 1BFC8185 		.ascii	"\033\374\201\205.P\332\366+[\235A\203\264\235*+BF\347"
  47      2E50DAF6 
  47      2B5B9D41 
  47      83B49D2A 
  47      2B4246E7 
  48 010d 2002AA41 		.ascii	" \002\252A\010\3420\256\005\206A\274I\0168\315\327i"
  48      08E230AE 
  48      058641BC 
  48      490E38CD 
  48      D769
  49 011f D668FF2A 		.ascii	"\326h\377*\355{h\036\242\331\000u^M\3635\372\237\206"
  49      ED7B681E 
  49      A2D90075 
  49      5E4DF335 
  49      FA9F86
  50 0132 0E676CBB 		.ascii	"\016gl\273\212)|\247\344\222c\277\230E\346\232\211M"
  50      8A297CA7 
  50      E49263BF 
  50      9845E69A 
  50      894D
  51 0144 2C781A12 		.ascii	",x\032\022\255\244V\020o\021\255\211\270\0316\0219\227"
  51      ADA45610 
  51      6F11AD89 
  51      B8193611 
  51      3997
  52 0156 93875F86 		.ascii	"\223\207_\206Kh\241\301N\302\214\355\265\320\213\235"
  52      4B68A1C1 
  52      4EC28CED 
  52      B5D08B9D 
  53 0166 88C28508 		.ascii	"\210\302\205\010\327+\363\017\320&>)]\256\262\011\032"
  53      D72BF30F 
  53      D0263E29 
  53      5DAEB209 
  53      1A
  54 0177 0736C595 		.ascii	"\0076\305\225S\025\204)\316h\027UhN\204\240L\346Ii\031"
  54      53158429 
  54      CE681755 
  54      684E84A0 
  54      4CE64969 
  55 018c 83BD32FE 		.ascii	"\203\2752\376\341s3\357k\347\315\215\330,\243C\200W"
  55      E17333EF 
  55      6BE7CD8D 
  55      D82CA343 
ARM GAS  /tmp/ccOy41Td.s 			page 4


  55      8057
  56 019e 90C0EFE7 		.ascii	"\220\300\357\347/N\357\310##\371\356R$A\274\223G)\336"
  56      2F4EEFC8 
  56      2323F9EE 
  56      522441BC 
  56      934729DE 
  57 01b2 C34DAA38 		.ascii	"\303M\2528\022D~\000|\220\302+\366\300.\013\027\345"
  57      12447E00 
  57      7C90C22B 
  57      F6C02E0B 
  57      17E5
  58 01c4 B9CD1E3F 		.ascii	"\271\315\036?r\216\027\253\232\200\304\276\364\343\221"
  58      728E17AB 
  58      9A80C4BE 
  58      F4E391
  59 01d3 4A7517A9 		.ascii	"Ju\027\251\234\356(W\316\350\33652\235\000!)\021S\254"
  59      9CEE2857 
  59      CEE8DE35 
  59      329D0021 
  59      291153AC 
  60 01e7 A6581072 		.ascii	"\246X\020r\206\317\016>DW~\355$\234\240W\243\262\260"
  60      86CF0E3E 
  60      44577EED 
  60      249CA057 
  60      A3B2B0
  61 01fa 24C70977 		.ascii	"$\307\011w\235\2345\244\027\256\274L\351n\004\215)="
  61      9D9C35A4 
  61      17AEBC4C 
  61      E96E048D 
  61      293D
  62 020c 87BF4225 		.ascii	"\207\277B%\260\262t\030\216vmB\212\024\227\001i2Ac\311"
  62      B0B27418 
  62      8E766D42 
  62      8A149701 
  62      69324163 
  63 0221 0AE5A8F0 		.ascii	"\012\345\250\360u\005\361\006E-k\3347o&\334d\227\366"
  63      7505F106 
  63      452D6BDC 
  63      376F26DC 
  63      6497F6
  64 0234 454A3E47 		.ascii	"EJ>G\\\230/MI|\373]\346O~\365P}?\223\011}*\277\371\225"
  64      5C982F4D 
  64      497CFB5D 
  64      E64F7EF5 
  64      507D3F93 
  65 024e E4147211 		.ascii	"\344\024r\021\001T\321z\224\022\256\373\326_\231\373"
  65      0154D17A 
  65      9412AEFB 
  65      D65F99FB 
  66 025e 94863199 		.ascii	"\224\2061\231\206\352<\360\022W\177\200\015\016\330"
  66      86EA3CF0 
  66      12577F80 
  66      0D0ED8
  67 026d C8F60352 		.ascii	"\310\366\003R\3767W\270\3771z]\306ju\241\331\314CV\004"
  67      FE3757B8 
  67      FF317A5D 
  67      C66A75A1 
ARM GAS  /tmp/ccOy41Td.s 			page 5


  67      D9CC4356 
  68 0282 599C6EC2 		.ascii	"Y\234n\302pu\225\224z\011\312\352\202K~\3439\300\326"
  68      70759594 
  68      7A09CAEA 
  68      824B7EE3 
  68      39C0D6
  69 0295 F4CBE972 		.ascii	"\364\313\351r\267\330<\022]U\254\312Ti\224\271\267|"
  69      B7D83C12 
  69      5D55ACCA 
  69      546994B9 
  69      B77C
  70 02a7 01635F31 		.ascii	"\001c_1\224\305\011+\016\0259b7\213\202\034\257\344"
  70      94C5092B 
  70      0E153962 
  70      378B821C 
  70      AFE4
  71 02b9 AF417B93 		.ascii	"\257A{\223\034F7\027N\333X\212\355\350\264\006\342\260"
  71      1C463717 
  71      4EDB588A 
  71      EDE8B406 
  71      E2B0
  72 02cb C4FD1548 		.ascii	"\304\375\025HS=\210P\037V\317\301,#\014\303\354\273"
  72      533D8850 
  72      1F56CFC1 
  72      2C230CC3 
  72      ECBB
  73 02dd AE8272FA 		.ascii	"\256\202r\372.W\227\370\234\364\271\261\030\316s+]\356"
  73      2E5797F8 
  73      9CF4B9B1 
  73      18CE732B 
  73      5DEE
  74 02ef 133CBFDE 		.ascii	"\023<\277\336\351I\017\250:\241\002\355u[\224\350\237"
  74      E9490FA8 
  74      3AA102ED 
  74      755B94E8 
  74      9F
  75 0300 261AC55A 		.ascii	"&\032\305ZT\211N%Ga\273\012\342=\365F\206\317=\370\270"
  75      54894E25 
  75      4761BB0A 
  75      E23DF546 
  75      86CF3DF8 
  76 0315 907E2546 		.ascii	"\220~%F\311~\365N\026\366\333R\375*\210\017h\361\317"
  76      C97EF54E 
  76      16F6DB52 
  76      FD2A880F 
  76      68F1CF
  77 0328 8FD3A082 		.ascii	"\217\323\240\202\230B\237\334\230\004LO\362\254X\312"
  77      98429FDC 
  77      98044C4F 
  77      F2AC58CA 
  78 0338 C17E910B 		.ascii	"\301~\221\013\322]\330\256\252\253\013\250\337\256X"
  78      D25DD8AE 
  78      AAAB0BA8 
  78      DFAE58
  79 0347 201A0FC4 		.ascii	" \032\017\304\242f\300\014\205cG\352L\340f<\342\237"
  79      A266C00C 
  79      856347EA 
ARM GAS  /tmp/ccOy41Td.s 			page 6


  79      4CE0663C 
  79      E29F
  80 0359 73DE79CC 		.ascii	"s\336y\314<\332\335a\221M\314\014u\324\205\200\305#"
  80      3CDADD61 
  80      914DCC0C 
  80      75D48580 
  80      C523
  81 036b 9CCCF59E 		.ascii	"\234\314\365\236\203G\273\255\215s\254#]\321x,\260\273"
  81      8347BBAD 
  81      8D73AC23 
  81      5DD1782C 
  81      B0BB
  82 037d B9A9BEA9 		.ascii	"\271\251\276\251\227 fW\324j\357\331\036&Xm\256\245"
  82      97206657 
  82      D46AEFD9 
  82      1E26586D 
  82      AEA5
  83 038f D51B0FD4 		.ascii	"\325\033\017\3247\2654\266\374s/,\315pC\3671\223\214"
  83      37B534B6 
  83      FC732F2C 
  83      CD7043F7 
  83      31938C
  84 03a2 AB9A5A9A 		.ascii	"\253\232Z\232\375\207\016\306\254H\264\263\326\277~"
  84      FD870EC6 
  84      AC48B4B3 
  84      D6BF7E
  85 03b1 2BB02818 		.ascii	"+\260(\030a+\334\025=\001<~<\362\027\354m\241\367"
  85      612BDC15 
  85      3D013C7E 
  85      3CF217EC 
  85      6DA1F7
  86              		.text
  87              		.section	.gnu.lto_chMsgWait.d021b7b789cbe214,"",%progbits
  88 0000 789C9D54 		.ascii	"x\234\235TMHTQ\024>\347\375\370FMG\024\372%\033\202"
  88      4D485451 
  88      143EE7FD 
  88      F8464D47 
  88      14FA251B 
  89 0015 C04A1CA1 		.ascii	"\300J\034\241E.\013#\222p\221\022D0I=\037)8j3\243\250"
  89      452E0B23 
  89      92709112 
  89      4430493D 
  89      1F29386A 
  90 002c 8B7C4D2D 		.ascii	"\213|M-f!\"\2014)5\375a%\265\010\012\252M\321\217\213"
  90      66212281 
  90      342935FD 
  90      6125B508 
  90      0AAA4DD1 
  91 0042 C924A845 		.ascii	"\311$\250EaDh\310,\244Z$(\032v\356\275\357\2153\243"
  91      614468C8 
  91      2CA45A24 
  91      281A76EE 
  91      BDEF8D33 
  92 0057 330D5E9D 		.ascii	"3\015^\235w.\367\236\363\235s\276s\356\221\000\351o"
  92      772EF79E 
  92      F39D73BE 
  92      73EE9100 
ARM GAS  /tmp/ccOy41Td.s 			page 7


  92      E96F
  93 0069 F5DA47BF 		.ascii	"\365\332G\277C\016\200o$Q\005\224\006&\000.\270$I\236"
  93      430E806F 
  93      24510594 
  93      0626002E 
  93      B824499E 
  94 007d D3C02C53 		.ascii	"\323\300,S\206\307\000\314J\031\025q\256 \262\015A\365"
  94      86C700CC 
  94      4A191571 
  94      AE20B20D 
  94      41F5
  95 008f 4AB282BD 		.ascii	"J\262\202\275\3079\246c'\3344\315\313\003\257\203G\202"
  95      C739A663 
  95      27DC34CD 
  95      CB03AF83 
  95      4782
  96 00a1 DF979777 		.ascii	"\337\227\227w\030\354\264\001!\2728\275i\013\030\210"
  96      18ECB401 
  96      21BA38BD 
  96      690B1888 
  97 00b1 E0022625 		.ascii	"\340\002&%P\222\275\013\273\337\257\202\233-;\231\333"
  97      5092BD0B 
  97      BBDFAF82 
  97      9B2D3B99 
  97      DB
  98 00c2 75092387 		.ascii	"u\011#\207e\204k\031%8S\270\321ld\006\263p6p\321\214"
  98      65846B19 
  98      253853B8 
  98      D16C6406 
  98      B3703670 
  99 00d8 07294129 		.ascii	"\007)A)2\3237\221\316\377[\016\255\012s\351z\353z\002"
  99      32D33791 
  99      CEFF5B0E 
  99      AD0A73E9 
  99      7AEB7A02 
 100 00ec 1D197AF2 		.ascii	"\035\031z\362I\315&\322T:\347\265\365X\215\364\015O"
 100      49CD26D2 
 100      543AE7B5 
 100      F5588DF4 
 100      0D4F
 101 00fe 7DCEEC2F 		.ascii	"}\316\354/\372kz\373\370\275\234\027\322\313\357\313"
 101      FA6B7AFB 
 101      F8BD9C17 
 101      D2CBEFCB 
 102 010e BD005B11 		.ascii	"\275\000[\021<x\003w\222\232\220*\311[$\235$\357\222"
 102      3C780377 
 102      929A902A 
 102      C95B249D 
 102      24EF92
 103 0121 2C223942 		.ascii	",\"9B\262\230\344m\222%$\357\221\244\245\302%\323,B"
 103      B298E46D 
 103      922524EF 
 103      91A4A5C2 
 103      25D32C42 
 104 0135 71DE6011 		.ascii	"q\336`\021r\214I\3267u\344\233m\3441\220P\250Z\026\204"
 104      728C49D6 
 104      3775E49B 
ARM GAS  /tmp/ccOy41Td.s 			page 8


 104      6DE43190 
 104      50A85A16 
 105 014a 709F4E32 		.ascii	"p\237N2TK\225\340\014\257\326T\377\302dy\306|\330\241"
 105      544B95E0 
 105      0CAFD654 
 105      FFC26479 
 105      C67CD8A1 
 106 015e 4A9700EF 		.ascii	"J\227\000\357 \210\243\203\203\323UI\316(\274\007\024"
 106      2088A383 
 106      83D35549 
 106      CE28BC07 
 106      14
 107 016f 9E074793 		.ascii	"\236\007G\223\\\262\027\362\202jK1\362\017@)|\300kf"
 107      5CB217F2 
 107      826A4B31 
 107      F20F4029 
 107      7CC06B66 
 108 0183 F8808139 		.ascii	"\370\200\2019I\260\361\353\217\326\265&x\204\340I\326"
 108      49B0F1EB 
 108      8FD6B526 
 108      7884E049 
 108      D6
 109 0194 F322171D 		.ascii	"\363\"\027\035q/\354\2412\310\\8\344!\270\212\006\346"
 109      712FECA1 
 109      32C85C38 
 109      E421B88A 
 109      06E6
 110 01a6 4A3DB060 		.ascii	"J=\260`:\014\314\303f\361&\031n\036\367\017p\212}B\032"
 110      3A0CCCC3 
 110      66F12619 
 110      6E1EF70F 
 110      708A7D42 
 111 01bb DFD1765E 		.ascii	"\337\321v^\304GtY\004\255nb\017\336!\006\022\3331\015"
 111      C4477459 
 111      04AD6E62 
 111      0FDE2106 
 111      12DB310D 
 112 01cf 2B3A0364 		.ascii	"+:\003d!R\003.\311\251\204<\343\204$\327@Ggb\006\371"
 112      2152032E 
 112      C9A9843C 
 112      E38424D7 
 112      40476762 
 113 01e5 56061B24 		.ascii	"V\006\033$\202b. \0364\321\361T\345;z\032\363q6\026"
 113      82622E20 
 113      1E34D1F1 
 113      54E53B7A 
 113      1AF37136 
 114 01fa E4588107 		.ascii	"\344X\201\007\237s2\212z\240\233\236\000f\001\025v\322"
 114      9F73328A 
 114      7AA09B9E 
 114      00660115 
 114      76D2
 115 020c 2E56C051 		.ascii	".V\300Q\336\302\233\031\214.\336\226mR\235\004\265\022"
 115      DEC29B19 
 115      8C2EDE96 
 115      6D529D04 
 115      B512
ARM GAS  /tmp/ccOy41Td.s 			page 9


 116 021e 621D7338 		.ascii	"b\035s8\247\311\343\240\374\210\214\242\235\201Eq\001"
 116      A7C9E3A0 
 116      FC888CA2 
 116      9D814571 
 116      01
 117 022f 362062BC 		.ascii	"6 b\274'\012\241\220\276N\333R\021\275\310(\231\215"
 117      270AA190 
 117      BE4EDB52 
 117      11BDC828 
 117      998D
 118 0241 FC44DB81 		.ascii	"\374D\333\201\262\316\252\201]4XI?\254\331\250j\272"
 118      B2CEAA81 
 118      5D345849 
 118      3FACD9A8 
 118      6ABA
 119 0253 F4153BFD 		.ascii	"\364\025;\375P\256\235?[a\355\177\225W$\230D\314\256"
 119      50AE9D3F 
 119      5B61ED7F 
 119      95572498 
 119      44CCAE
 120 0266 F2AA55F9 		.ascii	"\362\252U\371\276+S1\253\364\230\241\225 #\\\274g\242"
 120      BE2B5331 
 120      ABF498A1 
 120      9520235C 
 120      BC67A2
 121 0279 6BF64CB1 		.ascii	"k\366L\261\305\237H1\337NQ\2012\213+\252X,\336\3271"
 121      C59F4831 
 121      DF4E5181 
 121      328B2BAA 
 121      582CDED7 
 122 028e 2AEC38B2 		.ascii	"*\3548\262\011\363\236\320\310ZD:\033\232\336(.t,I\002"
 122      09F39ED0 
 122      C85A443A 
 122      1B9ADE28 
 122      2E742C49 
 123 02a3 649C1527 		.ascii	"d\234\025'\267L<>\262\254\011\253\302.\213(B2\017\270"
 123      B74C3C3E 
 123      B2AC09AB 
 123      C22E8B28 
 123      42320FB8 
 124 02b7 841B1E9D 		.ascii	"\204\033\036\235\317]\303\220y+I\366F\241\3074\233U"
 124      CF5DC390 
 124      792B49F6 
 124      46A1C734 
 124      9B55
 125 02c9 CA20FAD7 		.ascii	"\312 \372\327nN1\365\254@\252\376D\316\213c\016X\270"
 125      6E4E31F5 
 125      AC40AAFE 
 125      44CE8B63 
 125      0E58B8
 126 02dc 56F82738 		.ascii	"V\370'8`\016$th\201\240%e:\246\031\222|\255\236\224"
 126      600E2474 
 126      6881A025 
 126      653AA619 
 126      927CAD9E 
 127 02f1 1E7C28EA 		.ascii	"\036|(\3528\325\377\344[6\243\222\255\264\243\362+\257"
 127      38D5FFE4 
ARM GAS  /tmp/ccOy41Td.s 			page 10


 127      5B36A392 
 127      ADB4A3F2 
 127      2BAF
 128 0303 F29774A3 		.ascii	"\362\227t\243\322\203\217h\263\202c\315F\017>\306R~"
 128      D2838F68 
 128      B38263CD 
 128      460F3EC6 
 128      527E
 129 0315 3001180D 		.ascii	"0\001\030\015\251\366;(\026\000\307\330C\241\327\307"
 129      A9F63B28 
 129      1600C7D8 
 129      43A1D7C7 
 130 0325 74B75554 		.ascii	"t\267UT\270\305\177\233\337\355\013\270\375>\335\255"
 130      B8C57F9B 
 130      DFED0BB8 
 130      FD3EDDAD 
 131 0335 3779FD67 		.ascii	"7y\375g+t\220\002\355;R\256\233[\365\226\216F\303Ri"
 131      2B749002 
 131      ED3B52AE 
 131      9B5BF596 
 131      8E46C352 
 132 034a 0257DA7B 		.ascii	"\002W\332{\277\336\324H\012j\347\351\226\016cw\212Z"
 132      BFDED448 
 132      0A6AE7E9 
 132      960E6377 
 132      8A5A
 133 035c 7B9B2FE0 		.ascii	"{\233/\340w\037\254\253\255\256\355\"]\275\315g4t\356"
 133      771FACAB 
 133      ADAEED22 
 133      5DBDCD67 
 133      3474EE
 134 036f F7927E79 		.ascii	"\367\222~y\242\246\321\025pW\327\326\327\324\257\340"
 134      A2A6D115 
 134      7057D7D6 
 134      D7D4AFE0 
 135 037f 324DDD7B 		.ascii	"2M\335{\270\243U'\345\242\332\372:\327\231\323~\243"
 135      B8A35527 
 135      E5A2DAFA 
 135      3AD799D3 
 135      7EA3
 136 0391 DDD75CEE 		.ascii	"\335\327\\\356\332U\011\222\0174\257\341m\363u\203\034"
 136      DA550992 
 136      0F34AFE1 
 136      6DF37583 
 136      1C
 137 03a2 38D7FE0F 		.ascii	"8\327\376\017\314\271\315k"
 137      CCB9CD6B 
 138              		.text
 139              		.section	.gnu.lto_chMsgRelease.d021b7b789cbe214,"",%progbits
 140 0000 789C8D52 		.ascii	"x\234\215RAL\023Q\020}\363\227\002z\342JL\332B\344`"
 140      414C1351 
 140      107DF397 
 140      027AE24A 
 140      4CDA42E4 
 141 0015 4276BDE1 		.ascii	"Bv\275\341QBb\344\320\003m<n\032\\\177l\023\2266\273"
 141      514262E4 
 141      D0036D3C 
ARM GAS  /tmp/ccOy41Td.s 			page 11


 141      6E1A5C7F 
 141      6C139636 
 142 002a 2D412E5D 		.ascii	"-A.]*W\222F\203\361B\002\002A\321D=h\274\030=iR\015"
 142      2A579246 
 142      83F14202 
 142      0241D144 
 142      3D68BC18 
 143 0042 17AF2692 		.ascii	"\027\257&\222\030o\204\213\211\001/u\376\337B\273@\301"
 143      186F848B 
 143      89012F75 
 143      FEDF42BB 
 143      40C1
 144 0054 BFFB7726 		.ascii	"\277\373w&\177\336\274y\363g\005\210\237\223\253\237"
 144      7FDEBC79 
 144      F3670588 
 144      9F93AB9F 
 145 0064 F7B801BC 		.ascii	"\367\270\001\274gK\006H\324\266\201\371\244 R\016\247"
 145      674B0648 
 145      D4B681F9 
 145      A420520E 
 145      A7
 146 0075 5404556E 		.ascii	"T\004Un\205\231\365\345\015\363\373V\367\007\361q\247"
 146      8599F5E5 
 146      0DF3FB56 
 146      F707F171 
 146      A7
 147 0086 51B98CB5 		.ascii	"Q\271\214\265 xP\273\037\334\224\004\2018!K\330}\366"
 147      207850BB 
 147      1FDC9404 
 147      8138214B 
 147      D87DF6
 148 0099 87FA2189 		.ascii	"\207\372!\211\220\204\262\002]\212Dck!\326\020\030\320"
 148      9084B202 
 148      5D8A4463 
 148      6B21D610 
 148      18D0
 149 00ab D8FD0B27 		.ascii	"\330\375\013'\221\354\030\274\201\213D6\255p\242`\373"
 149      91EC18BC 
 149      818B4436 
 149      AD70A260 
 149      FB
 150 00bc 842DAF18 		.ascii	"\204-\257\030\026\202\240\217\362:[\257\011e\225\316"
 150      1682A08F 
 150      F23A5BAF 
 150      096595CE 
 151 00cc 34E72BC7 		.ascii	"4\347+\307\370\304\011!\256\011\207M\353|\322Z\203X"
 151      F8C40921 
 151      AE09874D 
 151      EB7CD25A 
 151      8358
 152 00de 6DEAAEEE 		.ascii	"m\352\256\3564\032\011I]\002C\232r\257\376\343\2278"
 152      341A0949 
 152      5D02439A 
 152      72AFFEE3 
 152      9738
 153 00f0 4553FB65 		.ascii	"ES\373e1\234\203\300\027T\351\355\342\322\317k\221b"
 153      319C83C0 
ARM GAS  /tmp/ccOy41Td.s 			page 12


 153      1754E9ED 
 153      E2D2CF6B 
 153      9162
 154 0102 AC759306 		.ascii	"\254u\223\006\271\344F\244\244\272\371*7\306\032\365"
 154      B9E446A4 
 154      A4BAF92A 
 154      37C61AF5 
 155 0112 0788E321 		.ascii	"\007\210\343!-\007\217\257K\215k\321\036\205\0375\303"
 155      2D078FAF 
 155      4B8D6BD1 
 155      1E851F35 
 155      C3
 156 0123 DD9A4075 		.ascii	"\335\232@uu\212r.\264\312\"Y:O\3068S\271\303\241v\232"
 156      758A722E 
 156      B4CA2259 
 156      3A4FC638 
 156      53B9C3A1 
 157 0139 5A1B8D61 		.ascii	"Z\033\215a\323ZH\203s8X\334W\304\376.}\373\234\210\364"
 157      D35A4883 
 157      733858DC 
 157      57C4FE2E 
 157      7DFB9C88 
 158 014e 2D6C7AAD 		.ascii	"-lz\255\373~\245\277\321\013\007\346p\020\364J\352\241"
 158      FB7EA5BF 
 158      D10B07E6 
 158      7010F44A 
 158      EAA1
 159 0160 2C111DCA 		.ascii	",\021\035\312a6I\275\241\250\350\304:\014\256\303\364"
 159      613649BD 
 159      A1A8E8C4 
 159      3A0CAEC3 
 159      F4
 160 0171 6C7A1A8A 		.ascii	"lz\032\212\337\333\372\375_\343\303Y\343{\247\033x\323"
 160      DFDBFAFD 
 160      5FE3C359 
 160      E37BA71B 
 160      78D3
 161 0183 697C36BD 		.ascii	"i|6\275`\247\305\323\234\227M/)\256\017\266A\365\347"
 161      60A7C5D3 
 161      9C974D2F 
 161      29AE0FB6 
 161      41F5E7
 162 0196 322A7D42 		.ascii	"2*}B5\315?\247\202^2M+|\013\276\345\225,\337s,'\347"
 162      35CD3FA7 
 162      825E324D 
 162      2B7C0BBE 
 162      E5952CDF 
 163 01ae FA774D07 		.ascii	"\372wM\007\242T4\330\213\315LN\225\345\225c\300b\301"
 163      A25434D8 
 163      8BCD4C4E 
 163      95E59563 
 163      C062C1
 164 01c1 2BF9D668 		.ascii	"+\371\326h:5\226\232\345\014\247\340\311\354\314\210"
 164      3A35969A 
 164      E50CA7E0 
 164      C9ECCC88 
 165 01d1 6BE630DC 		.ascii	"k\3460\334\216\224\263%k,\225\031\317X\371ig\252|GZ"
ARM GAS  /tmp/ccOy41Td.s 			page 13


 165      8E94B325 
 165      6B2C9519 
 165      CF58F969 
 165      67AA7C47 
 166 01e6 1AE9B837 		.ascii	"\032\351\2707\312\323\016\203\373R\231t\362\366\244"
 166      CAD30E83 
 166      FB529974 
 166      F2F6A4
 167 01f5 2F8B5E7E 		.ascii	"/\213^~89t\025\302C\217+\335\202w\017\211c%\217\030"
 167      38397415 
 167      C2438F2B 
 167      DD82770F 
 167      8963258F 
 168 020a B4BE1CFE 		.ascii	"\264\276\034\376\001\256\367\323C"
 168      01AEF7D3 
 168      43
 169              		.text
 170              		.section	.gnu.lto_.cgraph.d021b7b789cbe214,"",%progbits
 171 0000 789C6362 		.ascii	"x\234cb`d`f``(b\200\002\246\245\214\365\014\014\023"
 171      60646066 
 171      60602862 
 171      8002A6A5 
 171      8CF50C0C 
 172 0015 CE31D4D7 		.ascii	"\3161\324\327\317\353`dZ\306X\317\210\340-g\254g\202"
 172      CFEB6064 
 172      5AC658CF 
 172      88E02D67 
 172      AC6782
 173 0028 F318D730 		.ascii	"\363\030\3270\3263\203y\015\015\214\214k\031\353Y\340"
 173      D6338379 
 173      0D0D8C8C 
 173      6B19EB59 
 173      E0
 174 0039 9C958CF5 		.ascii	"\234\225\214\365\2540\0163\003\013C\363\251\343\314"
 174      AC300E33 
 174      030B43F3 
 174      A9E3CC
 175 0048 CC407B16 		.ascii	"\314@{\026w\275\221g\006\212<\336\312\307\314\304\312"
 175      77BD9167 
 175      068A3CDE 
 175      CAC7CCC4 
 175      CA
 176 0059 D0FCF01F 		.ascii	"\320\374\360\037#\003\0003##\036"
 176      23030033 
 176      23231E
 177              		.text
 178              		.section	.gnu.lto_.vars.d021b7b789cbe214,"",%progbits
 179 0000 789C6362 		.ascii	"x\234cb`d`f```g\200\000\306\325\214\014\014\365\014"
 179      60646066 
 179      60606067 
 179      8000C6D5 
 179      8C0C0CF5 
 180 0015 00060801 		.ascii	"\000\006\010\001:"
 180      3A
 181              		.text
 182              		.section	.gnu.lto_.refs.d021b7b789cbe214,"",%progbits
 183 0000 789C6362 		.ascii	"x\234cb`d`f``\340a\200\000F db\004\221\014\014\000\001"
ARM GAS  /tmp/ccOy41Td.s 			page 14


 183      60646066 
 183      6060E061 
 183      80004620 
 183      64620491 
 184 0018 DD001A   		.ascii	"\335\000\032"
 185              		.text
 186              		.section	.gnu.lto_.statics.d021b7b789cbe214,"",%progbits
 187 0000 789C6362 		.ascii	"x\234cb`d`b\300\016@\342\214\020&\000\000\375\000\011"
 187      60646062 
 187      C00E40E2 
 187      8C102600 
 187      00FD0009 
 188              		.text
 189              		.section	.gnu.lto_.decls.d021b7b789cbe214,"",%progbits
 190 0000 789CAD5A 		.ascii	"x\234\255Z{t\024\325\031\277\367N\262\273!\220 >\032"
 190      7B7414D5 
 190      19BFF74E 
 190      B2BB2190 
 190      203E1A
 191 0013 AD3D893D 		.ascii	"\255=\211=\322\203\036\311\202P\036\265r\254x\004=\322"
 191      D2831EC9 
 191      82501EB5 
 191      72AC7804 
 191      3DD2
 192 0025 F6883DFE 		.ascii	"\366\210=\376\265g\273\331\014\311\326}9;\201\360\337"
 192      B567BBD9 
 192      0CC9D67D 
 192      393B81F0 
 192      DF
 193 0036 185BF141 		.ascii	"\030[\361AkDQ^\201\010\362\312\251\017\024\004\201\372"
 193      6B44515E 
 193      8108F2CA 
 193      A90F1404 
 193      81FA
 194 0048 38449410 		.ascii	"8D\224\0200b\024\320P)M\243\306H\245\306\022m$\375\356"
 194      306214D0 
 194      50294DA3 
 194      C648A5C6 
 194      126D24FD 
 195 005d 9D993B33 		.ascii	"\235\231;3\2733;\231\2049\2713wf\356\375}\337\367\373"
 195      BB333B99 
 195      8439B933 
 195      7766EEFD 
 195      7DDFF7FB 
 196 0071 BE7BEF37 		.ascii	"\276{\3577wC\020F\364\350\200\313\020\034\322\015\010"
 196      77431046 
 196      F4E880CB 
 196      101CD20D 
 196      08
 197 0082 55152004 		.ascii	"U\025 \004\177\350f(\364m3R\017\037\224\255Pf\300\303"
 197      7FE86628 
 197      F46D3352 
 197      0F1F94AD 
 197      5066C0C3 
 198 0096 5F40B915 		.ascii	"_@\271\025\312\355P\356\304j\273\2730\262\034\264\355"
 198      CAED50EE 
 198      C46ABBBB 
ARM GAS  /tmp/ccOy41Td.s 			page 15


 198      30B21CB4 
 198      ED
 199 00a7 E55056C2 		.ascii	"\345PV\302\363\022\270\216\325\360^\202\262\035\312"
 199      F312B88E 
 199      D5F05E82 
 199      B21DCA
 200 00b6 3D70B300 		.ascii	"=p\263\000\312\323P\366\303\3753p]\015e\007\324K\341"
 200      CAD350F6 
 200      C3FD3370 
 200      5D0D6507 
 200      D44BE1
 201 00c9 3A07AE03 		.ascii	":\007\256\003\232\374\265p?\017\312:(s\241\024\303\263"
 201      9AFCB570 
 201      3F0FCA3A 
 201      2873A114 
 201      C3B3
 202 00db 85708D42 		.ascii	"\205p\215B\371\021\305\207r\036\236]\200\262\223\312"
 202      F911C587 
 202      721E9E5D 
 202      80B293CA 
 203 00eb 85FB57E1 		.ascii	"\205\373W\341\372%\224\357\241\010\232>\267kz\023\250"
 203      FA2594EF 
 203      A1089A3E 
 203      B76B7A13 
 203      A8
 204 00fc 37E15C9D 		.ascii	"7\341\\\235\251m\3435\035u\2357a\325\006\263\216f\335"
 204      A96DE335 
 204      1D759D37 
 204      61D506B3 
 204      8E66DD
 205 010f 4B359DA9 		.ascii	"K5\235\251nTW\252\237\337\244\037\325\3552\254\352\245"
 205      6E5457AA 
 205      9FDFA41F 
 205      D5ED32AC 
 205      EAA5
 206 0121 EB443459 		.ascii	"\353D4Y\267:pG\371-\312\322\203rf\326a\013\224\233\264"
 206      B73A7047 
 206      F92DCAD2 
 206      837266D6 
 206      610B949B 
 207 0136 7E44EBA3 		.ascii	"~D\353\243\373bk\026^\021zXQ\032\224\323\233\225\262"
 207      FB626B16 
 207      5E117A58 
 207      511A94D3 
 207      9B95B2
 208 0149 55807725 		.ascii	"U\200w%\012\341\022\300\017\260\332\330\"\265\323D\364"
 208      0AE112C0 
 208      0FB0DAD8 
 208      22B5D344 
 208      F4
 209 015a 9CA2342A 		.ascii	"\234\2424*\212\202C\270\031\027\001(\301\350z\264]a"
 209      8A8243B8 
 209      19170128 
 209      C1E87AB4 
 209      5D61
 210 016c 8786A85D 		.ascii	"\207\206\250]\212Q\313\366W\372\204\021\242?\307\320"
 210      8A51CBF6 
ARM GAS  /tmp/ccOy41Td.s 			page 16


 210      57FA8411 
 210      A23FC7D0 
 211 017c C1A121BC 		.ascii	"\301\241!\274\011_\217.,\337\365\003Q\241B\030\027\231"
 211      095F8F2E 
 211      2CDFF503 
 211      51A14218 
 211      1799
 212 018e 1567F76A 		.ascii	"\025g\367j+\025X}\255\327\206\254v\016\243u9Z\2574\237"
 212      2B15587D 
 212      ADD786AC 
 212      760EA375 
 212      395AAF34 
 213 01a3 6E7C5099 		.ascii	"n|P\231?04\344\277\002\255\244\2665?\004j\311\314\014"
 213      3F3034E4 
 213      BF02ADA4 
 213      B6353F04 
 213      6AC9CC0C 
 214 01b7 7633FF5D 		.ascii	"v3\377]\223\031\025\334\214\202,3\26633Z\261nG\313\027"
 214      931915DC 
 214      8C822C33 
 214      B633335A 
 214      B16E47CB 
 215 01cc 564ABC60 		.ascii	"VJ\274`\375\225a\265a\203\2237\016N\326\255\362eq\342"
 215      FD9561B5 
 215      61839337 
 215      0E4ED6AD 
 215      F26571E2 
 216 01e0 B35A495F 		.ascii	"\263ZI_Si\003t\010\343!\375\300\372;z\343G\027\003\302"
 216      53690374 
 216      08E321FD 
 216      C0FA3B7A 
 216      E3471703 
 217 01f5 DE0E8AB7 		.ascii	"\336\016\212\267\015_\301j\002\213E\210\217GiH\250\366"
 217      0D5FC16A 
 217      028B4588 
 217      8F476948 
 217      A8F6
 218 0207 4F404F50 		.ascii	"O@OP\354\0123\023\315\005\034\3426\026\300\307\230\351"
 218      EC0A3313 
 218      CD051CE2 
 218      3616C0C7 
 218      98E9
 219 0219 3BF0044D 		.ascii	";\360\004M/F\216\242\222C\237\"\355yO\3237\357\224\241"
 219      2F468EA2 
 219      92439F22 
 219      ED794FD3 
 219      37EF94A1 
 220 022d DC63C235 		.ascii	"\334c\3025\250\031DR\317\372B\370%\\\014\230\337s\314"
 220      A8194452 
 220      CFFA42F8 
 220      255C0C98 
 220      DF73CC
 221 0240 CE0DBDD8 		.ascii	"\316\015\275\330^y\275\256\036z\033\355\260\301|\200"
 221      5E79BDAE 
 221      1E7A1BED 
 221      B0C17C80 
 222 0250 E898DDE5 		.ascii	"\350\230\335\345^\020+r\020\265a3\374\030y\215\305\310"
ARM GAS  /tmp/ccOy41Td.s 			page 17


 222      5E102B72 
 222      10B56133 
 222      FC18798D 
 222      C5C8
 223 0262 C384C7DB 		.ascii	"\303\204\307\333\311\354!8|\254\375\014\253\221\030"
 223      C9EC2138 
 223      7CACFD0C 
 223      AB9118
 224 0271 F1F6FEC1 		.ascii	"\361\366\376\301\240\036\034\376\254x\363[\203\305\317"
 224      A01E1CFE 
 224      AC78F35B 
 224      83C5CF
 225 0280 47955F0B 		.ascii	"G\225_\013\215R\344\275\003A\2539\225=M?\2743;?\233"
 225      8D52E4BD 
 225      0341AB39 
 225      953D4D3F 
 225      BC333B3F 
 226 0295 0147FF28 		.ascii	"\001G\377(\214M-\310\232}\316\366\023\324\314$\276e"
 226      8C4D2DC8 
 226      9A7DCEF6 
 226      13D4CC24 
 226      BE65
 227 02a7 1B646F99 		.ascii	"\033do\231\202\354\314\226\343\207\355\202\014\233\334"
 227      82ECCC96 
 227      E387ED82 
 227      0C9BDC
 228 02b6 E71EE284 		.ascii	"\347\036\342\204K\277\226I?\312\244\037\264\225~\320"
 228      4BBF9649 
 228      3FCAA41F 
 228      B4957ED0 
 229 02c6 24BDF7F9 		.ascii	"$\275\367\371OJm\204\0279\011\017\341\233/\037\206\313"
 229      4F4A6D84 
 229      1739090F 
 229      E19B2F1F 
 229      86CB
 230 02d8 DB58FCFE 		.ascii	"\333X\374\376Q\300\334\3107\332\312u\217\315)\266z\020"
 230      51C0DCC8 
 230      37DACA75 
 230      8FCD29B6 
 230      7A10
 231 02ea EE750F32 		.ascii	"\356u\0172\335\377,\350\272\367>\277\343\330u\243\035"
 231      DDFF2CE8 
 231      BAF73EBF 
 231      E3D875A3 
 231      1D
 232 02fb 4BAA2E8D 		.ascii	"K\252.\215\034\264\375\216\321\215%\035\361I\216\330"
 232      1CB4FD8E 
 232      D18D251D 
 232      F1498ED8 
 233 030b E982E81C 		.ascii	"\351\202\350\034OV\304\2479b\227'Dg\035Ws\304n\027\304"
 233      4F56C4A7 
 233      39629727 
 233      44671D57 
 233      73C46E17 
 234 0320 F1C3D471 		.ascii	"\361\303\324q\035G\354\363\204\350\254\343\006\216\330"
 234      1D47ECF3 
 234      84E8ACE3 
ARM GAS  /tmp/ccOy41Td.s 			page 18


 234      068ED8
 235 032f EF825836 		.ascii	"\357\202X6L\0357q\304AO\210\316:n\345\210\255w\346G"
 235      4C1D3771 
 235      C4414F88 
 235      CE3A6EE5 
 235      88AD77E6 
 236 0344 ACB0D331 		.ascii	"\254\260\3231'\246\262\227\264\2671\037\023\004\265"
 236      27A6B297 
 236      B4B7311F 
 236      1304B5
 237 0353 08FACC71 		.ascii	"\010\372\314qf\313\311\303\301\021\304?\207zA0\246\275"
 237      66CBC9C3 
 237      C111C43F 
 237      877A4130 
 237      A6BD
 238 0365 216FD39E 		.ascii	"!o\323\236\035\031\352\262\264\223\203\266os[\352\334"
 238      1D19EAB2 
 238      B49383B6 
 238      6F735BEA 
 238      DC
 239 0376 C34AC5DC 		.ascii	"\303J\305\334\3171;'\215.\254,\323\025O\027\337tK\027"
 239      CF313B27 
 239      8D2EAC2C 
 239      D3154F17 
 239      DF744B17 
 240 038a D9DC68CA 		.ascii	"\331\334h\312.\313\234Z\207\360gx\"\234?\327\262\307"
 240      2ECB9C5A 
 240      87F06778 
 240      229C3FD7 
 240      B2C7
 241 039c 2B8D3AAF 		.ascii	"+\215:\257\016\261\274\277U\240\355\263\322c\315\341"
 241      0EB1BCBF 
 241      55A0EDB3 
 241      D263CDE1 
 242 03ac 6EBD9D43 		.ascii	"n\275\235C\345_\346P9d\270\302e\236\3143v\276nP\312"
 242      E55FE650 
 242      3964B8C2 
 242      659ECC33 
 242      76BE6E50 
 243 03c1 7C7A1EDE 		.ascii	"|z\036\336\301\021\273[z\260=\005\303\030=\014\323s"
 243      C111BB5B 
 243      7AB03D05 
 243      C3183D0C 
 243      D373
 244 03d3 B27E96A9 		.ascii	"\262~\226\251p\202/\033-\253y\326\241f\362\026\016]"
 244      70822F1B 
 244      2DAB79D6 
 244      A166F216 
 244      0E5D
 245 03e5 1370824E 		.ascii	"\023p\202N\233\342\377\\\333l/\346L\032\2759\3370s>"
 245      9BE2FF5C 
 245      DB6C2FE6 
 245      4C1ABD39 
 245      DF30733E 
 246 03f9 37CC796D 		.ascii	"7\314ym\224\346|m2\347\177\336\314\231b2G\315b.E+\334"
 246      94E67C6D 
 246      32E77FDE 
ARM GAS  /tmp/ccOy41Td.s 			page 19


 246      CC996232 
 246      47CD622E 
 247 0410 B218AAD6 		.ascii	"\262\030\252\326\000\276\024\345\346\020\364\251\236"
 247      00BE14E5 
 247      E610F4A9 
 247      9E
 248 041d 43B4BF50 		.ascii	"C\264\277Pb\023\343\005&Q\372\367\313y\246?\355\333"
 248      6213E305 
 248      2651FAF7 
 248      CB79A63F 
 248      EDDB
 249 042f FA62CF88 		.ascii	"\372b\317\210\223d+\346\005\21698\222\251\3222\027\315"
 249      93642BE6 
 249      058E3938 
 249      92A9D232 
 249      17CD
 250 0441 A153D1B2 		.ascii	"\241S\321\262\002\035\260\177\317h3y\317\271\362\003"
 250      021DB07F 
 250      CF683379 
 250      CFB9F203 
 251 0451 84DAF497 		.ascii	"\204\332\364\227\002\0362\217\3542Bf\177v\310\014/\367"
 251      021E328F 
 251      EC324266 
 251      7F76C80C 
 251      2FF7
 252 0463 5DC30DEA 		.ascii	"]\303\015\352i\332w\324e\021\260\265H;\010z\266@\017"
 252      69DA77D4 
 252      6511B0B5 
 252      483B087A 
 252      B6400F
 253 0476 C041179C 		.ascii	"\300A\027\234\012\027\367\015#\2076\363\262\214L\000"
 253      0A17F70D 
 253      238736F3 
 253      B28C4C00 
 254 0486 F19B392F 		.ascii	"\361\2339/}k\265\230\033\006\016e\352Qb\227\011\323"
 254      7D6BB598 
 254      1B060E65 
 254      EA516297 
 254      09D3
 255 0498 A77A1477 		.ascii	"\247z\024w\255]d\023\3058g\255\012\341]\230h\210\335"
 255      AD5D6413 
 255      C53867AD 
 255      0AE15D98 
 255      6888DD
 256 04ab 6B471420 		.ascii	"kG\024 \271\207Y\301\020~\214LD\240\335rr\215\301\374"
 256      B98759C1 
 256      107E8C4C 
 256      44A0DD72 
 256      728DC1FC 
 257 04bf 4ECE7CF7 		.ascii	"N\316|\367^\267\241c\345\276\302\302\275b\342\376\026"
 257      5EB7A163 
 257      E5BEC2C2 
 257      BD62E2FE 
 257      16
 258 04d0 3367B758 		.ascii	"3g\267X\362\0003\367\2173\356_\347\334\367\257\311\342"
 258      F20033F7 
 258      8F33EE5F 
ARM GAS  /tmp/ccOy41Td.s 			page 20


 258      E7DCF7AF 
 258      C9E2
 259 04e2 3E0F0E35 		.ascii	">\017\0165m\205-\367+\314\334\257\261\343\2368rO\373"
 259      6D852DF7 
 259      2BCCDCAF 
 259      B1E39E38 
 259      724FFB
 260 04f5 76AFB938 		.ascii	"v\257\2718\237\331!\274\233c\366]\345\005\261\302\331"
 260      9FD921BC 
 260      9B63F65D 
 260      E505B1C2 
 260      D9
 261 0506 9B2B4CDE 		.ascii	"\233+L\336|\022\274IB\370)0'\204W\232}z\224\373\264"
 261      7C12BC49 
 261      42F82930 
 261      2784579A 
 261      7D7A94FB 
 262 051b 739FE153 		.ascii	"s\237\341S+\201z}\222\2431\326\351\360$\307\354\277"
 262      2B817A7D 
 262      92A331D6 
 262      E9F024C7 
 262      ECBF
 263 052d 29BF3153 		.ascii	")\2771S\\\351Q'\243O\215\310\373\245\027\304\212\034"
 263      5CE95127 
 263      A34F8DC8 
 263      FBA517C4 
 263      8A1C
 264 053f 44D7CF58 		.ascii	"D\327\317X\005[\322<\202z\231\354&\333\000j2\005\320"
 264      055BD23C 
 264      827A99EC 
 264      26DB006A 
 264      3205D0
 265 0552 C6F7DEFF 		.ascii	"\306\367\336\377\273\335G\264`\212z=\220\033\013u\314"
 265      BBDD47B4 
 265      608A7A3D 
 265      901B0B75 
 265      CC
 266 0563 AEDD25F9 		.ascii	"\256\335%\371I\037^\004\021\264\212C\366\035/\311\317"
 266      491F5E04 
 266      11B48A43 
 266      F61D2FC9 
 266      CF
 267 0574 91DBB7A0 		.ascii	"\221\333\267\240W\216\314\003u\013\263\257\271\220O"
 267      578ECC03 
 267      750BB3AF 
 267      B9904F
 268 0583 921F15EB 		.ascii	"\222\037\025\353\001\251\222e\212\320&S\204n\200\010"
 268      01A99265 
 268      8AD02653 
 268      846E8008 
 269 0593 15200164 		.ascii	"\025 \001d\021\272\221\235\2373\342\324yR\335LL\251"
 269      11BA919D 
 269      9F33E2D4 
 269      7952DD4C 
 269      4CA9
 270 05a5 E836CEC1 		.ascii	"\3506\316\301\2407\016*,\036s\226\266\316,\355\305B"
 270      A0370E2A 
ARM GAS  /tmp/ccOy41Td.s 			page 21


 270      2C1E7396 
 270      B6CE2CED 
 270      C542
 271 05b7 2313DA5D 		.ascii	"#\023\332]\232_\334,W/\252\273]\257q\314\301\277\271"
 271      9A5FDC2C 
 271      572FAABB 
 271      5DAF71CC 
 271      C1BFB9
 272 05ca 4DB1B3B2 		.ascii	"M\261\263\262\224\315\305d\271D+\207\354{\335m\272\272"
 272      94CDC564 
 272      B9442B87 
 272      EC7BDD6D 
 272      BABA
 273 05dc C54E4D57 		.ascii	"\305NMWV\324)\314\330=\3216E\325\351\200^\357\0218i"
 273      56D429CC 
 273      D83DD136 
 273      45D5E980 
 273      5EEF1138 
 274 05f1 ED3C32F6 		.ascii	"\355<2\366\236z\342l\275\372\370Z\264IQVP\245\365h\376"
 274      9E7AE26C 
 274      BDFAF85A 
 274      B4495156 
 274      50A5F568 
 275 0606 0F6BB615 		.ascii	"\017k\266\025\227\243=~{\301\230ujT;\251\363\316\267"
 275      97A33D7E 
 275      7BC19875 
 275      6A543BA9 
 275      F3CEB7
 276 0619 BCD38922 		.ascii	"\274\323\211\"\007m5\235T1\350gh3\035\231\007\032\346"
 276      076D359D 
 276      5431E867 
 276      68331D99 
 276      071AE6
 277 062c 1BBAD2EE 		.ascii	"\033\272\322\356\365N\266\252\346\022b\346%\317\026"
 277      F54EB6AA 
 277      E61262E6 
 277      25CF16
 278 063b BB2AC699 		.ascii	"\273*\306\231\270\335\344\012\255\2463D\320w\234\240"
 278      B8DDE40A 
 278      ADA63344 
 278      D0779CA0 
 279 064b C1F5495D 		.ascii	"\301\365I]\006S\264AU\224i\016M^%\345\316Na-\366xP\324"
 279      0653B441 
 279      5594690E 
 279      4D5E25E5 
 279      CE4E612D 
 280 0663 714B8D02 		.ascii	"qK\215\002\355#\226\335n\315I\371\334\374\240\217O\000"
 280      ED2396DD 
 280      6ECD49F9 
 280      DCFCA08F 
 280      4F00
 281 0675 DBAFB277 		.ascii	"\333\257\262wr\010\277L\350\242\267\027\35481\\'\207"
 281      7208BF4C 
 281      E8A2B717 
 281      EC38315C 
 281      2787
 282 0687 F04EDE69 		.ascii	"\360N\336i\300\213\223\2257\033\312\230\225H\353]kb"
ARM GAS  /tmp/ccOy41Td.s 			page 22


 282      C08B9395 
 282      371BCA98 
 282      9548EB5D 
 282      6B62
 283 0699 26845FCF 		.ascii	"&\204_\317\245\3524\210m\366L\325\201l\252\350'-\266"
 283      A5EA3488 
 283      6DF64CD5 
 283      816CAAE8 
 283      272DB6
 284 06ac 70D3C8B9 		.ascii	"p\323\310\271\351i:\371\261e\311\010\341\267=(\222?"
 284      E9693AF9 
 284      B165C908 
 284      E1B73D28 
 284      923F
 285 06be B8DEB173 		.ascii	"\270\336\261s\232U\223\365\\\223\256\336\305V=\016\345"
 285      9A5593F5 
 285      5C93AEDE 
 285      C5563D0E 
 285      E5
 286 06cf D3438D08 		.ascii	"\323C\215\010\202Zx\377\376\336*k\377\303\326\376?E"
 286      825A78FF 
 286      FEDE2A6B 
 286      FFC3D6FE 
 286      3F45
 287 06e1 CFD2FE4A 		.ascii	"\317\322\376J\363|\345\364\320P\271\335\242r\332\330"
 287      F37CE5F4 
 287      D050B9DD 
 287      A272DAD8 
 288 06f1 3FBE0159 		.ascii	"?\276\001Y\027\225#lQ\331m\304T\2275\373\313\207C\320"
 288      1795236C 
 288      51D96DC4 
 288      549735FB 
 288      CB8743D0 
 289 0705 01D6AFC3 		.ascii	"\001\326\257\303v\001\3570-\340\375G7\332m\224\010\271"
 289      7601EF30 
 289      2DE0FD47 
 289      37DA6D94 
 289      08B9
 290 0717 59AB559E 		.ascii	"Y\253U\236\261\030^\235\245w'\323\373\010\327\273}}"
 290      B1185E9D 
 290      A57727D3 
 290      FB08D7BB 
 290      7D7D
 291 0729 3EBDAD38 		.ascii	">\275\2558T\253\343\266:\0377\351\334\275\316.k\365"
 291      54ABE3B6 
 291      3A1F37E9 
 291      DCBDCE2E 
 291      6BF5
 292 073b D9A41C1F 		.ascii	"\331\244\034\0373-h\337\276un\211\236z\270\257Vg8f\377"
 292      332D68DF 
 292      BE756E89 
 292      9E7AB8AF 
 292      56673866 
 293 0750 D5234D39 		.ascii	"\325#M9\364\324\221\3565\022\364\005Gl\375\311\010\026"
 293      F4D491EE 
 293      3512F405 
 293      476CFDC9 
ARM GAS  /tmp/ccOy41Td.s 			page 23


 293      0816
 294 0762 709BBCE8 		.ascii	"p\233\274\350\337\034\261\253\351b\355\024\236\347\230"
 294      DF1CB1AB 
 294      E962ED14 
 294      9EE798
 295 0771 DD2E5ABA 		.ascii	"\335.Z\272o@\253\210C\034q\320\005\321v\023-\3670\007"
 295      6F40AB88 
 295      431C71D0 
 295      05D17613 
 295      2DF73007 
 296 0785 4F089F80 		.ascii	"O\010\237\200\354\012d\235dy\325'\354|\212\235?e\347"
 296      EC0A649D 
 296      6479D527 
 296      EC7C8A9D 
 296      3F65E7
 297 0798 7FB0F33F 		.ascii	"\177\260\363?\315\337\005\217\370\365A\323\371\236\021"
 297      CDDF058F 
 297      F8F541D3 
 297      F99E11
 298 07a7 2E5931EA 		.ascii	".Y1\352\036/\316\303\346\367\2747\375\265\337<j>c\361"
 298      1E2FCEC3 
 298      E6F7BC37 
 298      FDB5DF3C 
 298      6A3E63F1 
 299 07bb FAB89FAF 		.ascii	"\372\270\237\257\203G\362\214\032+\014\265\273\327v"
 299      8347F28C 
 299      1A2B0CB5 
 299      BBD776
 300 07ca D0F49A06 		.ascii	"\320\364\232\006\315\340"
 300      CDE0
 301 07d0 61BB4153 		.ascii	"a\273AS\340\351\307.\203\210\313\262\324?\253n\023p"
 301      E0E9C72E 
 301      8388CBB2 
 301      D43FAB6E 
 301      1370
 302 07e2 F55B0F7D 		.ascii	"\365[\017}\217\235\365\317\002\"h\027\353x\316\326\210"
 302      8F9DF5CF 
 302      02226817 
 302      EB78CED6 
 302      88
 303 07f3 7366230E 		.ascii	"sf#\016U\331\030Qh\211\255\257\010\215\255\003\034\261"
 303      55D91851 
 303      6889ADAF 
 303      088DAD03 
 303      1CB1
 304 0805 B56DF4DF 		.ascii	"\265m\364\337\253*\346a\216\331\356\362c\204\025\321"
 304      AB2AE661 
 304      8ED9EEF2 
 304      638415D1 
 305 0815 32029407 		.ascii	"2\002\224\007\225I\372\366\224\362\2202i\233\211\227"
 305      9549FAF6 
 305      94F29032 
 305      699B8997 
 306 0825 F11C8064 		.ascii	"\361\034\200d\361\373\035\373\"\374\200\363{f\313+m"
 306      F1FB1DFB 
 306      22FC80F3 
 306      7B66CB2B 
ARM GAS  /tmp/ccOy41Td.s 			page 24


 306      6D
 307 0836 5AE6E919 		.ascii	"Z\346\351\031k\220a\235\342X\027\226\237z\233ou\011"
 307      6B90619D 
 307      E2581796 
 307      9F7A9B6F 
 307      7509
 308 0848 96F1C5EE 		.ascii	"\226\361\305\356\315;]\352k\27564$ \257\315\011\352"
 308      CD3B5DEA 
 308      6BBD3634 
 308      2420AFCD 
 308      09EA
 309 085a E134F634 		.ascii	"\3414\3664}xl\266\275\302#\372l\363\222\2634\010Y\231"
 309      7D786CB6 
 309      BDC223FA 
 309      6CF392B3 
 309      34085999 
 310 086e C21C6BA2 		.ascii	"\302\034k\242`\337\323\262e(\260\251\226\363\330\365"
 310      60DFD3B2 
 310      6528B0A9 
 310      96F3D8F5 
 311 087e AEBE9466 		.ascii	"\256\276\224f\375rKE9+\362\220`\371\220\260\320\231"
 311      FD724B45 
 311      392BF290 
 311      60F990B0 
 311      D099
 312 0890 F58EA001 		.ascii	"\365\216\240\001\316]W\233\333\247\222\373b\301>\225"
 312      CE5D579B 
 312      DBA792FB 
 312      62C13E95 
 313 08a0 94800ED9 		.ascii	"\224\200\016\331\347:Rl\327\212\334\303<\224C\370\033"
 313      E73A526C 
 313      D78ADCC3 
 313      3C9443F8 
 313      1B
 314 08b1 98870B43 		.ascii	"\230\207\013C\270\237\315\267\377e\347\001vV\004z~X"
 314      B89FCDB7 
 314      FF65E701 
 314      7656047A 
 314      7E58
 315 08c3 18C617EF 		.ascii	"\030\306\027\357W\3067h\010\177\313\262a:\271\265\336"
 315      57C63768 
 315      087FCBB2 
 315      613AB9B5 
 315      DE
 316 08d4 75314676 		.ascii	"u1Fv\010\237\347\210\235\236\020-\244\262\221\255\016"
 316      089FE788 
 316      9D9E102D 
 316      A4B291AD 
 316      0E
 317 08e5 D5101EE2 		.ascii	"\325\020\036\342\210\335\355\206\243<\307\270\011\223"
 317      88DDED86 
 317      A33CC7B8 
 317      0993
 318 08f3 A065CC53 		.ascii	"\240e\314S\014s\201\027\304\361\316~\3525\371\351K\360"
 318      0C738117 
 318      C4F1CE7E 
 318      EA35F9E9 
ARM GAS  /tmp/ccOy41Td.s 			page 25


 318      4BF0
 319 0905 534108F7 		.ascii	"SA\010\3671\337<\312|\363\030;/\027Lk\344\223\001}\215"
 319      31DF3CCA 
 319      7CF3183B 
 319      2F174C6B 
 319      E493017D 
 320 091a ECFF8DFD 		.ascii	"\354\377\215\375zd\277h\347\306\237\347=\372F\201\262"
 320      7A64BF68 
 320      E7C69FE7 
 320      3DFA4681 
 320      B2
 321 092b B02660FC 		.ascii	"\260&`\374/\326\216Q\357\321o\344\346\3644=\363\221"
 321      2FD68E51 
 321      EFD16FE4 
 321      E6F4343D 
 321      F391
 322 093d CBDEBAED 		.ascii	"\313\336\272\355^\240\035\255\035&Z\217\251\233<\037"
 322      5EA01DAD 
 322      1D265A8F 
 322      A99B3C1F 
 323 094d 305A7BD8 		.ascii	"0Z{\330\371q3\241\273\270=\355_\274l$\035\326\204\236"
 323      F97133A1 
 323      BBB83DED 
 323      5FBC6C24 
 323      1DD6849E 
 324 0961 823E25F0 		.ascii	"\202>%\360\257\213\254\011\206&\273\316cg\245P\354\320"
 324      AF8BAC09 
 324      8626BBCE 
 324      6367A550 
 324      ECD0
 325 0973 EF48DE7E 		.ascii	"\357H\336~O\033\375.A\215\352\206\363\252\022\365\267"
 325      4F1BFD2E 
 325      418DEA86 
 325      F3AA12F5 
 325      B7
 326 0984 52FBF0A3 		.ascii	"R\373\360\243\275\236\021.a5\313\177\307\261&\316\222"
 326      BD9E112E 
 326      6135CB7F 
 326      C7B126CE 
 326      92
 327 0995 5669AB8E 		.ascii	"Vi\253\2161\310\364\032\266*P\221-\177\026o\351\327"
 327      31C8F41A 
 327      B62A5091 
 327      2D7F166F 
 327      E9D7
 328 09a7 B0568F40 		.ascii	"\260V\217@\376\032G\371>{\342\350g\2463\334ZG\302\017"
 328      FE1A47F9 
 328      3E7BE2E8 
 328      67A633DC 
 328      5A47C20F 
 329 09bb E4EDB7CE 		.ascii	"\344\355\267\316\350G?\035;:\032\225\206\262\006\372"
 329      E8473F1D 
 329      3B3A1A95 
 329      86B206FA 
 330 09cb E96836BF 		.ascii	"\351h6\277\307d\376o9\306\230\2744e\267\013\341\015"
 330      C764FE6F 
 330      39C698BC 
ARM GAS  /tmp/ccOy41Td.s 			page 26


 330      3465B70B 
 330      E10D
 331 09dd 23A0A9D9 		.ascii	"#\240\251\331\221&\363h0\332AL\354\011\350\273S{O\235"
 331      9126F368 
 331      30DA414C 
 331      EC09E8BB 
 331      537B4F9D 
 332 09f1 3B3BCB49 		.ascii	";;\313I\037\202\336\012`\255\367\030L\347\257e\354\027"
 332      1F82DE0A 
 332      60ADF718 
 332      4CE7AF65 
 332      EC17
 333 0a03 DF3F290F 		.ascii	"\337?)\017\340\373\215\021\347\364\357\0030|\204\000"
 333      E0FB8D11 
 333      E7F4EF03 
 333      307C8400 
 334 0a13 80BC1770 		.ascii	"\200\274\027p\376\341\237\266\320U\326\352\274\212s"
 334      FEE19FB6 
 334      D055D6EA 
 334      BC8A73
 335 0a22 1CB52FAF 		.ascii	"\034\265/\257\243\266xvT-\307\030\227\327Q\331\355B"
 335      A3B67876 
 335      542DC718 
 335      97D751D9 
 335      ED42
 336 0a34 78FB081C 		.ascii	"x\373\010\034\325\342\350\250\261\026N\364vP}V\320w"
 336      D5E2E8A8 
 336      B1164EF4 
 336      76507D56 
 336      D077
 337 0a46 985AAF77 		.ascii	"\230Z\257wR\206\240\017-^B\0019#Gd1,\373\346\375\372"
 337      5286A00F 
 337      2D5E4201 
 337      39234764 
 337      312CFBE6 
 338 0a5c 771573D1 		.ascii	"w\025s\321\364\312\312\240\372\227\312\004%9\230NIr"
 338      F4CACAA0 
 338      FA97CA04 
 338      2539984E 
 338      4972
 339 0a6e 26F8ABBB 		.ascii	"&\370\253\273\027\314]P\037\214\246\022\351X\\\2242"
 339      17CC5D50 
 339      1F8CA612 
 339      E9585C94 
 339      32
 340 0a7f C17973E7 		.ascii	"\301ys\347\006\243\265\362\322\264\230\251\254E\376"
 340      06A3B5F2 
 340      D2B498A9 
 340      AC45FE
 341 0a8e BA58529E 		.ascii	"\272XR\236\025\226\345`*-\323\306\301\232htrDJLN\246"
 341      1596E560 
 341      2A2DD3C6 
 341      C19A6874 
 341      72444A4C 
 342 0aa4 92E26431 		.ascii	"\222\342d1R\025\233<=<s\362\215S\246N\273\177Z\260*"
 342      52159B3C 
 342      3D3C73F2 
ARM GAS  /tmp/ccOy41Td.s 			page 27


 342      8D53A64E 
 342      BB7F5AB0 
 343 0ab9 96A402E2 		.ascii	"\226\244\002\342\261*\332.hi\027\234^9\263rz\220k\001"
 343      B12ADA2E 
 343      6869179C 
 343      5E39B372 
 343      7A906B01 
 344 0acd 7FD6F7B1 		.ascii	"\177\326\367\261d4^W-\0063r5\010\005\341\205\211LMX"
 344      64345E57 
 344      2D063372 
 344      350805E1 
 344      85894C4D 
 345 0ae2 F6C3CDB4 		.ascii	"\366\303\315\264\033\301\014\271V\022#\325\025Yf\350"
 345      1BC10CB9 
 345      561223D5 
 345      155966E8 
 346 0af2 BDA2B599 		.ascii	"\275\242\265\231hm5\364\362\245\303I\261^\206KZ\022"
 346      686D35F4 
 346      F2A5C349 
 346      B15E864B 
 346      5A12
 347 0b04 17FBE5B4 		.ascii	"\027\373\345\264\024K\205\345@\235\016C\237\307R\376"
 347      144B85E5 
 347      409D0E43 
 347      9FC752FE 
 348 0b14 682A2943 		.ascii	"h*)C\263\211yY\251\215\246$\0210\213\351\3430 D\345"
 348      B3897959 
 348      A98DA624 
 348      11308BE9 
 348      E3302044 
 349 0b29 FAEBDC7B 		.ascii	"\372\353\334{\204\027\317L@\257\200$\326\200\211a\231"
 349      8417CF4C 
 349      40AF8024 
 349      D6808961 
 349      99
 350 0b3a 48D389F4 		.ascii	"H\323\211\364s\"\315 \322L\"\315\"\322lA\232:\005\312"
 350      7322CD20 
 350      D24C22CD 
 350      22D26C41 
 350      9A3A05CA 
 351 0b4e 541297E0 		.ascii	"T\022\227\3402\2550\035\006d?\325|\211(\3015\025\257"
 351      32AD301D 
 351      06643FD5 
 351      7C8928C1 
 351      3515AF
 352 0b61 16A58268 		.ascii	"\026\245\202hmD\242\346D\022\"<c\356\364\313\211T58"
 352      6D44A2E6 
 352      4412223C 
 352      63EEF4CB 
 352      89543538 
 353 0b75 15EE17C5 		.ascii	"\025\356\027\305#5\031\277,\211\2132\314,Z\361I\325"
 353      233519BF 
 353      2C898B32 
 353      CC2C5AF1 
 353      49D5
 354 0b87 4B81B580 		.ascii	"K\201\265\200X\037\223\243\320\320\267DNU\375!],.\026"
 354      581F93A3 
ARM GAS  /tmp/ccOy41Td.s 			page 28


 354      D0D0B744 
 354      4E55FD21 
 354      5D2C2E16 
 355 0b9b 93722292 		.ascii	"\223r\"\222\271\017Z\212KhEH\207\353JTJ3\341x,#\207"
 355      B90F5A8A 
 355      4B684548 
 355      87EB4A54 
 355      4A33E178 
 356 0bb2 E5A27478 		.ascii	"\345\242txI$&\307\2225\245\372\213\373\353\304:\220"
 356      492426C7 
 356      9235A5FA 
 356      8BFBEBC4 
 356      3A90
 357 0bc4 36261D06 		.ascii	"6&\035\006TvS\310\252\360@L\213IpTMa\242\016\210,wt"
 357      547653C8 
 357      AAF0404C 
 357      8B497054 
 357      4D61A20E 
 358 0bdc 4B42AEA7 		.ascii	"KB\256\247\201\224P\261\340\232Z\222\004\033Y/\320&"
 358      819450B1 
 358      E09A5A92 
 358      041B592F 
 358      D026
 359 0bee C1BC05A2 		.ascii	"\301\274\005\242\241\035Uc\0145$\022g>\202\207\351T"
 359      A11D5563 
 359      0C352412 
 359      673E8287 
 359      E954
 360 0c00 2A5E14AD 		.ascii	"*^\024\255]\220\251Y\010\342~\234%%#E\251\204LMe\024"
 360      5D90A959 
 360      08E27E9C 
 360      25252345 
 360      A9844C4D 
 361 0c16 11392D40 		.ascii	"\0219-@Mm|/\3301\226\325\356\026\343b$#\216\213\326"
 361      4D6D7C2F 
 361      D83196D5 
 361      EE16E362 
 361      24238E8B 
 362 0c2b 2E8CD6CE 		.ascii	".\214\326\316K-\214\213bza1\273\273\033L\\z\307XV\277"
 362      4B2D8C8B 
 362      627A6131 
 362      BBBB1B4C 
 362      5C7AC758 
 363 0c41 37729F58 		.ascii	"7r\237X\307^\2043K3\262\010^+\342\365\261\224\214\245"
 363      C75E8433 
 363      4B33B208 
 363      5E2BE2F5 
 363      B1948CA5 
 364 0c55 1A4B7E49 		.ascii	"\032K~I\265\304'\261@*\224\230\353$\315u\222\352\272"
 364      B5C427B1 
 364      402A9498 
 364      EB24CD75 
 364      92EABA
 365 0c68 22785A27 		.ascii	"\"xZ'I@z\241D\273]\2768&\311u\221xX\216%`\224iP\245"
 365      49407AA1 
 365      44BB5DBE 
 365      3826C975 
ARM GAS  /tmp/ccOy41Td.s 			page 29


 365      9178588E 
 366 0c82 96A76179 		.ascii	"\226\247ay\234\345\336\277Xf\334\320+\015\345\"\252"
 366      9CE5DEBF 
 366      5866DCD0 
 366      2B0DE522 
 366      AA
 367 0c93 0CBCD082 		.ascii	"\014\274\320\202y\352\014\250\300\253j1.G\240\262\250"
 367      79EA0CA8 
 367      C0AB6A31 
 367      2E47A0B2 
 367      A8
 368 0ca4 2E190DB3 		.ascii	".\031\015\263\306\264\346\243\235\"R1\\\342\221\214"
 368      C6B4E6A3 
 368      9D225231 
 368      5CE2918C 
 369 0cb4 4CFBC123 		.ascii	"L\373\301#*\326/\311\321$\010\237\220\000^\352$1\001"
 369      2AD62FC9 
 369      D124089F 
 369      90005EEA 
 369      243101
 370 0cc7 4A86538B 		.ascii	"J\206S\213\026eD\231Dk\003a\326=\034\036\247W*gL\235"
 370      16654499 
 370      446B0361 
 370      D63D1C1E 
 370      A7572A67 
 371 0cdd 32A5307C 		.ascii	"2\2450|+8\302\362l\366\377\001\353\365\262\371"
 371      2B38C2F2 
 371      6CF6FF01 
 371      EBF5B2F9 
 372              		.text
 373              		.section	.gnu.lto_.symtab.d021b7b789cbe214,"",%progbits
 374 0000 63684D73 		.ascii	"chMsgSend\000\000\000\000\000\000\000\000\000\000\000"
 374      6753656E 
 374      64000000 
 374      00000000 
 374      00000000 
 375 0014 00A70000 		.ascii	"\000\247\000\000\000chMsgWait\000\000\000\000\000\000"
 375      0063684D 
 375      73675761 
 375      69740000 
 375      00000000 
 376 0028 00000000 		.ascii	"\000\000\000\000\000\0006\001\000\000chMsgRelease\000"
 376      00003601 
 376      00006368 
 376      4D736752 
 376      656C6561 
 377 003f 00000000 		.ascii	"\000\000\000\000\000\000\000\000\000\000\000:\001\000"
 377      00000000 
 377      0000003A 
 377      0100
 378 004d 00636853 		.ascii	"\000chSchGoSleepS\000\000\002\000\000\000\000\000\000"
 378      6368476F 
 378      536C6565 
 378      70530000 
 378      02000000 
 379 0064 00000042 		.ascii	"\000\000\000B\001\000\000chSchReadyI\000\000\002\000"
 379      01000063 
ARM GAS  /tmp/ccOy41Td.s 			page 30


 379      68536368 
 379      52656164 
 379      79490000 
 380 007a 00000000 		.ascii	"\000\000\000\000\000\000\000\000F\001\000\000chSchW"
 380      00000000 
 380      46010000 
 380      63685363 
 380      6857
 381 008c 616B6575 		.ascii	"akeupS\000\000\002\000\000\000\000\000\000\000\000\000"
 381      70530000 
 381      02000000 
 381      00000000 
 381      0000
 382 009e 4A010000 		.ascii	"J\001\000\000ch\000\000\002\000\000\000\000\000\000"
 382      63680000 
 382      02000000 
 382      000000
 383 00ad 0000004C 		.ascii	"\000\000\000L\001\000\000"
 383      010000
 384              		.text
 385              		.section	.gnu.lto_.opts,"",%progbits
 386 0000 272D6D63 		.ascii	"'-mcpu=cortex-m3''-mno-thumb-interwork''-mthumb''-g"
 386      70753D63 
 386      6F727465 
 386      782D6D33 
 386      27272D6D 
 387 0033 67646227 		.ascii	"gdb''-O2''-fomit-frame-pointer''-falign-functions=1"
 387      272D4F32 
 387      27272D66 
 387      6F6D6974 
 387      2D667261 
 388 0066 3627272D 		.ascii	"6''-ffunction-sections''-fdata-sections''-fno-commo"
 388      6666756E 
 388      6374696F 
 388      6E2D7365 
 388      6374696F 
 389 0099 6E27272D 		.ascii	"n''-flto'\000"
 389      666C746F 
 389      2700
 390              		.text
 391              		.cfi_sections	.debug_frame
 392              		.section	.text.chMsgSend,"ax",%progbits
 393              		.align	2
 394              		.p2align 4,,15
 395              		.global	chMsgSend
 396              		.thumb
 397              		.thumb_func
 398              		.type	chMsgSend, %function
 399              	chMsgSend:
 400              	.LFB165:
 401              		.file 1 "../../../os/rt/src/chmsg.c"
 402              		.loc 1 88 0
 403              		.cfi_startproc
 404              		@ args = 0, pretend = 0, frame = 0
 405              		@ frame_needed = 0, uses_anonymous_args = 0
 406              	.LVL0:
 407              		.loc 1 89 0
ARM GAS  /tmp/ccOy41Td.s 			page 31


 408 0000 0E4A     		ldr	r2, .L5
 409              		.loc 1 88 0
 410 0002 70B5     		push	{r4, r5, r6, lr}
 411              	.LCFI0:
 412              		.cfi_def_cfa_offset 16
 413              		.cfi_offset 4, -16
 414              		.cfi_offset 5, -12
 415              		.cfi_offset 6, -8
 416              		.cfi_offset 14, -4
 417              		.loc 1 89 0
 418 0004 9469     		ldr	r4, [r2, #24]
 419              	.LVL1:
 420              	.LBB52:
 421              	.LBB53:
 422              	.LBB54:
 423              	.LBB55:
 424              		.file 2 "../../../os/ext/CMSIS/include/core_cmFunc.h"
 425              		.loc 2 546 0
 426 0006 2025     		movs	r5, #32
 427              	@ 546 "../../../os/ext/CMSIS/include/core_cmFunc.h" 1
 428 0008 85F31188 		MSR basepri, r5
 429              	@ 0 "" 2
 430              		.thumb
 431              	.LBE55:
 432              	.LBE54:
 433              	.LBE53:
 434              	.LBE52:
 435              		.loc 1 95 0
 436 000c 00F12805 		add	r5, r0, #40
 437 0010 2562     		str	r5, [r4, #32]
 438              	.LVL2:
 439              		.loc 1 97 0
 440 0012 067F     		ldrb	r6, [r0, #28]	@ zero_extendqisi2
 441              	.LBB56:
 442              	.LBB57:
 443              		.file 3 "../../../os/rt/include/chschd.h"
 444              		.loc 3 510 0
 445 0014 C26A     		ldr	r2, [r0, #44]
 446              	.LBE57:
 447              	.LBE56:
 448              		.loc 1 97 0
 449 0016 0E2E     		cmp	r6, #14
 450              	.LBB60:
 451              	.LBB58:
 452              		.loc 3 509 0
 453 0018 2560     		str	r5, [r4, #0]
 454              	.LBE58:
 455              	.LBE60:
 456              		.loc 1 94 0
 457 001a 2163     		str	r1, [r4, #48]
 458              	.LBB61:
 459              	.LBB59:
 460              		.loc 3 510 0
 461 001c 6260     		str	r2, [r4, #4]
 462              		.loc 3 511 0
 463 001e C462     		str	r4, [r0, #44]
 464 0020 1460     		str	r4, [r2, #0]
ARM GAS  /tmp/ccOy41Td.s 			page 32


 465              	.LBE59:
 466              	.LBE61:
 467              		.loc 1 97 0
 468 0022 07D0     		beq	.L4
 469              	.LVL3:
 470              	.L2:
 471              		.loc 1 99 0
 472 0024 0C20     		movs	r0, #12
 473 0026 FFF7FEFF 		bl	chSchGoSleepS
 474              	.LVL4:
 475              		.loc 1 100 0
 476 002a 206A     		ldr	r0, [r4, #32]
 477              	.LVL5:
 478              	.LBB62:
 479              	.LBB63:
 480              	.LBB64:
 481              	.LBB65:
 482              	.LBB66:
 483              		.loc 2 546 0
 484 002c 0021     		movs	r1, #0
 485              	@ 546 "../../../os/ext/CMSIS/include/core_cmFunc.h" 1
 486 002e 81F31188 		MSR basepri, r1
 487              	@ 0 "" 2
 488              		.thumb
 489              	.LBE66:
 490              	.LBE65:
 491              	.LBE64:
 492              	.LBE63:
 493              	.LBE62:
 494              		.loc 1 103 0
 495 0032 70BD     		pop	{r4, r5, r6, pc}
 496              	.LVL6:
 497              	.L4:
 498              		.loc 1 98 0
 499 0034 FFF7FEFF 		bl	chSchReadyI
 500              	.LVL7:
 501 0038 F4E7     		b	.L2
 502              	.L6:
 503 003a 00BF     		.align	2
 504              	.L5:
 505 003c 00000000 		.word	ch
 506              		.cfi_endproc
 507              	.LFE165:
 508              		.size	chMsgSend, .-chMsgSend
 509              		.section	.text.chMsgWait,"ax",%progbits
 510              		.align	2
 511              		.p2align 4,,15
 512              		.global	chMsgWait
 513              		.thumb
 514              		.thumb_func
 515              		.type	chMsgWait, %function
 516              	chMsgWait:
 517              	.LFB166:
 518              		.loc 1 119 0
 519              		.cfi_startproc
 520              		@ args = 0, pretend = 0, frame = 0
 521              		@ frame_needed = 0, uses_anonymous_args = 0
ARM GAS  /tmp/ccOy41Td.s 			page 33


 522              	.LVL8:
 523 0000 10B5     		push	{r4, lr}
 524              	.LCFI1:
 525              		.cfi_def_cfa_offset 8
 526              		.cfi_offset 4, -8
 527              		.cfi_offset 14, -4
 528              	.LBB67:
 529              	.LBB68:
 530              	.LBB69:
 531              	.LBB70:
 532              		.loc 2 546 0
 533 0002 2023     		movs	r3, #32
 534              	@ 546 "../../../os/ext/CMSIS/include/core_cmFunc.h" 1
 535 0004 83F31188 		MSR basepri, r3
 536              	@ 0 "" 2
 537              		.thumb
 538              	.LBE70:
 539              	.LBE69:
 540              	.LBE68:
 541              	.LBE67:
 542              		.loc 1 123 0
 543 0008 0B4C     		ldr	r4, .L10
 544 000a A269     		ldr	r2, [r4, #24]
 545              	.LVL9:
 546              	.LBB71:
 547              	.LBB72:
 548              		.file 4 "../../../os/rt/include/chmsg.h"
 549              		.loc 4 81 0
 550 000c 1346     		mov	r3, r2
 551 000e 53F8280F 		ldr	r0, [r3, #40]!
 552              	.LBE72:
 553              	.LBE71:
 554              		.loc 1 123 0
 555 0012 9842     		cmp	r0, r3
 556 0014 08D0     		beq	.L9
 557              	.LVL10:
 558              	.L8:
 559              	.LBB73:
 560              	.LBB74:
 561              		.loc 3 517 0
 562 0016 0168     		ldr	r1, [r0, #0]
 563 0018 9162     		str	r1, [r2, #40]
 564              	.LBE74:
 565              	.LBE73:
 566              		.loc 1 126 0
 567 001a 0D22     		movs	r2, #13
 568              	.LVL11:
 569              	.LBB76:
 570              	.LBB75:
 571              		.loc 3 517 0
 572 001c 4B60     		str	r3, [r1, #4]
 573              	.LBE75:
 574              	.LBE76:
 575              		.loc 1 126 0
 576 001e 0277     		strb	r2, [r0, #28]
 577              	.LVL12:
 578              	.LBB77:
ARM GAS  /tmp/ccOy41Td.s 			page 34


 579              	.LBB78:
 580              	.LBB79:
 581              	.LBB80:
 582              	.LBB81:
 583              		.loc 2 546 0
 584 0020 0023     		movs	r3, #0
 585              	@ 546 "../../../os/ext/CMSIS/include/core_cmFunc.h" 1
 586 0022 83F31188 		MSR basepri, r3
 587              	@ 0 "" 2
 588              		.thumb
 589              	.LBE81:
 590              	.LBE80:
 591              	.LBE79:
 592              	.LBE78:
 593              	.LBE77:
 594              		.loc 1 129 0
 595 0026 10BD     		pop	{r4, pc}
 596              	.LVL13:
 597              	.L9:
 598              		.loc 1 124 0
 599 0028 0E20     		movs	r0, #14
 600 002a FFF7FEFF 		bl	chSchGoSleepS
 601              	.LVL14:
 602 002e A269     		ldr	r2, [r4, #24]
 603 0030 1346     		mov	r3, r2
 604 0032 53F8280F 		ldr	r0, [r3, #40]!
 605 0036 EEE7     		b	.L8
 606              	.L11:
 607              		.align	2
 608              	.L10:
 609 0038 00000000 		.word	ch
 610              		.cfi_endproc
 611              	.LFE166:
 612              		.size	chMsgWait, .-chMsgWait
 613 003c AFF30080 		.section	.text.chMsgRelease,"ax",%progbits
 614              		.align	2
 615              		.p2align 4,,15
 616              		.global	chMsgRelease
 617              		.thumb
 618              		.thumb_func
 619              		.type	chMsgRelease, %function
 620              	chMsgRelease:
 621              	.LFB167:
 622              		.loc 1 141 0
 623              		.cfi_startproc
 624              		@ args = 0, pretend = 0, frame = 0
 625              		@ frame_needed = 0, uses_anonymous_args = 0
 626              	.LVL15:
 627 0000 08B5     		push	{r3, lr}
 628              	.LCFI2:
 629              		.cfi_def_cfa_offset 8
 630              		.cfi_offset 3, -8
 631              		.cfi_offset 14, -4
 632              	.LBB82:
 633              	.LBB83:
 634              	.LBB84:
 635              	.LBB85:
ARM GAS  /tmp/ccOy41Td.s 			page 35


 636              		.loc 2 546 0
 637 0002 2023     		movs	r3, #32
 638              	@ 546 "../../../os/ext/CMSIS/include/core_cmFunc.h" 1
 639 0004 83F31188 		MSR basepri, r3
 640              	@ 0 "" 2
 641              		.thumb
 642              	.LBE85:
 643              	.LBE84:
 644              	.LBE83:
 645              	.LBE82:
 646              	.LBB86:
 647              	.LBB87:
 648              		.loc 4 113 0
 649 0008 FFF7FEFF 		bl	chSchWakeupS
 650              	.LVL16:
 651              	.LBE87:
 652              	.LBE86:
 653              	.LBB88:
 654              	.LBB89:
 655              	.LBB90:
 656              	.LBB91:
 657              	.LBB92:
 658              		.loc 2 546 0
 659 000c 0020     		movs	r0, #0
 660              	@ 546 "../../../os/ext/CMSIS/include/core_cmFunc.h" 1
 661 000e 80F31188 		MSR basepri, r0
 662              	@ 0 "" 2
 663              		.thumb
 664 0012 08BD     		pop	{r3, pc}
 665              	.LBE92:
 666              	.LBE91:
 667              	.LBE90:
 668              	.LBE89:
 669              	.LBE88:
 670              		.cfi_endproc
 671              	.LFE167:
 672              		.size	chMsgRelease, .-chMsgRelease
 673 0014 AFF30080 		.text
 673      AFF30080 
 673      AFF30080 
 674              	.Letext0:
 675              		.file 5 "/opt/ARM/gcc-arm-none-eabi-4_7-2013q3/bin/../lib/gcc/arm-none-eabi/4.7.4/../../../../arm-
 676              		.file 6 "../../../os/rt/ports/ARMCMx/compilers/GCC/chtypes.h"
 677              		.file 7 "../../../os/rt/ports/ARMCMx/chcore.h"
 678              		.file 8 "../../../os/rt/ports/ARMCMx/chcore_v7m.h"
 679              		.file 9 "../../../os/rt/include/chmtx.h"
 680              		.file 10 "../../../os/rt/include/chsys.h"
 681              		.file 11 "../../../os/ext/CMSIS/include/core_cm3.h"
 682              		.section	.debug_info,"",%progbits
 683              	.Ldebug_info0:
 684 0000 E8090000 		.4byte	0x9e8
 685 0004 0200     		.2byte	0x2
 686 0006 00000000 		.4byte	.Ldebug_abbrev0
 687 000a 04       		.byte	0x4
 688 000b 01       		.uleb128 0x1
 689 000c 09020000 		.4byte	.LASF94
 690 0010 01       		.byte	0x1
ARM GAS  /tmp/ccOy41Td.s 			page 36


 691 0011 8F030000 		.4byte	.LASF95
 692 0015 3D040000 		.4byte	.LASF96
 693 0019 50000000 		.4byte	.Ldebug_ranges0+0x50
 694 001d 00000000 		.4byte	0
 695 0021 00000000 		.4byte	0
 696 0025 00000000 		.4byte	.Ldebug_line0
 697 0029 02       		.uleb128 0x2
 698 002a 86020000 		.4byte	.LASF40
 699 002e 44       		.byte	0x44
 700 002f 03       		.byte	0x3
 701 0030 79       		.byte	0x79
 702 0031 32010000 		.4byte	0x132
 703 0035 03       		.uleb128 0x3
 704 0036 90000000 		.4byte	.LASF0
 705 003a 03       		.byte	0x3
 706 003b 7A       		.byte	0x7a
 707 003c E8020000 		.4byte	0x2e8
 708 0040 02       		.byte	0x2
 709 0041 23       		.byte	0x23
 710 0042 00       		.uleb128 0
 711 0043 03       		.uleb128 0x3
 712 0044 3F000000 		.4byte	.LASF1
 713 0048 03       		.byte	0x3
 714 0049 7C       		.byte	0x7c
 715 004a E8020000 		.4byte	0x2e8
 716 004e 02       		.byte	0x2
 717 004f 23       		.byte	0x23
 718 0050 04       		.uleb128 0x4
 719 0051 03       		.uleb128 0x3
 720 0052 77000000 		.4byte	.LASF2
 721 0056 03       		.byte	0x3
 722 0057 7E       		.byte	0x7e
 723 0058 D5010000 		.4byte	0x1d5
 724 005c 02       		.byte	0x2
 725 005d 23       		.byte	0x23
 726 005e 08       		.uleb128 0x8
 727 005f 03       		.uleb128 0x3
 728 0060 FF030000 		.4byte	.LASF3
 729 0064 03       		.byte	0x3
 730 0065 7F       		.byte	0x7f
 731 0066 15020000 		.4byte	0x215
 732 006a 02       		.byte	0x2
 733 006b 23       		.byte	0x23
 734 006c 0C       		.uleb128 0xc
 735 006d 03       		.uleb128 0x3
 736 006e D0010000 		.4byte	.LASF4
 737 0072 03       		.byte	0x3
 738 0073 81       		.byte	0x81
 739 0074 E8020000 		.4byte	0x2e8
 740 0078 02       		.byte	0x2
 741 0079 23       		.byte	0x23
 742 007a 10       		.uleb128 0x10
 743 007b 03       		.uleb128 0x3
 744 007c E3030000 		.4byte	.LASF5
 745 0080 03       		.byte	0x3
 746 0081 82       		.byte	0x82
 747 0082 E8020000 		.4byte	0x2e8
ARM GAS  /tmp/ccOy41Td.s 			page 37


 748 0086 02       		.byte	0x2
 749 0087 23       		.byte	0x23
 750 0088 14       		.uleb128 0x14
 751 0089 03       		.uleb128 0x3
 752 008a 45010000 		.4byte	.LASF6
 753 008e 03       		.byte	0x3
 754 008f 89       		.byte	0x89
 755 0090 B8030000 		.4byte	0x3b8
 756 0094 02       		.byte	0x2
 757 0095 23       		.byte	0x23
 758 0096 18       		.uleb128 0x18
 759 0097 03       		.uleb128 0x3
 760 0098 E7020000 		.4byte	.LASF7
 761 009c 03       		.byte	0x3
 762 009d 94       		.byte	0x94
 763 009e BF010000 		.4byte	0x1bf
 764 00a2 02       		.byte	0x2
 765 00a3 23       		.byte	0x23
 766 00a4 1C       		.uleb128 0x1c
 767 00a5 03       		.uleb128 0x3
 768 00a6 95020000 		.4byte	.LASF8
 769 00aa 03       		.byte	0x3
 770 00ab 98       		.byte	0x98
 771 00ac B4010000 		.4byte	0x1b4
 772 00b0 02       		.byte	0x2
 773 00b1 23       		.byte	0x23
 774 00b2 1D       		.uleb128 0x1d
 775 00b3 03       		.uleb128 0x3
 776 00b4 F8030000 		.4byte	.LASF9
 777 00b8 03       		.byte	0x3
 778 00b9 9D       		.byte	0x9d
 779 00ba CA010000 		.4byte	0x1ca
 780 00be 02       		.byte	0x2
 781 00bf 23       		.byte	0x23
 782 00c0 1E       		.uleb128 0x1e
 783 00c1 04       		.uleb128 0x4
 784 00c2 705F7500 		.ascii	"p_u\000"
 785 00c6 03       		.byte	0x3
 786 00c7 CF       		.byte	0xcf
 787 00c8 83030000 		.4byte	0x383
 788 00cc 02       		.byte	0x2
 789 00cd 23       		.byte	0x23
 790 00ce 20       		.uleb128 0x20
 791 00cf 03       		.uleb128 0x3
 792 00d0 14030000 		.4byte	.LASF10
 793 00d4 03       		.byte	0x3
 794 00d5 D4       		.byte	0xd4
 795 00d6 10030000 		.4byte	0x310
 796 00da 02       		.byte	0x2
 797 00db 23       		.byte	0x23
 798 00dc 24       		.uleb128 0x24
 799 00dd 03       		.uleb128 0x3
 800 00de 6C000000 		.4byte	.LASF11
 801 00e2 03       		.byte	0x3
 802 00e3 DA       		.byte	0xda
 803 00e4 EE020000 		.4byte	0x2ee
 804 00e8 02       		.byte	0x2
ARM GAS  /tmp/ccOy41Td.s 			page 38


 805 00e9 23       		.byte	0x23
 806 00ea 28       		.uleb128 0x28
 807 00eb 03       		.uleb128 0x3
 808 00ec 9F010000 		.4byte	.LASF12
 809 00f0 03       		.byte	0x3
 810 00f1 DE       		.byte	0xde
 811 00f2 E0010000 		.4byte	0x1e0
 812 00f6 02       		.byte	0x2
 813 00f7 23       		.byte	0x23
 814 00f8 30       		.uleb128 0x30
 815 00f9 03       		.uleb128 0x3
 816 00fa DC000000 		.4byte	.LASF13
 817 00fe 03       		.byte	0x3
 818 00ff E4       		.byte	0xe4
 819 0100 EB010000 		.4byte	0x1eb
 820 0104 02       		.byte	0x2
 821 0105 23       		.byte	0x23
 822 0106 34       		.uleb128 0x34
 823 0107 03       		.uleb128 0x3
 824 0108 2C030000 		.4byte	.LASF14
 825 010c 03       		.byte	0x3
 826 010d EB       		.byte	0xeb
 827 010e 01040000 		.4byte	0x401
 828 0112 02       		.byte	0x2
 829 0113 23       		.byte	0x23
 830 0114 38       		.uleb128 0x38
 831 0115 03       		.uleb128 0x3
 832 0116 A7020000 		.4byte	.LASF15
 833 011a 03       		.byte	0x3
 834 011b EF       		.byte	0xef
 835 011c D5010000 		.4byte	0x1d5
 836 0120 02       		.byte	0x2
 837 0121 23       		.byte	0x23
 838 0122 3C       		.uleb128 0x3c
 839 0123 03       		.uleb128 0x3
 840 0124 1A040000 		.4byte	.LASF16
 841 0128 03       		.byte	0x3
 842 0129 F5       		.byte	0xf5
 843 012a 13020000 		.4byte	0x213
 844 012e 02       		.byte	0x2
 845 012f 23       		.byte	0x23
 846 0130 40       		.uleb128 0x40
 847 0131 00       		.byte	0
 848 0132 05       		.uleb128 0x5
 849 0133 04       		.byte	0x4
 850 0134 05       		.byte	0x5
 851 0135 696E7400 		.ascii	"int\000"
 852 0139 06       		.uleb128 0x6
 853 013a 04       		.byte	0x4
 854 013b 07       		.byte	0x7
 855 013c FC010000 		.4byte	.LASF17
 856 0140 06       		.uleb128 0x6
 857 0141 01       		.byte	0x1
 858 0142 06       		.byte	0x6
 859 0143 C4010000 		.4byte	.LASF18
 860 0147 07       		.uleb128 0x7
 861 0148 CB000000 		.4byte	.LASF21
ARM GAS  /tmp/ccOy41Td.s 			page 39


 862 014c 05       		.byte	0x5
 863 014d 2A       		.byte	0x2a
 864 014e 52010000 		.4byte	0x152
 865 0152 06       		.uleb128 0x6
 866 0153 01       		.byte	0x1
 867 0154 08       		.byte	0x8
 868 0155 AF010000 		.4byte	.LASF19
 869 0159 06       		.uleb128 0x6
 870 015a 02       		.byte	0x2
 871 015b 05       		.byte	0x5
 872 015c 08000000 		.4byte	.LASF20
 873 0160 07       		.uleb128 0x7
 874 0161 C7020000 		.4byte	.LASF22
 875 0165 05       		.byte	0x5
 876 0166 36       		.byte	0x36
 877 0167 6B010000 		.4byte	0x16b
 878 016b 06       		.uleb128 0x6
 879 016c 02       		.byte	0x2
 880 016d 07       		.byte	0x7
 881 016e EF020000 		.4byte	.LASF23
 882 0172 07       		.uleb128 0x7
 883 0173 D8020000 		.4byte	.LASF24
 884 0177 05       		.byte	0x5
 885 0178 4F       		.byte	0x4f
 886 0179 7D010000 		.4byte	0x17d
 887 017d 06       		.uleb128 0x6
 888 017e 04       		.byte	0x4
 889 017f 05       		.byte	0x5
 890 0180 54010000 		.4byte	.LASF25
 891 0184 07       		.uleb128 0x7
 892 0185 D3000000 		.4byte	.LASF26
 893 0189 05       		.byte	0x5
 894 018a 50       		.byte	0x50
 895 018b 8F010000 		.4byte	0x18f
 896 018f 06       		.uleb128 0x6
 897 0190 04       		.byte	0x4
 898 0191 07       		.byte	0x7
 899 0192 43030000 		.4byte	.LASF27
 900 0196 06       		.uleb128 0x6
 901 0197 08       		.byte	0x8
 902 0198 05       		.byte	0x5
 903 0199 37010000 		.4byte	.LASF28
 904 019d 06       		.uleb128 0x6
 905 019e 08       		.byte	0x8
 906 019f 07       		.byte	0x7
 907 01a0 D8010000 		.4byte	.LASF29
 908 01a4 08       		.uleb128 0x8
 909 01a5 72010000 		.4byte	0x172
 910 01a9 07       		.uleb128 0x7
 911 01aa A5000000 		.4byte	.LASF30
 912 01ae 06       		.byte	0x6
 913 01af 46       		.byte	0x46
 914 01b0 84010000 		.4byte	0x184
 915 01b4 07       		.uleb128 0x7
 916 01b5 1F010000 		.4byte	.LASF31
 917 01b9 06       		.byte	0x6
 918 01ba 49       		.byte	0x49
ARM GAS  /tmp/ccOy41Td.s 			page 40


 919 01bb 47010000 		.4byte	0x147
 920 01bf 07       		.uleb128 0x7
 921 01c0 C8030000 		.4byte	.LASF32
 922 01c4 06       		.byte	0x6
 923 01c5 4A       		.byte	0x4a
 924 01c6 47010000 		.4byte	0x147
 925 01ca 07       		.uleb128 0x7
 926 01cb 00000000 		.4byte	.LASF33
 927 01cf 06       		.byte	0x6
 928 01d0 4B       		.byte	0x4b
 929 01d1 47010000 		.4byte	0x147
 930 01d5 07       		.uleb128 0x7
 931 01d6 4C010000 		.4byte	.LASF34
 932 01da 06       		.byte	0x6
 933 01db 4D       		.byte	0x4d
 934 01dc 84010000 		.4byte	0x184
 935 01e0 07       		.uleb128 0x7
 936 01e1 37040000 		.4byte	.LASF35
 937 01e5 06       		.byte	0x6
 938 01e6 4E       		.byte	0x4e
 939 01e7 72010000 		.4byte	0x172
 940 01eb 07       		.uleb128 0x7
 941 01ec 60000000 		.4byte	.LASF36
 942 01f0 06       		.byte	0x6
 943 01f1 50       		.byte	0x50
 944 01f2 84010000 		.4byte	0x184
 945 01f6 06       		.uleb128 0x6
 946 01f7 04       		.byte	0x4
 947 01f8 07       		.byte	0x7
 948 01f9 21000000 		.4byte	.LASF37
 949 01fd 07       		.uleb128 0x7
 950 01fe B2020000 		.4byte	.LASF38
 951 0202 07       		.byte	0x7
 952 0203 89       		.byte	0x89
 953 0204 60010000 		.4byte	0x160
 954 0208 07       		.uleb128 0x7
 955 0209 C2000000 		.4byte	.LASF39
 956 020d 07       		.byte	0x7
 957 020e 8F       		.byte	0x8f
 958 020f 13020000 		.4byte	0x213
 959 0213 09       		.uleb128 0x9
 960 0214 04       		.byte	0x4
 961 0215 02       		.uleb128 0x2
 962 0216 8D010000 		.4byte	.LASF41
 963 021a 04       		.byte	0x4
 964 021b 07       		.byte	0x7
 965 021c B3       		.byte	0xb3
 966 021d 30020000 		.4byte	0x230
 967 0221 04       		.uleb128 0x4
 968 0222 72313300 		.ascii	"r13\000"
 969 0226 07       		.byte	0x7
 970 0227 B4       		.byte	0xb4
 971 0228 BD020000 		.4byte	0x2bd
 972 022c 02       		.byte	0x2
 973 022d 23       		.byte	0x23
 974 022e 00       		.uleb128 0
 975 022f 00       		.byte	0
ARM GAS  /tmp/ccOy41Td.s 			page 41


 976 0230 02       		.uleb128 0x2
 977 0231 7B030000 		.4byte	.LASF42
 978 0235 24       		.byte	0x24
 979 0236 08       		.byte	0x8
 980 0237 F5       		.byte	0xf5
 981 0238 BD020000 		.4byte	0x2bd
 982 023c 0A       		.uleb128 0xa
 983 023d 723400   		.ascii	"r4\000"
 984 0240 08       		.byte	0x8
 985 0241 0801     		.2byte	0x108
 986 0243 08020000 		.4byte	0x208
 987 0247 02       		.byte	0x2
 988 0248 23       		.byte	0x23
 989 0249 00       		.uleb128 0
 990 024a 0A       		.uleb128 0xa
 991 024b 723500   		.ascii	"r5\000"
 992 024e 08       		.byte	0x8
 993 024f 0901     		.2byte	0x109
 994 0251 08020000 		.4byte	0x208
 995 0255 02       		.byte	0x2
 996 0256 23       		.byte	0x23
 997 0257 04       		.uleb128 0x4
 998 0258 0A       		.uleb128 0xa
 999 0259 723600   		.ascii	"r6\000"
 1000 025c 08       		.byte	0x8
 1001 025d 0A01     		.2byte	0x10a
 1002 025f 08020000 		.4byte	0x208
 1003 0263 02       		.byte	0x2
 1004 0264 23       		.byte	0x23
 1005 0265 08       		.uleb128 0x8
 1006 0266 0A       		.uleb128 0xa
 1007 0267 723700   		.ascii	"r7\000"
 1008 026a 08       		.byte	0x8
 1009 026b 0B01     		.2byte	0x10b
 1010 026d 08020000 		.4byte	0x208
 1011 0271 02       		.byte	0x2
 1012 0272 23       		.byte	0x23
 1013 0273 0C       		.uleb128 0xc
 1014 0274 0A       		.uleb128 0xa
 1015 0275 723800   		.ascii	"r8\000"
 1016 0278 08       		.byte	0x8
 1017 0279 0C01     		.2byte	0x10c
 1018 027b 08020000 		.4byte	0x208
 1019 027f 02       		.byte	0x2
 1020 0280 23       		.byte	0x23
 1021 0281 10       		.uleb128 0x10
 1022 0282 0A       		.uleb128 0xa
 1023 0283 723900   		.ascii	"r9\000"
 1024 0286 08       		.byte	0x8
 1025 0287 0D01     		.2byte	0x10d
 1026 0289 08020000 		.4byte	0x208
 1027 028d 02       		.byte	0x2
 1028 028e 23       		.byte	0x23
 1029 028f 14       		.uleb128 0x14
 1030 0290 0A       		.uleb128 0xa
 1031 0291 72313000 		.ascii	"r10\000"
 1032 0295 08       		.byte	0x8
ARM GAS  /tmp/ccOy41Td.s 			page 42


 1033 0296 0E01     		.2byte	0x10e
 1034 0298 08020000 		.4byte	0x208
 1035 029c 02       		.byte	0x2
 1036 029d 23       		.byte	0x23
 1037 029e 18       		.uleb128 0x18
 1038 029f 0A       		.uleb128 0xa
 1039 02a0 72313100 		.ascii	"r11\000"
 1040 02a4 08       		.byte	0x8
 1041 02a5 0F01     		.2byte	0x10f
 1042 02a7 08020000 		.4byte	0x208
 1043 02ab 02       		.byte	0x2
 1044 02ac 23       		.byte	0x23
 1045 02ad 1C       		.uleb128 0x1c
 1046 02ae 0A       		.uleb128 0xa
 1047 02af 6C7200   		.ascii	"lr\000"
 1048 02b2 08       		.byte	0x8
 1049 02b3 1001     		.2byte	0x110
 1050 02b5 08020000 		.4byte	0x208
 1051 02b9 02       		.byte	0x2
 1052 02ba 23       		.byte	0x23
 1053 02bb 20       		.uleb128 0x20
 1054 02bc 00       		.byte	0
 1055 02bd 0B       		.uleb128 0xb
 1056 02be 04       		.byte	0x4
 1057 02bf 30020000 		.4byte	0x230
 1058 02c3 0C       		.uleb128 0xc
 1059 02c4 08       		.byte	0x8
 1060 02c5 03       		.byte	0x3
 1061 02c6 53       		.byte	0x53
 1062 02c7 E8020000 		.4byte	0x2e8
 1063 02cb 03       		.uleb128 0x3
 1064 02cc 90000000 		.4byte	.LASF0
 1065 02d0 03       		.byte	0x3
 1066 02d1 54       		.byte	0x54
 1067 02d2 E8020000 		.4byte	0x2e8
 1068 02d6 02       		.byte	0x2
 1069 02d7 23       		.byte	0x23
 1070 02d8 00       		.uleb128 0
 1071 02d9 03       		.uleb128 0x3
 1072 02da 3F000000 		.4byte	.LASF1
 1073 02de 03       		.byte	0x3
 1074 02df 55       		.byte	0x55
 1075 02e0 E8020000 		.4byte	0x2e8
 1076 02e4 02       		.byte	0x2
 1077 02e5 23       		.byte	0x23
 1078 02e6 04       		.uleb128 0x4
 1079 02e7 00       		.byte	0
 1080 02e8 0B       		.uleb128 0xb
 1081 02e9 04       		.byte	0x4
 1082 02ea 29000000 		.4byte	0x29
 1083 02ee 07       		.uleb128 0x7
 1084 02ef 70020000 		.4byte	.LASF43
 1085 02f3 03       		.byte	0x3
 1086 02f4 56       		.byte	0x56
 1087 02f5 C3020000 		.4byte	0x2c3
 1088 02f9 0C       		.uleb128 0xc
 1089 02fa 04       		.byte	0x4
ARM GAS  /tmp/ccOy41Td.s 			page 43


 1090 02fb 03       		.byte	0x3
 1091 02fc 5B       		.byte	0x5b
 1092 02fd 10030000 		.4byte	0x310
 1093 0301 03       		.uleb128 0x3
 1094 0302 90000000 		.4byte	.LASF0
 1095 0306 03       		.byte	0x3
 1096 0307 5C       		.byte	0x5c
 1097 0308 E8020000 		.4byte	0x2e8
 1098 030c 02       		.byte	0x2
 1099 030d 23       		.byte	0x23
 1100 030e 00       		.uleb128 0
 1101 030f 00       		.byte	0
 1102 0310 07       		.uleb128 0x7
 1103 0311 9E040000 		.4byte	.LASF44
 1104 0315 03       		.byte	0x3
 1105 0316 5D       		.byte	0x5d
 1106 0317 F9020000 		.4byte	0x2f9
 1107 031b 0C       		.uleb128 0xc
 1108 031c 1C       		.byte	0x1c
 1109 031d 03       		.byte	0x3
 1110 031e 64       		.byte	0x64
 1111 031f 78030000 		.4byte	0x378
 1112 0323 03       		.uleb128 0x3
 1113 0324 12000000 		.4byte	.LASF45
 1114 0328 03       		.byte	0x3
 1115 0329 65       		.byte	0x65
 1116 032a EE020000 		.4byte	0x2ee
 1117 032e 02       		.byte	0x2
 1118 032f 23       		.byte	0x23
 1119 0330 00       		.uleb128 0
 1120 0331 03       		.uleb128 0x3
 1121 0332 E0020000 		.4byte	.LASF46
 1122 0336 03       		.byte	0x3
 1123 0337 66       		.byte	0x66
 1124 0338 D5010000 		.4byte	0x1d5
 1125 033c 02       		.byte	0x2
 1126 033d 23       		.byte	0x23
 1127 033e 08       		.uleb128 0x8
 1128 033f 03       		.uleb128 0x3
 1129 0340 46000000 		.4byte	.LASF47
 1130 0344 03       		.byte	0x3
 1131 0345 68       		.byte	0x68
 1132 0346 15020000 		.4byte	0x215
 1133 034a 02       		.byte	0x2
 1134 034b 23       		.byte	0x23
 1135 034c 0C       		.uleb128 0xc
 1136 034d 03       		.uleb128 0x3
 1137 034e 8D020000 		.4byte	.LASF48
 1138 0352 03       		.byte	0x3
 1139 0353 6B       		.byte	0x6b
 1140 0354 E8020000 		.4byte	0x2e8
 1141 0358 02       		.byte	0x2
 1142 0359 23       		.byte	0x23
 1143 035a 10       		.uleb128 0x10
 1144 035b 03       		.uleb128 0x3
 1145 035c 96040000 		.4byte	.LASF49
 1146 0360 03       		.byte	0x3
ARM GAS  /tmp/ccOy41Td.s 			page 44


 1147 0361 6C       		.byte	0x6c
 1148 0362 E8020000 		.4byte	0x2e8
 1149 0366 02       		.byte	0x2
 1150 0367 23       		.byte	0x23
 1151 0368 14       		.uleb128 0x14
 1152 0369 03       		.uleb128 0x3
 1153 036a 95010000 		.4byte	.LASF50
 1154 036e 03       		.byte	0x3
 1155 036f 6F       		.byte	0x6f
 1156 0370 E8020000 		.4byte	0x2e8
 1157 0374 02       		.byte	0x2
 1158 0375 23       		.byte	0x23
 1159 0376 18       		.uleb128 0x18
 1160 0377 00       		.byte	0
 1161 0378 07       		.uleb128 0x7
 1162 0379 EB030000 		.4byte	.LASF51
 1163 037d 03       		.byte	0x3
 1164 037e 71       		.byte	0x71
 1165 037f 1B030000 		.4byte	0x31b
 1166 0383 0D       		.uleb128 0xd
 1167 0384 04       		.byte	0x4
 1168 0385 03       		.byte	0x3
 1169 0386 B1       		.byte	0xb1
 1170 0387 B8030000 		.4byte	0x3b8
 1171 038b 0E       		.uleb128 0xe
 1172 038c 38000000 		.4byte	.LASF52
 1173 0390 03       		.byte	0x3
 1174 0391 B8       		.byte	0xb8
 1175 0392 E0010000 		.4byte	0x1e0
 1176 0396 0E       		.uleb128 0xe
 1177 0397 D1030000 		.4byte	.LASF53
 1178 039b 03       		.byte	0x3
 1179 039c BF       		.byte	0xbf
 1180 039d E0010000 		.4byte	0x1e0
 1181 03a1 0E       		.uleb128 0xe
 1182 03a2 B8030000 		.4byte	.LASF54
 1183 03a6 03       		.byte	0x3
 1184 03a7 C6       		.byte	0xc6
 1185 03a8 13020000 		.4byte	0x213
 1186 03ac 0E       		.uleb128 0xe
 1187 03ad BD010000 		.4byte	.LASF55
 1188 03b1 03       		.byte	0x3
 1189 03b2 CD       		.byte	0xcd
 1190 03b3 EB010000 		.4byte	0x1eb
 1191 03b7 00       		.byte	0
 1192 03b8 0B       		.uleb128 0xb
 1193 03b9 04       		.byte	0x4
 1194 03ba BE030000 		.4byte	0x3be
 1195 03be 0F       		.uleb128 0xf
 1196 03bf C3030000 		.4byte	0x3c3
 1197 03c3 06       		.uleb128 0x6
 1198 03c4 01       		.byte	0x1
 1199 03c5 08       		.byte	0x8
 1200 03c6 C2020000 		.4byte	.LASF56
 1201 03ca 02       		.uleb128 0x2
 1202 03cb 80020000 		.4byte	.LASF57
 1203 03cf 10       		.byte	0x10
ARM GAS  /tmp/ccOy41Td.s 			page 45


 1204 03d0 09       		.byte	0x9
 1205 03d1 3A       		.byte	0x3a
 1206 03d2 01040000 		.4byte	0x401
 1207 03d6 03       		.uleb128 0x3
 1208 03d7 85010000 		.4byte	.LASF58
 1209 03db 09       		.byte	0x9
 1210 03dc 3B       		.byte	0x3b
 1211 03dd EE020000 		.4byte	0x2ee
 1212 03e1 02       		.byte	0x2
 1213 03e2 23       		.byte	0x23
 1214 03e3 00       		.uleb128 0
 1215 03e4 03       		.uleb128 0x3
 1216 03e5 12040000 		.4byte	.LASF59
 1217 03e9 09       		.byte	0x9
 1218 03ea 3D       		.byte	0x3d
 1219 03eb E8020000 		.4byte	0x2e8
 1220 03ef 02       		.byte	0x2
 1221 03f0 23       		.byte	0x23
 1222 03f1 08       		.uleb128 0x8
 1223 03f2 03       		.uleb128 0x3
 1224 03f3 1A000000 		.4byte	.LASF60
 1225 03f7 09       		.byte	0x9
 1226 03f8 3F       		.byte	0x3f
 1227 03f9 34050000 		.4byte	0x534
 1228 03fd 02       		.byte	0x2
 1229 03fe 23       		.byte	0x23
 1230 03ff 0C       		.uleb128 0xc
 1231 0400 00       		.byte	0
 1232 0401 0B       		.uleb128 0xb
 1233 0402 04       		.byte	0x4
 1234 0403 CA030000 		.4byte	0x3ca
 1235 0407 10       		.uleb128 0x10
 1236 0408 DA030000 		.4byte	.LASF61
 1237 040c 03       		.byte	0x3
 1238 040d 0301     		.2byte	0x103
 1239 040f 13040000 		.4byte	0x413
 1240 0413 0B       		.uleb128 0xb
 1241 0414 04       		.byte	0x4
 1242 0415 19040000 		.4byte	0x419
 1243 0419 11       		.uleb128 0x11
 1244 041a 01       		.byte	0x1
 1245 041b 25040000 		.4byte	0x425
 1246 041f 12       		.uleb128 0x12
 1247 0420 13020000 		.4byte	0x213
 1248 0424 00       		.byte	0
 1249 0425 10       		.uleb128 0x10
 1250 0426 75010000 		.4byte	.LASF62
 1251 042a 03       		.byte	0x3
 1252 042b 0801     		.2byte	0x108
 1253 042d 31040000 		.4byte	0x431
 1254 0431 13       		.uleb128 0x13
 1255 0432 22040000 		.4byte	.LASF63
 1256 0436 14       		.byte	0x14
 1257 0437 03       		.byte	0x3
 1258 0438 0F01     		.2byte	0x10f
 1259 043a 8A040000 		.4byte	0x48a
 1260 043e 14       		.uleb128 0x14
ARM GAS  /tmp/ccOy41Td.s 			page 46


 1261 043f 52020000 		.4byte	.LASF64
 1262 0443 03       		.byte	0x3
 1263 0444 1001     		.2byte	0x110
 1264 0446 8A040000 		.4byte	0x48a
 1265 044a 02       		.byte	0x2
 1266 044b 23       		.byte	0x23
 1267 044c 00       		.uleb128 0
 1268 044d 14       		.uleb128 0x14
 1269 044e 87030000 		.4byte	.LASF65
 1270 0452 03       		.byte	0x3
 1271 0453 1101     		.2byte	0x111
 1272 0455 8A040000 		.4byte	0x48a
 1273 0459 02       		.byte	0x2
 1274 045a 23       		.byte	0x23
 1275 045b 04       		.uleb128 0x4
 1276 045c 14       		.uleb128 0x14
 1277 045d BF030000 		.4byte	.LASF66
 1278 0461 03       		.byte	0x3
 1279 0462 1201     		.2byte	0x112
 1280 0464 FD010000 		.4byte	0x1fd
 1281 0468 02       		.byte	0x2
 1282 0469 23       		.byte	0x23
 1283 046a 08       		.uleb128 0x8
 1284 046b 14       		.uleb128 0x14
 1285 046c BA000000 		.4byte	.LASF67
 1286 0470 03       		.byte	0x3
 1287 0471 1301     		.2byte	0x113
 1288 0473 07040000 		.4byte	0x407
 1289 0477 02       		.byte	0x2
 1290 0478 23       		.byte	0x23
 1291 0479 0C       		.uleb128 0xc
 1292 047a 14       		.uleb128 0x14
 1293 047b AD000000 		.4byte	.LASF68
 1294 047f 03       		.byte	0x3
 1295 0480 1501     		.2byte	0x115
 1296 0482 13020000 		.4byte	0x213
 1297 0486 02       		.byte	0x2
 1298 0487 23       		.byte	0x23
 1299 0488 10       		.uleb128 0x10
 1300 0489 00       		.byte	0
 1301 048a 0B       		.uleb128 0xb
 1302 048b 04       		.byte	0x4
 1303 048c 25040000 		.4byte	0x425
 1304 0490 15       		.uleb128 0x15
 1305 0491 0C       		.byte	0xc
 1306 0492 03       		.byte	0x3
 1307 0493 1F01     		.2byte	0x11f
 1308 0495 D6040000 		.4byte	0x4d6
 1309 0499 14       		.uleb128 0x14
 1310 049a 52020000 		.4byte	.LASF64
 1311 049e 03       		.byte	0x3
 1312 049f 2001     		.2byte	0x120
 1313 04a1 8A040000 		.4byte	0x48a
 1314 04a5 02       		.byte	0x2
 1315 04a6 23       		.byte	0x23
 1316 04a7 00       		.uleb128 0
 1317 04a8 14       		.uleb128 0x14
ARM GAS  /tmp/ccOy41Td.s 			page 47


 1318 04a9 87030000 		.4byte	.LASF65
 1319 04ad 03       		.byte	0x3
 1320 04ae 2201     		.2byte	0x122
 1321 04b0 8A040000 		.4byte	0x48a
 1322 04b4 02       		.byte	0x2
 1323 04b5 23       		.byte	0x23
 1324 04b6 04       		.uleb128 0x4
 1325 04b7 14       		.uleb128 0x14
 1326 04b8 BF030000 		.4byte	.LASF66
 1327 04bc 03       		.byte	0x3
 1328 04bd 2401     		.2byte	0x124
 1329 04bf FD010000 		.4byte	0x1fd
 1330 04c3 02       		.byte	0x2
 1331 04c4 23       		.byte	0x23
 1332 04c5 08       		.uleb128 0x8
 1333 04c6 14       		.uleb128 0x14
 1334 04c7 06010000 		.4byte	.LASF69
 1335 04cb 03       		.byte	0x3
 1336 04cc 2C01     		.2byte	0x12c
 1337 04ce FD010000 		.4byte	0x1fd
 1338 04d2 02       		.byte	0x2
 1339 04d3 23       		.byte	0x23
 1340 04d4 0A       		.uleb128 0xa
 1341 04d5 00       		.byte	0
 1342 04d6 10       		.uleb128 0x10
 1343 04d7 5A020000 		.4byte	.LASF70
 1344 04db 03       		.byte	0x3
 1345 04dc 2F01     		.2byte	0x12f
 1346 04de 90040000 		.4byte	0x490
 1347 04e2 13       		.uleb128 0x13
 1348 04e3 5D010000 		.4byte	.LASF71
 1349 04e7 2C       		.byte	0x2c
 1350 04e8 03       		.byte	0x3
 1351 04e9 3601     		.2byte	0x136
 1352 04eb 1D050000 		.4byte	0x51d
 1353 04ef 14       		.uleb128 0x14
 1354 04f0 BC020000 		.4byte	.LASF72
 1355 04f4 03       		.byte	0x3
 1356 04f5 3A01     		.2byte	0x13a
 1357 04f7 78030000 		.4byte	0x378
 1358 04fb 02       		.byte	0x2
 1359 04fc 23       		.byte	0x23
 1360 04fd 00       		.uleb128 0
 1361 04fe 14       		.uleb128 0x14
 1362 04ff 30040000 		.4byte	.LASF73
 1363 0503 03       		.byte	0x3
 1364 0504 3E01     		.2byte	0x13e
 1365 0506 D6040000 		.4byte	0x4d6
 1366 050a 02       		.byte	0x2
 1367 050b 23       		.byte	0x23
 1368 050c 1C       		.uleb128 0x1c
 1369 050d 14       		.uleb128 0x14
 1370 050e F3000000 		.4byte	.LASF74
 1371 0512 03       		.byte	0x3
 1372 0513 4301     		.2byte	0x143
 1373 0515 A9010000 		.4byte	0x1a9
 1374 0519 02       		.byte	0x2
ARM GAS  /tmp/ccOy41Td.s 			page 48


 1375 051a 23       		.byte	0x23
 1376 051b 28       		.uleb128 0x28
 1377 051c 00       		.byte	0
 1378 051d 10       		.uleb128 0x10
 1379 051e E7000000 		.4byte	.LASF75
 1380 0522 03       		.byte	0x3
 1381 0523 6501     		.2byte	0x165
 1382 0525 E2040000 		.4byte	0x4e2
 1383 0529 07       		.uleb128 0x7
 1384 052a D0020000 		.4byte	.LASF76
 1385 052e 09       		.byte	0x9
 1386 052f 35       		.byte	0x35
 1387 0530 CA030000 		.4byte	0x3ca
 1388 0534 0B       		.uleb128 0xb
 1389 0535 04       		.byte	0x4
 1390 0536 29050000 		.4byte	0x529
 1391 053a 16       		.uleb128 0x16
 1392 053b 55030000 		.4byte	.LASF80
 1393 053f 02       		.byte	0x2
 1394 0540 2002     		.2byte	0x220
 1395 0542 01       		.byte	0x1
 1396 0543 03       		.byte	0x3
 1397 0544 55050000 		.4byte	0x555
 1398 0548 17       		.uleb128 0x17
 1399 0549 B4000000 		.4byte	.LASF82
 1400 054d 02       		.byte	0x2
 1401 054e 2002     		.2byte	0x220
 1402 0550 84010000 		.4byte	0x184
 1403 0554 00       		.byte	0
 1404 0555 18       		.uleb128 0x18
 1405 0556 4C000000 		.4byte	.LASF77
 1406 055a 08       		.byte	0x8
 1407 055b BC01     		.2byte	0x1bc
 1408 055d 01       		.byte	0x1
 1409 055e 03       		.byte	0x3
 1410 055f 18       		.uleb128 0x18
 1411 0560 08030000 		.4byte	.LASF78
 1412 0564 08       		.byte	0x8
 1413 0565 CA01     		.2byte	0x1ca
 1414 0567 01       		.byte	0x1
 1415 0568 03       		.byte	0x3
 1416 0569 18       		.uleb128 0x18
 1417 056a 56000000 		.4byte	.LASF79
 1418 056e 0A       		.byte	0xa
 1419 056f 2A01     		.2byte	0x12a
 1420 0571 01       		.byte	0x1
 1421 0572 03       		.byte	0x3
 1422 0573 16       		.uleb128 0x16
 1423 0574 36030000 		.4byte	.LASF81
 1424 0578 03       		.byte	0x3
 1425 0579 FB01     		.2byte	0x1fb
 1426 057b 01       		.byte	0x1
 1427 057c 03       		.byte	0x3
 1428 057d 99050000 		.4byte	0x599
 1429 0581 19       		.uleb128 0x19
 1430 0582 747000   		.ascii	"tp\000"
 1431 0585 03       		.byte	0x3
ARM GAS  /tmp/ccOy41Td.s 			page 49


 1432 0586 FB01     		.2byte	0x1fb
 1433 0588 E8020000 		.4byte	0x2e8
 1434 058c 19       		.uleb128 0x19
 1435 058d 74717000 		.ascii	"tqp\000"
 1436 0591 03       		.byte	0x3
 1437 0592 FB01     		.2byte	0x1fb
 1438 0594 99050000 		.4byte	0x599
 1439 0598 00       		.byte	0
 1440 0599 0B       		.uleb128 0xb
 1441 059a 04       		.byte	0x4
 1442 059b EE020000 		.4byte	0x2ee
 1443 059f 16       		.uleb128 0x16
 1444 05a0 6F030000 		.4byte	.LASF83
 1445 05a4 0A       		.byte	0xa
 1446 05a5 3601     		.2byte	0x136
 1447 05a7 01       		.byte	0x1
 1448 05a8 03       		.byte	0x3
 1449 05a9 BC050000 		.4byte	0x5bc
 1450 05ad 1A       		.uleb128 0x1a
 1451 05ae 97000000 		.4byte	.LASF87
 1452 05b2 CC050000 		.4byte	0x5cc
 1453 05b6 01       		.byte	0x1
 1454 05b7 6F030000 		.4byte	.LASF83
 1455 05bb 00       		.byte	0
 1456 05bc 1B       		.uleb128 0x1b
 1457 05bd C3030000 		.4byte	0x3c3
 1458 05c1 CC050000 		.4byte	0x5cc
 1459 05c5 1C       		.uleb128 0x1c
 1460 05c6 F6010000 		.4byte	0x1f6
 1461 05ca 0B       		.byte	0xb
 1462 05cb 00       		.byte	0
 1463 05cc 0F       		.uleb128 0xf
 1464 05cd BC050000 		.4byte	0x5bc
 1465 05d1 1D       		.uleb128 0x1d
 1466 05d2 27010000 		.4byte	.LASF85
 1467 05d6 04       		.byte	0x4
 1468 05d7 4D       		.byte	0x4d
 1469 05d8 01       		.byte	0x1
 1470 05d9 ED050000 		.4byte	0x5ed
 1471 05dd 03       		.byte	0x3
 1472 05de ED050000 		.4byte	0x5ed
 1473 05e2 1E       		.uleb128 0x1e
 1474 05e3 747000   		.ascii	"tp\000"
 1475 05e6 04       		.byte	0x4
 1476 05e7 4D       		.byte	0x4d
 1477 05e8 E8020000 		.4byte	0x2e8
 1478 05ec 00       		.byte	0
 1479 05ed 06       		.uleb128 0x6
 1480 05ee 01       		.byte	0x1
 1481 05ef 02       		.byte	0x2
 1482 05f0 02030000 		.4byte	.LASF84
 1483 05f4 1F       		.uleb128 0x1f
 1484 05f5 7E000000 		.4byte	.LASF86
 1485 05f9 03       		.byte	0x3
 1486 05fa 0202     		.2byte	0x202
 1487 05fc 01       		.byte	0x1
 1488 05fd E8020000 		.4byte	0x2e8
ARM GAS  /tmp/ccOy41Td.s 			page 50


 1489 0601 03       		.byte	0x3
 1490 0602 1E060000 		.4byte	0x61e
 1491 0606 19       		.uleb128 0x19
 1492 0607 74717000 		.ascii	"tqp\000"
 1493 060b 03       		.byte	0x3
 1494 060c 0202     		.2byte	0x202
 1495 060e 99050000 		.4byte	0x599
 1496 0612 20       		.uleb128 0x20
 1497 0613 747000   		.ascii	"tp\000"
 1498 0616 03       		.byte	0x3
 1499 0617 0302     		.2byte	0x203
 1500 0619 E8020000 		.4byte	0x2e8
 1501 061d 00       		.byte	0
 1502 061e 21       		.uleb128 0x21
 1503 061f AA030000 		.4byte	.LASF88
 1504 0623 04       		.byte	0x4
 1505 0624 6D       		.byte	0x6d
 1506 0625 01       		.byte	0x1
 1507 0626 03       		.byte	0x3
 1508 0627 41060000 		.4byte	0x641
 1509 062b 1E       		.uleb128 0x1e
 1510 062c 747000   		.ascii	"tp\000"
 1511 062f 04       		.byte	0x4
 1512 0630 6D       		.byte	0x6d
 1513 0631 E8020000 		.4byte	0x2e8
 1514 0635 1E       		.uleb128 0x1e
 1515 0636 6D736700 		.ascii	"msg\000"
 1516 063a 04       		.byte	0x4
 1517 063b 6D       		.byte	0x6d
 1518 063c E0010000 		.4byte	0x1e0
 1519 0640 00       		.byte	0
 1520 0641 22       		.uleb128 0x22
 1521 0642 01       		.byte	0x1
 1522 0643 9D020000 		.4byte	.LASF89
 1523 0647 01       		.byte	0x1
 1524 0648 58       		.byte	0x58
 1525 0649 01       		.byte	0x1
 1526 064a E0010000 		.4byte	0x1e0
 1527 064e 00000000 		.4byte	.LFB165
 1528 0652 40000000 		.4byte	.LFE165
 1529 0656 00000000 		.4byte	.LLST0
 1530 065a 01       		.byte	0x1
 1531 065b 5C070000 		.4byte	0x75c
 1532 065f 23       		.uleb128 0x23
 1533 0660 747000   		.ascii	"tp\000"
 1534 0663 01       		.byte	0x1
 1535 0664 58       		.byte	0x58
 1536 0665 E8020000 		.4byte	0x2e8
 1537 0669 20000000 		.4byte	.LLST1
 1538 066d 23       		.uleb128 0x23
 1539 066e 6D736700 		.ascii	"msg\000"
 1540 0672 01       		.byte	0x1
 1541 0673 58       		.byte	0x58
 1542 0674 E0010000 		.4byte	0x1e0
 1543 0678 58000000 		.4byte	.LLST2
 1544 067c 24       		.uleb128 0x24
 1545 067d 63747000 		.ascii	"ctp\000"
ARM GAS  /tmp/ccOy41Td.s 			page 51


 1546 0681 01       		.byte	0x1
 1547 0682 59       		.byte	0x59
 1548 0683 E8020000 		.4byte	0x2e8
 1549 0687 01       		.byte	0x1
 1550 0688 54       		.byte	0x54
 1551 0689 25       		.uleb128 0x25
 1552 068a 1E030000 		.4byte	.LASF91
 1553 068e 6C070000 		.4byte	0x76c
 1554 0692 01       		.byte	0x1
 1555 0693 26       		.uleb128 0x26
 1556 0694 69050000 		.4byte	0x569
 1557 0698 06000000 		.4byte	.LBB52
 1558 069c 0C000000 		.4byte	.LBE52
 1559 06a0 01       		.byte	0x1
 1560 06a1 5D       		.byte	0x5d
 1561 06a2 CF060000 		.4byte	0x6cf
 1562 06a6 27       		.uleb128 0x27
 1563 06a7 55050000 		.4byte	0x555
 1564 06ab 06000000 		.4byte	.LBB53
 1565 06af 0C000000 		.4byte	.LBE53
 1566 06b3 0A       		.byte	0xa
 1567 06b4 2C01     		.2byte	0x12c
 1568 06b6 27       		.uleb128 0x27
 1569 06b7 3A050000 		.4byte	0x53a
 1570 06bb 06000000 		.4byte	.LBB54
 1571 06bf 0C000000 		.4byte	.LBE54
 1572 06c3 08       		.byte	0x8
 1573 06c4 BF01     		.2byte	0x1bf
 1574 06c6 28       		.uleb128 0x28
 1575 06c7 48050000 		.4byte	0x548
 1576 06cb 20       		.byte	0x20
 1577 06cc 00       		.byte	0
 1578 06cd 00       		.byte	0
 1579 06ce 00       		.byte	0
 1580 06cf 29       		.uleb128 0x29
 1581 06d0 73050000 		.4byte	0x573
 1582 06d4 14000000 		.4byte	.LBB56
 1583 06d8 00000000 		.4byte	.Ldebug_ranges0+0
 1584 06dc 01       		.byte	0x1
 1585 06dd 60       		.byte	0x60
 1586 06de F1060000 		.4byte	0x6f1
 1587 06e2 2A       		.uleb128 0x2a
 1588 06e3 8C050000 		.4byte	0x58c
 1589 06e7 01       		.byte	0x1
 1590 06e8 55       		.byte	0x55
 1591 06e9 2A       		.uleb128 0x2a
 1592 06ea 81050000 		.4byte	0x581
 1593 06ee 01       		.byte	0x1
 1594 06ef 54       		.byte	0x54
 1595 06f0 00       		.byte	0
 1596 06f1 26       		.uleb128 0x26
 1597 06f2 9F050000 		.4byte	0x59f
 1598 06f6 2C000000 		.4byte	.LBB62
 1599 06fa 32000000 		.4byte	.LBE62
 1600 06fe 01       		.byte	0x1
 1601 06ff 65       		.byte	0x65
 1602 0700 3F070000 		.4byte	0x73f
ARM GAS  /tmp/ccOy41Td.s 			page 52


 1603 0704 2B       		.uleb128 0x2b
 1604 0705 2C000000 		.4byte	.LBB63
 1605 0709 32000000 		.4byte	.LBE63
 1606 070d 2C       		.uleb128 0x2c
 1607 070e AD050000 		.4byte	0x5ad
 1608 0712 27       		.uleb128 0x27
 1609 0713 5F050000 		.4byte	0x55f
 1610 0717 2C000000 		.4byte	.LBB64
 1611 071b 32000000 		.4byte	.LBE64
 1612 071f 0A       		.byte	0xa
 1613 0720 4201     		.2byte	0x142
 1614 0722 27       		.uleb128 0x27
 1615 0723 3A050000 		.4byte	0x53a
 1616 0727 2C000000 		.4byte	.LBB65
 1617 072b 32000000 		.4byte	.LBE65
 1618 072f 08       		.byte	0x8
 1619 0730 CD01     		.2byte	0x1cd
 1620 0732 2D       		.uleb128 0x2d
 1621 0733 48050000 		.4byte	0x548
 1622 0737 9D000000 		.4byte	.LLST3
 1623 073b 00       		.byte	0
 1624 073c 00       		.byte	0
 1625 073d 00       		.byte	0
 1626 073e 00       		.byte	0
 1627 073f 2E       		.uleb128 0x2e
 1628 0740 2A000000 		.4byte	.LVL4
 1629 0744 A7090000 		.4byte	0x9a7
 1630 0748 52070000 		.4byte	0x752
 1631 074c 2F       		.uleb128 0x2f
 1632 074d 01       		.byte	0x1
 1633 074e 50       		.byte	0x50
 1634 074f 01       		.byte	0x1
 1635 0750 3C       		.byte	0x3c
 1636 0751 00       		.byte	0
 1637 0752 30       		.uleb128 0x30
 1638 0753 38000000 		.4byte	.LVL7
 1639 0757 BC090000 		.4byte	0x9bc
 1640 075b 00       		.byte	0
 1641 075c 1B       		.uleb128 0x1b
 1642 075d C3030000 		.4byte	0x3c3
 1643 0761 6C070000 		.4byte	0x76c
 1644 0765 1C       		.uleb128 0x1c
 1645 0766 F6010000 		.4byte	0x1f6
 1646 076a 09       		.byte	0x9
 1647 076b 00       		.byte	0
 1648 076c 0F       		.uleb128 0xf
 1649 076d 5C070000 		.4byte	0x75c
 1650 0771 22       		.uleb128 0x22
 1651 0772 01       		.byte	0x1
 1652 0773 A5010000 		.4byte	.LASF90
 1653 0777 01       		.byte	0x1
 1654 0778 77       		.byte	0x77
 1655 0779 01       		.byte	0x1
 1656 077a E8020000 		.4byte	0x2e8
 1657 077e 00000000 		.4byte	.LFB166
 1658 0782 3C000000 		.4byte	.LFE166
 1659 0786 B1000000 		.4byte	.LLST4
ARM GAS  /tmp/ccOy41Td.s 			page 53


 1660 078a 01       		.byte	0x1
 1661 078b 7C080000 		.4byte	0x87c
 1662 078f 31       		.uleb128 0x31
 1663 0790 747000   		.ascii	"tp\000"
 1664 0793 01       		.byte	0x1
 1665 0794 78       		.byte	0x78
 1666 0795 E8020000 		.4byte	0x2e8
 1667 0799 26       		.uleb128 0x26
 1668 079a 69050000 		.4byte	0x569
 1669 079e 02000000 		.4byte	.LBB67
 1670 07a2 08000000 		.4byte	.LBE67
 1671 07a6 01       		.byte	0x1
 1672 07a7 7A       		.byte	0x7a
 1673 07a8 D5070000 		.4byte	0x7d5
 1674 07ac 27       		.uleb128 0x27
 1675 07ad 55050000 		.4byte	0x555
 1676 07b1 02000000 		.4byte	.LBB68
 1677 07b5 08000000 		.4byte	.LBE68
 1678 07b9 0A       		.byte	0xa
 1679 07ba 2C01     		.2byte	0x12c
 1680 07bc 27       		.uleb128 0x27
 1681 07bd 3A050000 		.4byte	0x53a
 1682 07c1 02000000 		.4byte	.LBB69
 1683 07c5 08000000 		.4byte	.LBE69
 1684 07c9 08       		.byte	0x8
 1685 07ca BF01     		.2byte	0x1bf
 1686 07cc 28       		.uleb128 0x28
 1687 07cd 48050000 		.4byte	0x548
 1688 07d1 20       		.byte	0x20
 1689 07d2 00       		.byte	0
 1690 07d3 00       		.byte	0
 1691 07d4 00       		.byte	0
 1692 07d5 26       		.uleb128 0x26
 1693 07d6 D1050000 		.4byte	0x5d1
 1694 07da 0C000000 		.4byte	.LBB71
 1695 07de 12000000 		.4byte	.LBE71
 1696 07e2 01       		.byte	0x1
 1697 07e3 7B       		.byte	0x7b
 1698 07e4 F2070000 		.4byte	0x7f2
 1699 07e8 2D       		.uleb128 0x2d
 1700 07e9 E2050000 		.4byte	0x5e2
 1701 07ed D1000000 		.4byte	.LLST5
 1702 07f1 00       		.byte	0
 1703 07f2 29       		.uleb128 0x29
 1704 07f3 F4050000 		.4byte	0x5f4
 1705 07f7 16000000 		.4byte	.LBB73
 1706 07fb 20000000 		.4byte	.Ldebug_ranges0+0x20
 1707 07ff 01       		.byte	0x1
 1708 0800 7D       		.byte	0x7d
 1709 0801 1E080000 		.4byte	0x81e
 1710 0805 2D       		.uleb128 0x2d
 1711 0806 06060000 		.4byte	0x606
 1712 080a EF000000 		.4byte	.LLST6
 1713 080e 32       		.uleb128 0x32
 1714 080f 38000000 		.4byte	.Ldebug_ranges0+0x38
 1715 0813 33       		.uleb128 0x33
 1716 0814 12060000 		.4byte	0x612
ARM GAS  /tmp/ccOy41Td.s 			page 54


 1717 0818 04010000 		.4byte	.LLST7
 1718 081c 00       		.byte	0
 1719 081d 00       		.byte	0
 1720 081e 26       		.uleb128 0x26
 1721 081f 9F050000 		.4byte	0x59f
 1722 0823 20000000 		.4byte	.LBB77
 1723 0827 26000000 		.4byte	.LBE77
 1724 082b 01       		.byte	0x1
 1725 082c 7F       		.byte	0x7f
 1726 082d 6C080000 		.4byte	0x86c
 1727 0831 2B       		.uleb128 0x2b
 1728 0832 20000000 		.4byte	.LBB78
 1729 0836 26000000 		.4byte	.LBE78
 1730 083a 2C       		.uleb128 0x2c
 1731 083b AD050000 		.4byte	0x5ad
 1732 083f 27       		.uleb128 0x27
 1733 0840 5F050000 		.4byte	0x55f
 1734 0844 20000000 		.4byte	.LBB79
 1735 0848 26000000 		.4byte	.LBE79
 1736 084c 0A       		.byte	0xa
 1737 084d 4201     		.2byte	0x142
 1738 084f 27       		.uleb128 0x27
 1739 0850 3A050000 		.4byte	0x53a
 1740 0854 20000000 		.4byte	.LBB80
 1741 0858 26000000 		.4byte	.LBE80
 1742 085c 08       		.byte	0x8
 1743 085d CD01     		.2byte	0x1cd
 1744 085f 2D       		.uleb128 0x2d
 1745 0860 48050000 		.4byte	0x548
 1746 0864 17010000 		.4byte	.LLST8
 1747 0868 00       		.byte	0
 1748 0869 00       		.byte	0
 1749 086a 00       		.byte	0
 1750 086b 00       		.byte	0
 1751 086c 34       		.uleb128 0x34
 1752 086d 2E000000 		.4byte	.LVL14
 1753 0871 A7090000 		.4byte	0x9a7
 1754 0875 2F       		.uleb128 0x2f
 1755 0876 01       		.byte	0x1
 1756 0877 50       		.byte	0x50
 1757 0878 01       		.byte	0x1
 1758 0879 3E       		.byte	0x3e
 1759 087a 00       		.byte	0
 1760 087b 00       		.byte	0
 1761 087c 35       		.uleb128 0x35
 1762 087d 01       		.byte	0x1
 1763 087e 12010000 		.4byte	.LASF97
 1764 0882 01       		.byte	0x1
 1765 0883 8D       		.byte	0x8d
 1766 0884 01       		.byte	0x1
 1767 0885 00000000 		.4byte	.LFB167
 1768 0889 14000000 		.4byte	.LFE167
 1769 088d 2B010000 		.4byte	.LLST9
 1770 0891 01       		.byte	0x1
 1771 0892 77090000 		.4byte	0x977
 1772 0896 23       		.uleb128 0x23
 1773 0897 747000   		.ascii	"tp\000"
ARM GAS  /tmp/ccOy41Td.s 			page 55


 1774 089a 01       		.byte	0x1
 1775 089b 8D       		.byte	0x8d
 1776 089c E8020000 		.4byte	0x2e8
 1777 08a0 4B010000 		.4byte	.LLST10
 1778 08a4 23       		.uleb128 0x23
 1779 08a5 6D736700 		.ascii	"msg\000"
 1780 08a9 01       		.byte	0x1
 1781 08aa 8D       		.byte	0x8d
 1782 08ab E0010000 		.4byte	0x1e0
 1783 08af 6C010000 		.4byte	.LLST11
 1784 08b3 25       		.uleb128 0x25
 1785 08b4 67010000 		.4byte	.LASF92
 1786 08b8 87090000 		.4byte	0x987
 1787 08bc 01       		.byte	0x1
 1788 08bd 26       		.uleb128 0x26
 1789 08be 69050000 		.4byte	0x569
 1790 08c2 02000000 		.4byte	.LBB82
 1791 08c6 08000000 		.4byte	.LBE82
 1792 08ca 01       		.byte	0x1
 1793 08cb 8F       		.byte	0x8f
 1794 08cc F9080000 		.4byte	0x8f9
 1795 08d0 27       		.uleb128 0x27
 1796 08d1 55050000 		.4byte	0x555
 1797 08d5 02000000 		.4byte	.LBB83
 1798 08d9 08000000 		.4byte	.LBE83
 1799 08dd 0A       		.byte	0xa
 1800 08de 2C01     		.2byte	0x12c
 1801 08e0 27       		.uleb128 0x27
 1802 08e1 3A050000 		.4byte	0x53a
 1803 08e5 02000000 		.4byte	.LBB84
 1804 08e9 08000000 		.4byte	.LBE84
 1805 08ed 08       		.byte	0x8
 1806 08ee BF01     		.2byte	0x1bf
 1807 08f0 28       		.uleb128 0x28
 1808 08f1 48050000 		.4byte	0x548
 1809 08f5 20       		.byte	0x20
 1810 08f6 00       		.byte	0
 1811 08f7 00       		.byte	0
 1812 08f8 00       		.byte	0
 1813 08f9 26       		.uleb128 0x26
 1814 08fa 1E060000 		.4byte	0x61e
 1815 08fe 08000000 		.4byte	.LBB86
 1816 0902 0C000000 		.4byte	.LBE86
 1817 0906 01       		.byte	0x1
 1818 0907 91       		.byte	0x91
 1819 0908 2F090000 		.4byte	0x92f
 1820 090c 36       		.uleb128 0x36
 1821 090d 35060000 		.4byte	0x635
 1822 0911 36       		.uleb128 0x36
 1823 0912 2B060000 		.4byte	0x62b
 1824 0916 34       		.uleb128 0x34
 1825 0917 0C000000 		.4byte	.LVL16
 1826 091b D5090000 		.4byte	0x9d5
 1827 091f 2F       		.uleb128 0x2f
 1828 0920 01       		.byte	0x1
 1829 0921 51       		.byte	0x51
 1830 0922 03       		.byte	0x3
ARM GAS  /tmp/ccOy41Td.s 			page 56


 1831 0923 F3       		.byte	0xf3
 1832 0924 01       		.uleb128 0x1
 1833 0925 51       		.byte	0x51
 1834 0926 2F       		.uleb128 0x2f
 1835 0927 01       		.byte	0x1
 1836 0928 50       		.byte	0x50
 1837 0929 03       		.byte	0x3
 1838 092a F3       		.byte	0xf3
 1839 092b 01       		.uleb128 0x1
 1840 092c 50       		.byte	0x50
 1841 092d 00       		.byte	0
 1842 092e 00       		.byte	0
 1843 092f 37       		.uleb128 0x37
 1844 0930 9F050000 		.4byte	0x59f
 1845 0934 0C000000 		.4byte	.LBB88
 1846 0938 14000000 		.4byte	.LBE88
 1847 093c 01       		.byte	0x1
 1848 093d 92       		.byte	0x92
 1849 093e 2B       		.uleb128 0x2b
 1850 093f 0C000000 		.4byte	.LBB89
 1851 0943 14000000 		.4byte	.LBE89
 1852 0947 2C       		.uleb128 0x2c
 1853 0948 AD050000 		.4byte	0x5ad
 1854 094c 27       		.uleb128 0x27
 1855 094d 5F050000 		.4byte	0x55f
 1856 0951 0C000000 		.4byte	.LBB90
 1857 0955 14000000 		.4byte	.LBE90
 1858 0959 0A       		.byte	0xa
 1859 095a 4201     		.2byte	0x142
 1860 095c 27       		.uleb128 0x27
 1861 095d 3A050000 		.4byte	0x53a
 1862 0961 0C000000 		.4byte	.LBB91
 1863 0965 14000000 		.4byte	.LBE91
 1864 0969 08       		.byte	0x8
 1865 096a CD01     		.2byte	0x1cd
 1866 096c 28       		.uleb128 0x28
 1867 096d 48050000 		.4byte	0x548
 1868 0971 00       		.byte	0
 1869 0972 00       		.byte	0
 1870 0973 00       		.byte	0
 1871 0974 00       		.byte	0
 1872 0975 00       		.byte	0
 1873 0976 00       		.byte	0
 1874 0977 1B       		.uleb128 0x1b
 1875 0978 C3030000 		.4byte	0x3c3
 1876 097c 87090000 		.4byte	0x987
 1877 0980 1C       		.uleb128 0x1c
 1878 0981 F6010000 		.4byte	0x1f6
 1879 0985 0C       		.byte	0xc
 1880 0986 00       		.byte	0
 1881 0987 0F       		.uleb128 0xf
 1882 0988 77090000 		.4byte	0x977
 1883 098c 38       		.uleb128 0x38
 1884 098d 05040000 		.4byte	.LASF93
 1885 0991 0B       		.byte	0xb
 1886 0992 1606     		.2byte	0x616
 1887 0994 A4010000 		.4byte	0x1a4
ARM GAS  /tmp/ccOy41Td.s 			page 57


 1888 0998 01       		.byte	0x1
 1889 0999 01       		.byte	0x1
 1890 099a 39       		.uleb128 0x39
 1891 099b 636800   		.ascii	"ch\000"
 1892 099e 03       		.byte	0x3
 1893 099f 8901     		.2byte	0x189
 1894 09a1 1D050000 		.4byte	0x51d
 1895 09a5 01       		.byte	0x1
 1896 09a6 01       		.byte	0x1
 1897 09a7 3A       		.uleb128 0x3a
 1898 09a8 01       		.byte	0x1
 1899 09a9 2A000000 		.4byte	.LASF98
 1900 09ad 03       		.byte	0x3
 1901 09ae 9401     		.2byte	0x194
 1902 09b0 01       		.byte	0x1
 1903 09b1 01       		.byte	0x1
 1904 09b2 BC090000 		.4byte	0x9bc
 1905 09b6 12       		.uleb128 0x12
 1906 09b7 BF010000 		.4byte	0x1bf
 1907 09bb 00       		.byte	0
 1908 09bc 3B       		.uleb128 0x3b
 1909 09bd 01       		.byte	0x1
 1910 09be 63030000 		.4byte	.LASF99
 1911 09c2 03       		.byte	0x3
 1912 09c3 9301     		.2byte	0x193
 1913 09c5 01       		.byte	0x1
 1914 09c6 E8020000 		.4byte	0x2e8
 1915 09ca 01       		.byte	0x1
 1916 09cb D5090000 		.4byte	0x9d5
 1917 09cf 12       		.uleb128 0x12
 1918 09d0 E8020000 		.4byte	0x2e8
 1919 09d4 00       		.byte	0
 1920 09d5 3C       		.uleb128 0x3c
 1921 09d6 01       		.byte	0x1
 1922 09d7 EF010000 		.4byte	.LASF100
 1923 09db 03       		.byte	0x3
 1924 09dc 9601     		.2byte	0x196
 1925 09de 01       		.byte	0x1
 1926 09df 01       		.byte	0x1
 1927 09e0 12       		.uleb128 0x12
 1928 09e1 E8020000 		.4byte	0x2e8
 1929 09e5 12       		.uleb128 0x12
 1930 09e6 E0010000 		.4byte	0x1e0
 1931 09ea 00       		.byte	0
 1932 09eb 00       		.byte	0
 1933              		.section	.debug_abbrev,"",%progbits
 1934              	.Ldebug_abbrev0:
 1935 0000 01       		.uleb128 0x1
 1936 0001 11       		.uleb128 0x11
 1937 0002 01       		.byte	0x1
 1938 0003 25       		.uleb128 0x25
 1939 0004 0E       		.uleb128 0xe
 1940 0005 13       		.uleb128 0x13
 1941 0006 0B       		.uleb128 0xb
 1942 0007 03       		.uleb128 0x3
 1943 0008 0E       		.uleb128 0xe
 1944 0009 1B       		.uleb128 0x1b
ARM GAS  /tmp/ccOy41Td.s 			page 58


 1945 000a 0E       		.uleb128 0xe
 1946 000b 55       		.uleb128 0x55
 1947 000c 06       		.uleb128 0x6
 1948 000d 11       		.uleb128 0x11
 1949 000e 01       		.uleb128 0x1
 1950 000f 52       		.uleb128 0x52
 1951 0010 01       		.uleb128 0x1
 1952 0011 10       		.uleb128 0x10
 1953 0012 06       		.uleb128 0x6
 1954 0013 00       		.byte	0
 1955 0014 00       		.byte	0
 1956 0015 02       		.uleb128 0x2
 1957 0016 13       		.uleb128 0x13
 1958 0017 01       		.byte	0x1
 1959 0018 03       		.uleb128 0x3
 1960 0019 0E       		.uleb128 0xe
 1961 001a 0B       		.uleb128 0xb
 1962 001b 0B       		.uleb128 0xb
 1963 001c 3A       		.uleb128 0x3a
 1964 001d 0B       		.uleb128 0xb
 1965 001e 3B       		.uleb128 0x3b
 1966 001f 0B       		.uleb128 0xb
 1967 0020 01       		.uleb128 0x1
 1968 0021 13       		.uleb128 0x13
 1969 0022 00       		.byte	0
 1970 0023 00       		.byte	0
 1971 0024 03       		.uleb128 0x3
 1972 0025 0D       		.uleb128 0xd
 1973 0026 00       		.byte	0
 1974 0027 03       		.uleb128 0x3
 1975 0028 0E       		.uleb128 0xe
 1976 0029 3A       		.uleb128 0x3a
 1977 002a 0B       		.uleb128 0xb
 1978 002b 3B       		.uleb128 0x3b
 1979 002c 0B       		.uleb128 0xb
 1980 002d 49       		.uleb128 0x49
 1981 002e 13       		.uleb128 0x13
 1982 002f 38       		.uleb128 0x38
 1983 0030 0A       		.uleb128 0xa
 1984 0031 00       		.byte	0
 1985 0032 00       		.byte	0
 1986 0033 04       		.uleb128 0x4
 1987 0034 0D       		.uleb128 0xd
 1988 0035 00       		.byte	0
 1989 0036 03       		.uleb128 0x3
 1990 0037 08       		.uleb128 0x8
 1991 0038 3A       		.uleb128 0x3a
 1992 0039 0B       		.uleb128 0xb
 1993 003a 3B       		.uleb128 0x3b
 1994 003b 0B       		.uleb128 0xb
 1995 003c 49       		.uleb128 0x49
 1996 003d 13       		.uleb128 0x13
 1997 003e 38       		.uleb128 0x38
 1998 003f 0A       		.uleb128 0xa
 1999 0040 00       		.byte	0
 2000 0041 00       		.byte	0
 2001 0042 05       		.uleb128 0x5
ARM GAS  /tmp/ccOy41Td.s 			page 59


 2002 0043 24       		.uleb128 0x24
 2003 0044 00       		.byte	0
 2004 0045 0B       		.uleb128 0xb
 2005 0046 0B       		.uleb128 0xb
 2006 0047 3E       		.uleb128 0x3e
 2007 0048 0B       		.uleb128 0xb
 2008 0049 03       		.uleb128 0x3
 2009 004a 08       		.uleb128 0x8
 2010 004b 00       		.byte	0
 2011 004c 00       		.byte	0
 2012 004d 06       		.uleb128 0x6
 2013 004e 24       		.uleb128 0x24
 2014 004f 00       		.byte	0
 2015 0050 0B       		.uleb128 0xb
 2016 0051 0B       		.uleb128 0xb
 2017 0052 3E       		.uleb128 0x3e
 2018 0053 0B       		.uleb128 0xb
 2019 0054 03       		.uleb128 0x3
 2020 0055 0E       		.uleb128 0xe
 2021 0056 00       		.byte	0
 2022 0057 00       		.byte	0
 2023 0058 07       		.uleb128 0x7
 2024 0059 16       		.uleb128 0x16
 2025 005a 00       		.byte	0
 2026 005b 03       		.uleb128 0x3
 2027 005c 0E       		.uleb128 0xe
 2028 005d 3A       		.uleb128 0x3a
 2029 005e 0B       		.uleb128 0xb
 2030 005f 3B       		.uleb128 0x3b
 2031 0060 0B       		.uleb128 0xb
 2032 0061 49       		.uleb128 0x49
 2033 0062 13       		.uleb128 0x13
 2034 0063 00       		.byte	0
 2035 0064 00       		.byte	0
 2036 0065 08       		.uleb128 0x8
 2037 0066 35       		.uleb128 0x35
 2038 0067 00       		.byte	0
 2039 0068 49       		.uleb128 0x49
 2040 0069 13       		.uleb128 0x13
 2041 006a 00       		.byte	0
 2042 006b 00       		.byte	0
 2043 006c 09       		.uleb128 0x9
 2044 006d 0F       		.uleb128 0xf
 2045 006e 00       		.byte	0
 2046 006f 0B       		.uleb128 0xb
 2047 0070 0B       		.uleb128 0xb
 2048 0071 00       		.byte	0
 2049 0072 00       		.byte	0
 2050 0073 0A       		.uleb128 0xa
 2051 0074 0D       		.uleb128 0xd
 2052 0075 00       		.byte	0
 2053 0076 03       		.uleb128 0x3
 2054 0077 08       		.uleb128 0x8
 2055 0078 3A       		.uleb128 0x3a
 2056 0079 0B       		.uleb128 0xb
 2057 007a 3B       		.uleb128 0x3b
 2058 007b 05       		.uleb128 0x5
ARM GAS  /tmp/ccOy41Td.s 			page 60


 2059 007c 49       		.uleb128 0x49
 2060 007d 13       		.uleb128 0x13
 2061 007e 38       		.uleb128 0x38
 2062 007f 0A       		.uleb128 0xa
 2063 0080 00       		.byte	0
 2064 0081 00       		.byte	0
 2065 0082 0B       		.uleb128 0xb
 2066 0083 0F       		.uleb128 0xf
 2067 0084 00       		.byte	0
 2068 0085 0B       		.uleb128 0xb
 2069 0086 0B       		.uleb128 0xb
 2070 0087 49       		.uleb128 0x49
 2071 0088 13       		.uleb128 0x13
 2072 0089 00       		.byte	0
 2073 008a 00       		.byte	0
 2074 008b 0C       		.uleb128 0xc
 2075 008c 13       		.uleb128 0x13
 2076 008d 01       		.byte	0x1
 2077 008e 0B       		.uleb128 0xb
 2078 008f 0B       		.uleb128 0xb
 2079 0090 3A       		.uleb128 0x3a
 2080 0091 0B       		.uleb128 0xb
 2081 0092 3B       		.uleb128 0x3b
 2082 0093 0B       		.uleb128 0xb
 2083 0094 01       		.uleb128 0x1
 2084 0095 13       		.uleb128 0x13
 2085 0096 00       		.byte	0
 2086 0097 00       		.byte	0
 2087 0098 0D       		.uleb128 0xd
 2088 0099 17       		.uleb128 0x17
 2089 009a 01       		.byte	0x1
 2090 009b 0B       		.uleb128 0xb
 2091 009c 0B       		.uleb128 0xb
 2092 009d 3A       		.uleb128 0x3a
 2093 009e 0B       		.uleb128 0xb
 2094 009f 3B       		.uleb128 0x3b
 2095 00a0 0B       		.uleb128 0xb
 2096 00a1 01       		.uleb128 0x1
 2097 00a2 13       		.uleb128 0x13
 2098 00a3 00       		.byte	0
 2099 00a4 00       		.byte	0
 2100 00a5 0E       		.uleb128 0xe
 2101 00a6 0D       		.uleb128 0xd
 2102 00a7 00       		.byte	0
 2103 00a8 03       		.uleb128 0x3
 2104 00a9 0E       		.uleb128 0xe
 2105 00aa 3A       		.uleb128 0x3a
 2106 00ab 0B       		.uleb128 0xb
 2107 00ac 3B       		.uleb128 0x3b
 2108 00ad 0B       		.uleb128 0xb
 2109 00ae 49       		.uleb128 0x49
 2110 00af 13       		.uleb128 0x13
 2111 00b0 00       		.byte	0
 2112 00b1 00       		.byte	0
 2113 00b2 0F       		.uleb128 0xf
 2114 00b3 26       		.uleb128 0x26
 2115 00b4 00       		.byte	0
ARM GAS  /tmp/ccOy41Td.s 			page 61


 2116 00b5 49       		.uleb128 0x49
 2117 00b6 13       		.uleb128 0x13
 2118 00b7 00       		.byte	0
 2119 00b8 00       		.byte	0
 2120 00b9 10       		.uleb128 0x10
 2121 00ba 16       		.uleb128 0x16
 2122 00bb 00       		.byte	0
 2123 00bc 03       		.uleb128 0x3
 2124 00bd 0E       		.uleb128 0xe
 2125 00be 3A       		.uleb128 0x3a
 2126 00bf 0B       		.uleb128 0xb
 2127 00c0 3B       		.uleb128 0x3b
 2128 00c1 05       		.uleb128 0x5
 2129 00c2 49       		.uleb128 0x49
 2130 00c3 13       		.uleb128 0x13
 2131 00c4 00       		.byte	0
 2132 00c5 00       		.byte	0
 2133 00c6 11       		.uleb128 0x11
 2134 00c7 15       		.uleb128 0x15
 2135 00c8 01       		.byte	0x1
 2136 00c9 27       		.uleb128 0x27
 2137 00ca 0C       		.uleb128 0xc
 2138 00cb 01       		.uleb128 0x1
 2139 00cc 13       		.uleb128 0x13
 2140 00cd 00       		.byte	0
 2141 00ce 00       		.byte	0
 2142 00cf 12       		.uleb128 0x12
 2143 00d0 05       		.uleb128 0x5
 2144 00d1 00       		.byte	0
 2145 00d2 49       		.uleb128 0x49
 2146 00d3 13       		.uleb128 0x13
 2147 00d4 00       		.byte	0
 2148 00d5 00       		.byte	0
 2149 00d6 13       		.uleb128 0x13
 2150 00d7 13       		.uleb128 0x13
 2151 00d8 01       		.byte	0x1
 2152 00d9 03       		.uleb128 0x3
 2153 00da 0E       		.uleb128 0xe
 2154 00db 0B       		.uleb128 0xb
 2155 00dc 0B       		.uleb128 0xb
 2156 00dd 3A       		.uleb128 0x3a
 2157 00de 0B       		.uleb128 0xb
 2158 00df 3B       		.uleb128 0x3b
 2159 00e0 05       		.uleb128 0x5
 2160 00e1 01       		.uleb128 0x1
 2161 00e2 13       		.uleb128 0x13
 2162 00e3 00       		.byte	0
 2163 00e4 00       		.byte	0
 2164 00e5 14       		.uleb128 0x14
 2165 00e6 0D       		.uleb128 0xd
 2166 00e7 00       		.byte	0
 2167 00e8 03       		.uleb128 0x3
 2168 00e9 0E       		.uleb128 0xe
 2169 00ea 3A       		.uleb128 0x3a
 2170 00eb 0B       		.uleb128 0xb
 2171 00ec 3B       		.uleb128 0x3b
 2172 00ed 05       		.uleb128 0x5
ARM GAS  /tmp/ccOy41Td.s 			page 62


 2173 00ee 49       		.uleb128 0x49
 2174 00ef 13       		.uleb128 0x13
 2175 00f0 38       		.uleb128 0x38
 2176 00f1 0A       		.uleb128 0xa
 2177 00f2 00       		.byte	0
 2178 00f3 00       		.byte	0
 2179 00f4 15       		.uleb128 0x15
 2180 00f5 13       		.uleb128 0x13
 2181 00f6 01       		.byte	0x1
 2182 00f7 0B       		.uleb128 0xb
 2183 00f8 0B       		.uleb128 0xb
 2184 00f9 3A       		.uleb128 0x3a
 2185 00fa 0B       		.uleb128 0xb
 2186 00fb 3B       		.uleb128 0x3b
 2187 00fc 05       		.uleb128 0x5
 2188 00fd 01       		.uleb128 0x1
 2189 00fe 13       		.uleb128 0x13
 2190 00ff 00       		.byte	0
 2191 0100 00       		.byte	0
 2192 0101 16       		.uleb128 0x16
 2193 0102 2E       		.uleb128 0x2e
 2194 0103 01       		.byte	0x1
 2195 0104 03       		.uleb128 0x3
 2196 0105 0E       		.uleb128 0xe
 2197 0106 3A       		.uleb128 0x3a
 2198 0107 0B       		.uleb128 0xb
 2199 0108 3B       		.uleb128 0x3b
 2200 0109 05       		.uleb128 0x5
 2201 010a 27       		.uleb128 0x27
 2202 010b 0C       		.uleb128 0xc
 2203 010c 20       		.uleb128 0x20
 2204 010d 0B       		.uleb128 0xb
 2205 010e 01       		.uleb128 0x1
 2206 010f 13       		.uleb128 0x13
 2207 0110 00       		.byte	0
 2208 0111 00       		.byte	0
 2209 0112 17       		.uleb128 0x17
 2210 0113 05       		.uleb128 0x5
 2211 0114 00       		.byte	0
 2212 0115 03       		.uleb128 0x3
 2213 0116 0E       		.uleb128 0xe
 2214 0117 3A       		.uleb128 0x3a
 2215 0118 0B       		.uleb128 0xb
 2216 0119 3B       		.uleb128 0x3b
 2217 011a 05       		.uleb128 0x5
 2218 011b 49       		.uleb128 0x49
 2219 011c 13       		.uleb128 0x13
 2220 011d 00       		.byte	0
 2221 011e 00       		.byte	0
 2222 011f 18       		.uleb128 0x18
 2223 0120 2E       		.uleb128 0x2e
 2224 0121 00       		.byte	0
 2225 0122 03       		.uleb128 0x3
 2226 0123 0E       		.uleb128 0xe
 2227 0124 3A       		.uleb128 0x3a
 2228 0125 0B       		.uleb128 0xb
 2229 0126 3B       		.uleb128 0x3b
ARM GAS  /tmp/ccOy41Td.s 			page 63


 2230 0127 05       		.uleb128 0x5
 2231 0128 27       		.uleb128 0x27
 2232 0129 0C       		.uleb128 0xc
 2233 012a 20       		.uleb128 0x20
 2234 012b 0B       		.uleb128 0xb
 2235 012c 00       		.byte	0
 2236 012d 00       		.byte	0
 2237 012e 19       		.uleb128 0x19
 2238 012f 05       		.uleb128 0x5
 2239 0130 00       		.byte	0
 2240 0131 03       		.uleb128 0x3
 2241 0132 08       		.uleb128 0x8
 2242 0133 3A       		.uleb128 0x3a
 2243 0134 0B       		.uleb128 0xb
 2244 0135 3B       		.uleb128 0x3b
 2245 0136 05       		.uleb128 0x5
 2246 0137 49       		.uleb128 0x49
 2247 0138 13       		.uleb128 0x13
 2248 0139 00       		.byte	0
 2249 013a 00       		.byte	0
 2250 013b 1A       		.uleb128 0x1a
 2251 013c 34       		.uleb128 0x34
 2252 013d 00       		.byte	0
 2253 013e 03       		.uleb128 0x3
 2254 013f 0E       		.uleb128 0xe
 2255 0140 49       		.uleb128 0x49
 2256 0141 13       		.uleb128 0x13
 2257 0142 34       		.uleb128 0x34
 2258 0143 0C       		.uleb128 0xc
 2259 0144 1C       		.uleb128 0x1c
 2260 0145 0E       		.uleb128 0xe
 2261 0146 00       		.byte	0
 2262 0147 00       		.byte	0
 2263 0148 1B       		.uleb128 0x1b
 2264 0149 01       		.uleb128 0x1
 2265 014a 01       		.byte	0x1
 2266 014b 49       		.uleb128 0x49
 2267 014c 13       		.uleb128 0x13
 2268 014d 01       		.uleb128 0x1
 2269 014e 13       		.uleb128 0x13
 2270 014f 00       		.byte	0
 2271 0150 00       		.byte	0
 2272 0151 1C       		.uleb128 0x1c
 2273 0152 21       		.uleb128 0x21
 2274 0153 00       		.byte	0
 2275 0154 49       		.uleb128 0x49
 2276 0155 13       		.uleb128 0x13
 2277 0156 2F       		.uleb128 0x2f
 2278 0157 0B       		.uleb128 0xb
 2279 0158 00       		.byte	0
 2280 0159 00       		.byte	0
 2281 015a 1D       		.uleb128 0x1d
 2282 015b 2E       		.uleb128 0x2e
 2283 015c 01       		.byte	0x1
 2284 015d 03       		.uleb128 0x3
 2285 015e 0E       		.uleb128 0xe
 2286 015f 3A       		.uleb128 0x3a
ARM GAS  /tmp/ccOy41Td.s 			page 64


 2287 0160 0B       		.uleb128 0xb
 2288 0161 3B       		.uleb128 0x3b
 2289 0162 0B       		.uleb128 0xb
 2290 0163 27       		.uleb128 0x27
 2291 0164 0C       		.uleb128 0xc
 2292 0165 49       		.uleb128 0x49
 2293 0166 13       		.uleb128 0x13
 2294 0167 20       		.uleb128 0x20
 2295 0168 0B       		.uleb128 0xb
 2296 0169 01       		.uleb128 0x1
 2297 016a 13       		.uleb128 0x13
 2298 016b 00       		.byte	0
 2299 016c 00       		.byte	0
 2300 016d 1E       		.uleb128 0x1e
 2301 016e 05       		.uleb128 0x5
 2302 016f 00       		.byte	0
 2303 0170 03       		.uleb128 0x3
 2304 0171 08       		.uleb128 0x8
 2305 0172 3A       		.uleb128 0x3a
 2306 0173 0B       		.uleb128 0xb
 2307 0174 3B       		.uleb128 0x3b
 2308 0175 0B       		.uleb128 0xb
 2309 0176 49       		.uleb128 0x49
 2310 0177 13       		.uleb128 0x13
 2311 0178 00       		.byte	0
 2312 0179 00       		.byte	0
 2313 017a 1F       		.uleb128 0x1f
 2314 017b 2E       		.uleb128 0x2e
 2315 017c 01       		.byte	0x1
 2316 017d 03       		.uleb128 0x3
 2317 017e 0E       		.uleb128 0xe
 2318 017f 3A       		.uleb128 0x3a
 2319 0180 0B       		.uleb128 0xb
 2320 0181 3B       		.uleb128 0x3b
 2321 0182 05       		.uleb128 0x5
 2322 0183 27       		.uleb128 0x27
 2323 0184 0C       		.uleb128 0xc
 2324 0185 49       		.uleb128 0x49
 2325 0186 13       		.uleb128 0x13
 2326 0187 20       		.uleb128 0x20
 2327 0188 0B       		.uleb128 0xb
 2328 0189 01       		.uleb128 0x1
 2329 018a 13       		.uleb128 0x13
 2330 018b 00       		.byte	0
 2331 018c 00       		.byte	0
 2332 018d 20       		.uleb128 0x20
 2333 018e 34       		.uleb128 0x34
 2334 018f 00       		.byte	0
 2335 0190 03       		.uleb128 0x3
 2336 0191 08       		.uleb128 0x8
 2337 0192 3A       		.uleb128 0x3a
 2338 0193 0B       		.uleb128 0xb
 2339 0194 3B       		.uleb128 0x3b
 2340 0195 05       		.uleb128 0x5
 2341 0196 49       		.uleb128 0x49
 2342 0197 13       		.uleb128 0x13
 2343 0198 00       		.byte	0
ARM GAS  /tmp/ccOy41Td.s 			page 65


 2344 0199 00       		.byte	0
 2345 019a 21       		.uleb128 0x21
 2346 019b 2E       		.uleb128 0x2e
 2347 019c 01       		.byte	0x1
 2348 019d 03       		.uleb128 0x3
 2349 019e 0E       		.uleb128 0xe
 2350 019f 3A       		.uleb128 0x3a
 2351 01a0 0B       		.uleb128 0xb
 2352 01a1 3B       		.uleb128 0x3b
 2353 01a2 0B       		.uleb128 0xb
 2354 01a3 27       		.uleb128 0x27
 2355 01a4 0C       		.uleb128 0xc
 2356 01a5 20       		.uleb128 0x20
 2357 01a6 0B       		.uleb128 0xb
 2358 01a7 01       		.uleb128 0x1
 2359 01a8 13       		.uleb128 0x13
 2360 01a9 00       		.byte	0
 2361 01aa 00       		.byte	0
 2362 01ab 22       		.uleb128 0x22
 2363 01ac 2E       		.uleb128 0x2e
 2364 01ad 01       		.byte	0x1
 2365 01ae 3F       		.uleb128 0x3f
 2366 01af 0C       		.uleb128 0xc
 2367 01b0 03       		.uleb128 0x3
 2368 01b1 0E       		.uleb128 0xe
 2369 01b2 3A       		.uleb128 0x3a
 2370 01b3 0B       		.uleb128 0xb
 2371 01b4 3B       		.uleb128 0x3b
 2372 01b5 0B       		.uleb128 0xb
 2373 01b6 27       		.uleb128 0x27
 2374 01b7 0C       		.uleb128 0xc
 2375 01b8 49       		.uleb128 0x49
 2376 01b9 13       		.uleb128 0x13
 2377 01ba 11       		.uleb128 0x11
 2378 01bb 01       		.uleb128 0x1
 2379 01bc 12       		.uleb128 0x12
 2380 01bd 01       		.uleb128 0x1
 2381 01be 40       		.uleb128 0x40
 2382 01bf 06       		.uleb128 0x6
 2383 01c0 9742     		.uleb128 0x2117
 2384 01c2 0C       		.uleb128 0xc
 2385 01c3 01       		.uleb128 0x1
 2386 01c4 13       		.uleb128 0x13
 2387 01c5 00       		.byte	0
 2388 01c6 00       		.byte	0
 2389 01c7 23       		.uleb128 0x23
 2390 01c8 05       		.uleb128 0x5
 2391 01c9 00       		.byte	0
 2392 01ca 03       		.uleb128 0x3
 2393 01cb 08       		.uleb128 0x8
 2394 01cc 3A       		.uleb128 0x3a
 2395 01cd 0B       		.uleb128 0xb
 2396 01ce 3B       		.uleb128 0x3b
 2397 01cf 0B       		.uleb128 0xb
 2398 01d0 49       		.uleb128 0x49
 2399 01d1 13       		.uleb128 0x13
 2400 01d2 02       		.uleb128 0x2
ARM GAS  /tmp/ccOy41Td.s 			page 66


 2401 01d3 06       		.uleb128 0x6
 2402 01d4 00       		.byte	0
 2403 01d5 00       		.byte	0
 2404 01d6 24       		.uleb128 0x24
 2405 01d7 34       		.uleb128 0x34
 2406 01d8 00       		.byte	0
 2407 01d9 03       		.uleb128 0x3
 2408 01da 08       		.uleb128 0x8
 2409 01db 3A       		.uleb128 0x3a
 2410 01dc 0B       		.uleb128 0xb
 2411 01dd 3B       		.uleb128 0x3b
 2412 01de 0B       		.uleb128 0xb
 2413 01df 49       		.uleb128 0x49
 2414 01e0 13       		.uleb128 0x13
 2415 01e1 02       		.uleb128 0x2
 2416 01e2 0A       		.uleb128 0xa
 2417 01e3 00       		.byte	0
 2418 01e4 00       		.byte	0
 2419 01e5 25       		.uleb128 0x25
 2420 01e6 34       		.uleb128 0x34
 2421 01e7 00       		.byte	0
 2422 01e8 03       		.uleb128 0x3
 2423 01e9 0E       		.uleb128 0xe
 2424 01ea 49       		.uleb128 0x49
 2425 01eb 13       		.uleb128 0x13
 2426 01ec 34       		.uleb128 0x34
 2427 01ed 0C       		.uleb128 0xc
 2428 01ee 00       		.byte	0
 2429 01ef 00       		.byte	0
 2430 01f0 26       		.uleb128 0x26
 2431 01f1 1D       		.uleb128 0x1d
 2432 01f2 01       		.byte	0x1
 2433 01f3 31       		.uleb128 0x31
 2434 01f4 13       		.uleb128 0x13
 2435 01f5 11       		.uleb128 0x11
 2436 01f6 01       		.uleb128 0x1
 2437 01f7 12       		.uleb128 0x12
 2438 01f8 01       		.uleb128 0x1
 2439 01f9 58       		.uleb128 0x58
 2440 01fa 0B       		.uleb128 0xb
 2441 01fb 59       		.uleb128 0x59
 2442 01fc 0B       		.uleb128 0xb
 2443 01fd 01       		.uleb128 0x1
 2444 01fe 13       		.uleb128 0x13
 2445 01ff 00       		.byte	0
 2446 0200 00       		.byte	0
 2447 0201 27       		.uleb128 0x27
 2448 0202 1D       		.uleb128 0x1d
 2449 0203 01       		.byte	0x1
 2450 0204 31       		.uleb128 0x31
 2451 0205 13       		.uleb128 0x13
 2452 0206 11       		.uleb128 0x11
 2453 0207 01       		.uleb128 0x1
 2454 0208 12       		.uleb128 0x12
 2455 0209 01       		.uleb128 0x1
 2456 020a 58       		.uleb128 0x58
 2457 020b 0B       		.uleb128 0xb
ARM GAS  /tmp/ccOy41Td.s 			page 67


 2458 020c 59       		.uleb128 0x59
 2459 020d 05       		.uleb128 0x5
 2460 020e 00       		.byte	0
 2461 020f 00       		.byte	0
 2462 0210 28       		.uleb128 0x28
 2463 0211 05       		.uleb128 0x5
 2464 0212 00       		.byte	0
 2465 0213 31       		.uleb128 0x31
 2466 0214 13       		.uleb128 0x13
 2467 0215 1C       		.uleb128 0x1c
 2468 0216 0B       		.uleb128 0xb
 2469 0217 00       		.byte	0
 2470 0218 00       		.byte	0
 2471 0219 29       		.uleb128 0x29
 2472 021a 1D       		.uleb128 0x1d
 2473 021b 01       		.byte	0x1
 2474 021c 31       		.uleb128 0x31
 2475 021d 13       		.uleb128 0x13
 2476 021e 52       		.uleb128 0x52
 2477 021f 01       		.uleb128 0x1
 2478 0220 55       		.uleb128 0x55
 2479 0221 06       		.uleb128 0x6
 2480 0222 58       		.uleb128 0x58
 2481 0223 0B       		.uleb128 0xb
 2482 0224 59       		.uleb128 0x59
 2483 0225 0B       		.uleb128 0xb
 2484 0226 01       		.uleb128 0x1
 2485 0227 13       		.uleb128 0x13
 2486 0228 00       		.byte	0
 2487 0229 00       		.byte	0
 2488 022a 2A       		.uleb128 0x2a
 2489 022b 05       		.uleb128 0x5
 2490 022c 00       		.byte	0
 2491 022d 31       		.uleb128 0x31
 2492 022e 13       		.uleb128 0x13
 2493 022f 02       		.uleb128 0x2
 2494 0230 0A       		.uleb128 0xa
 2495 0231 00       		.byte	0
 2496 0232 00       		.byte	0
 2497 0233 2B       		.uleb128 0x2b
 2498 0234 0B       		.uleb128 0xb
 2499 0235 01       		.byte	0x1
 2500 0236 11       		.uleb128 0x11
 2501 0237 01       		.uleb128 0x1
 2502 0238 12       		.uleb128 0x12
 2503 0239 01       		.uleb128 0x1
 2504 023a 00       		.byte	0
 2505 023b 00       		.byte	0
 2506 023c 2C       		.uleb128 0x2c
 2507 023d 34       		.uleb128 0x34
 2508 023e 00       		.byte	0
 2509 023f 31       		.uleb128 0x31
 2510 0240 13       		.uleb128 0x13
 2511 0241 00       		.byte	0
 2512 0242 00       		.byte	0
 2513 0243 2D       		.uleb128 0x2d
 2514 0244 05       		.uleb128 0x5
ARM GAS  /tmp/ccOy41Td.s 			page 68


 2515 0245 00       		.byte	0
 2516 0246 31       		.uleb128 0x31
 2517 0247 13       		.uleb128 0x13
 2518 0248 02       		.uleb128 0x2
 2519 0249 06       		.uleb128 0x6
 2520 024a 00       		.byte	0
 2521 024b 00       		.byte	0
 2522 024c 2E       		.uleb128 0x2e
 2523 024d 898201   		.uleb128 0x4109
 2524 0250 01       		.byte	0x1
 2525 0251 11       		.uleb128 0x11
 2526 0252 01       		.uleb128 0x1
 2527 0253 31       		.uleb128 0x31
 2528 0254 13       		.uleb128 0x13
 2529 0255 01       		.uleb128 0x1
 2530 0256 13       		.uleb128 0x13
 2531 0257 00       		.byte	0
 2532 0258 00       		.byte	0
 2533 0259 2F       		.uleb128 0x2f
 2534 025a 8A8201   		.uleb128 0x410a
 2535 025d 00       		.byte	0
 2536 025e 02       		.uleb128 0x2
 2537 025f 0A       		.uleb128 0xa
 2538 0260 9142     		.uleb128 0x2111
 2539 0262 0A       		.uleb128 0xa
 2540 0263 00       		.byte	0
 2541 0264 00       		.byte	0
 2542 0265 30       		.uleb128 0x30
 2543 0266 898201   		.uleb128 0x4109
 2544 0269 00       		.byte	0
 2545 026a 11       		.uleb128 0x11
 2546 026b 01       		.uleb128 0x1
 2547 026c 31       		.uleb128 0x31
 2548 026d 13       		.uleb128 0x13
 2549 026e 00       		.byte	0
 2550 026f 00       		.byte	0
 2551 0270 31       		.uleb128 0x31
 2552 0271 34       		.uleb128 0x34
 2553 0272 00       		.byte	0
 2554 0273 03       		.uleb128 0x3
 2555 0274 08       		.uleb128 0x8
 2556 0275 3A       		.uleb128 0x3a
 2557 0276 0B       		.uleb128 0xb
 2558 0277 3B       		.uleb128 0x3b
 2559 0278 0B       		.uleb128 0xb
 2560 0279 49       		.uleb128 0x49
 2561 027a 13       		.uleb128 0x13
 2562 027b 00       		.byte	0
 2563 027c 00       		.byte	0
 2564 027d 32       		.uleb128 0x32
 2565 027e 0B       		.uleb128 0xb
 2566 027f 01       		.byte	0x1
 2567 0280 55       		.uleb128 0x55
 2568 0281 06       		.uleb128 0x6
 2569 0282 00       		.byte	0
 2570 0283 00       		.byte	0
 2571 0284 33       		.uleb128 0x33
ARM GAS  /tmp/ccOy41Td.s 			page 69


 2572 0285 34       		.uleb128 0x34
 2573 0286 00       		.byte	0
 2574 0287 31       		.uleb128 0x31
 2575 0288 13       		.uleb128 0x13
 2576 0289 02       		.uleb128 0x2
 2577 028a 06       		.uleb128 0x6
 2578 028b 00       		.byte	0
 2579 028c 00       		.byte	0
 2580 028d 34       		.uleb128 0x34
 2581 028e 898201   		.uleb128 0x4109
 2582 0291 01       		.byte	0x1
 2583 0292 11       		.uleb128 0x11
 2584 0293 01       		.uleb128 0x1
 2585 0294 31       		.uleb128 0x31
 2586 0295 13       		.uleb128 0x13
 2587 0296 00       		.byte	0
 2588 0297 00       		.byte	0
 2589 0298 35       		.uleb128 0x35
 2590 0299 2E       		.uleb128 0x2e
 2591 029a 01       		.byte	0x1
 2592 029b 3F       		.uleb128 0x3f
 2593 029c 0C       		.uleb128 0xc
 2594 029d 03       		.uleb128 0x3
 2595 029e 0E       		.uleb128 0xe
 2596 029f 3A       		.uleb128 0x3a
 2597 02a0 0B       		.uleb128 0xb
 2598 02a1 3B       		.uleb128 0x3b
 2599 02a2 0B       		.uleb128 0xb
 2600 02a3 27       		.uleb128 0x27
 2601 02a4 0C       		.uleb128 0xc
 2602 02a5 11       		.uleb128 0x11
 2603 02a6 01       		.uleb128 0x1
 2604 02a7 12       		.uleb128 0x12
 2605 02a8 01       		.uleb128 0x1
 2606 02a9 40       		.uleb128 0x40
 2607 02aa 06       		.uleb128 0x6
 2608 02ab 9742     		.uleb128 0x2117
 2609 02ad 0C       		.uleb128 0xc
 2610 02ae 01       		.uleb128 0x1
 2611 02af 13       		.uleb128 0x13
 2612 02b0 00       		.byte	0
 2613 02b1 00       		.byte	0
 2614 02b2 36       		.uleb128 0x36
 2615 02b3 05       		.uleb128 0x5
 2616 02b4 00       		.byte	0
 2617 02b5 31       		.uleb128 0x31
 2618 02b6 13       		.uleb128 0x13
 2619 02b7 00       		.byte	0
 2620 02b8 00       		.byte	0
 2621 02b9 37       		.uleb128 0x37
 2622 02ba 1D       		.uleb128 0x1d
 2623 02bb 01       		.byte	0x1
 2624 02bc 31       		.uleb128 0x31
 2625 02bd 13       		.uleb128 0x13
 2626 02be 11       		.uleb128 0x11
 2627 02bf 01       		.uleb128 0x1
 2628 02c0 12       		.uleb128 0x12
ARM GAS  /tmp/ccOy41Td.s 			page 70


 2629 02c1 01       		.uleb128 0x1
 2630 02c2 58       		.uleb128 0x58
 2631 02c3 0B       		.uleb128 0xb
 2632 02c4 59       		.uleb128 0x59
 2633 02c5 0B       		.uleb128 0xb
 2634 02c6 00       		.byte	0
 2635 02c7 00       		.byte	0
 2636 02c8 38       		.uleb128 0x38
 2637 02c9 34       		.uleb128 0x34
 2638 02ca 00       		.byte	0
 2639 02cb 03       		.uleb128 0x3
 2640 02cc 0E       		.uleb128 0xe
 2641 02cd 3A       		.uleb128 0x3a
 2642 02ce 0B       		.uleb128 0xb
 2643 02cf 3B       		.uleb128 0x3b
 2644 02d0 05       		.uleb128 0x5
 2645 02d1 49       		.uleb128 0x49
 2646 02d2 13       		.uleb128 0x13
 2647 02d3 3F       		.uleb128 0x3f
 2648 02d4 0C       		.uleb128 0xc
 2649 02d5 3C       		.uleb128 0x3c
 2650 02d6 0C       		.uleb128 0xc
 2651 02d7 00       		.byte	0
 2652 02d8 00       		.byte	0
 2653 02d9 39       		.uleb128 0x39
 2654 02da 34       		.uleb128 0x34
 2655 02db 00       		.byte	0
 2656 02dc 03       		.uleb128 0x3
 2657 02dd 08       		.uleb128 0x8
 2658 02de 3A       		.uleb128 0x3a
 2659 02df 0B       		.uleb128 0xb
 2660 02e0 3B       		.uleb128 0x3b
 2661 02e1 05       		.uleb128 0x5
 2662 02e2 49       		.uleb128 0x49
 2663 02e3 13       		.uleb128 0x13
 2664 02e4 3F       		.uleb128 0x3f
 2665 02e5 0C       		.uleb128 0xc
 2666 02e6 3C       		.uleb128 0x3c
 2667 02e7 0C       		.uleb128 0xc
 2668 02e8 00       		.byte	0
 2669 02e9 00       		.byte	0
 2670 02ea 3A       		.uleb128 0x3a
 2671 02eb 2E       		.uleb128 0x2e
 2672 02ec 01       		.byte	0x1
 2673 02ed 3F       		.uleb128 0x3f
 2674 02ee 0C       		.uleb128 0xc
 2675 02ef 03       		.uleb128 0x3
 2676 02f0 0E       		.uleb128 0xe
 2677 02f1 3A       		.uleb128 0x3a
 2678 02f2 0B       		.uleb128 0xb
 2679 02f3 3B       		.uleb128 0x3b
 2680 02f4 05       		.uleb128 0x5
 2681 02f5 27       		.uleb128 0x27
 2682 02f6 0C       		.uleb128 0xc
 2683 02f7 3C       		.uleb128 0x3c
 2684 02f8 0C       		.uleb128 0xc
 2685 02f9 01       		.uleb128 0x1
ARM GAS  /tmp/ccOy41Td.s 			page 71


 2686 02fa 13       		.uleb128 0x13
 2687 02fb 00       		.byte	0
 2688 02fc 00       		.byte	0
 2689 02fd 3B       		.uleb128 0x3b
 2690 02fe 2E       		.uleb128 0x2e
 2691 02ff 01       		.byte	0x1
 2692 0300 3F       		.uleb128 0x3f
 2693 0301 0C       		.uleb128 0xc
 2694 0302 03       		.uleb128 0x3
 2695 0303 0E       		.uleb128 0xe
 2696 0304 3A       		.uleb128 0x3a
 2697 0305 0B       		.uleb128 0xb
 2698 0306 3B       		.uleb128 0x3b
 2699 0307 05       		.uleb128 0x5
 2700 0308 27       		.uleb128 0x27
 2701 0309 0C       		.uleb128 0xc
 2702 030a 49       		.uleb128 0x49
 2703 030b 13       		.uleb128 0x13
 2704 030c 3C       		.uleb128 0x3c
 2705 030d 0C       		.uleb128 0xc
 2706 030e 01       		.uleb128 0x1
 2707 030f 13       		.uleb128 0x13
 2708 0310 00       		.byte	0
 2709 0311 00       		.byte	0
 2710 0312 3C       		.uleb128 0x3c
 2711 0313 2E       		.uleb128 0x2e
 2712 0314 01       		.byte	0x1
 2713 0315 3F       		.uleb128 0x3f
 2714 0316 0C       		.uleb128 0xc
 2715 0317 03       		.uleb128 0x3
 2716 0318 0E       		.uleb128 0xe
 2717 0319 3A       		.uleb128 0x3a
 2718 031a 0B       		.uleb128 0xb
 2719 031b 3B       		.uleb128 0x3b
 2720 031c 05       		.uleb128 0x5
 2721 031d 27       		.uleb128 0x27
 2722 031e 0C       		.uleb128 0xc
 2723 031f 3C       		.uleb128 0x3c
 2724 0320 0C       		.uleb128 0xc
 2725 0321 00       		.byte	0
 2726 0322 00       		.byte	0
 2727 0323 00       		.byte	0
 2728              		.section	.debug_loc,"",%progbits
 2729              	.Ldebug_loc0:
 2730              	.LLST0:
 2731 0000 00000000 		.4byte	.LFB165
 2732 0004 04000000 		.4byte	.LCFI0
 2733 0008 0200     		.2byte	0x2
 2734 000a 7D       		.byte	0x7d
 2735 000b 00       		.sleb128 0
 2736 000c 04000000 		.4byte	.LCFI0
 2737 0010 40000000 		.4byte	.LFE165
 2738 0014 0200     		.2byte	0x2
 2739 0016 7D       		.byte	0x7d
 2740 0017 10       		.sleb128 16
 2741 0018 00000000 		.4byte	0
 2742 001c 00000000 		.4byte	0
ARM GAS  /tmp/ccOy41Td.s 			page 72


 2743              	.LLST1:
 2744 0020 00000000 		.4byte	.LVL0
 2745 0024 24000000 		.4byte	.LVL3
 2746 0028 0100     		.2byte	0x1
 2747 002a 50       		.byte	0x50
 2748 002b 24000000 		.4byte	.LVL3
 2749 002f 34000000 		.4byte	.LVL6
 2750 0033 0300     		.2byte	0x3
 2751 0035 75       		.byte	0x75
 2752 0036 58       		.sleb128 -40
 2753 0037 9F       		.byte	0x9f
 2754 0038 34000000 		.4byte	.LVL6
 2755 003c 37000000 		.4byte	.LVL7-1
 2756 0040 0100     		.2byte	0x1
 2757 0042 50       		.byte	0x50
 2758 0043 37000000 		.4byte	.LVL7-1
 2759 0047 40000000 		.4byte	.LFE165
 2760 004b 0300     		.2byte	0x3
 2761 004d 75       		.byte	0x75
 2762 004e 58       		.sleb128 -40
 2763 004f 9F       		.byte	0x9f
 2764 0050 00000000 		.4byte	0
 2765 0054 00000000 		.4byte	0
 2766              	.LLST2:
 2767 0058 00000000 		.4byte	.LVL0
 2768 005c 24000000 		.4byte	.LVL3
 2769 0060 0100     		.2byte	0x1
 2770 0062 51       		.byte	0x51
 2771 0063 24000000 		.4byte	.LVL3
 2772 0067 2C000000 		.4byte	.LVL5
 2773 006b 0400     		.2byte	0x4
 2774 006d F3       		.byte	0xf3
 2775 006e 01       		.uleb128 0x1
 2776 006f 51       		.byte	0x51
 2777 0070 9F       		.byte	0x9f
 2778 0071 2C000000 		.4byte	.LVL5
 2779 0075 34000000 		.4byte	.LVL6
 2780 0079 0100     		.2byte	0x1
 2781 007b 50       		.byte	0x50
 2782 007c 34000000 		.4byte	.LVL6
 2783 0080 37000000 		.4byte	.LVL7-1
 2784 0084 0100     		.2byte	0x1
 2785 0086 51       		.byte	0x51
 2786 0087 37000000 		.4byte	.LVL7-1
 2787 008b 40000000 		.4byte	.LFE165
 2788 008f 0400     		.2byte	0x4
 2789 0091 F3       		.byte	0xf3
 2790 0092 01       		.uleb128 0x1
 2791 0093 51       		.byte	0x51
 2792 0094 9F       		.byte	0x9f
 2793 0095 00000000 		.4byte	0
 2794 0099 00000000 		.4byte	0
 2795              	.LLST3:
 2796 009d 2C000000 		.4byte	.LVL5
 2797 00a1 34000000 		.4byte	.LVL6
 2798 00a5 0200     		.2byte	0x2
 2799 00a7 30       		.byte	0x30
ARM GAS  /tmp/ccOy41Td.s 			page 73


 2800 00a8 9F       		.byte	0x9f
 2801 00a9 00000000 		.4byte	0
 2802 00ad 00000000 		.4byte	0
 2803              	.LLST4:
 2804 00b1 00000000 		.4byte	.LFB166
 2805 00b5 02000000 		.4byte	.LCFI1
 2806 00b9 0200     		.2byte	0x2
 2807 00bb 7D       		.byte	0x7d
 2808 00bc 00       		.sleb128 0
 2809 00bd 02000000 		.4byte	.LCFI1
 2810 00c1 3C000000 		.4byte	.LFE166
 2811 00c5 0200     		.2byte	0x2
 2812 00c7 7D       		.byte	0x7d
 2813 00c8 08       		.sleb128 8
 2814 00c9 00000000 		.4byte	0
 2815 00cd 00000000 		.4byte	0
 2816              	.LLST5:
 2817 00d1 0C000000 		.4byte	.LVL9
 2818 00d5 16000000 		.4byte	.LVL10
 2819 00d9 0100     		.2byte	0x1
 2820 00db 52       		.byte	0x52
 2821 00dc 28000000 		.4byte	.LVL13
 2822 00e0 2D000000 		.4byte	.LVL14-1
 2823 00e4 0100     		.2byte	0x1
 2824 00e6 52       		.byte	0x52
 2825 00e7 00000000 		.4byte	0
 2826 00eb 00000000 		.4byte	0
 2827              	.LLST6:
 2828 00ef 16000000 		.4byte	.LVL10
 2829 00f3 1C000000 		.4byte	.LVL11
 2830 00f7 0300     		.2byte	0x3
 2831 00f9 72       		.byte	0x72
 2832 00fa 28       		.sleb128 40
 2833 00fb 9F       		.byte	0x9f
 2834 00fc 00000000 		.4byte	0
 2835 0100 00000000 		.4byte	0
 2836              	.LLST7:
 2837 0104 16000000 		.4byte	.LVL10
 2838 0108 28000000 		.4byte	.LVL13
 2839 010c 0100     		.2byte	0x1
 2840 010e 50       		.byte	0x50
 2841 010f 00000000 		.4byte	0
 2842 0113 00000000 		.4byte	0
 2843              	.LLST8:
 2844 0117 20000000 		.4byte	.LVL12
 2845 011b 28000000 		.4byte	.LVL13
 2846 011f 0200     		.2byte	0x2
 2847 0121 30       		.byte	0x30
 2848 0122 9F       		.byte	0x9f
 2849 0123 00000000 		.4byte	0
 2850 0127 00000000 		.4byte	0
 2851              	.LLST9:
 2852 012b 00000000 		.4byte	.LFB167
 2853 012f 02000000 		.4byte	.LCFI2
 2854 0133 0200     		.2byte	0x2
 2855 0135 7D       		.byte	0x7d
 2856 0136 00       		.sleb128 0
ARM GAS  /tmp/ccOy41Td.s 			page 74


 2857 0137 02000000 		.4byte	.LCFI2
 2858 013b 14000000 		.4byte	.LFE167
 2859 013f 0200     		.2byte	0x2
 2860 0141 7D       		.byte	0x7d
 2861 0142 08       		.sleb128 8
 2862 0143 00000000 		.4byte	0
 2863 0147 00000000 		.4byte	0
 2864              	.LLST10:
 2865 014b 00000000 		.4byte	.LVL15
 2866 014f 0B000000 		.4byte	.LVL16-1
 2867 0153 0100     		.2byte	0x1
 2868 0155 50       		.byte	0x50
 2869 0156 0B000000 		.4byte	.LVL16-1
 2870 015a 14000000 		.4byte	.LFE167
 2871 015e 0400     		.2byte	0x4
 2872 0160 F3       		.byte	0xf3
 2873 0161 01       		.uleb128 0x1
 2874 0162 50       		.byte	0x50
 2875 0163 9F       		.byte	0x9f
 2876 0164 00000000 		.4byte	0
 2877 0168 00000000 		.4byte	0
 2878              	.LLST11:
 2879 016c 00000000 		.4byte	.LVL15
 2880 0170 0B000000 		.4byte	.LVL16-1
 2881 0174 0100     		.2byte	0x1
 2882 0176 51       		.byte	0x51
 2883 0177 0B000000 		.4byte	.LVL16-1
 2884 017b 14000000 		.4byte	.LFE167
 2885 017f 0400     		.2byte	0x4
 2886 0181 F3       		.byte	0xf3
 2887 0182 01       		.uleb128 0x1
 2888 0183 51       		.byte	0x51
 2889 0184 9F       		.byte	0x9f
 2890 0185 00000000 		.4byte	0
 2891 0189 00000000 		.4byte	0
 2892              		.section	.debug_aranges,"",%progbits
 2893 0000 2C000000 		.4byte	0x2c
 2894 0004 0200     		.2byte	0x2
 2895 0006 00000000 		.4byte	.Ldebug_info0
 2896 000a 04       		.byte	0x4
 2897 000b 00       		.byte	0
 2898 000c 0000     		.2byte	0
 2899 000e 0000     		.2byte	0
 2900 0010 00000000 		.4byte	.LFB165
 2901 0014 40000000 		.4byte	.LFE165-.LFB165
 2902 0018 00000000 		.4byte	.LFB166
 2903 001c 3C000000 		.4byte	.LFE166-.LFB166
 2904 0020 00000000 		.4byte	.LFB167
 2905 0024 14000000 		.4byte	.LFE167-.LFB167
 2906 0028 00000000 		.4byte	0
 2907 002c 00000000 		.4byte	0
 2908              		.section	.debug_ranges,"",%progbits
 2909              	.Ldebug_ranges0:
 2910 0000 14000000 		.4byte	.LBB56
 2911 0004 16000000 		.4byte	.LBE56
 2912 0008 18000000 		.4byte	.LBB60
 2913 000c 1A000000 		.4byte	.LBE60
ARM GAS  /tmp/ccOy41Td.s 			page 75


 2914 0010 1C000000 		.4byte	.LBB61
 2915 0014 22000000 		.4byte	.LBE61
 2916 0018 00000000 		.4byte	0
 2917 001c 00000000 		.4byte	0
 2918 0020 16000000 		.4byte	.LBB73
 2919 0024 1A000000 		.4byte	.LBE73
 2920 0028 1C000000 		.4byte	.LBB76
 2921 002c 1E000000 		.4byte	.LBE76
 2922 0030 00000000 		.4byte	0
 2923 0034 00000000 		.4byte	0
 2924 0038 16000000 		.4byte	.LBB74
 2925 003c 1A000000 		.4byte	.LBE74
 2926 0040 1C000000 		.4byte	.LBB75
 2927 0044 1E000000 		.4byte	.LBE75
 2928 0048 00000000 		.4byte	0
 2929 004c 00000000 		.4byte	0
 2930 0050 00000000 		.4byte	.LFB165
 2931 0054 40000000 		.4byte	.LFE165
 2932 0058 00000000 		.4byte	.LFB166
 2933 005c 3C000000 		.4byte	.LFE166
 2934 0060 00000000 		.4byte	.LFB167
 2935 0064 14000000 		.4byte	.LFE167
 2936 0068 00000000 		.4byte	0
 2937 006c 00000000 		.4byte	0
 2938              		.section	.debug_line,"",%progbits
 2939              	.Ldebug_line0:
 2940 0000 5F020000 		.section	.debug_str,"MS",%progbits,1
 2940      02009801 
 2940      00000201 
 2940      FB0E0D00 
 2940      01010101 
 2941              	.LASF33:
 2942 0000 74726566 		.ascii	"trefs_t\000"
 2942      735F7400 
 2943              	.LASF20:
 2944 0008 73686F72 		.ascii	"short int\000"
 2944      7420696E 
 2944      7400
 2945              	.LASF45:
 2946 0012 725F7175 		.ascii	"r_queue\000"
 2946      65756500 
 2947              	.LASF60:
 2948 001a 6D5F6E65 		.ascii	"m_next\000"
 2948      787400
 2949              	.LASF37:
 2950 0021 73697A65 		.ascii	"sizetype\000"
 2950      74797065 
 2950      00
 2951              	.LASF98:
 2952 002a 63685363 		.ascii	"chSchGoSleepS\000"
 2952      68476F53 
 2952      6C656570 
 2952      5300
 2953              	.LASF52:
 2954 0038 7264796D 		.ascii	"rdymsg\000"
 2954      736700
 2955              	.LASF1:
ARM GAS  /tmp/ccOy41Td.s 			page 76


 2956 003f 705F7072 		.ascii	"p_prev\000"
 2956      657600
 2957              	.LASF47:
 2958 0046 725F6374 		.ascii	"r_ctx\000"
 2958      7800
 2959              	.LASF77:
 2960 004c 706F7274 		.ascii	"port_lock\000"
 2960      5F6C6F63 
 2960      6B00
 2961              	.LASF79:
 2962 0056 63685379 		.ascii	"chSysLock\000"
 2962      734C6F63 
 2962      6B00
 2963              	.LASF36:
 2964 0060 6576656E 		.ascii	"eventmask_t\000"
 2964      746D6173 
 2964      6B5F7400 
 2965              	.LASF11:
 2966 006c 705F6D73 		.ascii	"p_msgqueue\000"
 2966      67717565 
 2966      756500
 2967              	.LASF2:
 2968 0077 705F7072 		.ascii	"p_prio\000"
 2968      696F00
 2969              	.LASF86:
 2970 007e 71756575 		.ascii	"queue_fifo_remove\000"
 2970      655F6669 
 2970      666F5F72 
 2970      656D6F76 
 2970      6500
 2971              	.LASF0:
 2972 0090 705F6E65 		.ascii	"p_next\000"
 2972      787400
 2973              	.LASF87:
 2974 0097 5F5F6675 		.ascii	"__func__.5444\000"
 2974      6E635F5F 
 2974      2E353434 
 2974      3400
 2975              	.LASF30:
 2976 00a5 7274636E 		.ascii	"rtcnt_t\000"
 2976      745F7400 
 2977              	.LASF68:
 2978 00ad 76745F70 		.ascii	"vt_par\000"
 2978      617200
 2979              	.LASF82:
 2980 00b4 76616C75 		.ascii	"value\000"
 2980      6500
 2981              	.LASF67:
 2982 00ba 76745F66 		.ascii	"vt_func\000"
 2982      756E6300 
 2983              	.LASF39:
 2984 00c2 72656761 		.ascii	"regarm_t\000"
 2984      726D5F74 
 2984      00
 2985              	.LASF21:
 2986 00cb 75696E74 		.ascii	"uint8_t\000"
 2986      385F7400 
ARM GAS  /tmp/ccOy41Td.s 			page 77


 2987              	.LASF26:
 2988 00d3 75696E74 		.ascii	"uint32_t\000"
 2988      33325F74 
 2988      00
 2989              	.LASF13:
 2990 00dc 705F6570 		.ascii	"p_epending\000"
 2990      656E6469 
 2990      6E6700
 2991              	.LASF75:
 2992 00e7 63685F73 		.ascii	"ch_system_t\000"
 2992      79737465 
 2992      6D5F7400 
 2993              	.LASF74:
 2994 00f3 6D656173 		.ascii	"measurement_offset\000"
 2994      7572656D 
 2994      656E745F 
 2994      6F666673 
 2994      657400
 2995              	.LASF69:
 2996 0106 76745F6C 		.ascii	"vt_lasttime\000"
 2996      61737474 
 2996      696D6500 
 2997              	.LASF97:
 2998 0112 63684D73 		.ascii	"chMsgRelease\000"
 2998      6752656C 
 2998      65617365 
 2998      00
 2999              	.LASF31:
 3000 011f 746D6F64 		.ascii	"tmode_t\000"
 3000      655F7400 
 3001              	.LASF85:
 3002 0127 63684D73 		.ascii	"chMsgIsPendingI\000"
 3002      67497350 
 3002      656E6469 
 3002      6E674900 
 3003              	.LASF28:
 3004 0137 6C6F6E67 		.ascii	"long long int\000"
 3004      206C6F6E 
 3004      6720696E 
 3004      7400
 3005              	.LASF6:
 3006 0145 705F6E61 		.ascii	"p_name\000"
 3006      6D6500
 3007              	.LASF34:
 3008 014c 74707269 		.ascii	"tprio_t\000"
 3008      6F5F7400 
 3009              	.LASF25:
 3010 0154 6C6F6E67 		.ascii	"long int\000"
 3010      20696E74 
 3010      00
 3011              	.LASF71:
 3012 015d 63685F73 		.ascii	"ch_system\000"
 3012      79737465 
 3012      6D00
 3013              	.LASF92:
 3014 0167 5F5F6675 		.ascii	"__func__.6109\000"
 3014      6E635F5F 
ARM GAS  /tmp/ccOy41Td.s 			page 78


 3014      2E363130 
 3014      3900
 3015              	.LASF62:
 3016 0175 76697274 		.ascii	"virtual_timer_t\000"
 3016      75616C5F 
 3016      74696D65 
 3016      725F7400 
 3017              	.LASF58:
 3018 0185 6D5F7175 		.ascii	"m_queue\000"
 3018      65756500 
 3019              	.LASF41:
 3020 018d 636F6E74 		.ascii	"context\000"
 3020      65787400 
 3021              	.LASF50:
 3022 0195 725F6375 		.ascii	"r_current\000"
 3022      7272656E 
 3022      7400
 3023              	.LASF12:
 3024 019f 705F6D73 		.ascii	"p_msg\000"
 3024      6700
 3025              	.LASF90:
 3026 01a5 63684D73 		.ascii	"chMsgWait\000"
 3026      67576169 
 3026      7400
 3027              	.LASF19:
 3028 01af 756E7369 		.ascii	"unsigned char\000"
 3028      676E6564 
 3028      20636861 
 3028      7200
 3029              	.LASF55:
 3030 01bd 65776D61 		.ascii	"ewmask\000"
 3030      736B00
 3031              	.LASF18:
 3032 01c4 7369676E 		.ascii	"signed char\000"
 3032      65642063 
 3032      68617200 
 3033              	.LASF4:
 3034 01d0 705F6E65 		.ascii	"p_newer\000"
 3034      77657200 
 3035              	.LASF29:
 3036 01d8 6C6F6E67 		.ascii	"long long unsigned int\000"
 3036      206C6F6E 
 3036      6720756E 
 3036      7369676E 
 3036      65642069 
 3037              	.LASF100:
 3038 01ef 63685363 		.ascii	"chSchWakeupS\000"
 3038      6857616B 
 3038      65757053 
 3038      00
 3039              	.LASF17:
 3040 01fc 756E7369 		.ascii	"unsigned int\000"
 3040      676E6564 
 3040      20696E74 
 3040      00
 3041              	.LASF94:
 3042 0209 474E5520 		.ascii	"GNU C 4.7.4 20130913 (release) [ARM/embedded-4_7-br"
ARM GAS  /tmp/ccOy41Td.s 			page 79


 3042      4320342E 
 3042      372E3420 
 3042      32303133 
 3042      30393133 
 3043 023c 616E6368 		.ascii	"anch revision 202601]\000"
 3043      20726576 
 3043      6973696F 
 3043      6E203230 
 3043      32363031 
 3044              	.LASF64:
 3045 0252 76745F6E 		.ascii	"vt_next\000"
 3045      65787400 
 3046              	.LASF70:
 3047 025a 76697274 		.ascii	"virtual_timers_list_t\000"
 3047      75616C5F 
 3047      74696D65 
 3047      72735F6C 
 3047      6973745F 
 3048              	.LASF43:
 3049 0270 74687265 		.ascii	"threads_queue_t\000"
 3049      6164735F 
 3049      71756575 
 3049      655F7400 
 3050              	.LASF57:
 3051 0280 6D757465 		.ascii	"mutex\000"
 3051      7800
 3052              	.LASF40:
 3053 0286 74687265 		.ascii	"thread\000"
 3053      616400
 3054              	.LASF48:
 3055 028d 725F6E65 		.ascii	"r_newer\000"
 3055      77657200 
 3056              	.LASF8:
 3057 0295 705F666C 		.ascii	"p_flags\000"
 3057      61677300 
 3058              	.LASF89:
 3059 029d 63684D73 		.ascii	"chMsgSend\000"
 3059      6753656E 
 3059      6400
 3060              	.LASF15:
 3061 02a7 705F7265 		.ascii	"p_realprio\000"
 3061      616C7072 
 3061      696F00
 3062              	.LASF38:
 3063 02b2 73797374 		.ascii	"systime_t\000"
 3063      696D655F 
 3063      7400
 3064              	.LASF72:
 3065 02bc 726C6973 		.ascii	"rlist\000"
 3065      7400
 3066              	.LASF56:
 3067 02c2 63686172 		.ascii	"char\000"
 3067      00
 3068              	.LASF22:
 3069 02c7 75696E74 		.ascii	"uint16_t\000"
 3069      31365F74 
 3069      00
ARM GAS  /tmp/ccOy41Td.s 			page 80


 3070              	.LASF76:
 3071 02d0 6D757465 		.ascii	"mutex_t\000"
 3071      785F7400 
 3072              	.LASF24:
 3073 02d8 696E7433 		.ascii	"int32_t\000"
 3073      325F7400 
 3074              	.LASF46:
 3075 02e0 725F7072 		.ascii	"r_prio\000"
 3075      696F00
 3076              	.LASF7:
 3077 02e7 705F7374 		.ascii	"p_state\000"
 3077      61746500 
 3078              	.LASF23:
 3079 02ef 73686F72 		.ascii	"short unsigned int\000"
 3079      7420756E 
 3079      7369676E 
 3079      65642069 
 3079      6E7400
 3080              	.LASF84:
 3081 0302 5F426F6F 		.ascii	"_Bool\000"
 3081      6C00
 3082              	.LASF78:
 3083 0308 706F7274 		.ascii	"port_unlock\000"
 3083      5F756E6C 
 3083      6F636B00 
 3084              	.LASF10:
 3085 0314 705F7761 		.ascii	"p_waiting\000"
 3085      6974696E 
 3085      6700
 3086              	.LASF91:
 3087 031e 5F5F6675 		.ascii	"__func__.6100\000"
 3087      6E635F5F 
 3087      2E363130 
 3087      3000
 3088              	.LASF14:
 3089 032c 705F6D74 		.ascii	"p_mtxlist\000"
 3089      786C6973 
 3089      7400
 3090              	.LASF81:
 3091 0336 71756575 		.ascii	"queue_insert\000"
 3091      655F696E 
 3091      73657274 
 3091      00
 3092              	.LASF27:
 3093 0343 6C6F6E67 		.ascii	"long unsigned int\000"
 3093      20756E73 
 3093      69676E65 
 3093      6420696E 
 3093      7400
 3094              	.LASF80:
 3095 0355 5F5F7365 		.ascii	"__set_BASEPRI\000"
 3095      745F4241 
 3095      53455052 
 3095      4900
 3096              	.LASF99:
 3097 0363 63685363 		.ascii	"chSchReadyI\000"
 3097      68526561 
ARM GAS  /tmp/ccOy41Td.s 			page 81


 3097      64794900 
 3098              	.LASF83:
 3099 036f 63685379 		.ascii	"chSysUnlock\000"
 3099      73556E6C 
 3099      6F636B00 
 3100              	.LASF42:
 3101 037b 706F7274 		.ascii	"port_intctx\000"
 3101      5F696E74 
 3101      63747800 
 3102              	.LASF65:
 3103 0387 76745F70 		.ascii	"vt_prev\000"
 3103      72657600 
 3104              	.LASF95:
 3105 038f 2E2E2F2E 		.ascii	"../../../os/rt/src/chmsg.c\000"
 3105      2E2F2E2E 
 3105      2F6F732F 
 3105      72742F73 
 3105      72632F63 
 3106              	.LASF88:
 3107 03aa 63684D73 		.ascii	"chMsgReleaseS\000"
 3107      6752656C 
 3107      65617365 
 3107      5300
 3108              	.LASF54:
 3109 03b8 77746F62 		.ascii	"wtobjp\000"
 3109      6A7000
 3110              	.LASF66:
 3111 03bf 76745F64 		.ascii	"vt_delta\000"
 3111      656C7461 
 3111      00
 3112              	.LASF32:
 3113 03c8 74737461 		.ascii	"tstate_t\000"
 3113      74655F74 
 3113      00
 3114              	.LASF53:
 3115 03d1 65786974 		.ascii	"exitcode\000"
 3115      636F6465 
 3115      00
 3116              	.LASF61:
 3117 03da 76746675 		.ascii	"vtfunc_t\000"
 3117      6E635F74 
 3117      00
 3118              	.LASF5:
 3119 03e3 705F6F6C 		.ascii	"p_older\000"
 3119      64657200 
 3120              	.LASF51:
 3121 03eb 72656164 		.ascii	"ready_list_t\000"
 3121      795F6C69 
 3121      73745F74 
 3121      00
 3122              	.LASF9:
 3123 03f8 705F7265 		.ascii	"p_refs\000"
 3123      667300
 3124              	.LASF3:
 3125 03ff 705F6374 		.ascii	"p_ctx\000"
 3125      7800
 3126              	.LASF93:
ARM GAS  /tmp/ccOy41Td.s 			page 82


 3127 0405 49544D5F 		.ascii	"ITM_RxBuffer\000"
 3127      52784275 
 3127      66666572 
 3127      00
 3128              	.LASF59:
 3129 0412 6D5F6F77 		.ascii	"m_owner\000"
 3129      6E657200 
 3130              	.LASF16:
 3131 041a 705F6D70 		.ascii	"p_mpool\000"
 3131      6F6F6C00 
 3132              	.LASF63:
 3133 0422 76697274 		.ascii	"virtual_timer\000"
 3133      75616C5F 
 3133      74696D65 
 3133      7200
 3134              	.LASF73:
 3135 0430 76746C69 		.ascii	"vtlist\000"
 3135      737400
 3136              	.LASF35:
 3137 0437 6D73675F 		.ascii	"msg_t\000"
 3137      7400
 3138              	.LASF96:
 3139 043d 2F686F6D 		.ascii	"/home/joerg/repos/chibios-projects/ChibiOS-RT/demos"
 3139      652F6A6F 
 3139      6572672F 
 3139      7265706F 
 3139      732F6368 
 3140 0470 2F53544D 		.ascii	"/STM32/RT-STM32F103-OLIMEX_STM32_P103\000"
 3140      33322F52 
 3140      542D5354 
 3140      4D333246 
 3140      3130332D 
 3141              	.LASF49:
 3142 0496 725F6F6C 		.ascii	"r_older\000"
 3142      64657200 
 3143              	.LASF44:
 3144 049e 74687265 		.ascii	"threads_list_t\000"
 3144      6164735F 
 3144      6C697374 
 3144      5F7400
 3145              		.comm	__gnu_lto_v1,1,1
 3146              		.ident	"GCC: (GNU Tools for ARM Embedded Processors) 4.7.4 20130913 (release) [ARM/embedded-4_7-br
ARM GAS  /tmp/ccOy41Td.s 			page 83


DEFINED SYMBOLS
                            *ABS*:00000000 chmsg.c
     /tmp/ccOy41Td.s:393    .text.chMsgSend:00000000 $t
     /tmp/ccOy41Td.s:399    .text.chMsgSend:00000000 chMsgSend
     /tmp/ccOy41Td.s:505    .text.chMsgSend:0000003c $d
     /tmp/ccOy41Td.s:510    .text.chMsgWait:00000000 $t
     /tmp/ccOy41Td.s:516    .text.chMsgWait:00000000 chMsgWait
     /tmp/ccOy41Td.s:609    .text.chMsgWait:00000038 $d
     /tmp/ccOy41Td.s:614    .text.chMsgRelease:00000000 $t
     /tmp/ccOy41Td.s:620    .text.chMsgRelease:00000000 chMsgRelease
                            *COM*:00000001 __gnu_lto_v1
                     .debug_frame:00000010 $d
     /tmp/ccOy41Td.s:613    .text.chMsgWait:0000003c $t

UNDEFINED SYMBOLS
chSchGoSleepS
chSchReadyI
ch
chSchWakeupS
