ARM GAS  /tmp/cc8vM8pJ.s 			page 1


   1              		.syntax unified
   2              		.cpu cortex-m3
   3              		.fpu softvfp
   4              		.eabi_attribute 20, 1
   5              		.eabi_attribute 21, 1
   6              		.eabi_attribute 23, 3
   7              		.eabi_attribute 24, 1
   8              		.eabi_attribute 25, 1
   9              		.eabi_attribute 26, 1
  10              		.eabi_attribute 30, 2
  11              		.eabi_attribute 34, 1
  12              		.eabi_attribute 18, 4
  13              		.thumb
  14              		.file	"chregistry.c"
  15              		.text
  16              	.Ltext0:
  17              		.section	.gnu.lto_.jmpfuncs.ee7ff01da7abb72b,"",%progbits
  18 0000 789C6362 		.ascii	"x\234cb`d`g\300\0168\2404\023\003\003###\003\003\000"
  18      60646067 
  18      C00E38A0 
  18      34130303 
  18      23232303 
  19 0016 02620018 		.ascii	"\002b\000\030"
  20              		.text
  21              		.section	.gnu.lto_.inline.ee7ff01da7abb72b,"",%progbits
  22 0000 789C6362 		.ascii	"x\234cb`d\340e\300\0164\2414\023\003\003'\007#\003\023"
  22      6064E065 
  22      C00E34A1 
  22      34130303 
  22      27072303 
  23 0015 CF835806 		.ascii	"\317\203X\006\266\005\362L -\242@>\377\202\022\006\366"
  23      B605F24C 
  23      202DA240 
  23      3EFF8212 
  23      06F6
  24 0027 0E752606 		.ascii	"\016u&\006&n\006\006\306\011~\014\000n\211\005M"
  24      266E0606 
  24      C6097E0C 
  24      006E8905 
  24      4D
  25              		.text
  26              		.section	.gnu.lto_.pureconst.ee7ff01da7abb72b,"",%progbits
  27 0000 789C6362 		.ascii	"x\234cb`d`f```e\200\000&\006+F+\000\001\272\000\203"
  27      60646066 
  27      60606065 
  27      80002606 
  27      2B462B00 
  28              		.text
  29              		.section	.gnu.lto_chRegFirstThread.ee7ff01da7abb72b,"",%progbits
  30 0000 789C8D52 		.ascii	"x\234\215RMh\023A\024~o&i\323\366\322\223\330K]*\212"
  30      4D681341 
  30      147E6F26 
  30      69D3F6D2 
  30      93D84B5D 
  31 0016 3F25EB4D 		.ascii	"?%\353M\217\226\202\330C\016&\010\"lC\035\007\023h\232"
  31      8F9682D8 
  31      430E2608 
ARM GAS  /tmp/cc8vM8pJ.s 			page 2


  31      226C431D 
  31      0713689A 
  32 002a B0BB29AD 		.ascii	"\260\273)\255\227l\023\017^\224\"\212UQ\254XL\213\340"
  32      976C130F 
  32      5E94228A 
  32      5551AC58 
  32      4C8BE0
  33 003d 55145444 		.ascii	"U\024TD<\254\320\223\207\036\004\013\352]\364\344)\276"
  33      3CACD093 
  33      871E040B 
  33      EA5DF4E4 
  33      29BE
  34 004f 99D9A44D 		.ascii	"\231\331\244M\313\226\356\317\274\307{\357\373\336\233"
  34      CB96EECF 
  34      BCC77BEF 
  34      FBDE9B
  35 005e F98601D2 		.ascii	"\371\206\001\322\273\373\031\242\377\035\007xB\0269"
  35      BBFB19A2 
  35      FF1D0778 
  35      421639
  36 006d 205B5C07 		.ascii	" [\\\007X\260\030\242r\010RcX\273\250\221|\004\226\203"
  36      58B018A2 
  36      72085263 
  36      58BBA891 
  36      7C049683 
  37 0081 E0CEEF8F 		.ascii	"\340\316\357\217\365\203\365\315V\353\220T\321<B\270"
  37      F583F5CD 
  37      56EB9054 
  37      D13C42B8 
  38 0091 F48B0D81 		.ascii	"\364\213\015\201D\204\024(\313v6\212\301m\360}\240\026"
  38      44841428 
  38      CB76368A 
  38      C16DF07D 
  38      A016
  39 00a3 1BC1F908 		.ascii	"\033\301\371\010\305\031\034F\005\374v\314\000\255\010"
  39      C5191C46 
  39      05FC76CC 
  39      00AD08
  40 00b2 98E8067E 		.ascii	"\230\350\006~m\256\261\237\253=\357\331\207\315V\015"
  40      6DAEB19F 
  40      AB3DEFD9 
  40      87CD560D 
  41 00c2 6000C1C1 		.ascii	"`\000\301\301g8\002\214\354S\262\234\3542Yz\222p#\010"
  41      6738028C 
  41      EC53B29C 
  41      EC32597A 
  41      92702308 
  42 00d6 06D1E4F3 		.ascii	"\006\321\344\363\321\000\027\224U\273\317\022\267r\370"
  42      D1001794 
  42      55BBCF12 
  42      B772F8
  43 00e5 6760684A 		.ascii	"g`hJ#\0041<\247\310\036\303&\030\034\325\303\376\011"
  43      2304313C 
  43      A7C81EC3 
  43      26181CD5 
  43      C3FE09
  44 00f8 BFB78F27 		.ascii	"\277\267\217'f^\025LP\022\340\013\324\361\315\255{?"
ARM GAS  /tmp/cc8vM8pJ.s 			page 3


  44      665E154C 
  44      5012E00B 
  44      D4F1CDAD 
  44      7B3F
  45 010a CE7435A3 		.ascii	"\316t5\243\361^\320x\016\256t\265Tz6H2\232Q/\000\303"
  45      F15ED078 
  45      0EAE74B5 
  45      547A3648 
  45      329A512F 
  46 0120 70171F07 		.ascii	"p\027\037\007Kg\245\256\333\242\355\244\357G\351\036"
  46      4B67A5AE 
  46      DBA2EDA4 
  46      EF47E91E 
  47 0130 4D1042FD 		.ascii	"M\020B\375rx{\205\233\275\010\304\223p\202N\231k\323"
  47      72787B85 
  47      9BBD08C4 
  47      9370824E 
  47      996BD3
  48 0143 CB1FC203 		.ascii	"\313\037\302\003\224\230b\327\341_\220\222\330\207E"
  48      949862D7 
  48      E15F9092 
  48      D88745
  49 0152 7383146F 		.ascii	"s\203\024o\237\356\0170\251\226&\327\036\2717\315|t"
  49      9FEE0F30 
  49      A99626D7 
  49      1EB937CD 
  49      7C74
  50 0164 5C05436A 		.ascii	"\\\005Cj\016V\250\234\352\366i\365@\273\031\323]\372"
  50      0E56A89C 
  50      EAF669F5 
  50      40BB19D3 
  50      5DFA
  51 0176 A32E038C 		.ascii	"\243.\003\214j\0241\21767\211\254\275\317\020\032\265"
  51      6A14318F 
  51      363789AC 
  51      BDCF101A 
  51      B5
  52 0187 8DCE909C 		.ascii	"\215\316\220\234\240\252\260_\367'\322\211H\213x\276"
  52      A0AAB05F 
  52      F727D289 
  52      488B78BE 
  53 0197 4BDBF984 		.ascii	"K\333\371\204\012\355\3263F\326\030m\035l\022\237\022"
  53      0AEDD633 
  53      46D6186D 
  53      1D6C129F 
  53      12
  54 01a8 77EDEFBE 		.ascii	"w\355\357\276\304\205\275\304}\253\305}\035'\256\203"
  54      C485BDC4 
  54      7DABC57D 
  54      1D27AE83 
  55 01b8 2FC9D9E2 		.ascii	"/\311\331\342\211\324t\360\025\016\353\300:`\370(\331"
  55      89D474F0 
  55      150EEBC0 
  55      3A60F828 
  55      D9
  56 01c9 51B17D89 		.ascii	"Q\261}\211Q\337]Uk\245\323\266\371\312\236\355\372\266"
  56      51DF5D55 
ARM GAS  /tmp/cc8vM8pJ.s 			page 4


  56      6BA5D3B6 
  56      F9CA9EED 
  56      FAB6
  57 01db E70A5B14 		.ascii	"\347\012[\024\\y\255\350\371\356|Z\000\363+\311\331"
  57      5C79ADE8 
  57      F9EE7C5A 
  57      00F32BC9 
  57      D9
  58 01ec A9E9AA3C 		.ascii	"\251\351\252<\276\243\262Rv}\317\036\313f\3063s\004"
  58      BEA3B252 
  58      767DCF1E 
  58      CB66C633 
  58      7304
  59 01fe 116557E6 		.ascii	"\021eW\346gO\227\322\005\030\335^)\347|{<\223\233\310"
  59      674F97D2 
  59      0518DD5E 
  59      29E77C7B 
  59      3C939BC8 
  60 0212 D9C51931 		.ascii	"\331\305\0311]\275*m])J\347\2523\202\212\0073\271\254"
  60      5DBD2A6D 
  60      5D294AE7 
  60      AA33828A 
  60      0733B9AC 
  61 0226 7565CA93 		.ascii	"ue\312\223\025\2678j\0359\005\314\205\336\222,\225\335"
  61      15B7386A 
  61      1D3905CC 
  61      85DE922C 
  61      95DD
  62 0238 79F80F1B 		.ascii	"y\370\017\033\276\333\007"
  62      BEDB07
  63              		.text
  64              		.section	.gnu.lto_chRegNextThread.ee7ff01da7abb72b,"",%progbits
  65 0000 789C8D53 		.ascii	"x\234\215SMh\023A\024~of7\251\265h\216\352\241\206Z"
  65      4D681341 
  65      147E6F66 
  65      37A9B568 
  65      8EEAA186 
  66 0015 516BC916 		.ascii	"Qk\311\026<\350Q)\210=\344`\202\027!-\355:\332@\323"
  66      3CE85129 
  66      883DE460 
  66      8217212D 
  66      ED3ADA40 
  67 002a 844D5A5A 		.ascii	"\204MZZ/YS\321^\204\"\010U\021l\375w\255\340ED(\026"
  67      2F5953D1 
  67      5E842208 
  67      55116CFD 
  67      77ADE045 
  68 0041 510F6928 		.ascii	"Q\017i(\036\212\364P\260 \355A<\010z\021\204\370fv7"
  68      1E8AF450 
  68      B020ED41 
  68      3C087A11 
  68      84F86676 
  69 0056 696A533A 		.ascii	"ijS:I\366\315\316\274\357\233\367\276\371\302\000\351"
  69      49F6CDCE 
  69      BCEF9BF7 
  69      BEF9C200 
  69      E9
ARM GAS  /tmp/cc8vM8pJ.s 			page 5


  70 0067 F3FF3846 		.ascii	"\363\3778F\277k\032\3004E\324\001\331\304\002\300\225"
  70      BF6B1AC0 
  70      3445D401 
  70      D9C402C0 
  70      95
  71 0078 3063DA1C 		.ascii	"0c\332\034\202}\230\177.\001\330\035\0345w]C\224\023"
  71      827D987F 
  71      2E01D81D 
  71      1C35775D 
  71      439413
  72 008b A2CA33AE 		.ascii	"\242\3123\256a\376\234\342\344-0e\3337\177\276/\354"
  72      61FE9CE2 
  72      E42D3065 
  72      DB377FBE 
  72      2FEC
  73 009d 29AC94CB 		.ascii	")\254\224\313\373\205\\\355A(\316?j\332\013\002\021"
  73      FB855CED 
  73      4128CE3F 
  73      6ADA0B02 
  73      11
  74 00ae 1A4046B6 		.ascii	"\032@F\266\261\204:\270q}\033\250\2111\373\214\207\342"
  74      B1843AB8 
  74      717D1BA8 
  74      8931FB8C 
  74      87E2
  75 00c0 0C0EA004 		.ascii	"\014\016\240\004.:\303.2\354!\265Zd\311Yc\3133\201w"
  75      2E3AC32E 
  75      32EC21B5 
  75      5A64C959 
  75      63CB3381 
  76 00d5 6C6EA59C 		.ascii	"ln\245\234o\205\007\036\215b8\244\030J\316k\266\011"
  76      6F85071E 
  76      8D6238A4 
  76      184ACE6B 
  76      B609
  77 00e7 05654008 		.ascii	"\005e@\010!\201\323\330\002\014\023\370\020[\201{\357"
  77      2181D3D8 
  77      020C13F8 
  77      105B817B 
  77      EF
  78 00f8 3AC5FB14 		.ascii	":\305\373\024\003\024\247(\322\320\341\252m\207\230"
  78      0314A728 
  78      D2D0E1AA 
  78      6D8798
  79 0107 BB9F54CC 		.ascii	"\273\237T\314j\234\225Q*\030#f9\341\237\210\316\315"
  79      6A9C9551 
  79      2A182366 
  79      39E19F88 
  79      CECD
  80 0119 F64044F2 		.ascii	"\366@D\362\230V\266hWc\320\246(\247\347\277\256nVmu"
  80      9856B668 
  80      5763D0A6 
  80      28A7E7BF 
  80      AE6E566D 
  81 012e C8458D36 		.ascii	"\310E\2156\001\346\241\200\337o\334\372v\242\3460\352"
  81      01E6A180 
  81      DF6FDCFA 
ARM GAS  /tmp/cc8vM8pJ.s 			page 6


  81      76A2E630 
  81      EA
  82 013f E4195598 		.ascii	"\344\031U\230\300'5GJ\257\\\247\226\251F\365\000h\206"
  82      C0273547 
  82      4AAF5CA7 
  82      96A946F5 
  82      006886
  83 0152 49BC674F 		.ascii	"I\274gO\236\024*\257J[\331\276\353m\007\024A\021\012"
  83      9E142AAF 
  83      4A5BD9BE 
  83      EB6D0714 
  83      41110A
  84 0165 E78BB3AB 		.ascii	"\347\213\263\253\334\355\305D~\024\332HC~\007n\243\300"
  84      DCEDC544 
  84      7E14DA48 
  84      437E076E 
  84      A3C0
  85 0177 203351D5 		.ascii	" 3Q\325\315)\365\215|tW\257\230\004\031qa\256z\246\314"
  85      CD29F58D 
  85      7C7457AF 
  85      98041971 
  85      61AE7AA6 
  86 018c FA081FD6 		.ascii	"\372\010\037\326\360\267\263\257\302w\031\376\330\015"
  86      F0B7B3AF 
  86      C27719FE 
  86      D80D
  87 019a 021B5011 		.ascii	"\002\033P\021\357\340I\304n\222\001\226\202D\3614X#"
  87      EFE049C4 
  87      6E920196 
  87      8244F134 
  87      5823
  88 01ac 424C3290 		.ascii	"BL2\220\221\271\254j\371E\237O\242+l\343\272\242\270"
  88      91B9AC6A 
  88      F9459F4F 
  88      A22B6CE3 
  88      BAA2B8
  89 01bf 5F14A89A 		.ascii	"_\024\250\232\230\317P\204\261\374\270\356\343\002\004"
  89      98CF5084 
  89      B1FCB8EE 
  89      E30204
  90 01ce 95898DCA 		.ascii	"\225\211\215\312\230D\332\345\335Y}\276q\276\236\320"
  90      9844DAE5 
  90      DD597DBE 
  90      71BE9ED0 
  91 01de F454A2CA 		.ascii	"\364T\242\312\264\252\013\240\3220*\0256\330\242\216"
  91      B4AA0BA0 
  91      D2302A15 
  91      36D8A28E 
  92 01ee 3BEA5824 		.ascii	";\352X$\201\317\3514\351\021\347\327\266<\002[ydVy\344"
  92      81CFE934 
  92      E911E7D7 
  92      B63C025B 
  92      79645679 
  93 0203 6D3D8F24 		.ascii	"m=\217$\360%M\252<\236)\022\370\012\233\325B\011\264"
  93      F0254DAA 
  93      3C9E2912 
  93      F80A9BD5 
ARM GAS  /tmp/cc8vM8pJ.s 			page 7


  93      4209B4
  94 0216 E2D2EA6E 		.ascii	"\342\322\352n\277v\357\362vb\017\"z\2120\201M\000\013"
  94      BF76EFF2 
  94      76620F22 
  94      7A8A3081 
  94      4D000B
  95 0229 808B33BB 		.ascii	"\200\2133\273|\241\325\336\027@_E\366\327\271H\242\362"
  95      7CA1D5DE 
  95      17405F45 
  95      F6D7B948 
  95      A2F2
  96 023b 1F4EB3FC 		.ascii	"\037N\263\374+\241\322N\036\025\216D\014\367\233\316"
  96      2BA1D24E 
  96      1E158E44 
  96      0CF79BCE 
  97 024b 1A56CEC8 		.ascii	"\032V\316\310Z\246a\366[\342R2\233\263F#&\360\301\\"
  97      5AA661F6 
  97      5BE25232 
  97      9BB34623 
  97      26F0C15C 
  98 025f 86E532FA 		.ascii	"\206\3452\372p\357\300\2208\262!;\223\266rY\343T,\332"
  98      70EFC090 
  98      38B2213B 
  98      93B67259 
  98      E3542CDA 
  99 0273 191D2198 		.ascii	"\031\035!\230\231\266D\317\360\361T\244\037\332\327"
  99      99B644CF 
  99      F0F154A4 
  99      1FDAD7
 100 0282 678A919C 		.ascii	"g\212\221\234\321\031\215w\305\215\344\24090tA\030*"
 100      D1198D77 
 100      C58DE4A0 
 100      39307441 
 100      182A
 101 0294 D34C9D1E 		.ascii	"\323L\235\036\0324)9\024\215\307\302}\275Y\221\261\222"
 101      1A342939 
 101      148DC7C2 
 101      7DBD5991 
 101      B192
 102 02a6 EDE1831D 		.ascii	"\355\341\203\035\300,\010\246D*m\215\302?\345_\0127"
 102      C02C08A6 
 102      442A6D8D 
 102      C23FE55F 
 102      0A37
 103              		.text
 104              		.section	.gnu.lto_.cgraph.ee7ff01da7abb72b,"",%progbits
 105 0000 789C6362 		.ascii	"x\234cb`d`f``0f\200\002\246e\214\365\014\014\023\316"
 105      60646066 
 105      60603066 
 105      8002A665 
 105      8CF50C0C 
 106 0016 31D4D7CF 		.ascii	"1\324\327\317\353`dZ\316X\317\010\3471\256d\254g\002"
 106      EB60645A 
 106      CE58CF08 
 106      E731AE64 
 106      AC6702
 107 0029 F31A1A18 		.ascii	"\363\032\032\030\231\031\231\030\036\267\275\221g\000"
ARM GAS  /tmp/cc8vM8pJ.s 			page 8


 107      99199918 
 107      1EB7BD91 
 107      6700
 108 0037 00A41710 		.ascii	"\000\244\027\020\026"
 108      16
 109              		.text
 110              		.section	.gnu.lto_.vars.ee7ff01da7abb72b,"",%progbits
 111 0000 789C6362 		.ascii	"x\234cb`d`f``\340e\200\000\246\025\214\014\014\365\014"
 111      60646066 
 111      6060E065 
 111      8000A615 
 111      8C0C0CF5 
 112 0015 4B191959 		.ascii	"K\031\031Y\353\031\000\022\277\002i"
 112      EB190012 
 112      BF0269
 113              		.text
 114              		.section	.gnu.lto_.refs.ee7ff01da7abb72b,"",%progbits
 115 0000 789C6362 		.ascii	"x\234cb`d`f``\340b\200\000F\020dd\005\262\000\001\215"
 115      60646066 
 115      6060E062 
 115      80004610 
 115      646405B2 
 116 0017 001A     		.ascii	"\000\032"
 117              		.text
 118              		.section	.gnu.lto_.statics.ee7ff01da7abb72b,"",%progbits
 119 0000 789C6362 		.ascii	"x\234cb`d`b\300\016@\342\214\020&\000\000\375\000\011"
 119      60646062 
 119      C00E40E2 
 119      8C102600 
 119      00FD0009 
 120              		.text
 121              		.section	.gnu.lto_.decls.ee7ff01da7abb72b,"",%progbits
 122 0000 789CC55A 		.ascii	"x\234\305Z\177t\024\305\035\237\331\315\335\345\027"
 122      7F7414C5 
 122      1D9FD9CD 
 122      DDE517
 123 000f 21A2F262 		.ascii	"!\242\362b\237\232\330J\037\332\222K\204J|\376(-\276"
 123      9F9AD84A 
 123      1FDA924B 
 123      844A7CFE 
 123      282DBE
 124 0022 4AFBAA7D 		.ascii	"J\373\252}\317g\377\274w=.\233\344\352\375ro\303\017"
 124      CF67FFBC 
 124      773D2E9B 
 124      E4EAFD72 
 124      6FC30F
 125 0035 DB3FB660 		.ascii	"\333?\266`)?\372h\240\330\207\0200\004P\364Y~\250\374"
 125      293FFA68 
 125      A0D88710 
 125      300450F4 
 125      597EA8FC 
 126 0049 0828A198 		.ascii	"\010(\241\230R\304\003\305F1\0204\317\206\037j\212\362"
 126      52C403C5 
 126      46311034 
 126      CF861F6A 
 126      8AF2
 127 005b BC8AA6D1 		.ascii	"\274\212\246\321tfvgv\366n\3676{\341\275\356\313\315"
ARM GAS  /tmp/cc8vM8pJ.s 			page 9


 127      74667667 
 127      76F66EF7 
 127      367BE1BD 
 127      EECBCD
 128 006e CEECCE7C 		.ascii	"\316\354\316|\276\337\357g\2763\337\231\331\010\000"
 128      BEDFEF67 
 128      BE33DF99 
 128      D90800
 129 007d 027C95A3 		.ascii	"\002|\225\243\333(\272F\352\001x\302\003\200\210\236"
 129      DB28BA46 
 129      EA0178C2 
 129      0380889E 
 130 008d DD0B8C0B 		.ascii	"\335\013\214\013\227;\320\257\016\325\233\211~\002\312"
 130      973BD0AF 
 130      0ED59B89 
 130      7E02CA
 131 009c DF8DEE4F 		.ascii	"\337\215\356O@`\272p\235r\364\303\217+\364|'\372\355"
 131      4060BA70 
 131      9D72F4C3 
 131      8F2BF47C 
 131      27FAED
 132 00af 40BFDDE8 		.ascii	"@\277\335\350\341^\364\233\215~\367\240_\027\372\015"
 132      E15EF49B 
 132      8D7EF7A0 
 132      5F17FA0D 
 133 00bf A1E79B75 		.ascii	"\241\347\233u\374\037\243\362C\350\367\211\336\276C"
 133      FC1FA3F2 
 133      43E8F789 
 133      DEBE43
 134 00ce BFDF9D25 		.ascii	"\277\337\235%\003\3530\301A\006\306\334\257\313\302"
 134      03EB30C1 
 134      4106C6DC 
 134      AFCBC2
 135 00dd 320EA07B 		.ascii	"2\016\240{\003\324\344\374S\227\205\345\010Y6\275\002"
 135      03D4E4FC 
 135      539785E5 
 135      085936BD 
 135      02
 136 00ee 73E55583 		.ascii	"s\345U\203\215j\307@\333bu\316\227\243\243\276\311\340"
 136      8D6AC740 
 136      DB6275CE 
 136      97A3A3BE 
 136      C9E0
 137 0100 49155D1D 		.ascii	"I\025]\035KT\025*e`\271\252.\302\2059G+&\201U\370M\315"
 137      4B54152A 
 137      6560B9AA 
 137      2EC28539 
 137      472B2681 
 138 0118 51A4D40D 		.ascii	"Q\244\324\015 \000+J\220\015E$[\216\262\367\023q\002"
 138      20002B4A 
 138      900D4524 
 138      5B8EB2F7 
 138      137102
 139 012b 44C5CD70 		.ascii	"D\305\315p\022\270\035<\247\222K\227\246\337J\300\024"
 139      12B81D3C 
 139      A7924B97 
 139      A6DF4AC0 
ARM GAS  /tmp/cc8vM8pJ.s 			page 10


 139      14
 140 013c B0457FA1 		.ascii	"\260E\177\241U\004\250\301Vx;\350|\252\273'K3rM\272"
 140      5504A8C1 
 140      56783BE8 
 140      7CAABB27 
 140      4B33724D 
 141 0151 05742025 		.ascii	"\005t %\260~\336\000\354\204eHJ=\225\322\373\364\307"
 141      B07EDE00 
 141      EC846548 
 141      4A3D95D2 
 141      FBF4C7
 142 0164 90EA52C3 		.ascii	"\220\352R\303T)\002\200\345\265\213\326\321/\013\310"
 142      54290280 
 142      E5B58BD6 
 142      D12F0BC8 
 143 0174 060A3958 		.ascii	"\006\0129X\355\006\260&\007\260\004,58\343+\362`\204"
 143      ED06B026 
 143      07B0042C 
 143      3538E32B 
 143      F26084
 144 0187 84368D84 		.ascii	"\2046\215\204\027`\011\222\377C\250\363p\360\217\007"
 144      17600992 
 144      FF43A8F3 
 144      70F08F07 
 145 0197 8EDC4BC9 		.ascii	"\216\334K\311r\011\265\203@\375\226B\355Ys\362\210_"
 145      7209B583 
 145      40FD9642 
 145      ED5973F2 
 145      885F
 146 01a9 830A409F 		.ascii	"\203\012@\237a>-k\2654`\3555\315\341\2612\021\270o "
 146      613E2D6B 
 146      B53460ED 
 146      35CDE1B1 
 146      3211B86F 
 147 01be 80614889 		.ascii	"\200aH\211\354\374\250;-\346\347\262\330\266sT\302\245"
 147      ECFCA83B 
 147      2DE6E7B2 
 147      D8B67354 
 147      C2A5
 148 01d0 EE721D5E 		.ascii	"\356r\035^{\363\005\360;\342s/#\211\232z\274\203\275"
 148      7BF305F0 
 148      3BE2732F 
 148      23899A7A 
 148      BC83BD
 149 01e3 CC39D8F9 		.ascii	"\3149\330\371-\247\336\250\262p0\310u\236\263\303\013"
 149      2DA7DEA8 
 149      B27030C8 
 149      759EB3C3 
 149      0B
 150 01f4 4CFAAD44 		.ascii	"L\372\255D\372\016\"\275\313Rz\027'\375\322\263g&Z\010"
 150      FA0E22BD 
 150      CB527A17 
 150      27FDD2B3 
 150      67265A08 
 151 0208 2FB1131E 		.ascii	"/\261\023\036\200\367^?\206\036\177\2258\3579\0012#"
 151      80F75E3F 
 151      861E7F95 
ARM GAS  /tmp/cc8vM8pJ.s 			page 11


 151      38EF3901 
 151      3223
 152 021a BB8F55D3 		.ascii	"\273\217U\323\036\273\257\314\334\203\250L{\220\350"
 152      1EBBAFCC 
 152      DC83A84C 
 152      7B90E8
 153 0229 7E89E97E 		.ascii	"~\211\351~\351\331]o\3376\336\201\244\351r\231\201\246"
 153      E9D95D6F 
 153      DF36DE81 
 153      A4E97299 
 153      81A6
 154 023b 7F3ABE91 		.ascii	"\177:\276\221D\0213\014\261\327\001\321\336\237\314"
 154      4411330C 
 154      B1D701D1 
 154      DE9FCC
 155 024a 88571862 		.ascii	"\210W\030b\277+D{\035\207\031\342\240\003b\345\030u"
 155      BF2B447B 
 155      1D8719E2 
 155      A00362E5 
 155      1875
 156 025c FC9A210E 		.ascii	"\374\232!\016\271B\264\327Q\025)b\306\001\261j\214:"
 156      B942B4D7 
 156      51152962 
 156      C601B16A 
 156      8C3A
 157 026e 3EC11047 		.ascii	">\301\020G\\!\332\353\270\224!\366\374,?b\215\225\216"
 157      5C21DAEB 
 157      B89421F6 
 157      FC2C3F62 
 157      8D958E
 158 0281 393EC5B7 		.ascii	"9>\305\267\304C`\037dcB\000+D:s\234\337\322\367\206"
 158      C443601F 
 158      64634200 
 158      2B443A73 
 158      9CDFD2F7 
 159 0296 BF00FF67 		.ascii	"\277\000\377gP\177\022\331\264\367\225\313i\317\212"
 159      507F12D9 
 159      B4F795CB 
 159      69CF8A
 160 02a5 0C2D263D 		.ascii	"\014-&=\311@\323\333\234\342\234\263[i\230\033\030f"
 160      C940D3DB 
 160      9CE29CB3 
 160      5B69981B 
 160      1866
 161 02b7 EFD4F1B9 		.ascii	"\357\324\361\271\225i\272\322C\325\300\326CUk\271\351"
 161      9569BAD2 
 161      43D5C0D6 
 161      43556BB9 
 161      E9
 162 02c8 B298A1E1 		.ascii	"\262\230\241\341\320n\314\215\254\272ZUeW;\000O\303"
 162      D06ECC8D 
 162      ACBA5A55 
 162      65573B00 
 162      4FC3
 163 02da 29283D03 		.ascii	")(=\003K\230&z\236eG\311\272f\253\210\353[-\036\234"
 163      4B98267A 
 163      9E6547C9 
ARM GAS  /tmp/cc8vM8pJ.s 			page 12


 163      BA66AB88 
 163      EB5B2D1E 
 164 02ef 5BDBBBCA 		.ascii	"[\333\273\312{\274\253<ot\205\303<\231g\354|\266H\255"
 164      7BBCAB3C 
 164      6F7485C3 
 164      3C9967EC 
 164      7CB648AD 
 165 0303 F272A63B 		.ascii	"\362r\246;0\245O\361\037\220\240\276K4\026\010\273\263"
 165      30A54FF1 
 165      1F90A0BE 
 165      4B341608 
 165      BBB3
 166 0315 160863C7 		.ascii	"\026\010c\307\372\220`\355\027\215\025\302\356\257\005"
 166      FA9060ED 
 166      178D15C2 
 166      EEAF05
 167 0324 4A15CC5A 		.ascii	"J\025\314Z!@s\3007\310\243\334\271\253-\200\303\306"
 167      214073C0 
 167      37C8A3DC 
 167      B9AB2D80 
 167      C3C6
 168 0336 2079FD1D 		.ascii	" y\375\035c\220\230\325\035\303\214Q\030\217\027\210"
 168      639098D5 
 168      1DC38C51 
 168      188F1788 
 169 0346 EDC7381E 		.ascii	"\355\3078\036_\242<j\304\2705\347m\303\234e\247\334"
 169      5FA23C6A 
 169      C4B835E7 
 169      6DC39C65 
 169      A7DC
 170 0358 993375FC 		.ascii	"\2313u\374\346\014\021sNs\346\354\035\2379\037\032\346"
 170      E60C1173 
 170      4E73E6EC 
 170      1D9F391F 
 170      1AE6
 171 036a F4B934A7 		.ascii	"\364\2714\247\2163G[\271]\013V;\255\334\260Z\227\341"
 171      8E33475B 
 171      B95D0B56 
 171      3BADDCB0 
 171      5A97E1
 172 037d B52077DD 		.ascii	"\265 w\335\204\237\322uSz{\005\310\275\2128Q\2049\325"
 172      849FD275 
 172      537A7B05 
 172      C8BD8A38 
 172      518439D5 
 173 0391 C52A3943 		.ascii	"\305*9C\230\373\210c\356U\323\200r\203u\205`}\312\015"
 173      98FB8863 
 173      EE55D380 
 173      72837585 
 173      607DCA0D 
 174 03a5 A8EE23D3 		.ascii	"\250\356#\323(\351\336\254N\360\232;\001\277\306\322"
 174      28E9DEAC 
 174      4EF09A3B 
 174      01BFC6D2 
 175 03b5 BEC48B67 		.ascii	"\276\304\213g8J/H\337\341\202\017\\\015\010\264\342"
 175      384A2F48 
 175      DFE1820F 
ARM GAS  /tmp/cc8vM8pJ.s 			page 13


 175      5C0D08B4 
 175      E2
 176 03c6 211A6262 		.ascii	"!\032bb;\227}\340\024\237\200\251sAN\347R\012\277a\240"
 176      3B977DE0 
 176      149F80A9 
 176      73414EE7 
 176      520ABF61 
 177 03db 2385044F 		.ascii	"#\205\004OSt\272\017\007\247?\024Q\300\314\276\361n"
 177      5374BA0F 
 177      07A73F14 
 177      51C0CCBE 
 177      F16E
 178 03ed EC5C6F9E 		.ascii	"\354\\o\236T\001\333\264\262\310p\213\223\306\200\332"
 178      5401DBB4 
 178      B2C8708B 
 178      93C680DA 
 179 03fd 913DA0C6 		.ascii	"\221=\240\306\266\033Z\307\014\352\354\373\274 \332"
 179      B61B5AC7 
 179      0CEAECFB 
 179      BC20DA
 180 040c F54B009B 		.ascii	"\365K\000\233\212\350\360\034\271\253\200\225\221\273"
 180      8AE8F01C 
 180      B9AB8095 
 180      91BB
 181 041a 5D15CFCB 		.ascii	"]\025\317\313\022a\022\216\261\214\227\241\365\372\210"
 181      1261128E 
 181      B18C97A1 
 181      F5FA88
 182 0429 1C030E66 		.ascii	"\034\003\016fj\231`\2657\302O\351\030\357_\337\224m"
 182      6A9960B5 
 182      37C24FE9 
 182      18EF5FDF 
 182      946D
 183 043b 2F30EFCB 		.ascii	"/0\357\313\264\325K\000n\203\202\2168\270\276 \007\311"
 183      B4D54B00 
 183      6E83828E 
 183      38B8BE20 
 183      07C9
 184 044d BD780503 		.ascii	"\275x\005\003p\2710\005 \355V\010\267\030\314\277\314"
 184      70B93005 
 184      20ED5608 
 184      B718CCBF 
 184      CC
 185 045e 981FDC7F 		.ascii	"\230\037\334\177\336A\250\231\373\032\023\367*\307\375"
 185      DE41A899 
 185      FB1A13F7 
 185      2AC7FD
 186 046d 2C9EB359 		.ascii	",\236\263Y\246\225!\317\375J\302\375A\306}f]\026\367"
 186      A69521CF 
 186      FD4AC2FD 
 186      41C67D66 
 186      5D16F7
 187 0480 7970B069 		.ascii	"yp\260i\253,\271_\305s\277\316\212{\301\226{\334vp\335"
 187      AB2CB95F 
 187      C573BFCE 
 187      8A7BC196 
 187      7BDC7670 
ARM GAS  /tmp/cc8vM8pJ.s 			page 14


 188 0495 D5397509 		.ascii	"\3259u\011\300\347\031\346\320\267\334 \326\330\367"
 188      C0E719E6 
 188      D0B7DC20 
 188      D6D8F7
 189 04a4 E62AAE37 		.ascii	"\346*\2567W\243\336\024\002\360\317\310\234\000\\\303"
 189      57A3DE14 
 189      02F0CFC8 
 189      9C005CC3 
 190 04b4 F7E909D6 		.ascii	"\367\351\011\326\247\275\007\214>5\023H\363Sm\2151O"
 190      A7BD078C 
 190      3E351348 
 190      F3536D8D 
 190      314F
 191 04c6 877D0C33 		.ascii	"\207}\0143sw~c\352\034\351\321&\243\017\014\317\273"
 191      73777E63 
 191      EA1CE9D1 
 191      26A30F0C 
 191      CFBB
 192 04d8 C70D624D 		.ascii	"\307\015bM\016\242\343\301\206\012M\013\177\001|Ld\267"
 192      0EA2E3C1 
 192      860A4D0B 
 192      7F017C4C 
 192      64B7
 193 04ea 5B3A503B 		.ascii	"[:P;\347@\235o\236|\337\352XE\344\274\236:r\233\207"
 193      E7409D6F 
 193      9E7CDFEA 
 193      5845E4BC 
 193      9E3A729B 
 194 04ff 62F6EFAD 		.ascii	"b\366\357\255\310O\372\330<H\000k\031\344\320\251\212"
 194      C84FFAD8 
 194      3C48006B 
 194      19E4D0A9 
 194      8A
 195 0510 FC1C399D 		.ascii	"\374\0349\235\016\270\345\210\037\250[\211}\035\036"
 195      0EB8E588 
 195      1FA85B89 
 195      7D1D1E
 196 051f 3649BE5B 		.ascii	"6I\276[F\035R#\213\363\320v\316C7\"\017\025\003\360"
 196      461D5223 
 196      8BF3D076 
 196      CE433722 
 196      0F1503F0 
 197 0533 69E2A19B 		.ascii	"i\342\241\233H\272\331\360S\373Iu\213\300mN\2661\016"
 197      48BAD9F0 
 197      53FB4975 
 197      8BC06D4E 
 197      B6310E
 198 0546 46DC7150 		.ascii	"F\334qPc\3521{i\353yi;<l\235\330\365\233\374\322\032"
 198      63EA317B 
 198      69EB7969 
 198      3B3C6C9D 
 198      D8F59BFC 
 199 055c 1C3B513B 		.ascii	"\034;Q;\374\354b\220#\257:\315\260\015Y\272\346b\222"
 199      FCEC6290 
 199      23AF3ACD 
 199      B00D59BA 
 199      E66292
ARM GAS  /tmp/cc8vM8pJ.s 			page 15


 200 056f A5440F83 		.ascii	"\245D\017\203\034:\3504[\315\262R\323\221\024m\006c"
 200      1C3AE834 
 200      5BCDB252 
 200      D391146D 
 200      0663
 201 0581 C769F615 		.ascii	"\307i\366\0257\301\311z\356\021\221\222\230f\236\362"
 201      37C1C97A 
 201      EE119192 
 201      98669EF2 
 202 0591 C5D9939D 		.ascii	"\305\331\223\235]\"\025\367]\260\025\033\362\332\242"
 202      5D2215F7 
 202      5DB0151B 
 202      F2DAA2
 203 05a0 399A00DC 		.ascii	"9\232\000\334\252\003V\333\303\223\032\333\005\201\327"
 203      AA0356DB 
 203      C3931ADB 
 203      0581D7
 204 05af 39CF89BE 		.ascii	"9\317\211\276\206j\257\353.A\323U$\237\013t+\241\241"
 204      866AAFEB 
 204      2E41D355 
 204      249F0B74 
 204      2BA1A1
 205 05c2 395EF531 		.ascii	"9^\3651\325\323\337\323\236\335\0126\253\352j,\217\216"
 205      D5D3DFD3 
 205      9EDD0A36 
 205      ABEA6A2C 
 205      8F8E
 206 05d4 CA955E5C 		.ascii	"\312\225^\\g\247P\015\336+\261\021\246\333ge0n\267\317"
 206      67A7500D 
 206      DE2BB111 
 206      A6DB6765 
 206      306EB7CF 
 207 05e8 66B1A4EB 		.ascii	"f\261\244\353\371R\256\305\003mm\213;\254,\266=H%\007"
 207      F952AEC5 
 207      036D6D8B 
 207      3BAC2CB6 
 207      3D482507 
 208 05fc 42CE06AF 		.ascii	"B\316\006\257\362R\203\207\317]>\277T\344\005\007\340"
 208      F2528387 
 208      CF5D3EBF 
 208      54E40507 
 208      E0
 209 060d 7EB326DF 		.ascii	"~\263&\337\006\233\260&j\307\034u`t\264\332j\032\031"
 209      069BB026 
 209      6AC71C75 
 209      6074B4DA 
 209      6A1A19
 210 0620 30CE90BF 		.ascii	"0\316\220\277\017\314\323\310+d\0329\314\004v\366u\335"
 210      0FCCD3C8 
 210      2B641A39 
 210      CC0476F6 
 210      75DD
 211 0632 A4E18E01 		.ascii	"\244\341\216\001\010E5\322\260\333r\316\356\346\346"
 211      084535D2 
 211      B0DB72CE 
 211      EEE6E6
 212 0641 ECCC894E 		.ascii	"\354\314\211N\253\323\0221w\241b\226g\314\1777f)\376"
ARM GAS  /tmp/cc8vM8pJ.s 			page 16


 212      ABD31231 
 212      77A16296 
 212      67CC7F37 
 212      6629FE
 213 0654 1A51FC3D 		.ascii	"\032Q\374=\246xzcE\036\275\3158X\253#\226:\037\341t"
 213      A6787A63 
 213      451EBDCD 
 213      3858AB23 
 213      963A1FE1 
 214 0669 1E6CB75A 		.ascii	"\036l\267Z\250x-\242\3149\242\005n;\324\356\024\333"
 214      A8782DA2 
 214      CC39A205 
 214      6E3BD4EE 
 214      14DB
 215 067b B5CB7986 		.ascii	"\265\313y\206\3727\303\314\334Xh\224\241\253\005|\340"
 215      FA37C3CC 
 215      DC586894 
 215      A1AB057C 
 215      E0
 216 068c 28800C43 		.ascii	"(\200\014C\354\271\251\2009\333\"\024\0163\304\376\015"
 216      ECB9A980 
 216      39DB2214 
 216      0E33C4FE 
 216      0D
 217 069d 57EBB870 		.ascii	"W\353\270p\221\217b\016:h\351|\012\255!.g\210#\016\210"
 217      918F620E 
 217      3A68E97C 
 217      0AAD212E 
 217      6788230E 
 218 06b2 962769B9 		.ascii	"\226'i\271\027\357<\001\370\017\024P\221\254\243$\224"
 218      17EF3C01 
 218      F80F1450 
 218      91ACA324 
 218      94
 219 06c3 1E23699A 		.ascii	"\036#i\232\244'H\372\026I\337\346\227\202k|t\320\364"
 219      A42748FA 
 219      1649DFE6 
 219      97826B7C 
 219      74D0F4
 220 06d6 BE69B84B 		.ascii	"\276i\270K\226\217:\373\213\375\260\371\025k\215?\345"
 220      968F3AFB 
 220      8BFDB0F9 
 220      156B8D3F 
 220      E5
 221 06e7 F2A3E65D 		.ascii	"\362\243\346]\342\257\353|t\324\214\034\3173j\3140\330"
 221      E2AFEB7C 
 221      74D48C1C 
 221      CF336ACC 
 221      30D8
 222 06f9 EE3ECB41 		.ascii	"\356>\313A\323\307\015\232\2217\254\006M\221\253/^\006"
 222      D3C70D9A 
 222      9137AC06 
 222      4D91AB2F 
 222      5E06
 223 070b 11D765A9 		.ascii	"\021\327e\251\177\226\250\277\223\251\337\363\3720\264"
 223      7F96A8BF 
 223      93A9DFF3 
ARM GAS  /tmp/cc8vM8pJ.s 			page 17


 223      FA30B4
 224 071a D73F0B48 		.ascii	"\327?\013H\000\207H\303\001K#\006x#^\237ka\204\307\344"
 224      008748C3 
 224      014B2306 
 224      78235E9F 
 224      6B6184C7 
 225 072f 5BFD02F6 		.ascii	"[\375\002\366\255\023\014\261\347\330\370\267(\032\346"
 225      AD130CB1 
 225      E7D8F8B7 
 225      281AE6
 226 073e BB0C33ED 		.ascii	"\273\0143\355\360E\302\214h\032\001\352bu*=\221P\227"
 226      F045C28C 
 226      681A01EA 
 226      62752A3D 
 226      915097
 227 0751 A853B771 		.ascii	"\250S\267q\274T2\000!\213\337\213d\023\360>\343\367"
 227      BC543200 
 227      218BDF8B 
 227      6413F03E 
 227      E3F7
 228 0763 FC96978E 		.ascii	"\374\226\227\216\351\253\015\327X\237\020\254\213\014"
 228      E9AB0DD7 
 228      589F10AC 
 228      8B0C
 229 0771 6BCF9AB3 		.ascii	"k\317\232\263\177\027\351\000\022M\343\213\224\371\303"
 229      7F17E900 
 229      124DE38B 
 229      94F9C3
 230 0780 0DED35CD 		.ascii	"\015\3555\315\215\216\232\"\340\230\252\013\3402\243"
 230      8D8E9A22 
 230      E098AA0B 
 230      E032A3
 231 078f B1F3B927 		.ascii	"\261\363\271'\217\213\326\012\027\264Rw\023\355/gG\373"
 231      8F8BD60A 
 231      17B45277 
 231      13ED2F67 
 231      47FB
 232 07a1 FBCCC1DE 		.ascii	"\373\314\301\336\272%\317\343g\304)\206\031\217\375"
 232      BA25CFE3 
 232      67C42986 
 232      198FFD
 233 07b0 476928CD 		.ascii	"Gi(\315\372|\213E\331+\362\037\301\264x4\321\231\365"
 233      FA7C8B45 
 233      D92BF21F 
 233      C1B47834 
 233      D199F5
 234 07c3 4E008B8B 		.ascii	"N\000\213\213)w\375\307\234\226\307\316\301"
 234      2977FDC7 
 234      9C96C7CE 
 234      C1
 235 07d0 822C8F57 		.ascii	"\202,\217W0\310!\307\221b\031+r/~(\007\340\207h\036"
 235      30C821C7 
 235      9162192B 
 235      722F7E28 
 235      07E08768 
 236 07e5 F604E0BF 		.ascii	"\366\004\340\277\310|{\216\244\027H\372)I\257\214e\223"
 236      C87C7B8E 
ARM GAS  /tmp/cc8vM8pJ.s 			page 18


 236      A41748FA 
 236      2949AF8C 
 236      6593
 237 07f7 D36F6C3B 		.ascii	"\323ol;\002pP\020\364)\257\347\347Wcd\007\340y\206\330"
 237      02705010 
 237      F429AFE7 
 237      E7576364 
 237      07E07986 
 238 080c EB0AD144 		.ascii	"\353\012\321D*\031\331\332P\015\300K\014q0mt\224k\037"
 238      2A19D9DA 
 238      500DC04B 
 238      0C71306D 
 238      74946B1F 
 239 0820 E73005B0 		.ascii	"\3470\005\260\232\364\024\301|\320\015b\245}?\365q\375"
 239      9AF414C1 
 239      7CD00D62 
 239      A57D3FF5 
 239      71FD
 240 0832 741AF553 		.ascii	"t\032\365SQ\000\236!\275\362\025I\207I\372_>Fn,\246"
 240      51009E21 
 240      BDF21549 
 240      8749FA5F 
 240      3E466E2C 
 241 0847 3132F30B 		.ascii	"12\363\013\353xd\035\264s\375\317\365\261\354(aak\261"
 241      EB78641D 
 241      B473FDCF 
 241      F5B1EC28 
 241      61616BB1 
 242 085b 712CBB61 		.ascii	"q,\273a\334\307\262\177e\346tv\355:\356p,ky\374cEk7"
 242      DCC7B27F 
 242      65E67476 
 242      ED3AEE70 
 242      2C6B79FC 
 243 0873 47EBDFB4 		.ascii	"G\353\337\264}\375aB\345;$\375\206'\364\020\263'\375"
 243      7DFD6142 
 243      E53B24FD 
 243      8627F410 
 243      B327FD
 244 0886 D18BC6A2 		.ascii	"\321\213\306\242\303\274\240\307\240\213E\266\275\300"
 244      C3BCA0C7 
 244      A08B45B6 
 244      BDC0
 245 0894 5B8B9D87 		.ascii	"[\213\235\207\3602\203\337Z f!\037\002v\032av\262\211"
 245      F03283DF 
 245      5A206621 
 245      1F02761A 
 245      6176B289 
 246 08a8 4A1A93F3 		.ascii	"J\032\223\363T\016\300%\342\0240\206\212\270\352R\321"
 246      540EC025 
 246      E2143086 
 246      8AB8EA52 
 246      D1
 247 08b9 2A70E3A7 		.ascii	"*p\343\2474poO\277x\346\006\013\252&\261\005S\225\367"
 247      34706F4F 
 247      BF78E606 
 247      0BAA26B1 
 247      055395F7 
ARM GAS  /tmp/cc8vM8pJ.s 			page 19


 248 08cd 1AD0A61D 		.ascii	"\032\320\246\035dVi\037e\355g\203\025\3425$g\372FC\252"
 248      6456691F 
 248      65ED6783 
 248      15E23524 
 248      67FA4643 
 249 08e2 D8B7F9A3 		.ascii	"\330\267\371\243\036\331\214\201Ls\306\366\356\"\351"
 249      1ED98C81 
 249      4C73C6F6 
 249      EE22E9
 250 08f1 0AAC7766 		.ascii	"\012\254wf\217\257\340\231\205|\304\243\037X\277`\220"
 250      8FAFE099 
 250      857CC4A3 
 250      1F58BF60 
 250      90
 251 0902 235E5ADB 		.ascii	"#^Z\333\372;\232\031\261\306\026\361\033\206\330\343"
 251      FA3B9A19 
 251      B1C616F1 
 251      1B86D8E3 
 252 0912 738368FA 		.ascii	"s\203h\372\320\250\317+\332R`I\011EL3D\353y\305\214"
 252      D0A8CF2B 
 252      DA526049 
 252      09454C33 
 252      44EB79C5 
 253 0927 5867ABE3 		.ascii	"Xg\253\343*\206\330\353\240c\236\271\317\204\330\316"
 253      2A86D8EB 
 253      A0639EB9 
 253      CF84D8CE 
 254 0937 10FB5D21 		.ascii	"\020\373]!\026\333\"nc\210\203\256\020+m\021\3670\304"
 254      16DB226E 
 254      638883AE 
 254      102B6D11 
 254      F730C4
 255 094a 21578855 		.ascii	"!W\210U\266\210\207\031b\306\025\242\275\367\034g\210"
 255      B6888719 
 255      62C615A2 
 255      BDF71C67 
 255      88
 256 095b 23AE1073 		.ascii	"#\256\020s?SS\304\323\014\261\247\312\015\242\275\367"
 256      3F5353C4 
 256      D30CB1A7 
 256      CA0DA2BD 
 256      F7
 257 096c 5C30FCD1 		.ascii	"\\0\374\321\025b\203-\342\347\206?: \346\331\015\233"
 257      1562832D 
 257      E2E7863F 
 257      3A20E6D9 
 257      0D9B
 258 097e 10179732 		.ascii	"\020\027\2272\357q\205h\357\217m\014q\310\025\242\275"
 258      EF718568 
 258      EF8F6D0C 
 258      71C815A2 
 258      BD
 259 098f 3F6E6088 		.ascii	"?n`\210\031W\210\366\376\370\034C\034q\205h\357\217"
 259      195788F6 
 259      FEF81C43 
 259      1C718568 
 259      EF8F
ARM GAS  /tmp/cc8vM8pJ.s 			page 20


 260 09a1 FB1862FA 		.ascii	"\373\030b\372\0067\210S\001\177\321X\273\014\307\254"
 260      06378853 
 260      017FD158 
 260      BB0CC7AC 
 261 09b1 005C2EE2 		.ascii	"\000\\.\342(\273\222\244m$]M\3225$\375\013I\327\222"
 261      28BB92A4 
 261      6D245D4D 
 261      D23524FD 
 261      0B49D792 
 262 09c5 741D49DB 		.ascii	"t\035I\333I\272\221\244\035$\355$\351\026\222>C\322"
 262      49BA91A4 
 262      1D24ED24 
 262      E916923E 
 262      43D2
 263 09d7 6D247D9E 		.ascii	"m$}\236\244/\220t\273\310E\361\236R\032\305{\237\252"
 263      A42F9074 
 263      BBC845F1 
 263      9E521AC5 
 263      7B9FAA
 264 09ea A04A6911 		.ascii	"\240Ji\021\220\323\322\010\224\340\377\244\347\011\246"
 264      90D3D208 
 264      94E0FFA4 
 264      E709A6
 265 09f9 E717672F 		.ascii	"\347\027g/_8\352\311\023\325w\241\365\306\315\340T\351"
 265      5F38EAC9 
 265      13D577A1 
 265      F5C6CDE0 
 265      54E9
 266 0a0b 065573DA 		.ascii	"\006Us\332\351\340Eu\351\254\000\374=2BW\376fp\021\275"
 266      E9E04575 
 266      E9AC00FC 
 266      3D324257 
 266      FE667011 
 267 0a20 5E3B4B0F 		.ascii	"^;K\017\311\232-\030G[\214iV\321\362d\335>\\\306\301"
 267      C99A2D18 
 267      475B8C69 
 267      56D1F264 
 267      DD3E5CC6 
 268 0a35 58ADD34D 		.ascii	"X\255\323M\245\025\212t\243iY\320\315\247\345\373u\""
 268      A5158A74 
 268      A36959D0 
 268      CDA7E5FB 
 268      7522
 269 0a47 68B958A7 		.ascii	"h\271X\247\204\226\313urh\271R\247\211\226\257\323\011"
 269      8496CB75 
 269      7268B952 
 269      A78996AF 
 269      D309
 270 0a59 A3E52A9D 		.ascii	"\243\345*\235:^\341g\270\362\215:\235\264|\223N,-\337"
 270      3A5EE167 
 270      B8F28D3A 
 270      9DB47C93 
 270      4E2C2DDF 
 271 0a6d AC53CCB7 		.ascii	"\254S\314\267\337n*\003\300\0265k+\314\253\032s\200"
 271      DF6E2A03 
 271      C016356B 
 271      2BCCAB1A 
ARM GAS  /tmp/cc8vM8pJ.s 			page 21


 271      7380
 272 0a7f C54D7717 		.ascii	"\305Mw\027\260\252\331c\273\252\241\247\272\272\002"
 272      B0AAD963 
 272      BBAAA1A7 
 272      BABA02
 273 0a8e 35D9F21B 		.ascii	"5\331\362\033XM\237\216\265\267\000\371\373l\345{u\371"
 273      584D9F8E 
 273      B5B700F9 
 273      FB6CE57B 
 273      75F9
 274 0aa0 597B617C 		.ascii	"Y{a|\254m\017\327%\262m^V\273\327\362\266\333o\333n"
 274      AC6D0FD7 
 274      25B26D5E 
 274      56BBD7F2 
 274      B6DB6FDB 
 275 0ab5 5FDEBDF7 		.ascii	"_\336\275\367\001\243\035^R\277\365V\233\272\250j\021"
 275      01A31D5E 
 275      52BFF556 
 275      9BBAA86A 
 275      11
 276 0ac6 5E52F3B4 		.ascii	"^R\363\264\365q\264e}\370\263\3477\247b\000\036,\200"
 276      F571B465 
 276      7DF8B3E7 
 276      37A76200 
 276      1E2C80
 277 0ad9 E06E5B82 		.ascii	"\340n[\202\371\377!7\352\341\377\345.\245_\\z_\230l"
 277      F9FF2137 
 277      EAE1FFE5 
 277      2EA55F5C 
 277      7A5F986C 
 278 0aed AB8E00AE 		.ascii	"\253\216\000\256\224B\2751\311x\225\026Y\0125z\037x"
 278      9442BD31 
 278      C9789516 
 278      590A357A 
 278      1F78
 279 0aff E89735B3 		.ascii	"\350\2275\263AMm\255_\373K\244\374\262\342\217\304\303"
 279      414D6DAD 
 279      5FFB4BA4 
 279      FCB2E28F 
 279      C4C3
 280 0b11 D1D646C9 		.ascii	"\321\326F\311\037nI\205[\032k[\2007\031\214K\013\024"
 280      1F6E4985 
 280      5B1A6B5B 
 280      8037198C 
 280      4B0B14
 281 0b24 744BCAD2 		.ascii	"tK\312\322<\237\222\224#\211\2402#\253Y2!+)\377\217"
 281      3C9F9294 
 281      2389A032 
 281      23AB5932 
 281      212B29FF 
 282 0b39 1E7E70F6 		.ascii	"\036~p\366\203\013\374\341D,\031\211Jr\312\377\300\354"
 282      830BFCE1 
 282      442C1989 
 282      4A72CAFF 
 282      C0EC
 283 0b4b D9084959 		.ascii	"\331\010IY\230\224R\010\252\2705\022W\246\337\021T\024"
 283      98945208 
ARM GAS  /tmp/cc8vM8pJ.s 			page 22


 283      AAB83512 
 283      57A6DF11 
 283      5414
 284 0b5d 7F22A9E0 		.ascii	"\177\"\251\340\332\376\346pxZH\216M\213'\342\3224)4"
 284      DAFEE670 
 284      785A488E 
 284      4D8B27E2 
 284      D2342934 
 285 0b71 37326D46 		.ascii	"72mFp\346\264;\352\352\247?6\335?7\022\307\022\242\221"
 285      70E6B43B 
 285      EAEAA73F 
 285      36DD3F37 
 285      12C712A2 
 286 0b86 B9B89EDF 		.ascii	"\271\270\236\337T\317?\243vf\355\014?S\003\375\231\337"
 286      54CF3FA3 
 286      7666ED0C 
 286      3F5303FD 
 286      99DF
 287 0b98 5343524A 		.ascii	"SCRJ#\222\252\031\202u\367\205\023q\005\0314%\257\005"
 287      2392AA19 
 287      8275F785 
 287      13710519 
 287      3425AF05 
 288 0bac 2DE1842C 		.ascii	"-\341\204,\241Fe\370q\020\001\204\225\005\2679\267\010"
 288      A14665F8 
 288      71100184 
 288      9505B739 
 288      B708
 289 0bbe CE9B19C3 		.ascii	"\316\233\031\303\206\312R3\322&\250\010\362\014A\376"
 289      86CA5233 
 289      D226A808 
 289      F20C41FE 
 290 0bce 8120DF29 		.ascii	"\201 \337)\3103\005\271A\220\357\022\345\372:\364\253"
 290      C83305B9 
 290      4190EF12 
 290      E5FA3AF4 
 290      AB
 291 0bdf 17A232BA 		.ascii	"\027\2422\272M\367$\203\010\331\2079\236/\311\350\236"
 291      4DF72483 
 291      08D98739 
 291      9E2FC9E8 
 291      9E
 292 0bf0 88364A72 		.ascii	"\2106JrQ\270%$c\342C1\251XI)!E\012*>\314^\003\272'\203"
 292      51B82524 
 292      63E24331 
 292      A9584929 
 292      21450A2A 
 293 0c0b E4894F89 		.ascii	"\344\211O\211%\032%Rn\212\206\232S>E\226\232RA\334S"
 293      251A2552 
 293      6E8A869A 
 293      533E4596 
 293      9A5241DC 
 294 0c20 38E389A5 		.ascii	"8\343\211\245\232\321K\235q\257\334\270\020=(\226\026"
 294      9AD14B9D 
 294      71AFDCB8 
 294      103D2896 
 294      16
ARM GAS  /tmp/cc8vM8pJ.s 			page 23


 295 0c31 4494306A 		.ascii	"D\2240j\346\235\257$\346\376:Y&\315\223\342J,\224z\024"
 295      E69DAF24 
 295      E6FE3A59 
 295      26CD93E2 
 295      4A2C947A 
 296 0c46 5591E6E3 		.ascii	"U\221\346\343\214\230\014\266Vh.\222\012F#)%\250\224"
 296      8C980CB6 
 296      56682E92 
 296      0A462329 
 296      25A894
 297 0c59 2483F343 		.ascii	"$\203\363C\021%\022o\236H_<\326*\265\"\331\245\311 "
 297      1125126F 
 297      9E485F3C 
 297      D62AB522 
 297      D9A5C920 
 298 0c6d 4225050F 		.ascii	"B%\005\017\311\242\007RR\212#\312\233=\261V\304s\265"
 298      C9A20752 
 298      528A23CA 
 298      9B3DB156 
 298      C473B5
 299 0c80 AD7FC594 		.ascii	"\255\177\305\224\005\210*_L\303B\367\304\3748\242\200"
 299      05882A5F 
 299      4CC342F7 
 299      C4FC38A2 
 299      80
 300 0c91 B442DAC4 		.ascii	"\264B\332\304\210\333!\321\250\036V\243\024\233\025"
 300      88DB21D1 
 300      A81E56A3 
 300      149B15
 301 0ca0 8A922E44 		.ascii	"\212\222.D\017\223\211D\2642\334\362\260\324\374\223"
 301      0F938944 
 301      B432DCF2 
 301      B0D4FC93 
 302 0cb0 889C521E 		.ascii	"\210\234R\036!ze;sJ\016#A\2503P{yam\030L$-\036B\300"
 302      217A653B 
 302      734A0E23 
 302      41A83350 
 302      7B79616D 
 303 0ccb 5A034149 		.ascii	"Z\003AI\226\207[\036ii|X\212J\241\224\364\035[m\033"
 303      96875B1E 
 303      69697C58 
 303      8A4AA194 
 303      F41D5B6D 
 304 0ce0 17A2CE88 		.ascii	"\027\242\316\210\204\261K\204[\202\251\205)EB\375[\302"
 304      84B14B84 
 304      5B82A985 
 304      294542FD 
 304      5BC2
 305 0cf2 F2E5186E 		.ascii	"\362\345\030n\241N\230O\326\214\362\312\304\345<2\351"
 305      A14E984F 
 305      D68CF2CA 
 305      C4E53C32 
 305      E9
 306 0d03 6459EF64 		.ascii	"dY\357dY\353\344\022\364\264U\226\021\377\036\0317\273"
 306      59EBE412 
 306      F4B45596 
 306      11FF1E19 
ARM GAS  /tmp/cc8vM8pJ.s 			page 24


 306      37BB
 307 0d15 7E5E4456 		.ascii	"~^DVZC\321\240\022\211\241\261\243CM4=\015*\023Le\337"
 307      5A43D1A0 
 307      1289A1B1 
 307      A3434D34 
 307      3D0D2A13 
 308 0d2c 3C85D084 		.ascii	"<\205\320\204\357xx\226`e\320\213\240B\306Z\375\235"
 308      EF787896 
 308      6065D08B 
 308      A042C65A 
 308      FD9D
 309 0d3e 28835E35 		.ascii	"(\203^5JQ%\2042M\255\361p\220T\3069/n\024\222\313\320"
 309      4A512584 
 309      324DADF1 
 309      709054C6 
 309      392F6E14 
 310 0d55 2D1A4A29 		.ascii	"-\032J)\270\035z\204\305\372d%\034G\302'\305\020)\255"
 310      B81D7A84 
 310      C5FA6425 
 310      1C47C227 
 310      C51029AD 
 311 0d69 B214434A 		.ascii	"\262\024CJ\006\023MM)I\021\302-\267\332\222\304\230"
 311      06134D4D 
 311      294911C2 
 311      2DB7DA92 
 311      C498
 312 0d7b 6E011310 		.ascii	"n\001\023\0203\221F\324.\322\024Az\242\322\343\222\234"
 312      339146D4 
 312      2ED21441 
 312      7AA2D2E3 
 312      929C
 313 0d8d C0F754E4 		.ascii	"\300\367T\344q\251\024\335\347!##\2118\316&\025\031"
 313      71A914DD 
 313      E7212323 
 313      8938CE26 
 313      1519
 314 0d9f 3FC5CC62 		.ascii	"?\305\314b-p\036\267\327\235\215\274i\302\362\011\233"
 314      2D701EB7 
 314      D79D8DBC 
 314      69C2F209 
 314      9B
 315 0db0 A57A1E51 		.ascii	"\245z\036QZ\256g\011\257\264@\310\245\015\360\010\232"
 315      5AAE6709 
 315      AFB440C8 
 315      A50DF008 
 315      9A
 316 0dc1 A8E753CA 		.ascii	"\250\347S\312\243\321H,\242\224\2632\032E\264@\206\020"
 316      A3D1482C 
 316      A294B332 
 316      1A45B440 
 316      8610
 317 0dd3 6D85C74F 		.ascii	"m\205\307O\005\023)I\261\244B_a\375P\2577Js[\321\360"
 317      05132949 
 317      B1A4425F 
 317      61FD50AF 
 317      374A735B 
 318 0de9 2A465A92 		.ascii	"*FZ\222le\255\234h\014)\241Z\372\300\023\013E\342\240"
ARM GAS  /tmp/cc8vM8pJ.s 			page 25


 318      6C65AD9C 
 318      680C29A1 
 318      5AFAC013 
 318      0B45E2A0 
 319 0dfd 3848980E 		.ascii	"8H\230\016\006'\320L\355\235\365u3\376\007\204\005\266"
 319      0627D04C 
 319      ED9DF575 
 319      33FE0784 
 319      05B6
 320 0e0f C2       		.ascii	"\302"
 321              		.text
 322              		.section	.gnu.lto_.symtab.ee7ff01da7abb72b,"",%progbits
 323 0000 63685265 		.ascii	"chRegFirstThread\000\000\000\000\000\000\000\000\000"
 323      67466972 
 323      73745468 
 323      72656164 
 323      00000000 
 324 0019 000000A0 		.ascii	"\000\000\000\240\000\000\000chRegNextThread\000\000"
 324      00000063 
 324      68526567 
 324      4E657874 
 324      54687265 
 325 0031 00000000 		.ascii	"\000\000\000\000\000\000\000\000\000\0000\001\000\000"
 325      00000000 
 325      00003001 
 325      0000
 326 003f 63685468 		.ascii	"chThdRelease\000\000\002\000\000\000\000\000\000\000"
 326      6452656C 
 326      65617365 
 326      00000200 
 326      00000000 
 327 0055 00003701 		.ascii	"\000\0007\001\000\000ch_debug\000\000\000\000\000\000"
 327      00006368 
 327      5F646562 
 327      75670000 
 327      00000000 
 328 0069 00000000 		.ascii	"\000\000\000\000\000\000\204\001\000\000ch\000\000\002"
 328      00008401 
 328      00006368 
 328      000002
 329 0078 00000000 		.ascii	"\000\000\000\000\000\000\000\000\000;\001\000\000"
 329      00000000 
 329      003B0100 
 329      00
 330              		.text
 331              		.section	.gnu.lto_.opts,"",%progbits
 332 0000 272D6D63 		.ascii	"'-mcpu=cortex-m3''-mno-thumb-interwork''-mthumb''-g"
 332      70753D63 
 332      6F727465 
 332      782D6D33 
 332      27272D6D 
 333 0033 67646227 		.ascii	"gdb''-O2''-fomit-frame-pointer''-falign-functions=1"
 333      272D4F32 
 333      27272D66 
 333      6F6D6974 
 333      2D667261 
 334 0066 3627272D 		.ascii	"6''-ffunction-sections''-fdata-sections''-fno-commo"
ARM GAS  /tmp/cc8vM8pJ.s 			page 26


 334      6666756E 
 334      6374696F 
 334      6E2D7365 
 334      6374696F 
 335 0099 6E27272D 		.ascii	"n''-flto'\000"
 335      666C746F 
 335      2700
 336              		.text
 337              		.cfi_sections	.debug_frame
 338              		.section	.text.chRegFirstThread,"ax",%progbits
 339              		.align	2
 340              		.p2align 4,,15
 341              		.global	chRegFirstThread
 342              		.thumb
 343              		.thumb_func
 344              		.type	chRegFirstThread, %function
 345              	chRegFirstThread:
 346              	.LFB165:
 347              		.file 1 "../../../os/rt/src/chregistry.c"
 348              		.loc 1 130 0
 349              		.cfi_startproc
 350              		@ args = 0, pretend = 0, frame = 0
 351              		@ frame_needed = 0, uses_anonymous_args = 0
 352              		@ link register save eliminated.
 353              	.LVL0:
 354              	.LBB34:
 355              	.LBB35:
 356              	.LBB36:
 357              	.LBB37:
 358              		.file 2 "../../../os/ext/CMSIS/include/core_cmFunc.h"
 359              		.loc 2 546 0
 360 0000 2023     		movs	r3, #32
 361              	@ 546 "../../../os/ext/CMSIS/include/core_cmFunc.h" 1
 362 0002 83F31188 		MSR basepri, r3
 363              	@ 0 "" 2
 364              		.thumb
 365              	.LBE37:
 366              	.LBE36:
 367              	.LBE35:
 368              	.LBE34:
 369              		.loc 1 134 0
 370 0006 40F20000 		movw	r0, #:lower16:ch
 371 000a C0F20000 		movt	r0, #:upper16:ch
 372 000e 0069     		ldr	r0, [r0, #16]
 373              	.LVL1:
 374              	.LBB38:
 375              	.LBB39:
 376              	.LBB40:
 377              	.LBB41:
 378              	.LBB42:
 379              		.loc 2 546 0
 380 0010 0023     		movs	r3, #0
 381              	.LBE42:
 382              	.LBE41:
 383              	.LBE40:
 384              	.LBE39:
 385              	.LBE38:
ARM GAS  /tmp/cc8vM8pJ.s 			page 27


 386              		.loc 1 136 0
 387 0012 817F     		ldrb	r1, [r0, #30]	@ zero_extendqisi2
 388 0014 4A1C     		adds	r2, r1, #1
 389 0016 8277     		strb	r2, [r0, #30]
 390              	.LVL2:
 391              	.LBB47:
 392              	.LBB46:
 393              	.LBB45:
 394              	.LBB44:
 395              	.LBB43:
 396              		.loc 2 546 0
 397              	@ 546 "../../../os/ext/CMSIS/include/core_cmFunc.h" 1
 398 0018 83F31188 		MSR basepri, r3
 399              	@ 0 "" 2
 400              		.thumb
 401              	.LBE43:
 402              	.LBE44:
 403              	.LBE45:
 404              	.LBE46:
 405              	.LBE47:
 406              		.loc 1 140 0
 407 001c 7047     		bx	lr
 408              		.cfi_endproc
 409              	.LFE165:
 410              		.size	chRegFirstThread, .-chRegFirstThread
 411 001e 00BF     		.section	.text.chRegNextThread,"ax",%progbits
 412              		.align	2
 413              		.p2align 4,,15
 414              		.global	chRegNextThread
 415              		.thumb
 416              		.thumb_func
 417              		.type	chRegNextThread, %function
 418              	chRegNextThread:
 419              	.LFB166:
 420              		.loc 1 153 0
 421              		.cfi_startproc
 422              		@ args = 0, pretend = 0, frame = 0
 423              		@ frame_needed = 0, uses_anonymous_args = 0
 424              	.LVL3:
 425 0000 10B5     		push	{r4, lr}
 426              	.LCFI0:
 427              		.cfi_def_cfa_offset 8
 428              		.cfi_offset 4, -8
 429              		.cfi_offset 14, -4
 430              	.LBB48:
 431              	.LBB49:
 432              	.LBB50:
 433              	.LBB51:
 434              		.loc 2 546 0
 435 0002 2023     		movs	r3, #32
 436              	@ 546 "../../../os/ext/CMSIS/include/core_cmFunc.h" 1
 437 0004 83F31188 		MSR basepri, r3
 438              	@ 0 "" 2
 439              		.thumb
 440              	.LBE51:
 441              	.LBE50:
 442              	.LBE49:
ARM GAS  /tmp/cc8vM8pJ.s 			page 28


 443              	.LBE48:
 444              		.loc 1 158 0
 445 0008 0749     		ldr	r1, .L6
 446              		.loc 1 157 0
 447 000a 0469     		ldr	r4, [r0, #16]
 448              	.LVL4:
 449              		.loc 1 158 0
 450 000c 8C42     		cmp	r4, r1
 451 000e 09D0     		beq	.L4
 452              		.loc 1 163 0
 453 0010 A27F     		ldrb	r2, [r4, #30]	@ zero_extendqisi2
 454 0012 531C     		adds	r3, r2, #1
 455 0014 A377     		strb	r3, [r4, #30]
 456              	.LVL5:
 457              	.L3:
 458              	.LBB52:
 459              	.LBB53:
 460              	.LBB54:
 461              	.LBB55:
 462              	.LBB56:
 463              		.loc 2 546 0
 464 0016 0021     		movs	r1, #0
 465              	@ 546 "../../../os/ext/CMSIS/include/core_cmFunc.h" 1
 466 0018 81F31188 		MSR basepri, r1
 467              	@ 0 "" 2
 468              		.thumb
 469              	.LBE56:
 470              	.LBE55:
 471              	.LBE54:
 472              	.LBE53:
 473              	.LBE52:
 474              		.loc 1 168 0
 475 001c FFF7FEFF 		bl	chThdRelease
 476              	.LVL6:
 477              		.loc 1 171 0
 478 0020 2046     		mov	r0, r4
 479 0022 10BD     		pop	{r4, pc}
 480              	.LVL7:
 481              	.L4:
 482              		.loc 1 159 0
 483 0024 0024     		movs	r4, #0
 484              	.LVL8:
 485 0026 F6E7     		b	.L3
 486              	.L7:
 487              		.align	2
 488              	.L6:
 489 0028 00000000 		.word	ch
 490              		.cfi_endproc
 491              	.LFE166:
 492              		.size	chRegNextThread, .-chRegNextThread
 493              		.global	ch_debug
 494 002c AFF30080 		.section	.rodata.ch_debug,"a",%progbits
 495              		.align	2
 496              		.type	ch_debug, %object
 497              		.size	ch_debug, 22
 498              	ch_debug:
 499 0000 6D61696E 		.ascii	"main"
ARM GAS  /tmp/cc8vM8pJ.s 			page 29


 500 0004 00       		.byte	0
 501 0005 16       		.byte	22
 502 0006 0018     		.short	6144
 503 0008 04       		.byte	4
 504 0009 02       		.byte	2
 505 000a 44       		.byte	68
 506 000b 08       		.byte	8
 507 000c 0C       		.byte	12
 508 000d 10       		.byte	16
 509 000e 14       		.byte	20
 510 000f 18       		.byte	24
 511 0010 00       		.byte	0
 512 0011 1C       		.byte	28
 513 0012 1D       		.byte	29
 514 0013 1E       		.byte	30
 515 0014 00       		.byte	0
 516 0015 00       		.byte	0
 517 0016 0000     		.text
 518              	.Letext0:
 519              		.file 3 "../../../os/rt/include/chschd.h"
 520              		.file 4 "/opt/ARM/gcc-arm-none-eabi-4_7-2013q3/bin/../lib/gcc/arm-none-eabi/4.7.4/include/stddef.h
 521              		.file 5 "/opt/ARM/gcc-arm-none-eabi-4_7-2013q3/bin/../lib/gcc/arm-none-eabi/4.7.4/../../../../arm-
 522              		.file 6 "../../../os/rt/ports/ARMCMx/compilers/GCC/chtypes.h"
 523              		.file 7 "../../../os/rt/ports/ARMCMx/chcore.h"
 524              		.file 8 "../../../os/rt/ports/ARMCMx/chcore_v7m.h"
 525              		.file 9 "../../../os/rt/include/chmtx.h"
 526              		.file 10 "../../../os/rt/include/chregistry.h"
 527              		.file 11 "../../../os/rt/include/chsys.h"
 528              		.file 12 "../../../os/ext/CMSIS/include/core_cm3.h"
 529              		.file 13 "../../../os/rt/include/chdynamic.h"
 530              		.section	.debug_info,"",%progbits
 531              	.Ldebug_info0:
 532 0000 A6080000 		.4byte	0x8a6
 533 0004 0200     		.2byte	0x2
 534 0006 00000000 		.4byte	.Ldebug_abbrev0
 535 000a 04       		.byte	0x4
 536 000b 01       		.uleb128 0x1
 537 000c F8000000 		.4byte	.LASF106
 538 0010 01       		.byte	0x1
 539 0011 F7030000 		.4byte	.LASF107
 540 0015 33040000 		.4byte	.LASF108
 541 0019 60000000 		.4byte	.Ldebug_ranges0+0x60
 542 001d 00000000 		.4byte	0
 543 0021 00000000 		.4byte	0
 544 0025 00000000 		.4byte	.Ldebug_line0
 545 0029 02       		.uleb128 0x2
 546 002a 5D010000 		.4byte	.LASF41
 547 002e 44       		.byte	0x44
 548 002f 03       		.byte	0x3
 549 0030 79       		.byte	0x79
 550 0031 32010000 		.4byte	0x132
 551 0035 03       		.uleb128 0x3
 552 0036 20030000 		.4byte	.LASF0
 553 003a 03       		.byte	0x3
 554 003b 7A       		.byte	0x7a
 555 003c F3020000 		.4byte	0x2f3
 556 0040 02       		.byte	0x2
ARM GAS  /tmp/cc8vM8pJ.s 			page 30


 557 0041 23       		.byte	0x23
 558 0042 00       		.uleb128 0
 559 0043 03       		.uleb128 0x3
 560 0044 CB020000 		.4byte	.LASF1
 561 0048 03       		.byte	0x3
 562 0049 7C       		.byte	0x7c
 563 004a F3020000 		.4byte	0x2f3
 564 004e 02       		.byte	0x2
 565 004f 23       		.byte	0x23
 566 0050 04       		.uleb128 0x4
 567 0051 03       		.uleb128 0x3
 568 0052 91000000 		.4byte	.LASF2
 569 0056 03       		.byte	0x3
 570 0057 7E       		.byte	0x7e
 571 0058 E0010000 		.4byte	0x1e0
 572 005c 02       		.byte	0x2
 573 005d 23       		.byte	0x23
 574 005e 08       		.uleb128 0x8
 575 005f 03       		.uleb128 0x3
 576 0060 88020000 		.4byte	.LASF3
 577 0064 03       		.byte	0x3
 578 0065 7F       		.byte	0x7f
 579 0066 20020000 		.4byte	0x220
 580 006a 02       		.byte	0x2
 581 006b 23       		.byte	0x23
 582 006c 0C       		.uleb128 0xc
 583 006d 03       		.uleb128 0x3
 584 006e 79010000 		.4byte	.LASF4
 585 0072 03       		.byte	0x3
 586 0073 81       		.byte	0x81
 587 0074 F3020000 		.4byte	0x2f3
 588 0078 02       		.byte	0x2
 589 0079 23       		.byte	0x23
 590 007a 10       		.uleb128 0x10
 591 007b 03       		.uleb128 0x3
 592 007c 7A020000 		.4byte	.LASF5
 593 0080 03       		.byte	0x3
 594 0081 82       		.byte	0x82
 595 0082 F3020000 		.4byte	0x2f3
 596 0086 02       		.byte	0x2
 597 0087 23       		.byte	0x23
 598 0088 14       		.uleb128 0x14
 599 0089 03       		.uleb128 0x3
 600 008a F7040000 		.4byte	.LASF6
 601 008e 03       		.byte	0x3
 602 008f 89       		.byte	0x89
 603 0090 C3030000 		.4byte	0x3c3
 604 0094 02       		.byte	0x2
 605 0095 23       		.byte	0x23
 606 0096 18       		.uleb128 0x18
 607 0097 03       		.uleb128 0x3
 608 0098 0A030000 		.4byte	.LASF7
 609 009c 03       		.byte	0x3
 610 009d 94       		.byte	0x94
 611 009e CA010000 		.4byte	0x1ca
 612 00a2 02       		.byte	0x2
 613 00a3 23       		.byte	0x23
ARM GAS  /tmp/cc8vM8pJ.s 			page 31


 614 00a4 1C       		.uleb128 0x1c
 615 00a5 03       		.uleb128 0x3
 616 00a6 3E030000 		.4byte	.LASF8
 617 00aa 03       		.byte	0x3
 618 00ab 98       		.byte	0x98
 619 00ac BF010000 		.4byte	0x1bf
 620 00b0 02       		.byte	0x2
 621 00b1 23       		.byte	0x23
 622 00b2 1D       		.uleb128 0x1d
 623 00b3 03       		.uleb128 0x3
 624 00b4 CF040000 		.4byte	.LASF9
 625 00b8 03       		.byte	0x3
 626 00b9 9D       		.byte	0x9d
 627 00ba D5010000 		.4byte	0x1d5
 628 00be 02       		.byte	0x2
 629 00bf 23       		.byte	0x23
 630 00c0 1E       		.uleb128 0x1e
 631 00c1 04       		.uleb128 0x4
 632 00c2 705F7500 		.ascii	"p_u\000"
 633 00c6 03       		.byte	0x3
 634 00c7 CF       		.byte	0xcf
 635 00c8 8E030000 		.4byte	0x38e
 636 00cc 02       		.byte	0x2
 637 00cd 23       		.byte	0x23
 638 00ce 20       		.uleb128 0x20
 639 00cf 03       		.uleb128 0x3
 640 00d0 4F020000 		.4byte	.LASF10
 641 00d4 03       		.byte	0x3
 642 00d5 D4       		.byte	0xd4
 643 00d6 1B030000 		.4byte	0x31b
 644 00da 02       		.byte	0x2
 645 00db 23       		.byte	0x23
 646 00dc 24       		.uleb128 0x24
 647 00dd 03       		.uleb128 0x3
 648 00de D4010000 		.4byte	.LASF11
 649 00e2 03       		.byte	0x3
 650 00e3 DA       		.byte	0xda
 651 00e4 F9020000 		.4byte	0x2f9
 652 00e8 02       		.byte	0x2
 653 00e9 23       		.byte	0x23
 654 00ea 28       		.uleb128 0x28
 655 00eb 03       		.uleb128 0x3
 656 00ec 19050000 		.4byte	.LASF12
 657 00f0 03       		.byte	0x3
 658 00f1 DE       		.byte	0xde
 659 00f2 EB010000 		.4byte	0x1eb
 660 00f6 02       		.byte	0x2
 661 00f7 23       		.byte	0x23
 662 00f8 30       		.uleb128 0x30
 663 00f9 03       		.uleb128 0x3
 664 00fa 7A030000 		.4byte	.LASF13
 665 00fe 03       		.byte	0x3
 666 00ff E4       		.byte	0xe4
 667 0100 F6010000 		.4byte	0x1f6
 668 0104 02       		.byte	0x2
 669 0105 23       		.byte	0x23
 670 0106 34       		.uleb128 0x34
ARM GAS  /tmp/cc8vM8pJ.s 			page 32


 671 0107 03       		.uleb128 0x3
 672 0108 F6020000 		.4byte	.LASF14
 673 010c 03       		.byte	0x3
 674 010d EB       		.byte	0xeb
 675 010e 0C040000 		.4byte	0x40c
 676 0112 02       		.byte	0x2
 677 0113 23       		.byte	0x23
 678 0114 38       		.uleb128 0x38
 679 0115 03       		.uleb128 0x3
 680 0116 E3030000 		.4byte	.LASF15
 681 011a 03       		.byte	0x3
 682 011b EF       		.byte	0xef
 683 011c E0010000 		.4byte	0x1e0
 684 0120 02       		.byte	0x2
 685 0121 23       		.byte	0x23
 686 0122 3C       		.uleb128 0x3c
 687 0123 03       		.uleb128 0x3
 688 0124 DC000000 		.4byte	.LASF16
 689 0128 03       		.byte	0x3
 690 0129 F5       		.byte	0xf5
 691 012a 1E020000 		.4byte	0x21e
 692 012e 02       		.byte	0x2
 693 012f 23       		.byte	0x23
 694 0130 40       		.uleb128 0x40
 695 0131 00       		.byte	0
 696 0132 05       		.uleb128 0x5
 697 0133 04       		.byte	0x4
 698 0134 05       		.byte	0x5
 699 0135 696E7400 		.ascii	"int\000"
 700 0139 06       		.uleb128 0x6
 701 013a 1A000000 		.4byte	.LASF19
 702 013e 04       		.byte	0x4
 703 013f D5       		.byte	0xd5
 704 0140 44010000 		.4byte	0x144
 705 0144 07       		.uleb128 0x7
 706 0145 04       		.byte	0x4
 707 0146 07       		.byte	0x7
 708 0147 B6010000 		.4byte	.LASF17
 709 014b 07       		.uleb128 0x7
 710 014c 01       		.byte	0x1
 711 014d 06       		.byte	0x6
 712 014e B3000000 		.4byte	.LASF18
 713 0152 06       		.uleb128 0x6
 714 0153 DC040000 		.4byte	.LASF20
 715 0157 05       		.byte	0x5
 716 0158 2A       		.byte	0x2a
 717 0159 5D010000 		.4byte	0x15d
 718 015d 07       		.uleb128 0x7
 719 015e 01       		.byte	0x1
 720 015f 08       		.byte	0x8
 721 0160 E8020000 		.4byte	.LASF21
 722 0164 07       		.uleb128 0x7
 723 0165 02       		.byte	0x2
 724 0166 05       		.byte	0x5
 725 0167 00030000 		.4byte	.LASF22
 726 016b 06       		.uleb128 0x6
 727 016c CB010000 		.4byte	.LASF23
ARM GAS  /tmp/cc8vM8pJ.s 			page 33


 728 0170 05       		.byte	0x5
 729 0171 36       		.byte	0x36
 730 0172 76010000 		.4byte	0x176
 731 0176 07       		.uleb128 0x7
 732 0177 02       		.byte	0x2
 733 0178 07       		.byte	0x7
 734 0179 E8010000 		.4byte	.LASF24
 735 017d 06       		.uleb128 0x6
 736 017e E0020000 		.4byte	.LASF25
 737 0182 05       		.byte	0x5
 738 0183 4F       		.byte	0x4f
 739 0184 88010000 		.4byte	0x188
 740 0188 07       		.uleb128 0x7
 741 0189 04       		.byte	0x4
 742 018a 05       		.byte	0x5
 743 018b 4B010000 		.4byte	.LASF26
 744 018f 06       		.uleb128 0x6
 745 0190 85030000 		.4byte	.LASF27
 746 0194 05       		.byte	0x5
 747 0195 50       		.byte	0x50
 748 0196 9A010000 		.4byte	0x19a
 749 019a 07       		.uleb128 0x7
 750 019b 04       		.byte	0x4
 751 019c 07       		.byte	0x7
 752 019d AB030000 		.4byte	.LASF28
 753 01a1 07       		.uleb128 0x7
 754 01a2 08       		.byte	0x8
 755 01a3 05       		.byte	0x5
 756 01a4 A5000000 		.4byte	.LASF29
 757 01a8 07       		.uleb128 0x7
 758 01a9 08       		.byte	0x8
 759 01aa 07       		.byte	0x7
 760 01ab 45000000 		.4byte	.LASF30
 761 01af 08       		.uleb128 0x8
 762 01b0 7D010000 		.4byte	0x17d
 763 01b4 06       		.uleb128 0x6
 764 01b5 94040000 		.4byte	.LASF31
 765 01b9 06       		.byte	0x6
 766 01ba 46       		.byte	0x46
 767 01bb 8F010000 		.4byte	0x18f
 768 01bf 06       		.uleb128 0x6
 769 01c0 27030000 		.4byte	.LASF32
 770 01c4 06       		.byte	0x6
 771 01c5 49       		.byte	0x49
 772 01c6 52010000 		.4byte	0x152
 773 01ca 06       		.uleb128 0x6
 774 01cb 54010000 		.4byte	.LASF33
 775 01cf 06       		.byte	0x6
 776 01d0 4A       		.byte	0x4a
 777 01d1 52010000 		.4byte	0x152
 778 01d5 06       		.uleb128 0x6
 779 01d6 A8020000 		.4byte	.LASF34
 780 01da 06       		.byte	0x6
 781 01db 4B       		.byte	0x4b
 782 01dc 52010000 		.4byte	0x152
 783 01e0 06       		.uleb128 0x6
 784 01e1 D2020000 		.4byte	.LASF35
ARM GAS  /tmp/cc8vM8pJ.s 			page 34


 785 01e5 06       		.byte	0x6
 786 01e6 4D       		.byte	0x4d
 787 01e7 8F010000 		.4byte	0x18f
 788 01eb 06       		.uleb128 0x6
 789 01ec FB010000 		.4byte	.LASF36
 790 01f0 06       		.byte	0x6
 791 01f1 4E       		.byte	0x4e
 792 01f2 7D010000 		.4byte	0x17d
 793 01f6 06       		.uleb128 0x6
 794 01f7 19020000 		.4byte	.LASF37
 795 01fb 06       		.byte	0x6
 796 01fc 50       		.byte	0x50
 797 01fd 8F010000 		.4byte	0x18f
 798 0201 07       		.uleb128 0x7
 799 0202 04       		.byte	0x4
 800 0203 07       		.byte	0x7
 801 0204 59020000 		.4byte	.LASF38
 802 0208 06       		.uleb128 0x6
 803 0209 D9030000 		.4byte	.LASF39
 804 020d 07       		.byte	0x7
 805 020e 89       		.byte	0x89
 806 020f 6B010000 		.4byte	0x16b
 807 0213 06       		.uleb128 0x6
 808 0214 89010000 		.4byte	.LASF40
 809 0218 07       		.byte	0x7
 810 0219 8F       		.byte	0x8f
 811 021a 1E020000 		.4byte	0x21e
 812 021e 09       		.uleb128 0x9
 813 021f 04       		.byte	0x4
 814 0220 02       		.uleb128 0x2
 815 0221 8C040000 		.4byte	.LASF42
 816 0225 04       		.byte	0x4
 817 0226 07       		.byte	0x7
 818 0227 B3       		.byte	0xb3
 819 0228 3B020000 		.4byte	0x23b
 820 022c 04       		.uleb128 0x4
 821 022d 72313300 		.ascii	"r13\000"
 822 0231 07       		.byte	0x7
 823 0232 B4       		.byte	0xb4
 824 0233 C8020000 		.4byte	0x2c8
 825 0237 02       		.byte	0x2
 826 0238 23       		.byte	0x23
 827 0239 00       		.uleb128 0
 828 023a 00       		.byte	0
 829 023b 02       		.uleb128 0x2
 830 023c 28000000 		.4byte	.LASF43
 831 0240 24       		.byte	0x24
 832 0241 08       		.byte	0x8
 833 0242 F5       		.byte	0xf5
 834 0243 C8020000 		.4byte	0x2c8
 835 0247 0A       		.uleb128 0xa
 836 0248 723400   		.ascii	"r4\000"
 837 024b 08       		.byte	0x8
 838 024c 0801     		.2byte	0x108
 839 024e 13020000 		.4byte	0x213
 840 0252 02       		.byte	0x2
 841 0253 23       		.byte	0x23
ARM GAS  /tmp/cc8vM8pJ.s 			page 35


 842 0254 00       		.uleb128 0
 843 0255 0A       		.uleb128 0xa
 844 0256 723500   		.ascii	"r5\000"
 845 0259 08       		.byte	0x8
 846 025a 0901     		.2byte	0x109
 847 025c 13020000 		.4byte	0x213
 848 0260 02       		.byte	0x2
 849 0261 23       		.byte	0x23
 850 0262 04       		.uleb128 0x4
 851 0263 0A       		.uleb128 0xa
 852 0264 723600   		.ascii	"r6\000"
 853 0267 08       		.byte	0x8
 854 0268 0A01     		.2byte	0x10a
 855 026a 13020000 		.4byte	0x213
 856 026e 02       		.byte	0x2
 857 026f 23       		.byte	0x23
 858 0270 08       		.uleb128 0x8
 859 0271 0A       		.uleb128 0xa
 860 0272 723700   		.ascii	"r7\000"
 861 0275 08       		.byte	0x8
 862 0276 0B01     		.2byte	0x10b
 863 0278 13020000 		.4byte	0x213
 864 027c 02       		.byte	0x2
 865 027d 23       		.byte	0x23
 866 027e 0C       		.uleb128 0xc
 867 027f 0A       		.uleb128 0xa
 868 0280 723800   		.ascii	"r8\000"
 869 0283 08       		.byte	0x8
 870 0284 0C01     		.2byte	0x10c
 871 0286 13020000 		.4byte	0x213
 872 028a 02       		.byte	0x2
 873 028b 23       		.byte	0x23
 874 028c 10       		.uleb128 0x10
 875 028d 0A       		.uleb128 0xa
 876 028e 723900   		.ascii	"r9\000"
 877 0291 08       		.byte	0x8
 878 0292 0D01     		.2byte	0x10d
 879 0294 13020000 		.4byte	0x213
 880 0298 02       		.byte	0x2
 881 0299 23       		.byte	0x23
 882 029a 14       		.uleb128 0x14
 883 029b 0A       		.uleb128 0xa
 884 029c 72313000 		.ascii	"r10\000"
 885 02a0 08       		.byte	0x8
 886 02a1 0E01     		.2byte	0x10e
 887 02a3 13020000 		.4byte	0x213
 888 02a7 02       		.byte	0x2
 889 02a8 23       		.byte	0x23
 890 02a9 18       		.uleb128 0x18
 891 02aa 0A       		.uleb128 0xa
 892 02ab 72313100 		.ascii	"r11\000"
 893 02af 08       		.byte	0x8
 894 02b0 0F01     		.2byte	0x10f
 895 02b2 13020000 		.4byte	0x213
 896 02b6 02       		.byte	0x2
 897 02b7 23       		.byte	0x23
 898 02b8 1C       		.uleb128 0x1c
ARM GAS  /tmp/cc8vM8pJ.s 			page 36


 899 02b9 0A       		.uleb128 0xa
 900 02ba 6C7200   		.ascii	"lr\000"
 901 02bd 08       		.byte	0x8
 902 02be 1001     		.2byte	0x110
 903 02c0 13020000 		.4byte	0x213
 904 02c4 02       		.byte	0x2
 905 02c5 23       		.byte	0x23
 906 02c6 20       		.uleb128 0x20
 907 02c7 00       		.byte	0
 908 02c8 0B       		.uleb128 0xb
 909 02c9 04       		.byte	0x4
 910 02ca 3B020000 		.4byte	0x23b
 911 02ce 0C       		.uleb128 0xc
 912 02cf 08       		.byte	0x8
 913 02d0 03       		.byte	0x3
 914 02d1 53       		.byte	0x53
 915 02d2 F3020000 		.4byte	0x2f3
 916 02d6 03       		.uleb128 0x3
 917 02d7 20030000 		.4byte	.LASF0
 918 02db 03       		.byte	0x3
 919 02dc 54       		.byte	0x54
 920 02dd F3020000 		.4byte	0x2f3
 921 02e1 02       		.byte	0x2
 922 02e2 23       		.byte	0x23
 923 02e3 00       		.uleb128 0
 924 02e4 03       		.uleb128 0x3
 925 02e5 CB020000 		.4byte	.LASF1
 926 02e9 03       		.byte	0x3
 927 02ea 55       		.byte	0x55
 928 02eb F3020000 		.4byte	0x2f3
 929 02ef 02       		.byte	0x2
 930 02f0 23       		.byte	0x23
 931 02f1 04       		.uleb128 0x4
 932 02f2 00       		.byte	0
 933 02f3 0B       		.uleb128 0xb
 934 02f4 04       		.byte	0x4
 935 02f5 29000000 		.4byte	0x29
 936 02f9 06       		.uleb128 0x6
 937 02fa 5D030000 		.4byte	.LASF44
 938 02fe 03       		.byte	0x3
 939 02ff 56       		.byte	0x56
 940 0300 CE020000 		.4byte	0x2ce
 941 0304 0C       		.uleb128 0xc
 942 0305 04       		.byte	0x4
 943 0306 03       		.byte	0x3
 944 0307 5B       		.byte	0x5b
 945 0308 1B030000 		.4byte	0x31b
 946 030c 03       		.uleb128 0x3
 947 030d 20030000 		.4byte	.LASF0
 948 0311 03       		.byte	0x3
 949 0312 5C       		.byte	0x5c
 950 0313 F3020000 		.4byte	0x2f3
 951 0317 02       		.byte	0x2
 952 0318 23       		.byte	0x23
 953 0319 00       		.uleb128 0
 954 031a 00       		.byte	0
 955 031b 06       		.uleb128 0x6
ARM GAS  /tmp/cc8vM8pJ.s 			page 37


 956 031c FE040000 		.4byte	.LASF45
 957 0320 03       		.byte	0x3
 958 0321 5D       		.byte	0x5d
 959 0322 04030000 		.4byte	0x304
 960 0326 0C       		.uleb128 0xc
 961 0327 1C       		.byte	0x1c
 962 0328 03       		.byte	0x3
 963 0329 64       		.byte	0x64
 964 032a 83030000 		.4byte	0x383
 965 032e 03       		.uleb128 0x3
 966 032f 9A030000 		.4byte	.LASF46
 967 0333 03       		.byte	0x3
 968 0334 65       		.byte	0x65
 969 0335 F9020000 		.4byte	0x2f9
 970 0339 02       		.byte	0x2
 971 033a 23       		.byte	0x23
 972 033b 00       		.uleb128 0
 973 033c 03       		.uleb128 0x3
 974 033d 12030000 		.4byte	.LASF47
 975 0341 03       		.byte	0x3
 976 0342 66       		.byte	0x66
 977 0343 E0010000 		.4byte	0x1e0
 978 0347 02       		.byte	0x2
 979 0348 23       		.byte	0x23
 980 0349 08       		.uleb128 0x8
 981 034a 03       		.uleb128 0x3
 982 034b 82020000 		.4byte	.LASF48
 983 034f 03       		.byte	0x3
 984 0350 68       		.byte	0x68
 985 0351 20020000 		.4byte	0x220
 986 0355 02       		.byte	0x2
 987 0356 23       		.byte	0x23
 988 0357 0C       		.uleb128 0xc
 989 0358 03       		.uleb128 0x3
 990 0359 81010000 		.4byte	.LASF49
 991 035d 03       		.byte	0x3
 992 035e 6B       		.byte	0x6b
 993 035f F3020000 		.4byte	0x2f3
 994 0363 02       		.byte	0x2
 995 0364 23       		.byte	0x23
 996 0365 10       		.uleb128 0x10
 997 0366 03       		.uleb128 0x3
 998 0367 A0020000 		.4byte	.LASF50
 999 036b 03       		.byte	0x3
 1000 036c 6C       		.byte	0x6c
 1001 036d F3020000 		.4byte	0x2f3
 1002 0371 02       		.byte	0x2
 1003 0372 23       		.byte	0x23
 1004 0373 14       		.uleb128 0x14
 1005 0374 03       		.uleb128 0x3
 1006 0375 96020000 		.4byte	.LASF51
 1007 0379 03       		.byte	0x3
 1008 037a 6F       		.byte	0x6f
 1009 037b F3020000 		.4byte	0x2f3
 1010 037f 02       		.byte	0x2
 1011 0380 23       		.byte	0x23
 1012 0381 18       		.uleb128 0x18
ARM GAS  /tmp/cc8vM8pJ.s 			page 38


 1013 0382 00       		.byte	0
 1014 0383 06       		.uleb128 0x6
 1015 0384 0D000000 		.4byte	.LASF52
 1016 0388 03       		.byte	0x3
 1017 0389 71       		.byte	0x71
 1018 038a 26030000 		.4byte	0x326
 1019 038e 0D       		.uleb128 0xd
 1020 038f 04       		.byte	0x4
 1021 0390 03       		.byte	0x3
 1022 0391 B1       		.byte	0xb1
 1023 0392 C3030000 		.4byte	0x3c3
 1024 0396 0E       		.uleb128 0xe
 1025 0397 21000000 		.4byte	.LASF53
 1026 039b 03       		.byte	0x3
 1027 039c B8       		.byte	0xb8
 1028 039d EB010000 		.4byte	0x1eb
 1029 03a1 0E       		.uleb128 0xe
 1030 03a2 6A000000 		.4byte	.LASF54
 1031 03a6 03       		.byte	0x3
 1032 03a7 BF       		.byte	0xbf
 1033 03a8 EB010000 		.4byte	0x1eb
 1034 03ac 0E       		.uleb128 0xe
 1035 03ad F0040000 		.4byte	.LASF55
 1036 03b1 03       		.byte	0x3
 1037 03b2 C6       		.byte	0xc6
 1038 03b3 1E020000 		.4byte	0x21e
 1039 03b7 0E       		.uleb128 0xe
 1040 03b8 19030000 		.4byte	.LASF56
 1041 03bc 03       		.byte	0x3
 1042 03bd CD       		.byte	0xcd
 1043 03be F6010000 		.4byte	0x1f6
 1044 03c2 00       		.byte	0
 1045 03c3 0B       		.uleb128 0xb
 1046 03c4 04       		.byte	0x4
 1047 03c5 C9030000 		.4byte	0x3c9
 1048 03c9 0F       		.uleb128 0xf
 1049 03ca CE030000 		.4byte	0x3ce
 1050 03ce 07       		.uleb128 0x7
 1051 03cf 01       		.byte	0x1
 1052 03d0 08       		.byte	0x8
 1053 03d1 BD030000 		.4byte	.LASF57
 1054 03d5 02       		.uleb128 0x2
 1055 03d6 DA020000 		.4byte	.LASF58
 1056 03da 10       		.byte	0x10
 1057 03db 09       		.byte	0x9
 1058 03dc 3A       		.byte	0x3a
 1059 03dd 0C040000 		.4byte	0x40c
 1060 03e1 03       		.uleb128 0x3
 1061 03e2 E4000000 		.4byte	.LASF59
 1062 03e6 09       		.byte	0x9
 1063 03e7 3B       		.byte	0x3b
 1064 03e8 F9020000 		.4byte	0x2f9
 1065 03ec 02       		.byte	0x2
 1066 03ed 23       		.byte	0x23
 1067 03ee 00       		.uleb128 0
 1068 03ef 03       		.uleb128 0x3
 1069 03f0 1F050000 		.4byte	.LASF60
ARM GAS  /tmp/cc8vM8pJ.s 			page 39


 1070 03f4 09       		.byte	0x9
 1071 03f5 3D       		.byte	0x3d
 1072 03f6 F3020000 		.4byte	0x2f3
 1073 03fa 02       		.byte	0x2
 1074 03fb 23       		.byte	0x23
 1075 03fc 08       		.uleb128 0x8
 1076 03fd 03       		.uleb128 0x3
 1077 03fe D2030000 		.4byte	.LASF61
 1078 0402 09       		.byte	0x9
 1079 0403 3F       		.byte	0x3f
 1080 0404 5F060000 		.4byte	0x65f
 1081 0408 02       		.byte	0x2
 1082 0409 23       		.byte	0x23
 1083 040a 0C       		.uleb128 0xc
 1084 040b 00       		.byte	0
 1085 040c 0B       		.uleb128 0xb
 1086 040d 04       		.byte	0x4
 1087 040e D5030000 		.4byte	0x3d5
 1088 0412 10       		.uleb128 0x10
 1089 0413 EE030000 		.4byte	.LASF62
 1090 0417 03       		.byte	0x3
 1091 0418 0301     		.2byte	0x103
 1092 041a 1E040000 		.4byte	0x41e
 1093 041e 0B       		.uleb128 0xb
 1094 041f 04       		.byte	0x4
 1095 0420 24040000 		.4byte	0x424
 1096 0424 11       		.uleb128 0x11
 1097 0425 01       		.byte	0x1
 1098 0426 30040000 		.4byte	0x430
 1099 042a 12       		.uleb128 0x12
 1100 042b 1E020000 		.4byte	0x21e
 1101 042f 00       		.byte	0
 1102 0430 10       		.uleb128 0x10
 1103 0431 BB020000 		.4byte	.LASF63
 1104 0435 03       		.byte	0x3
 1105 0436 0801     		.2byte	0x108
 1106 0438 3C040000 		.4byte	0x43c
 1107 043c 13       		.uleb128 0x13
 1108 043d 9C040000 		.4byte	.LASF64
 1109 0441 14       		.byte	0x14
 1110 0442 03       		.byte	0x3
 1111 0443 0F01     		.2byte	0x10f
 1112 0445 95040000 		.4byte	0x495
 1113 0449 14       		.uleb128 0x14
 1114 044a C3010000 		.4byte	.LASF65
 1115 044e 03       		.byte	0x3
 1116 044f 1001     		.2byte	0x110
 1117 0451 95040000 		.4byte	0x495
 1118 0455 02       		.byte	0x2
 1119 0456 23       		.byte	0x23
 1120 0457 00       		.uleb128 0
 1121 0458 14       		.uleb128 0x14
 1122 0459 92010000 		.4byte	.LASF66
 1123 045d 03       		.byte	0x3
 1124 045e 1101     		.2byte	0x111
 1125 0460 95040000 		.4byte	0x495
 1126 0464 02       		.byte	0x2
ARM GAS  /tmp/cc8vM8pJ.s 			page 40


 1127 0465 23       		.byte	0x23
 1128 0466 04       		.uleb128 0x4
 1129 0467 14       		.uleb128 0x14
 1130 0468 A2030000 		.4byte	.LASF67
 1131 046c 03       		.byte	0x3
 1132 046d 1201     		.2byte	0x112
 1133 046f 08020000 		.4byte	0x208
 1134 0473 02       		.byte	0x2
 1135 0474 23       		.byte	0x23
 1136 0475 08       		.uleb128 0x8
 1137 0476 14       		.uleb128 0x14
 1138 0477 35050000 		.4byte	.LASF68
 1139 047b 03       		.byte	0x3
 1140 047c 1301     		.2byte	0x113
 1141 047e 12040000 		.4byte	0x412
 1142 0482 02       		.byte	0x2
 1143 0483 23       		.byte	0x23
 1144 0484 0C       		.uleb128 0xc
 1145 0485 14       		.uleb128 0x14
 1146 0486 AA040000 		.4byte	.LASF69
 1147 048a 03       		.byte	0x3
 1148 048b 1501     		.2byte	0x115
 1149 048d 1E020000 		.4byte	0x21e
 1150 0491 02       		.byte	0x2
 1151 0492 23       		.byte	0x23
 1152 0493 10       		.uleb128 0x10
 1153 0494 00       		.byte	0
 1154 0495 0B       		.uleb128 0xb
 1155 0496 04       		.byte	0x4
 1156 0497 30040000 		.4byte	0x430
 1157 049b 15       		.uleb128 0x15
 1158 049c 0C       		.byte	0xc
 1159 049d 03       		.byte	0x3
 1160 049e 1F01     		.2byte	0x11f
 1161 04a0 E1040000 		.4byte	0x4e1
 1162 04a4 14       		.uleb128 0x14
 1163 04a5 C3010000 		.4byte	.LASF65
 1164 04a9 03       		.byte	0x3
 1165 04aa 2001     		.2byte	0x120
 1166 04ac 95040000 		.4byte	0x495
 1167 04b0 02       		.byte	0x2
 1168 04b1 23       		.byte	0x23
 1169 04b2 00       		.uleb128 0
 1170 04b3 14       		.uleb128 0x14
 1171 04b4 92010000 		.4byte	.LASF66
 1172 04b8 03       		.byte	0x3
 1173 04b9 2201     		.2byte	0x122
 1174 04bb 95040000 		.4byte	0x495
 1175 04bf 02       		.byte	0x2
 1176 04c0 23       		.byte	0x23
 1177 04c1 04       		.uleb128 0x4
 1178 04c2 14       		.uleb128 0x14
 1179 04c3 A2030000 		.4byte	.LASF67
 1180 04c7 03       		.byte	0x3
 1181 04c8 2401     		.2byte	0x124
 1182 04ca 08020000 		.4byte	0x208
 1183 04ce 02       		.byte	0x2
ARM GAS  /tmp/cc8vM8pJ.s 			page 41


 1184 04cf 23       		.byte	0x23
 1185 04d0 08       		.uleb128 0x8
 1186 04d1 14       		.uleb128 0x14
 1187 04d2 E4040000 		.4byte	.LASF70
 1188 04d6 03       		.byte	0x3
 1189 04d7 2C01     		.2byte	0x12c
 1190 04d9 08020000 		.4byte	0x208
 1191 04dd 02       		.byte	0x2
 1192 04de 23       		.byte	0x23
 1193 04df 0A       		.uleb128 0xa
 1194 04e0 00       		.byte	0
 1195 04e1 10       		.uleb128 0x10
 1196 04e2 25020000 		.4byte	.LASF71
 1197 04e6 03       		.byte	0x3
 1198 04e7 2F01     		.2byte	0x12f
 1199 04e9 9B040000 		.4byte	0x49b
 1200 04ed 13       		.uleb128 0x13
 1201 04ee 41010000 		.4byte	.LASF72
 1202 04f2 2C       		.byte	0x2c
 1203 04f3 03       		.byte	0x3
 1204 04f4 3601     		.2byte	0x136
 1205 04f6 28050000 		.4byte	0x528
 1206 04fa 14       		.uleb128 0x14
 1207 04fb D6040000 		.4byte	.LASF73
 1208 04ff 03       		.byte	0x3
 1209 0500 3A01     		.2byte	0x13a
 1210 0502 83030000 		.4byte	0x383
 1211 0506 02       		.byte	0x2
 1212 0507 23       		.byte	0x23
 1213 0508 00       		.uleb128 0
 1214 0509 14       		.uleb128 0x14
 1215 050a 34000000 		.4byte	.LASF74
 1216 050e 03       		.byte	0x3
 1217 050f 3E01     		.2byte	0x13e
 1218 0511 E1040000 		.4byte	0x4e1
 1219 0515 02       		.byte	0x2
 1220 0516 23       		.byte	0x23
 1221 0517 1C       		.uleb128 0x1c
 1222 0518 14       		.uleb128 0x14
 1223 0519 B1040000 		.4byte	.LASF75
 1224 051d 03       		.byte	0x3
 1225 051e 4301     		.2byte	0x143
 1226 0520 B4010000 		.4byte	0x1b4
 1227 0524 02       		.byte	0x2
 1228 0525 23       		.byte	0x23
 1229 0526 28       		.uleb128 0x28
 1230 0527 00       		.byte	0
 1231 0528 10       		.uleb128 0x10
 1232 0529 01020000 		.4byte	.LASF76
 1233 052d 03       		.byte	0x3
 1234 052e 6501     		.2byte	0x165
 1235 0530 ED040000 		.4byte	0x4ed
 1236 0534 0C       		.uleb128 0xc
 1237 0535 16       		.byte	0x16
 1238 0536 0A       		.byte	0xa
 1239 0537 35       		.byte	0x35
 1240 0538 39060000 		.4byte	0x639
ARM GAS  /tmp/cc8vM8pJ.s 			page 42


 1241 053c 03       		.uleb128 0x3
 1242 053d 27050000 		.4byte	.LASF77
 1243 0541 0A       		.byte	0xa
 1244 0542 36       		.byte	0x36
 1245 0543 39060000 		.4byte	0x639
 1246 0547 02       		.byte	0x2
 1247 0548 23       		.byte	0x23
 1248 0549 00       		.uleb128 0
 1249 054a 03       		.uleb128 0x3
 1250 054b 3B020000 		.4byte	.LASF78
 1251 054f 0A       		.byte	0xa
 1252 0550 37       		.byte	0x37
 1253 0551 52010000 		.4byte	0x152
 1254 0555 02       		.byte	0x2
 1255 0556 23       		.byte	0x23
 1256 0557 04       		.uleb128 0x4
 1257 0558 03       		.uleb128 0x3
 1258 0559 8E020000 		.4byte	.LASF79
 1259 055d 0A       		.byte	0xa
 1260 055e 38       		.byte	0x38
 1261 055f 52010000 		.4byte	0x152
 1262 0563 02       		.byte	0x2
 1263 0564 23       		.byte	0x23
 1264 0565 05       		.uleb128 0x5
 1265 0566 03       		.uleb128 0x3
 1266 0567 64010000 		.4byte	.LASF80
 1267 056b 0A       		.byte	0xa
 1268 056c 39       		.byte	0x39
 1269 056d 6B010000 		.4byte	0x16b
 1270 0571 02       		.byte	0x2
 1271 0572 23       		.byte	0x23
 1272 0573 06       		.uleb128 0x6
 1273 0574 03       		.uleb128 0x3
 1274 0575 B0020000 		.4byte	.LASF81
 1275 0579 0A       		.byte	0xa
 1276 057a 3A       		.byte	0x3a
 1277 057b 52010000 		.4byte	0x152
 1278 057f 02       		.byte	0x2
 1279 0580 23       		.byte	0x23
 1280 0581 08       		.uleb128 0x8
 1281 0582 03       		.uleb128 0x3
 1282 0583 62020000 		.4byte	.LASF82
 1283 0587 0A       		.byte	0xa
 1284 0588 3B       		.byte	0x3b
 1285 0589 52010000 		.4byte	0x152
 1286 058d 02       		.byte	0x2
 1287 058e 23       		.byte	0x23
 1288 058f 09       		.uleb128 0x9
 1289 0590 03       		.uleb128 0x3
 1290 0591 5C000000 		.4byte	.LASF83
 1291 0595 0A       		.byte	0xa
 1292 0596 3C       		.byte	0x3c
 1293 0597 52010000 		.4byte	0x152
 1294 059b 02       		.byte	0x2
 1295 059c 23       		.byte	0x23
 1296 059d 0A       		.uleb128 0xa
 1297 059e 03       		.uleb128 0x3
ARM GAS  /tmp/cc8vM8pJ.s 			page 43


 1298 059f 8E030000 		.4byte	.LASF84
 1299 05a3 0A       		.byte	0xa
 1300 05a4 3D       		.byte	0x3d
 1301 05a5 52010000 		.4byte	0x152
 1302 05a9 02       		.byte	0x2
 1303 05aa 23       		.byte	0x23
 1304 05ab 0B       		.uleb128 0xb
 1305 05ac 03       		.uleb128 0x3
 1306 05ad C4040000 		.4byte	.LASF85
 1307 05b1 0A       		.byte	0xa
 1308 05b2 3E       		.byte	0x3e
 1309 05b3 52010000 		.4byte	0x152
 1310 05b7 02       		.byte	0x2
 1311 05b8 23       		.byte	0x23
 1312 05b9 0C       		.uleb128 0xc
 1313 05ba 03       		.uleb128 0x3
 1314 05bb 6D030000 		.4byte	.LASF86
 1315 05bf 0A       		.byte	0xa
 1316 05c0 3F       		.byte	0x3f
 1317 05c1 52010000 		.4byte	0x152
 1318 05c5 02       		.byte	0x2
 1319 05c6 23       		.byte	0x23
 1320 05c7 0D       		.uleb128 0xd
 1321 05c8 03       		.uleb128 0x3
 1322 05c9 00000000 		.4byte	.LASF87
 1323 05cd 0A       		.byte	0xa
 1324 05ce 40       		.byte	0x40
 1325 05cf 52010000 		.4byte	0x152
 1326 05d3 02       		.byte	0x2
 1327 05d4 23       		.byte	0x23
 1328 05d5 0E       		.uleb128 0xe
 1329 05d6 03       		.uleb128 0x3
 1330 05d7 6E020000 		.4byte	.LASF88
 1331 05db 0A       		.byte	0xa
 1332 05dc 41       		.byte	0x41
 1333 05dd 52010000 		.4byte	0x152
 1334 05e1 02       		.byte	0x2
 1335 05e2 23       		.byte	0x23
 1336 05e3 0F       		.uleb128 0xf
 1337 05e4 03       		.uleb128 0x3
 1338 05e5 BF000000 		.4byte	.LASF89
 1339 05e9 0A       		.byte	0xa
 1340 05ea 42       		.byte	0x42
 1341 05eb 52010000 		.4byte	0x152
 1342 05ef 02       		.byte	0x2
 1343 05f0 23       		.byte	0x23
 1344 05f1 10       		.uleb128 0x10
 1345 05f2 03       		.uleb128 0x3
 1346 05f3 98000000 		.4byte	.LASF90
 1347 05f7 0A       		.byte	0xa
 1348 05f8 44       		.byte	0x44
 1349 05f9 52010000 		.4byte	0x152
 1350 05fd 02       		.byte	0x2
 1351 05fe 23       		.byte	0x23
 1352 05ff 11       		.uleb128 0x11
 1353 0600 03       		.uleb128 0x3
 1354 0601 CF000000 		.4byte	.LASF91
ARM GAS  /tmp/cc8vM8pJ.s 			page 44


 1355 0605 0A       		.byte	0xa
 1356 0606 45       		.byte	0x45
 1357 0607 52010000 		.4byte	0x152
 1358 060b 02       		.byte	0x2
 1359 060c 23       		.byte	0x23
 1360 060d 12       		.uleb128 0x12
 1361 060e 03       		.uleb128 0x3
 1362 060f 43020000 		.4byte	.LASF92
 1363 0613 0A       		.byte	0xa
 1364 0614 46       		.byte	0x46
 1365 0615 52010000 		.4byte	0x152
 1366 0619 02       		.byte	0x2
 1367 061a 23       		.byte	0x23
 1368 061b 13       		.uleb128 0x13
 1369 061c 03       		.uleb128 0x3
 1370 061d 2F030000 		.4byte	.LASF93
 1371 0621 0A       		.byte	0xa
 1372 0622 47       		.byte	0x47
 1373 0623 52010000 		.4byte	0x152
 1374 0627 02       		.byte	0x2
 1375 0628 23       		.byte	0x23
 1376 0629 14       		.uleb128 0x14
 1377 062a 03       		.uleb128 0x3
 1378 062b 0D020000 		.4byte	.LASF94
 1379 062f 0A       		.byte	0xa
 1380 0630 49       		.byte	0x49
 1381 0631 52010000 		.4byte	0x152
 1382 0635 02       		.byte	0x2
 1383 0636 23       		.byte	0x23
 1384 0637 15       		.uleb128 0x15
 1385 0638 00       		.byte	0
 1386 0639 16       		.uleb128 0x16
 1387 063a CE030000 		.4byte	0x3ce
 1388 063e 49060000 		.4byte	0x649
 1389 0642 17       		.uleb128 0x17
 1390 0643 01020000 		.4byte	0x201
 1391 0647 03       		.byte	0x3
 1392 0648 00       		.byte	0
 1393 0649 06       		.uleb128 0x6
 1394 064a 6F010000 		.4byte	.LASF95
 1395 064e 0A       		.byte	0xa
 1396 064f 4A       		.byte	0x4a
 1397 0650 34050000 		.4byte	0x534
 1398 0654 06       		.uleb128 0x6
 1399 0655 9A010000 		.4byte	.LASF96
 1400 0659 09       		.byte	0x9
 1401 065a 35       		.byte	0x35
 1402 065b D5030000 		.4byte	0x3d5
 1403 065f 0B       		.uleb128 0xb
 1404 0660 04       		.byte	0x4
 1405 0661 54060000 		.4byte	0x654
 1406 0665 18       		.uleb128 0x18
 1407 0666 17040000 		.4byte	.LASF100
 1408 066a 02       		.byte	0x2
 1409 066b 2002     		.2byte	0x220
 1410 066d 01       		.byte	0x1
 1411 066e 03       		.byte	0x3
ARM GAS  /tmp/cc8vM8pJ.s 			page 45


 1412 066f 80060000 		.4byte	0x680
 1413 0673 19       		.uleb128 0x19
 1414 0674 A2010000 		.4byte	.LASF109
 1415 0678 02       		.byte	0x2
 1416 0679 2002     		.2byte	0x220
 1417 067b 8F010000 		.4byte	0x18f
 1418 067f 00       		.byte	0
 1419 0680 1A       		.uleb128 0x1a
 1420 0681 3B000000 		.4byte	.LASF97
 1421 0685 08       		.byte	0x8
 1422 0686 BC01     		.2byte	0x1bc
 1423 0688 01       		.byte	0x1
 1424 0689 03       		.byte	0x3
 1425 068a 1A       		.uleb128 0x1a
 1426 068b EC000000 		.4byte	.LASF98
 1427 068f 08       		.byte	0x8
 1428 0690 CA01     		.2byte	0x1ca
 1429 0692 01       		.byte	0x1
 1430 0693 03       		.byte	0x3
 1431 0694 1A       		.uleb128 0x1a
 1432 0695 46030000 		.4byte	.LASF99
 1433 0699 0B       		.byte	0xb
 1434 069a 2A01     		.2byte	0x12a
 1435 069c 01       		.byte	0x1
 1436 069d 03       		.byte	0x3
 1437 069e 18       		.uleb128 0x18
 1438 069f 0D050000 		.4byte	.LASF101
 1439 06a3 0B       		.byte	0xb
 1440 06a4 3601     		.2byte	0x136
 1441 06a6 01       		.byte	0x1
 1442 06a7 03       		.byte	0x3
 1443 06a8 BB060000 		.4byte	0x6bb
 1444 06ac 1B       		.uleb128 0x1b
 1445 06ad A8010000 		.4byte	.LASF110
 1446 06b1 CB060000 		.4byte	0x6cb
 1447 06b5 01       		.byte	0x1
 1448 06b6 0D050000 		.4byte	.LASF101
 1449 06ba 00       		.byte	0
 1450 06bb 16       		.uleb128 0x16
 1451 06bc CE030000 		.4byte	0x3ce
 1452 06c0 CB060000 		.4byte	0x6cb
 1453 06c4 17       		.uleb128 0x17
 1454 06c5 01020000 		.4byte	0x201
 1455 06c9 0B       		.byte	0xb
 1456 06ca 00       		.byte	0
 1457 06cb 0F       		.uleb128 0xf
 1458 06cc BB060000 		.4byte	0x6bb
 1459 06d0 1C       		.uleb128 0x1c
 1460 06d1 01       		.byte	0x1
 1461 06d2 73000000 		.4byte	.LASF102
 1462 06d6 01       		.byte	0x1
 1463 06d7 82       		.byte	0x82
 1464 06d8 01       		.byte	0x1
 1465 06d9 F3020000 		.4byte	0x2f3
 1466 06dd 00000000 		.4byte	.LFB165
 1467 06e1 1E000000 		.4byte	.LFE165
 1468 06e5 02       		.byte	0x2
ARM GAS  /tmp/cc8vM8pJ.s 			page 46


 1469 06e6 7D       		.byte	0x7d
 1470 06e7 00       		.sleb128 0
 1471 06e8 01       		.byte	0x1
 1472 06e9 79070000 		.4byte	0x779
 1473 06ed 1D       		.uleb128 0x1d
 1474 06ee 747000   		.ascii	"tp\000"
 1475 06f1 01       		.byte	0x1
 1476 06f2 83       		.byte	0x83
 1477 06f3 F3020000 		.4byte	0x2f3
 1478 06f7 01       		.byte	0x1
 1479 06f8 50       		.byte	0x50
 1480 06f9 1E       		.uleb128 0x1e
 1481 06fa 94060000 		.4byte	0x694
 1482 06fe 00000000 		.4byte	.LBB34
 1483 0702 06000000 		.4byte	.LBE34
 1484 0706 01       		.byte	0x1
 1485 0707 85       		.byte	0x85
 1486 0708 35070000 		.4byte	0x735
 1487 070c 1F       		.uleb128 0x1f
 1488 070d 80060000 		.4byte	0x680
 1489 0711 00000000 		.4byte	.LBB35
 1490 0715 06000000 		.4byte	.LBE35
 1491 0719 0B       		.byte	0xb
 1492 071a 2C01     		.2byte	0x12c
 1493 071c 1F       		.uleb128 0x1f
 1494 071d 65060000 		.4byte	0x665
 1495 0721 00000000 		.4byte	.LBB36
 1496 0725 06000000 		.4byte	.LBE36
 1497 0729 08       		.byte	0x8
 1498 072a BF01     		.2byte	0x1bf
 1499 072c 20       		.uleb128 0x20
 1500 072d 73060000 		.4byte	0x673
 1501 0731 20       		.byte	0x20
 1502 0732 00       		.byte	0
 1503 0733 00       		.byte	0
 1504 0734 00       		.byte	0
 1505 0735 21       		.uleb128 0x21
 1506 0736 9E060000 		.4byte	0x69e
 1507 073a 10000000 		.4byte	.LBB38
 1508 073e 00000000 		.4byte	.Ldebug_ranges0+0
 1509 0742 01       		.byte	0x1
 1510 0743 8A       		.byte	0x8a
 1511 0744 22       		.uleb128 0x22
 1512 0745 18000000 		.4byte	.Ldebug_ranges0+0x18
 1513 0749 23       		.uleb128 0x23
 1514 074a AC060000 		.4byte	0x6ac
 1515 074e 24       		.uleb128 0x24
 1516 074f 8A060000 		.4byte	0x68a
 1517 0753 10000000 		.4byte	.LBB40
 1518 0757 30000000 		.4byte	.Ldebug_ranges0+0x30
 1519 075b 0B       		.byte	0xb
 1520 075c 4201     		.2byte	0x142
 1521 075e 24       		.uleb128 0x24
 1522 075f 65060000 		.4byte	0x665
 1523 0763 10000000 		.4byte	.LBB41
 1524 0767 48000000 		.4byte	.Ldebug_ranges0+0x48
 1525 076b 08       		.byte	0x8
ARM GAS  /tmp/cc8vM8pJ.s 			page 47


 1526 076c CD01     		.2byte	0x1cd
 1527 076e 20       		.uleb128 0x20
 1528 076f 73060000 		.4byte	0x673
 1529 0773 00       		.byte	0
 1530 0774 00       		.byte	0
 1531 0775 00       		.byte	0
 1532 0776 00       		.byte	0
 1533 0777 00       		.byte	0
 1534 0778 00       		.byte	0
 1535 0779 25       		.uleb128 0x25
 1536 077a 01       		.byte	0x1
 1537 077b C2030000 		.4byte	.LASF103
 1538 077f 01       		.byte	0x1
 1539 0780 99       		.byte	0x99
 1540 0781 01       		.byte	0x1
 1541 0782 F3020000 		.4byte	0x2f3
 1542 0786 00000000 		.4byte	.LFB166
 1543 078a 2C000000 		.4byte	.LFE166
 1544 078e 00000000 		.4byte	.LLST0
 1545 0792 01       		.byte	0x1
 1546 0793 52080000 		.4byte	0x852
 1547 0797 26       		.uleb128 0x26
 1548 0798 747000   		.ascii	"tp\000"
 1549 079b 01       		.byte	0x1
 1550 079c 99       		.byte	0x99
 1551 079d F3020000 		.4byte	0x2f3
 1552 07a1 20000000 		.4byte	.LLST1
 1553 07a5 27       		.uleb128 0x27
 1554 07a6 6E747000 		.ascii	"ntp\000"
 1555 07aa 01       		.byte	0x1
 1556 07ab 9A       		.byte	0x9a
 1557 07ac F3020000 		.4byte	0x2f3
 1558 07b0 4C000000 		.4byte	.LLST2
 1559 07b4 28       		.uleb128 0x28
 1560 07b5 25040000 		.4byte	.LASF111
 1561 07b9 62080000 		.4byte	0x862
 1562 07bd 01       		.byte	0x1
 1563 07be 1E       		.uleb128 0x1e
 1564 07bf 94060000 		.4byte	0x694
 1565 07c3 02000000 		.4byte	.LBB48
 1566 07c7 08000000 		.4byte	.LBE48
 1567 07cb 01       		.byte	0x1
 1568 07cc 9C       		.byte	0x9c
 1569 07cd FA070000 		.4byte	0x7fa
 1570 07d1 1F       		.uleb128 0x1f
 1571 07d2 80060000 		.4byte	0x680
 1572 07d6 02000000 		.4byte	.LBB49
 1573 07da 08000000 		.4byte	.LBE49
 1574 07de 0B       		.byte	0xb
 1575 07df 2C01     		.2byte	0x12c
 1576 07e1 1F       		.uleb128 0x1f
 1577 07e2 65060000 		.4byte	0x665
 1578 07e6 02000000 		.4byte	.LBB50
 1579 07ea 08000000 		.4byte	.LBE50
 1580 07ee 08       		.byte	0x8
 1581 07ef BF01     		.2byte	0x1bf
 1582 07f1 20       		.uleb128 0x20
ARM GAS  /tmp/cc8vM8pJ.s 			page 48


 1583 07f2 73060000 		.4byte	0x673
 1584 07f6 20       		.byte	0x20
 1585 07f7 00       		.byte	0
 1586 07f8 00       		.byte	0
 1587 07f9 00       		.byte	0
 1588 07fa 1E       		.uleb128 0x1e
 1589 07fb 9E060000 		.4byte	0x69e
 1590 07ff 16000000 		.4byte	.LBB52
 1591 0803 1C000000 		.4byte	.LBE52
 1592 0807 01       		.byte	0x1
 1593 0808 A6       		.byte	0xa6
 1594 0809 48080000 		.4byte	0x848
 1595 080d 29       		.uleb128 0x29
 1596 080e 16000000 		.4byte	.LBB53
 1597 0812 1C000000 		.4byte	.LBE53
 1598 0816 23       		.uleb128 0x23
 1599 0817 AC060000 		.4byte	0x6ac
 1600 081b 1F       		.uleb128 0x1f
 1601 081c 8A060000 		.4byte	0x68a
 1602 0820 16000000 		.4byte	.LBB54
 1603 0824 1C000000 		.4byte	.LBE54
 1604 0828 0B       		.byte	0xb
 1605 0829 4201     		.2byte	0x142
 1606 082b 1F       		.uleb128 0x1f
 1607 082c 65060000 		.4byte	0x665
 1608 0830 16000000 		.4byte	.LBB55
 1609 0834 1C000000 		.4byte	.LBE55
 1610 0838 08       		.byte	0x8
 1611 0839 CD01     		.2byte	0x1cd
 1612 083b 2A       		.uleb128 0x2a
 1613 083c 73060000 		.4byte	0x673
 1614 0840 6B000000 		.4byte	.LLST3
 1615 0844 00       		.byte	0
 1616 0845 00       		.byte	0
 1617 0846 00       		.byte	0
 1618 0847 00       		.byte	0
 1619 0848 2B       		.uleb128 0x2b
 1620 0849 20000000 		.4byte	.LVL6
 1621 084d 99080000 		.4byte	0x899
 1622 0851 00       		.byte	0
 1623 0852 16       		.uleb128 0x16
 1624 0853 CE030000 		.4byte	0x3ce
 1625 0857 62080000 		.4byte	0x862
 1626 085b 17       		.uleb128 0x17
 1627 085c 01020000 		.4byte	0x201
 1628 0860 0F       		.byte	0xf
 1629 0861 00       		.byte	0
 1630 0862 0F       		.uleb128 0xf
 1631 0863 52080000 		.4byte	0x852
 1632 0867 2C       		.uleb128 0x2c
 1633 0868 84000000 		.4byte	.LASF104
 1634 086c 0C       		.byte	0xc
 1635 086d 1606     		.2byte	0x616
 1636 086f AF010000 		.4byte	0x1af
 1637 0873 01       		.byte	0x1
 1638 0874 01       		.byte	0x1
 1639 0875 2D       		.uleb128 0x2d
ARM GAS  /tmp/cc8vM8pJ.s 			page 49


 1640 0876 636800   		.ascii	"ch\000"
 1641 0879 03       		.byte	0x3
 1642 087a 8901     		.2byte	0x189
 1643 087c 28050000 		.4byte	0x528
 1644 0880 01       		.byte	0x1
 1645 0881 01       		.byte	0x1
 1646 0882 2E       		.uleb128 0x2e
 1647 0883 DF010000 		.4byte	.LASF105
 1648 0887 01       		.byte	0x1
 1649 0888 4F       		.byte	0x4f
 1650 0889 94080000 		.4byte	0x894
 1651 088d 01       		.byte	0x1
 1652 088e 05       		.byte	0x5
 1653 088f 03       		.byte	0x3
 1654 0890 00000000 		.4byte	ch_debug
 1655 0894 0F       		.uleb128 0xf
 1656 0895 49060000 		.4byte	0x649
 1657 0899 2F       		.uleb128 0x2f
 1658 089a 01       		.byte	0x1
 1659 089b 50030000 		.4byte	.LASF112
 1660 089f 0D       		.byte	0xd
 1661 08a0 4B       		.byte	0x4b
 1662 08a1 01       		.byte	0x1
 1663 08a2 01       		.byte	0x1
 1664 08a3 12       		.uleb128 0x12
 1665 08a4 F3020000 		.4byte	0x2f3
 1666 08a8 00       		.byte	0
 1667 08a9 00       		.byte	0
 1668              		.section	.debug_abbrev,"",%progbits
 1669              	.Ldebug_abbrev0:
 1670 0000 01       		.uleb128 0x1
 1671 0001 11       		.uleb128 0x11
 1672 0002 01       		.byte	0x1
 1673 0003 25       		.uleb128 0x25
 1674 0004 0E       		.uleb128 0xe
 1675 0005 13       		.uleb128 0x13
 1676 0006 0B       		.uleb128 0xb
 1677 0007 03       		.uleb128 0x3
 1678 0008 0E       		.uleb128 0xe
 1679 0009 1B       		.uleb128 0x1b
 1680 000a 0E       		.uleb128 0xe
 1681 000b 55       		.uleb128 0x55
 1682 000c 06       		.uleb128 0x6
 1683 000d 11       		.uleb128 0x11
 1684 000e 01       		.uleb128 0x1
 1685 000f 52       		.uleb128 0x52
 1686 0010 01       		.uleb128 0x1
 1687 0011 10       		.uleb128 0x10
 1688 0012 06       		.uleb128 0x6
 1689 0013 00       		.byte	0
 1690 0014 00       		.byte	0
 1691 0015 02       		.uleb128 0x2
 1692 0016 13       		.uleb128 0x13
 1693 0017 01       		.byte	0x1
 1694 0018 03       		.uleb128 0x3
 1695 0019 0E       		.uleb128 0xe
 1696 001a 0B       		.uleb128 0xb
ARM GAS  /tmp/cc8vM8pJ.s 			page 50


 1697 001b 0B       		.uleb128 0xb
 1698 001c 3A       		.uleb128 0x3a
 1699 001d 0B       		.uleb128 0xb
 1700 001e 3B       		.uleb128 0x3b
 1701 001f 0B       		.uleb128 0xb
 1702 0020 01       		.uleb128 0x1
 1703 0021 13       		.uleb128 0x13
 1704 0022 00       		.byte	0
 1705 0023 00       		.byte	0
 1706 0024 03       		.uleb128 0x3
 1707 0025 0D       		.uleb128 0xd
 1708 0026 00       		.byte	0
 1709 0027 03       		.uleb128 0x3
 1710 0028 0E       		.uleb128 0xe
 1711 0029 3A       		.uleb128 0x3a
 1712 002a 0B       		.uleb128 0xb
 1713 002b 3B       		.uleb128 0x3b
 1714 002c 0B       		.uleb128 0xb
 1715 002d 49       		.uleb128 0x49
 1716 002e 13       		.uleb128 0x13
 1717 002f 38       		.uleb128 0x38
 1718 0030 0A       		.uleb128 0xa
 1719 0031 00       		.byte	0
 1720 0032 00       		.byte	0
 1721 0033 04       		.uleb128 0x4
 1722 0034 0D       		.uleb128 0xd
 1723 0035 00       		.byte	0
 1724 0036 03       		.uleb128 0x3
 1725 0037 08       		.uleb128 0x8
 1726 0038 3A       		.uleb128 0x3a
 1727 0039 0B       		.uleb128 0xb
 1728 003a 3B       		.uleb128 0x3b
 1729 003b 0B       		.uleb128 0xb
 1730 003c 49       		.uleb128 0x49
 1731 003d 13       		.uleb128 0x13
 1732 003e 38       		.uleb128 0x38
 1733 003f 0A       		.uleb128 0xa
 1734 0040 00       		.byte	0
 1735 0041 00       		.byte	0
 1736 0042 05       		.uleb128 0x5
 1737 0043 24       		.uleb128 0x24
 1738 0044 00       		.byte	0
 1739 0045 0B       		.uleb128 0xb
 1740 0046 0B       		.uleb128 0xb
 1741 0047 3E       		.uleb128 0x3e
 1742 0048 0B       		.uleb128 0xb
 1743 0049 03       		.uleb128 0x3
 1744 004a 08       		.uleb128 0x8
 1745 004b 00       		.byte	0
 1746 004c 00       		.byte	0
 1747 004d 06       		.uleb128 0x6
 1748 004e 16       		.uleb128 0x16
 1749 004f 00       		.byte	0
 1750 0050 03       		.uleb128 0x3
 1751 0051 0E       		.uleb128 0xe
 1752 0052 3A       		.uleb128 0x3a
 1753 0053 0B       		.uleb128 0xb
ARM GAS  /tmp/cc8vM8pJ.s 			page 51


 1754 0054 3B       		.uleb128 0x3b
 1755 0055 0B       		.uleb128 0xb
 1756 0056 49       		.uleb128 0x49
 1757 0057 13       		.uleb128 0x13
 1758 0058 00       		.byte	0
 1759 0059 00       		.byte	0
 1760 005a 07       		.uleb128 0x7
 1761 005b 24       		.uleb128 0x24
 1762 005c 00       		.byte	0
 1763 005d 0B       		.uleb128 0xb
 1764 005e 0B       		.uleb128 0xb
 1765 005f 3E       		.uleb128 0x3e
 1766 0060 0B       		.uleb128 0xb
 1767 0061 03       		.uleb128 0x3
 1768 0062 0E       		.uleb128 0xe
 1769 0063 00       		.byte	0
 1770 0064 00       		.byte	0
 1771 0065 08       		.uleb128 0x8
 1772 0066 35       		.uleb128 0x35
 1773 0067 00       		.byte	0
 1774 0068 49       		.uleb128 0x49
 1775 0069 13       		.uleb128 0x13
 1776 006a 00       		.byte	0
 1777 006b 00       		.byte	0
 1778 006c 09       		.uleb128 0x9
 1779 006d 0F       		.uleb128 0xf
 1780 006e 00       		.byte	0
 1781 006f 0B       		.uleb128 0xb
 1782 0070 0B       		.uleb128 0xb
 1783 0071 00       		.byte	0
 1784 0072 00       		.byte	0
 1785 0073 0A       		.uleb128 0xa
 1786 0074 0D       		.uleb128 0xd
 1787 0075 00       		.byte	0
 1788 0076 03       		.uleb128 0x3
 1789 0077 08       		.uleb128 0x8
 1790 0078 3A       		.uleb128 0x3a
 1791 0079 0B       		.uleb128 0xb
 1792 007a 3B       		.uleb128 0x3b
 1793 007b 05       		.uleb128 0x5
 1794 007c 49       		.uleb128 0x49
 1795 007d 13       		.uleb128 0x13
 1796 007e 38       		.uleb128 0x38
 1797 007f 0A       		.uleb128 0xa
 1798 0080 00       		.byte	0
 1799 0081 00       		.byte	0
 1800 0082 0B       		.uleb128 0xb
 1801 0083 0F       		.uleb128 0xf
 1802 0084 00       		.byte	0
 1803 0085 0B       		.uleb128 0xb
 1804 0086 0B       		.uleb128 0xb
 1805 0087 49       		.uleb128 0x49
 1806 0088 13       		.uleb128 0x13
 1807 0089 00       		.byte	0
 1808 008a 00       		.byte	0
 1809 008b 0C       		.uleb128 0xc
 1810 008c 13       		.uleb128 0x13
ARM GAS  /tmp/cc8vM8pJ.s 			page 52


 1811 008d 01       		.byte	0x1
 1812 008e 0B       		.uleb128 0xb
 1813 008f 0B       		.uleb128 0xb
 1814 0090 3A       		.uleb128 0x3a
 1815 0091 0B       		.uleb128 0xb
 1816 0092 3B       		.uleb128 0x3b
 1817 0093 0B       		.uleb128 0xb
 1818 0094 01       		.uleb128 0x1
 1819 0095 13       		.uleb128 0x13
 1820 0096 00       		.byte	0
 1821 0097 00       		.byte	0
 1822 0098 0D       		.uleb128 0xd
 1823 0099 17       		.uleb128 0x17
 1824 009a 01       		.byte	0x1
 1825 009b 0B       		.uleb128 0xb
 1826 009c 0B       		.uleb128 0xb
 1827 009d 3A       		.uleb128 0x3a
 1828 009e 0B       		.uleb128 0xb
 1829 009f 3B       		.uleb128 0x3b
 1830 00a0 0B       		.uleb128 0xb
 1831 00a1 01       		.uleb128 0x1
 1832 00a2 13       		.uleb128 0x13
 1833 00a3 00       		.byte	0
 1834 00a4 00       		.byte	0
 1835 00a5 0E       		.uleb128 0xe
 1836 00a6 0D       		.uleb128 0xd
 1837 00a7 00       		.byte	0
 1838 00a8 03       		.uleb128 0x3
 1839 00a9 0E       		.uleb128 0xe
 1840 00aa 3A       		.uleb128 0x3a
 1841 00ab 0B       		.uleb128 0xb
 1842 00ac 3B       		.uleb128 0x3b
 1843 00ad 0B       		.uleb128 0xb
 1844 00ae 49       		.uleb128 0x49
 1845 00af 13       		.uleb128 0x13
 1846 00b0 00       		.byte	0
 1847 00b1 00       		.byte	0
 1848 00b2 0F       		.uleb128 0xf
 1849 00b3 26       		.uleb128 0x26
 1850 00b4 00       		.byte	0
 1851 00b5 49       		.uleb128 0x49
 1852 00b6 13       		.uleb128 0x13
 1853 00b7 00       		.byte	0
 1854 00b8 00       		.byte	0
 1855 00b9 10       		.uleb128 0x10
 1856 00ba 16       		.uleb128 0x16
 1857 00bb 00       		.byte	0
 1858 00bc 03       		.uleb128 0x3
 1859 00bd 0E       		.uleb128 0xe
 1860 00be 3A       		.uleb128 0x3a
 1861 00bf 0B       		.uleb128 0xb
 1862 00c0 3B       		.uleb128 0x3b
 1863 00c1 05       		.uleb128 0x5
 1864 00c2 49       		.uleb128 0x49
 1865 00c3 13       		.uleb128 0x13
 1866 00c4 00       		.byte	0
 1867 00c5 00       		.byte	0
ARM GAS  /tmp/cc8vM8pJ.s 			page 53


 1868 00c6 11       		.uleb128 0x11
 1869 00c7 15       		.uleb128 0x15
 1870 00c8 01       		.byte	0x1
 1871 00c9 27       		.uleb128 0x27
 1872 00ca 0C       		.uleb128 0xc
 1873 00cb 01       		.uleb128 0x1
 1874 00cc 13       		.uleb128 0x13
 1875 00cd 00       		.byte	0
 1876 00ce 00       		.byte	0
 1877 00cf 12       		.uleb128 0x12
 1878 00d0 05       		.uleb128 0x5
 1879 00d1 00       		.byte	0
 1880 00d2 49       		.uleb128 0x49
 1881 00d3 13       		.uleb128 0x13
 1882 00d4 00       		.byte	0
 1883 00d5 00       		.byte	0
 1884 00d6 13       		.uleb128 0x13
 1885 00d7 13       		.uleb128 0x13
 1886 00d8 01       		.byte	0x1
 1887 00d9 03       		.uleb128 0x3
 1888 00da 0E       		.uleb128 0xe
 1889 00db 0B       		.uleb128 0xb
 1890 00dc 0B       		.uleb128 0xb
 1891 00dd 3A       		.uleb128 0x3a
 1892 00de 0B       		.uleb128 0xb
 1893 00df 3B       		.uleb128 0x3b
 1894 00e0 05       		.uleb128 0x5
 1895 00e1 01       		.uleb128 0x1
 1896 00e2 13       		.uleb128 0x13
 1897 00e3 00       		.byte	0
 1898 00e4 00       		.byte	0
 1899 00e5 14       		.uleb128 0x14
 1900 00e6 0D       		.uleb128 0xd
 1901 00e7 00       		.byte	0
 1902 00e8 03       		.uleb128 0x3
 1903 00e9 0E       		.uleb128 0xe
 1904 00ea 3A       		.uleb128 0x3a
 1905 00eb 0B       		.uleb128 0xb
 1906 00ec 3B       		.uleb128 0x3b
 1907 00ed 05       		.uleb128 0x5
 1908 00ee 49       		.uleb128 0x49
 1909 00ef 13       		.uleb128 0x13
 1910 00f0 38       		.uleb128 0x38
 1911 00f1 0A       		.uleb128 0xa
 1912 00f2 00       		.byte	0
 1913 00f3 00       		.byte	0
 1914 00f4 15       		.uleb128 0x15
 1915 00f5 13       		.uleb128 0x13
 1916 00f6 01       		.byte	0x1
 1917 00f7 0B       		.uleb128 0xb
 1918 00f8 0B       		.uleb128 0xb
 1919 00f9 3A       		.uleb128 0x3a
 1920 00fa 0B       		.uleb128 0xb
 1921 00fb 3B       		.uleb128 0x3b
 1922 00fc 05       		.uleb128 0x5
 1923 00fd 01       		.uleb128 0x1
 1924 00fe 13       		.uleb128 0x13
ARM GAS  /tmp/cc8vM8pJ.s 			page 54


 1925 00ff 00       		.byte	0
 1926 0100 00       		.byte	0
 1927 0101 16       		.uleb128 0x16
 1928 0102 01       		.uleb128 0x1
 1929 0103 01       		.byte	0x1
 1930 0104 49       		.uleb128 0x49
 1931 0105 13       		.uleb128 0x13
 1932 0106 01       		.uleb128 0x1
 1933 0107 13       		.uleb128 0x13
 1934 0108 00       		.byte	0
 1935 0109 00       		.byte	0
 1936 010a 17       		.uleb128 0x17
 1937 010b 21       		.uleb128 0x21
 1938 010c 00       		.byte	0
 1939 010d 49       		.uleb128 0x49
 1940 010e 13       		.uleb128 0x13
 1941 010f 2F       		.uleb128 0x2f
 1942 0110 0B       		.uleb128 0xb
 1943 0111 00       		.byte	0
 1944 0112 00       		.byte	0
 1945 0113 18       		.uleb128 0x18
 1946 0114 2E       		.uleb128 0x2e
 1947 0115 01       		.byte	0x1
 1948 0116 03       		.uleb128 0x3
 1949 0117 0E       		.uleb128 0xe
 1950 0118 3A       		.uleb128 0x3a
 1951 0119 0B       		.uleb128 0xb
 1952 011a 3B       		.uleb128 0x3b
 1953 011b 05       		.uleb128 0x5
 1954 011c 27       		.uleb128 0x27
 1955 011d 0C       		.uleb128 0xc
 1956 011e 20       		.uleb128 0x20
 1957 011f 0B       		.uleb128 0xb
 1958 0120 01       		.uleb128 0x1
 1959 0121 13       		.uleb128 0x13
 1960 0122 00       		.byte	0
 1961 0123 00       		.byte	0
 1962 0124 19       		.uleb128 0x19
 1963 0125 05       		.uleb128 0x5
 1964 0126 00       		.byte	0
 1965 0127 03       		.uleb128 0x3
 1966 0128 0E       		.uleb128 0xe
 1967 0129 3A       		.uleb128 0x3a
 1968 012a 0B       		.uleb128 0xb
 1969 012b 3B       		.uleb128 0x3b
 1970 012c 05       		.uleb128 0x5
 1971 012d 49       		.uleb128 0x49
 1972 012e 13       		.uleb128 0x13
 1973 012f 00       		.byte	0
 1974 0130 00       		.byte	0
 1975 0131 1A       		.uleb128 0x1a
 1976 0132 2E       		.uleb128 0x2e
 1977 0133 00       		.byte	0
 1978 0134 03       		.uleb128 0x3
 1979 0135 0E       		.uleb128 0xe
 1980 0136 3A       		.uleb128 0x3a
 1981 0137 0B       		.uleb128 0xb
ARM GAS  /tmp/cc8vM8pJ.s 			page 55


 1982 0138 3B       		.uleb128 0x3b
 1983 0139 05       		.uleb128 0x5
 1984 013a 27       		.uleb128 0x27
 1985 013b 0C       		.uleb128 0xc
 1986 013c 20       		.uleb128 0x20
 1987 013d 0B       		.uleb128 0xb
 1988 013e 00       		.byte	0
 1989 013f 00       		.byte	0
 1990 0140 1B       		.uleb128 0x1b
 1991 0141 34       		.uleb128 0x34
 1992 0142 00       		.byte	0
 1993 0143 03       		.uleb128 0x3
 1994 0144 0E       		.uleb128 0xe
 1995 0145 49       		.uleb128 0x49
 1996 0146 13       		.uleb128 0x13
 1997 0147 34       		.uleb128 0x34
 1998 0148 0C       		.uleb128 0xc
 1999 0149 1C       		.uleb128 0x1c
 2000 014a 0E       		.uleb128 0xe
 2001 014b 00       		.byte	0
 2002 014c 00       		.byte	0
 2003 014d 1C       		.uleb128 0x1c
 2004 014e 2E       		.uleb128 0x2e
 2005 014f 01       		.byte	0x1
 2006 0150 3F       		.uleb128 0x3f
 2007 0151 0C       		.uleb128 0xc
 2008 0152 03       		.uleb128 0x3
 2009 0153 0E       		.uleb128 0xe
 2010 0154 3A       		.uleb128 0x3a
 2011 0155 0B       		.uleb128 0xb
 2012 0156 3B       		.uleb128 0x3b
 2013 0157 0B       		.uleb128 0xb
 2014 0158 27       		.uleb128 0x27
 2015 0159 0C       		.uleb128 0xc
 2016 015a 49       		.uleb128 0x49
 2017 015b 13       		.uleb128 0x13
 2018 015c 11       		.uleb128 0x11
 2019 015d 01       		.uleb128 0x1
 2020 015e 12       		.uleb128 0x12
 2021 015f 01       		.uleb128 0x1
 2022 0160 40       		.uleb128 0x40
 2023 0161 0A       		.uleb128 0xa
 2024 0162 9742     		.uleb128 0x2117
 2025 0164 0C       		.uleb128 0xc
 2026 0165 01       		.uleb128 0x1
 2027 0166 13       		.uleb128 0x13
 2028 0167 00       		.byte	0
 2029 0168 00       		.byte	0
 2030 0169 1D       		.uleb128 0x1d
 2031 016a 34       		.uleb128 0x34
 2032 016b 00       		.byte	0
 2033 016c 03       		.uleb128 0x3
 2034 016d 08       		.uleb128 0x8
 2035 016e 3A       		.uleb128 0x3a
 2036 016f 0B       		.uleb128 0xb
 2037 0170 3B       		.uleb128 0x3b
 2038 0171 0B       		.uleb128 0xb
ARM GAS  /tmp/cc8vM8pJ.s 			page 56


 2039 0172 49       		.uleb128 0x49
 2040 0173 13       		.uleb128 0x13
 2041 0174 02       		.uleb128 0x2
 2042 0175 0A       		.uleb128 0xa
 2043 0176 00       		.byte	0
 2044 0177 00       		.byte	0
 2045 0178 1E       		.uleb128 0x1e
 2046 0179 1D       		.uleb128 0x1d
 2047 017a 01       		.byte	0x1
 2048 017b 31       		.uleb128 0x31
 2049 017c 13       		.uleb128 0x13
 2050 017d 11       		.uleb128 0x11
 2051 017e 01       		.uleb128 0x1
 2052 017f 12       		.uleb128 0x12
 2053 0180 01       		.uleb128 0x1
 2054 0181 58       		.uleb128 0x58
 2055 0182 0B       		.uleb128 0xb
 2056 0183 59       		.uleb128 0x59
 2057 0184 0B       		.uleb128 0xb
 2058 0185 01       		.uleb128 0x1
 2059 0186 13       		.uleb128 0x13
 2060 0187 00       		.byte	0
 2061 0188 00       		.byte	0
 2062 0189 1F       		.uleb128 0x1f
 2063 018a 1D       		.uleb128 0x1d
 2064 018b 01       		.byte	0x1
 2065 018c 31       		.uleb128 0x31
 2066 018d 13       		.uleb128 0x13
 2067 018e 11       		.uleb128 0x11
 2068 018f 01       		.uleb128 0x1
 2069 0190 12       		.uleb128 0x12
 2070 0191 01       		.uleb128 0x1
 2071 0192 58       		.uleb128 0x58
 2072 0193 0B       		.uleb128 0xb
 2073 0194 59       		.uleb128 0x59
 2074 0195 05       		.uleb128 0x5
 2075 0196 00       		.byte	0
 2076 0197 00       		.byte	0
 2077 0198 20       		.uleb128 0x20
 2078 0199 05       		.uleb128 0x5
 2079 019a 00       		.byte	0
 2080 019b 31       		.uleb128 0x31
 2081 019c 13       		.uleb128 0x13
 2082 019d 1C       		.uleb128 0x1c
 2083 019e 0B       		.uleb128 0xb
 2084 019f 00       		.byte	0
 2085 01a0 00       		.byte	0
 2086 01a1 21       		.uleb128 0x21
 2087 01a2 1D       		.uleb128 0x1d
 2088 01a3 01       		.byte	0x1
 2089 01a4 31       		.uleb128 0x31
 2090 01a5 13       		.uleb128 0x13
 2091 01a6 52       		.uleb128 0x52
 2092 01a7 01       		.uleb128 0x1
 2093 01a8 55       		.uleb128 0x55
 2094 01a9 06       		.uleb128 0x6
 2095 01aa 58       		.uleb128 0x58
ARM GAS  /tmp/cc8vM8pJ.s 			page 57


 2096 01ab 0B       		.uleb128 0xb
 2097 01ac 59       		.uleb128 0x59
 2098 01ad 0B       		.uleb128 0xb
 2099 01ae 00       		.byte	0
 2100 01af 00       		.byte	0
 2101 01b0 22       		.uleb128 0x22
 2102 01b1 0B       		.uleb128 0xb
 2103 01b2 01       		.byte	0x1
 2104 01b3 55       		.uleb128 0x55
 2105 01b4 06       		.uleb128 0x6
 2106 01b5 00       		.byte	0
 2107 01b6 00       		.byte	0
 2108 01b7 23       		.uleb128 0x23
 2109 01b8 34       		.uleb128 0x34
 2110 01b9 00       		.byte	0
 2111 01ba 31       		.uleb128 0x31
 2112 01bb 13       		.uleb128 0x13
 2113 01bc 00       		.byte	0
 2114 01bd 00       		.byte	0
 2115 01be 24       		.uleb128 0x24
 2116 01bf 1D       		.uleb128 0x1d
 2117 01c0 01       		.byte	0x1
 2118 01c1 31       		.uleb128 0x31
 2119 01c2 13       		.uleb128 0x13
 2120 01c3 52       		.uleb128 0x52
 2121 01c4 01       		.uleb128 0x1
 2122 01c5 55       		.uleb128 0x55
 2123 01c6 06       		.uleb128 0x6
 2124 01c7 58       		.uleb128 0x58
 2125 01c8 0B       		.uleb128 0xb
 2126 01c9 59       		.uleb128 0x59
 2127 01ca 05       		.uleb128 0x5
 2128 01cb 00       		.byte	0
 2129 01cc 00       		.byte	0
 2130 01cd 25       		.uleb128 0x25
 2131 01ce 2E       		.uleb128 0x2e
 2132 01cf 01       		.byte	0x1
 2133 01d0 3F       		.uleb128 0x3f
 2134 01d1 0C       		.uleb128 0xc
 2135 01d2 03       		.uleb128 0x3
 2136 01d3 0E       		.uleb128 0xe
 2137 01d4 3A       		.uleb128 0x3a
 2138 01d5 0B       		.uleb128 0xb
 2139 01d6 3B       		.uleb128 0x3b
 2140 01d7 0B       		.uleb128 0xb
 2141 01d8 27       		.uleb128 0x27
 2142 01d9 0C       		.uleb128 0xc
 2143 01da 49       		.uleb128 0x49
 2144 01db 13       		.uleb128 0x13
 2145 01dc 11       		.uleb128 0x11
 2146 01dd 01       		.uleb128 0x1
 2147 01de 12       		.uleb128 0x12
 2148 01df 01       		.uleb128 0x1
 2149 01e0 40       		.uleb128 0x40
 2150 01e1 06       		.uleb128 0x6
 2151 01e2 9742     		.uleb128 0x2117
 2152 01e4 0C       		.uleb128 0xc
ARM GAS  /tmp/cc8vM8pJ.s 			page 58


 2153 01e5 01       		.uleb128 0x1
 2154 01e6 13       		.uleb128 0x13
 2155 01e7 00       		.byte	0
 2156 01e8 00       		.byte	0
 2157 01e9 26       		.uleb128 0x26
 2158 01ea 05       		.uleb128 0x5
 2159 01eb 00       		.byte	0
 2160 01ec 03       		.uleb128 0x3
 2161 01ed 08       		.uleb128 0x8
 2162 01ee 3A       		.uleb128 0x3a
 2163 01ef 0B       		.uleb128 0xb
 2164 01f0 3B       		.uleb128 0x3b
 2165 01f1 0B       		.uleb128 0xb
 2166 01f2 49       		.uleb128 0x49
 2167 01f3 13       		.uleb128 0x13
 2168 01f4 02       		.uleb128 0x2
 2169 01f5 06       		.uleb128 0x6
 2170 01f6 00       		.byte	0
 2171 01f7 00       		.byte	0
 2172 01f8 27       		.uleb128 0x27
 2173 01f9 34       		.uleb128 0x34
 2174 01fa 00       		.byte	0
 2175 01fb 03       		.uleb128 0x3
 2176 01fc 08       		.uleb128 0x8
 2177 01fd 3A       		.uleb128 0x3a
 2178 01fe 0B       		.uleb128 0xb
 2179 01ff 3B       		.uleb128 0x3b
 2180 0200 0B       		.uleb128 0xb
 2181 0201 49       		.uleb128 0x49
 2182 0202 13       		.uleb128 0x13
 2183 0203 02       		.uleb128 0x2
 2184 0204 06       		.uleb128 0x6
 2185 0205 00       		.byte	0
 2186 0206 00       		.byte	0
 2187 0207 28       		.uleb128 0x28
 2188 0208 34       		.uleb128 0x34
 2189 0209 00       		.byte	0
 2190 020a 03       		.uleb128 0x3
 2191 020b 0E       		.uleb128 0xe
 2192 020c 49       		.uleb128 0x49
 2193 020d 13       		.uleb128 0x13
 2194 020e 34       		.uleb128 0x34
 2195 020f 0C       		.uleb128 0xc
 2196 0210 00       		.byte	0
 2197 0211 00       		.byte	0
 2198 0212 29       		.uleb128 0x29
 2199 0213 0B       		.uleb128 0xb
 2200 0214 01       		.byte	0x1
 2201 0215 11       		.uleb128 0x11
 2202 0216 01       		.uleb128 0x1
 2203 0217 12       		.uleb128 0x12
 2204 0218 01       		.uleb128 0x1
 2205 0219 00       		.byte	0
 2206 021a 00       		.byte	0
 2207 021b 2A       		.uleb128 0x2a
 2208 021c 05       		.uleb128 0x5
 2209 021d 00       		.byte	0
ARM GAS  /tmp/cc8vM8pJ.s 			page 59


 2210 021e 31       		.uleb128 0x31
 2211 021f 13       		.uleb128 0x13
 2212 0220 02       		.uleb128 0x2
 2213 0221 06       		.uleb128 0x6
 2214 0222 00       		.byte	0
 2215 0223 00       		.byte	0
 2216 0224 2B       		.uleb128 0x2b
 2217 0225 898201   		.uleb128 0x4109
 2218 0228 00       		.byte	0
 2219 0229 11       		.uleb128 0x11
 2220 022a 01       		.uleb128 0x1
 2221 022b 31       		.uleb128 0x31
 2222 022c 13       		.uleb128 0x13
 2223 022d 00       		.byte	0
 2224 022e 00       		.byte	0
 2225 022f 2C       		.uleb128 0x2c
 2226 0230 34       		.uleb128 0x34
 2227 0231 00       		.byte	0
 2228 0232 03       		.uleb128 0x3
 2229 0233 0E       		.uleb128 0xe
 2230 0234 3A       		.uleb128 0x3a
 2231 0235 0B       		.uleb128 0xb
 2232 0236 3B       		.uleb128 0x3b
 2233 0237 05       		.uleb128 0x5
 2234 0238 49       		.uleb128 0x49
 2235 0239 13       		.uleb128 0x13
 2236 023a 3F       		.uleb128 0x3f
 2237 023b 0C       		.uleb128 0xc
 2238 023c 3C       		.uleb128 0x3c
 2239 023d 0C       		.uleb128 0xc
 2240 023e 00       		.byte	0
 2241 023f 00       		.byte	0
 2242 0240 2D       		.uleb128 0x2d
 2243 0241 34       		.uleb128 0x34
 2244 0242 00       		.byte	0
 2245 0243 03       		.uleb128 0x3
 2246 0244 08       		.uleb128 0x8
 2247 0245 3A       		.uleb128 0x3a
 2248 0246 0B       		.uleb128 0xb
 2249 0247 3B       		.uleb128 0x3b
 2250 0248 05       		.uleb128 0x5
 2251 0249 49       		.uleb128 0x49
 2252 024a 13       		.uleb128 0x13
 2253 024b 3F       		.uleb128 0x3f
 2254 024c 0C       		.uleb128 0xc
 2255 024d 3C       		.uleb128 0x3c
 2256 024e 0C       		.uleb128 0xc
 2257 024f 00       		.byte	0
 2258 0250 00       		.byte	0
 2259 0251 2E       		.uleb128 0x2e
 2260 0252 34       		.uleb128 0x34
 2261 0253 00       		.byte	0
 2262 0254 03       		.uleb128 0x3
 2263 0255 0E       		.uleb128 0xe
 2264 0256 3A       		.uleb128 0x3a
 2265 0257 0B       		.uleb128 0xb
 2266 0258 3B       		.uleb128 0x3b
ARM GAS  /tmp/cc8vM8pJ.s 			page 60


 2267 0259 0B       		.uleb128 0xb
 2268 025a 49       		.uleb128 0x49
 2269 025b 13       		.uleb128 0x13
 2270 025c 3F       		.uleb128 0x3f
 2271 025d 0C       		.uleb128 0xc
 2272 025e 02       		.uleb128 0x2
 2273 025f 0A       		.uleb128 0xa
 2274 0260 00       		.byte	0
 2275 0261 00       		.byte	0
 2276 0262 2F       		.uleb128 0x2f
 2277 0263 2E       		.uleb128 0x2e
 2278 0264 01       		.byte	0x1
 2279 0265 3F       		.uleb128 0x3f
 2280 0266 0C       		.uleb128 0xc
 2281 0267 03       		.uleb128 0x3
 2282 0268 0E       		.uleb128 0xe
 2283 0269 3A       		.uleb128 0x3a
 2284 026a 0B       		.uleb128 0xb
 2285 026b 3B       		.uleb128 0x3b
 2286 026c 0B       		.uleb128 0xb
 2287 026d 27       		.uleb128 0x27
 2288 026e 0C       		.uleb128 0xc
 2289 026f 3C       		.uleb128 0x3c
 2290 0270 0C       		.uleb128 0xc
 2291 0271 00       		.byte	0
 2292 0272 00       		.byte	0
 2293 0273 00       		.byte	0
 2294              		.section	.debug_loc,"",%progbits
 2295              	.Ldebug_loc0:
 2296              	.LLST0:
 2297 0000 00000000 		.4byte	.LFB166
 2298 0004 02000000 		.4byte	.LCFI0
 2299 0008 0200     		.2byte	0x2
 2300 000a 7D       		.byte	0x7d
 2301 000b 00       		.sleb128 0
 2302 000c 02000000 		.4byte	.LCFI0
 2303 0010 2C000000 		.4byte	.LFE166
 2304 0014 0200     		.2byte	0x2
 2305 0016 7D       		.byte	0x7d
 2306 0017 08       		.sleb128 8
 2307 0018 00000000 		.4byte	0
 2308 001c 00000000 		.4byte	0
 2309              	.LLST1:
 2310 0020 00000000 		.4byte	.LVL3
 2311 0024 1F000000 		.4byte	.LVL6-1
 2312 0028 0100     		.2byte	0x1
 2313 002a 50       		.byte	0x50
 2314 002b 1F000000 		.4byte	.LVL6-1
 2315 002f 24000000 		.4byte	.LVL7
 2316 0033 0400     		.2byte	0x4
 2317 0035 F3       		.byte	0xf3
 2318 0036 01       		.uleb128 0x1
 2319 0037 50       		.byte	0x50
 2320 0038 9F       		.byte	0x9f
 2321 0039 24000000 		.4byte	.LVL7
 2322 003d 2C000000 		.4byte	.LFE166
 2323 0041 0100     		.2byte	0x1
ARM GAS  /tmp/cc8vM8pJ.s 			page 61


 2324 0043 50       		.byte	0x50
 2325 0044 00000000 		.4byte	0
 2326 0048 00000000 		.4byte	0
 2327              	.LLST2:
 2328 004c 0C000000 		.4byte	.LVL4
 2329 0050 26000000 		.4byte	.LVL8
 2330 0054 0100     		.2byte	0x1
 2331 0056 54       		.byte	0x54
 2332 0057 26000000 		.4byte	.LVL8
 2333 005b 2C000000 		.4byte	.LFE166
 2334 005f 0200     		.2byte	0x2
 2335 0061 70       		.byte	0x70
 2336 0062 10       		.sleb128 16
 2337 0063 00000000 		.4byte	0
 2338 0067 00000000 		.4byte	0
 2339              	.LLST3:
 2340 006b 16000000 		.4byte	.LVL5
 2341 006f 24000000 		.4byte	.LVL7
 2342 0073 0200     		.2byte	0x2
 2343 0075 30       		.byte	0x30
 2344 0076 9F       		.byte	0x9f
 2345 0077 00000000 		.4byte	0
 2346 007b 00000000 		.4byte	0
 2347              		.section	.debug_aranges,"",%progbits
 2348 0000 24000000 		.4byte	0x24
 2349 0004 0200     		.2byte	0x2
 2350 0006 00000000 		.4byte	.Ldebug_info0
 2351 000a 04       		.byte	0x4
 2352 000b 00       		.byte	0
 2353 000c 0000     		.2byte	0
 2354 000e 0000     		.2byte	0
 2355 0010 00000000 		.4byte	.LFB165
 2356 0014 1E000000 		.4byte	.LFE165-.LFB165
 2357 0018 00000000 		.4byte	.LFB166
 2358 001c 2C000000 		.4byte	.LFE166-.LFB166
 2359 0020 00000000 		.4byte	0
 2360 0024 00000000 		.4byte	0
 2361              		.section	.debug_ranges,"",%progbits
 2362              	.Ldebug_ranges0:
 2363 0000 10000000 		.4byte	.LBB38
 2364 0004 12000000 		.4byte	.LBE38
 2365 0008 18000000 		.4byte	.LBB47
 2366 000c 1C000000 		.4byte	.LBE47
 2367 0010 00000000 		.4byte	0
 2368 0014 00000000 		.4byte	0
 2369 0018 10000000 		.4byte	.LBB39
 2370 001c 12000000 		.4byte	.LBE39
 2371 0020 18000000 		.4byte	.LBB46
 2372 0024 1C000000 		.4byte	.LBE46
 2373 0028 00000000 		.4byte	0
 2374 002c 00000000 		.4byte	0
 2375 0030 10000000 		.4byte	.LBB40
 2376 0034 12000000 		.4byte	.LBE40
 2377 0038 18000000 		.4byte	.LBB45
 2378 003c 1C000000 		.4byte	.LBE45
 2379 0040 00000000 		.4byte	0
 2380 0044 00000000 		.4byte	0
ARM GAS  /tmp/cc8vM8pJ.s 			page 62


 2381 0048 10000000 		.4byte	.LBB41
 2382 004c 12000000 		.4byte	.LBE41
 2383 0050 18000000 		.4byte	.LBB44
 2384 0054 1C000000 		.4byte	.LBE44
 2385 0058 00000000 		.4byte	0
 2386 005c 00000000 		.4byte	0
 2387 0060 00000000 		.4byte	.LFB165
 2388 0064 1E000000 		.4byte	.LFE165
 2389 0068 00000000 		.4byte	.LFB166
 2390 006c 2C000000 		.4byte	.LFE166
 2391 0070 00000000 		.4byte	0
 2392 0074 00000000 		.4byte	0
 2393              		.section	.debug_line,"",%progbits
 2394              	.Ldebug_line0:
 2395 0000 77020000 		.section	.debug_str,"MS",%progbits,1
 2395      02000E02 
 2395      00000201 
 2395      FB0E0D00 
 2395      01010101 
 2396              	.LASF87:
 2397 0000 63665F6F 		.ascii	"cf_off_older\000"
 2397      66665F6F 
 2397      6C646572 
 2397      00
 2398              	.LASF52:
 2399 000d 72656164 		.ascii	"ready_list_t\000"
 2399      795F6C69 
 2399      73745F74 
 2399      00
 2400              	.LASF19:
 2401 001a 73697A65 		.ascii	"size_t\000"
 2401      5F7400
 2402              	.LASF53:
 2403 0021 7264796D 		.ascii	"rdymsg\000"
 2403      736700
 2404              	.LASF43:
 2405 0028 706F7274 		.ascii	"port_intctx\000"
 2405      5F696E74 
 2405      63747800 
 2406              	.LASF74:
 2407 0034 76746C69 		.ascii	"vtlist\000"
 2407      737400
 2408              	.LASF97:
 2409 003b 706F7274 		.ascii	"port_lock\000"
 2409      5F6C6F63 
 2409      6B00
 2410              	.LASF30:
 2411 0045 6C6F6E67 		.ascii	"long long unsigned int\000"
 2411      206C6F6E 
 2411      6720756E 
 2411      7369676E 
 2411      65642069 
 2412              	.LASF83:
 2413 005c 63685F74 		.ascii	"ch_threadsize\000"
 2413      68726561 
 2413      6473697A 
 2413      6500
ARM GAS  /tmp/cc8vM8pJ.s 			page 63


 2414              	.LASF54:
 2415 006a 65786974 		.ascii	"exitcode\000"
 2415      636F6465 
 2415      00
 2416              	.LASF102:
 2417 0073 63685265 		.ascii	"chRegFirstThread\000"
 2417      67466972 
 2417      73745468 
 2417      72656164 
 2417      00
 2418              	.LASF104:
 2419 0084 49544D5F 		.ascii	"ITM_RxBuffer\000"
 2419      52784275 
 2419      66666572 
 2419      00
 2420              	.LASF2:
 2421 0091 705F7072 		.ascii	"p_prio\000"
 2421      696F00
 2422              	.LASF90:
 2423 0098 63665F6F 		.ascii	"cf_off_state\000"
 2423      66665F73 
 2423      74617465 
 2423      00
 2424              	.LASF29:
 2425 00a5 6C6F6E67 		.ascii	"long long int\000"
 2425      206C6F6E 
 2425      6720696E 
 2425      7400
 2426              	.LASF18:
 2427 00b3 7369676E 		.ascii	"signed char\000"
 2427      65642063 
 2427      68617200 
 2428              	.LASF89:
 2429 00bf 63665F6F 		.ascii	"cf_off_stklimit\000"
 2429      66665F73 
 2429      746B6C69 
 2429      6D697400 
 2430              	.LASF91:
 2431 00cf 63665F6F 		.ascii	"cf_off_flags\000"
 2431      66665F66 
 2431      6C616773 
 2431      00
 2432              	.LASF16:
 2433 00dc 705F6D70 		.ascii	"p_mpool\000"
 2433      6F6F6C00 
 2434              	.LASF59:
 2435 00e4 6D5F7175 		.ascii	"m_queue\000"
 2435      65756500 
 2436              	.LASF98:
 2437 00ec 706F7274 		.ascii	"port_unlock\000"
 2437      5F756E6C 
 2437      6F636B00 
 2438              	.LASF106:
 2439 00f8 474E5520 		.ascii	"GNU C 4.7.4 20130913 (release) [ARM/embedded-4_7-br"
 2439      4320342E 
 2439      372E3420 
 2439      32303133 
ARM GAS  /tmp/cc8vM8pJ.s 			page 64


 2439      30393133 
 2440 012b 616E6368 		.ascii	"anch revision 202601]\000"
 2440      20726576 
 2440      6973696F 
 2440      6E203230 
 2440      32363031 
 2441              	.LASF72:
 2442 0141 63685F73 		.ascii	"ch_system\000"
 2442      79737465 
 2442      6D00
 2443              	.LASF26:
 2444 014b 6C6F6E67 		.ascii	"long int\000"
 2444      20696E74 
 2444      00
 2445              	.LASF33:
 2446 0154 74737461 		.ascii	"tstate_t\000"
 2446      74655F74 
 2446      00
 2447              	.LASF41:
 2448 015d 74687265 		.ascii	"thread\000"
 2448      616400
 2449              	.LASF80:
 2450 0164 63685F76 		.ascii	"ch_version\000"
 2450      65727369 
 2450      6F6E00
 2451              	.LASF95:
 2452 016f 63686465 		.ascii	"chdebug_t\000"
 2452      6275675F 
 2452      7400
 2453              	.LASF4:
 2454 0179 705F6E65 		.ascii	"p_newer\000"
 2454      77657200 
 2455              	.LASF49:
 2456 0181 725F6E65 		.ascii	"r_newer\000"
 2456      77657200 
 2457              	.LASF40:
 2458 0189 72656761 		.ascii	"regarm_t\000"
 2458      726D5F74 
 2458      00
 2459              	.LASF66:
 2460 0192 76745F70 		.ascii	"vt_prev\000"
 2460      72657600 
 2461              	.LASF96:
 2462 019a 6D757465 		.ascii	"mutex_t\000"
 2462      785F7400 
 2463              	.LASF109:
 2464 01a2 76616C75 		.ascii	"value\000"
 2464      6500
 2465              	.LASF110:
 2466 01a8 5F5F6675 		.ascii	"__func__.5444\000"
 2466      6E635F5F 
 2466      2E353434 
 2466      3400
 2467              	.LASF17:
 2468 01b6 756E7369 		.ascii	"unsigned int\000"
 2468      676E6564 
 2468      20696E74 
ARM GAS  /tmp/cc8vM8pJ.s 			page 65


 2468      00
 2469              	.LASF65:
 2470 01c3 76745F6E 		.ascii	"vt_next\000"
 2470      65787400 
 2471              	.LASF23:
 2472 01cb 75696E74 		.ascii	"uint16_t\000"
 2472      31365F74 
 2472      00
 2473              	.LASF11:
 2474 01d4 705F6D73 		.ascii	"p_msgqueue\000"
 2474      67717565 
 2474      756500
 2475              	.LASF105:
 2476 01df 63685F64 		.ascii	"ch_debug\000"
 2476      65627567 
 2476      00
 2477              	.LASF24:
 2478 01e8 73686F72 		.ascii	"short unsigned int\000"
 2478      7420756E 
 2478      7369676E 
 2478      65642069 
 2478      6E7400
 2479              	.LASF36:
 2480 01fb 6D73675F 		.ascii	"msg_t\000"
 2480      7400
 2481              	.LASF76:
 2482 0201 63685F73 		.ascii	"ch_system_t\000"
 2482      79737465 
 2482      6D5F7400 
 2483              	.LASF94:
 2484 020d 63665F6F 		.ascii	"cf_off_time\000"
 2484      66665F74 
 2484      696D6500 
 2485              	.LASF37:
 2486 0219 6576656E 		.ascii	"eventmask_t\000"
 2486      746D6173 
 2486      6B5F7400 
 2487              	.LASF71:
 2488 0225 76697274 		.ascii	"virtual_timers_list_t\000"
 2488      75616C5F 
 2488      74696D65 
 2488      72735F6C 
 2488      6973745F 
 2489              	.LASF78:
 2490 023b 63685F7A 		.ascii	"ch_zero\000"
 2490      65726F00 
 2491              	.LASF92:
 2492 0243 63665F6F 		.ascii	"cf_off_refs\000"
 2492      66665F72 
 2492      65667300 
 2493              	.LASF10:
 2494 024f 705F7761 		.ascii	"p_waiting\000"
 2494      6974696E 
 2494      6700
 2495              	.LASF38:
 2496 0259 73697A65 		.ascii	"sizetype\000"
 2496      74797065 
ARM GAS  /tmp/cc8vM8pJ.s 			page 66


 2496      00
 2497              	.LASF82:
 2498 0262 63685F74 		.ascii	"ch_timesize\000"
 2498      696D6573 
 2498      697A6500 
 2499              	.LASF88:
 2500 026e 63665F6F 		.ascii	"cf_off_name\000"
 2500      66665F6E 
 2500      616D6500 
 2501              	.LASF5:
 2502 027a 705F6F6C 		.ascii	"p_older\000"
 2502      64657200 
 2503              	.LASF48:
 2504 0282 725F6374 		.ascii	"r_ctx\000"
 2504      7800
 2505              	.LASF3:
 2506 0288 705F6374 		.ascii	"p_ctx\000"
 2506      7800
 2507              	.LASF79:
 2508 028e 63685F73 		.ascii	"ch_size\000"
 2508      697A6500 
 2509              	.LASF51:
 2510 0296 725F6375 		.ascii	"r_current\000"
 2510      7272656E 
 2510      7400
 2511              	.LASF50:
 2512 02a0 725F6F6C 		.ascii	"r_older\000"
 2512      64657200 
 2513              	.LASF34:
 2514 02a8 74726566 		.ascii	"trefs_t\000"
 2514      735F7400 
 2515              	.LASF81:
 2516 02b0 63685F70 		.ascii	"ch_ptrsize\000"
 2516      74727369 
 2516      7A6500
 2517              	.LASF63:
 2518 02bb 76697274 		.ascii	"virtual_timer_t\000"
 2518      75616C5F 
 2518      74696D65 
 2518      725F7400 
 2519              	.LASF1:
 2520 02cb 705F7072 		.ascii	"p_prev\000"
 2520      657600
 2521              	.LASF35:
 2522 02d2 74707269 		.ascii	"tprio_t\000"
 2522      6F5F7400 
 2523              	.LASF58:
 2524 02da 6D757465 		.ascii	"mutex\000"
 2524      7800
 2525              	.LASF25:
 2526 02e0 696E7433 		.ascii	"int32_t\000"
 2526      325F7400 
 2527              	.LASF21:
 2528 02e8 756E7369 		.ascii	"unsigned char\000"
 2528      676E6564 
 2528      20636861 
 2528      7200
ARM GAS  /tmp/cc8vM8pJ.s 			page 67


 2529              	.LASF14:
 2530 02f6 705F6D74 		.ascii	"p_mtxlist\000"
 2530      786C6973 
 2530      7400
 2531              	.LASF22:
 2532 0300 73686F72 		.ascii	"short int\000"
 2532      7420696E 
 2532      7400
 2533              	.LASF7:
 2534 030a 705F7374 		.ascii	"p_state\000"
 2534      61746500 
 2535              	.LASF47:
 2536 0312 725F7072 		.ascii	"r_prio\000"
 2536      696F00
 2537              	.LASF56:
 2538 0319 65776D61 		.ascii	"ewmask\000"
 2538      736B00
 2539              	.LASF0:
 2540 0320 705F6E65 		.ascii	"p_next\000"
 2540      787400
 2541              	.LASF32:
 2542 0327 746D6F64 		.ascii	"tmode_t\000"
 2542      655F7400 
 2543              	.LASF93:
 2544 032f 63665F6F 		.ascii	"cf_off_preempt\000"
 2544      66665F70 
 2544      7265656D 
 2544      707400
 2545              	.LASF8:
 2546 033e 705F666C 		.ascii	"p_flags\000"
 2546      61677300 
 2547              	.LASF99:
 2548 0346 63685379 		.ascii	"chSysLock\000"
 2548      734C6F63 
 2548      6B00
 2549              	.LASF112:
 2550 0350 63685468 		.ascii	"chThdRelease\000"
 2550      6452656C 
 2550      65617365 
 2550      00
 2551              	.LASF44:
 2552 035d 74687265 		.ascii	"threads_queue_t\000"
 2552      6164735F 
 2552      71756575 
 2552      655F7400 
 2553              	.LASF86:
 2554 036d 63665F6F 		.ascii	"cf_off_newer\000"
 2554      66665F6E 
 2554      65776572 
 2554      00
 2555              	.LASF13:
 2556 037a 705F6570 		.ascii	"p_epending\000"
 2556      656E6469 
 2556      6E6700
 2557              	.LASF27:
 2558 0385 75696E74 		.ascii	"uint32_t\000"
 2558      33325F74 
ARM GAS  /tmp/cc8vM8pJ.s 			page 68


 2558      00
 2559              	.LASF84:
 2560 038e 63665F6F 		.ascii	"cf_off_prio\000"
 2560      66665F70 
 2560      72696F00 
 2561              	.LASF46:
 2562 039a 725F7175 		.ascii	"r_queue\000"
 2562      65756500 
 2563              	.LASF67:
 2564 03a2 76745F64 		.ascii	"vt_delta\000"
 2564      656C7461 
 2564      00
 2565              	.LASF28:
 2566 03ab 6C6F6E67 		.ascii	"long unsigned int\000"
 2566      20756E73 
 2566      69676E65 
 2566      6420696E 
 2566      7400
 2567              	.LASF57:
 2568 03bd 63686172 		.ascii	"char\000"
 2568      00
 2569              	.LASF103:
 2570 03c2 63685265 		.ascii	"chRegNextThread\000"
 2570      674E6578 
 2570      74546872 
 2570      65616400 
 2571              	.LASF61:
 2572 03d2 6D5F6E65 		.ascii	"m_next\000"
 2572      787400
 2573              	.LASF39:
 2574 03d9 73797374 		.ascii	"systime_t\000"
 2574      696D655F 
 2574      7400
 2575              	.LASF15:
 2576 03e3 705F7265 		.ascii	"p_realprio\000"
 2576      616C7072 
 2576      696F00
 2577              	.LASF62:
 2578 03ee 76746675 		.ascii	"vtfunc_t\000"
 2578      6E635F74 
 2578      00
 2579              	.LASF107:
 2580 03f7 2E2E2F2E 		.ascii	"../../../os/rt/src/chregistry.c\000"
 2580      2E2F2E2E 
 2580      2F6F732F 
 2580      72742F73 
 2580      72632F63 
 2581              	.LASF100:
 2582 0417 5F5F7365 		.ascii	"__set_BASEPRI\000"
 2582      745F4241 
 2582      53455052 
 2582      4900
 2583              	.LASF111:
 2584 0425 5F5F6675 		.ascii	"__func__.6104\000"
 2584      6E635F5F 
 2584      2E363130 
 2584      3400
ARM GAS  /tmp/cc8vM8pJ.s 			page 69


 2585              	.LASF108:
 2586 0433 2F686F6D 		.ascii	"/home/joerg/repos/chibios-projects/ChibiOS-RT/demos"
 2586      652F6A6F 
 2586      6572672F 
 2586      7265706F 
 2586      732F6368 
 2587 0466 2F53544D 		.ascii	"/STM32/RT-STM32F103-OLIMEX_STM32_P103\000"
 2587      33322F52 
 2587      542D5354 
 2587      4D333246 
 2587      3130332D 
 2588              	.LASF42:
 2589 048c 636F6E74 		.ascii	"context\000"
 2589      65787400 
 2590              	.LASF31:
 2591 0494 7274636E 		.ascii	"rtcnt_t\000"
 2591      745F7400 
 2592              	.LASF64:
 2593 049c 76697274 		.ascii	"virtual_timer\000"
 2593      75616C5F 
 2593      74696D65 
 2593      7200
 2594              	.LASF69:
 2595 04aa 76745F70 		.ascii	"vt_par\000"
 2595      617200
 2596              	.LASF75:
 2597 04b1 6D656173 		.ascii	"measurement_offset\000"
 2597      7572656D 
 2597      656E745F 
 2597      6F666673 
 2597      657400
 2598              	.LASF85:
 2599 04c4 63665F6F 		.ascii	"cf_off_ctx\000"
 2599      66665F63 
 2599      747800
 2600              	.LASF9:
 2601 04cf 705F7265 		.ascii	"p_refs\000"
 2601      667300
 2602              	.LASF73:
 2603 04d6 726C6973 		.ascii	"rlist\000"
 2603      7400
 2604              	.LASF20:
 2605 04dc 75696E74 		.ascii	"uint8_t\000"
 2605      385F7400 
 2606              	.LASF70:
 2607 04e4 76745F6C 		.ascii	"vt_lasttime\000"
 2607      61737474 
 2607      696D6500 
 2608              	.LASF55:
 2609 04f0 77746F62 		.ascii	"wtobjp\000"
 2609      6A7000
 2610              	.LASF6:
 2611 04f7 705F6E61 		.ascii	"p_name\000"
 2611      6D6500
 2612              	.LASF45:
 2613 04fe 74687265 		.ascii	"threads_list_t\000"
 2613      6164735F 
ARM GAS  /tmp/cc8vM8pJ.s 			page 70


 2613      6C697374 
 2613      5F7400
 2614              	.LASF101:
 2615 050d 63685379 		.ascii	"chSysUnlock\000"
 2615      73556E6C 
 2615      6F636B00 
 2616              	.LASF12:
 2617 0519 705F6D73 		.ascii	"p_msg\000"
 2617      6700
 2618              	.LASF60:
 2619 051f 6D5F6F77 		.ascii	"m_owner\000"
 2619      6E657200 
 2620              	.LASF77:
 2621 0527 63685F69 		.ascii	"ch_identifier\000"
 2621      64656E74 
 2621      69666965 
 2621      7200
 2622              	.LASF68:
 2623 0535 76745F66 		.ascii	"vt_func\000"
 2623      756E6300 
 2624              		.comm	__gnu_lto_v1,1,1
 2625              		.ident	"GCC: (GNU Tools for ARM Embedded Processors) 4.7.4 20130913 (release) [ARM/embedded-4_7-br
ARM GAS  /tmp/cc8vM8pJ.s 			page 71


DEFINED SYMBOLS
                            *ABS*:00000000 chregistry.c
     /tmp/cc8vM8pJ.s:339    .text.chRegFirstThread:00000000 $t
     /tmp/cc8vM8pJ.s:345    .text.chRegFirstThread:00000000 chRegFirstThread
     /tmp/cc8vM8pJ.s:412    .text.chRegNextThread:00000000 $t
     /tmp/cc8vM8pJ.s:418    .text.chRegNextThread:00000000 chRegNextThread
     /tmp/cc8vM8pJ.s:489    .text.chRegNextThread:00000028 $d
     /tmp/cc8vM8pJ.s:498    .rodata.ch_debug:00000000 ch_debug
     /tmp/cc8vM8pJ.s:495    .rodata.ch_debug:00000000 $d
                            *COM*:00000001 __gnu_lto_v1
                     .debug_frame:00000010 $d
     /tmp/cc8vM8pJ.s:494    .text.chRegNextThread:0000002c $t

UNDEFINED SYMBOLS
ch
chThdRelease
