ARM GAS  /tmp/cceDQEjf.s 			page 1


   1              		.syntax unified
   2              		.cpu cortex-m3
   3              		.fpu softvfp
   4              		.eabi_attribute 20, 1
   5              		.eabi_attribute 21, 1
   6              		.eabi_attribute 23, 3
   7              		.eabi_attribute 24, 1
   8              		.eabi_attribute 25, 1
   9              		.eabi_attribute 26, 1
  10              		.eabi_attribute 30, 2
  11              		.eabi_attribute 34, 1
  12              		.eabi_attribute 18, 4
  13              		.thumb
  14              		.file	"chtm.c"
  15              		.text
  16              	.Ltext0:
  17              		.section	.gnu.lto_.jmpfuncs.efe19c4060afc9be,"",%progbits
  18 0000 789C6362 		.ascii	"x\234cb`d`g\300\016\004\2404+\003###\023#3P)#\003\013"
  18      60646067 
  18      C00E04A0 
  18      342B0323 
  18      23231323 
  19 001a 33030004 		.ascii	"3\003\000\004n\0002"
  19      6E0032
  20              		.text
  21              		.section	.gnu.lto_.inline.efe19c4060afc9be,"",%progbits
  22 0000 789C6362 		.ascii	"x\234cb`d\340e\300\016\022\2414+\003\003'\007#\003\023"
  22      6064E065 
  22      C00E12A1 
  22      342B0303 
  22      27072303 
  23 0015 DB073D06 		.ascii	"\333\007=\006\236\011~L@-\254,\014\014L\314;\304\031"
  23      9E097E4C 
  23      402DAC2C 
  23      0C0C4CCC 
  23      3BC419
  24 0028 D83BD499 		.ascii	"\330;\324\231\030\230\030$\305\200|\205\236\207\214"
  24      18981824 
  24      C5807C85 
  24      9E878C
  25 0037 0C424B0A 		.ascii	"\014BK\012\230\030\230%\004\024\201\032\204.\36402\260"
  25      98189825 
  25      0414811A 
  25      842EF430 
  25      32B0
  26 0049 2D9007AA 		.ascii	"-\220\007\252\340f\000\352\202\220,\014\022\242@\325"
  26      E06600EA 
  26      82902C0C 
  26      12A240D5 
  27 0059 B2574E32 		.ascii	"\262WN22\010\367T010\000\000r\305\014\302"
  27      3208F754 
  27      30313000 
  27      0072C50C 
  27      C2
  28              		.text
  29              		.section	.gnu.lto_.pureconst.efe19c4060afc9be,"",%progbits
  30 0000 789C6362 		.ascii	"x\234cb`d`f``\340f\200\000V\006)F)&)f\011\026)\000\004"
ARM GAS  /tmp/cceDQEjf.s 			page 2


  30      60646066 
  30      6060E066 
  30      80005606 
  30      29462926 
  31 001b 6300A1   		.ascii	"c\000\241"
  32              		.text
  33              		.section	.gnu.lto_chTMObjectInit.efe19c4060afc9be,"",%progbits
  34 0000 789C6362 		.ascii	"x\234cb`\004BL \011\304\347\201\022\012@\232\221\231"
  34      6004424C 
  34      2009C4E7 
  34      81120A40 
  34      9A9199
  35 0013 819169C2 		.ascii	"\201\221i\3029\006\206F\005&FF\020\003\250\245\236\211"
  35      39068646 
  35      05264646 
  35      1003A8A5 
  35      9E89
  36 0025 B13E14A2 		.ascii	"\261>\024\242\363\324\211\305\372\177\346\260\355g:"
  36      F3D489C5 
  36      FA7FE6B0 
  36      ED673A
  37 0034 F0E07FBD 		.ascii	"\360\340\177\275\012\303\342\206\206I\023\232\033<R"
  37      0AC3E286 
  37      8649139A 
  37      1B3C52
  38 0043 19199818 		.ascii	"\031\031\230\030d\031\031\342\031\031\216\314y\306$"
  38      641919E2 
  38      19198ECC 
  38      79C624
  39 0052 C990CAC8 		.ascii	"\311\220\312\310\0104\017D31\260\2004\002U0p02\3062"
  39      08340F44 
  39      3331B080 
  39      34025530 
  39      703032C6 
  40 0067 2E605401 		.ascii	".`T\001\361Y\031Z\032\032\004@\032\300 \020D\203\254"
  40      F159195A 
  40      1A1A0440 
  40      1AC02010 
  40      4483AC
  41 007a 0B026A00 		.ascii	"\013\002j\0001\230O14Y\\\231\263\016\250c\021#+\203"
  41      31984F31 
  41      34595C99 
  41      B30EA863 
  41      11232B83 
  42 008e 3683562A 		.ascii	"6\203V*#3\363,\206\231\214\251\214,L\311\214\214\222"
  42      2333F32C 
  42      86998CA9 
  42      8C2C4CC9 
  42      8C8C92
  43 00a1 60231918 		.ascii	"`#\031\0302\2008\216\021\356\225T\240\342\377@\300\017"
  43      3280388E 
  43      11EE9554 
  43      A0E2FF40 
  43      C00F
  44 00b3 722CD088 		.ascii	"r,\320\210;D\033\301\210l\004\003T\373\023\242\2653"
  44      3B441BC1 
  44      886C0403 
ARM GAS  /tmp/cceDQEjf.s 			page 3


  44      54FB13A2 
  44      B533
  45 00c5 61D3FE06 		.ascii	"a\323\376\006U;\033n\355\314\330\264\177A\325\316\216"
  45      553B1B6E 
  45      EDCCD8B4 
  45      7F41D5CE 
  45      8E
  46 00d6 5B3B0B42 		.ascii	"[;\013B;\007\230u\216\201\021\030O\020\3150\020\010"
  46      3B079875 
  46      8E811118 
  46      4F10CD30 
  46      1008
  47 00e8 F223306C 		.ascii	"\362#0lAN\225\322\323\323\207\240\374b\375\242\022\375"
  47      414E95D2 
  47      D3D387A0 
  47      FC62FDA2 
  47      12FD
  48 00fa E2A264FD 		.ascii	"\342\242d\375\344\214\222\\\275d\006\346\222\334\002"
  48      E48C925C 
  48      BD6406E6 
  48      92DC02
  49 0109 0010B15D 		.ascii	"\000\020\261]\303"
  49      C3
  50              		.text
  51              		.section	.gnu.lto_chTMStartMeasurementX.efe19c4060afc9be,"",%progbits
  52 0000 789C6D50 		.ascii	"x\234mPMK\002Q\024=\367=\235Z\245[\203H\302M\0113\313"
  52      4D4B0251 
  52      143DF73D 
  52      9D5AA55B 
  52      8348C24D 
  53 0017 D6D1C602 		.ascii	"\326\321\306\002\027\012m\002s1\014\314F\224q\210v>"
  53      170A6D02 
  53      73310CCC 
  53      46947188 
  53      763E
  54 0029 CD1F20ED 		.ascii	"\315\037 \355t!\212\320\242?Q\024\264\030\302uK\241"
  54      74218AD0 
  54      A23F5114 
  54      B418C275 
  54      4BA1
  55 003b 88A21F61 		.ascii	"\210\242\037a\367\216\022Y\335\367q/\357\236s\336\341"
  55      F78E1259 
  55      DDF7712F 
  55      EF9E73DE 
  55      E1
  56 004c 2A10AFBF 		.ascii	"*\020\257\277\221\341\343s\343\2303i\220\352M\201vV"
  56      91E1E373 
  56      E3983369 
  56      90EA4D81 
  56      7656
  57 005e 1149C194 		.ascii	"\021I\301\224\226\242\326I\314\244\035\214\215\031\364"
  57      96A2D649 
  57      CCA41D8C 
  57      8D19F4
  58 006d 1E3A85CE 		.ascii	"\036:\205\316l>\337\366\344\265J\210>^R\031xD\310B\262"
  58      6C3EDFF6 
  58      E4B54A88 
ARM GAS  /tmp/cceDQEjf.s 			page 4


  58      3E5E5219 
  58      7844C842 
  59 0082 4262F58F 		.ascii	"Bb\365\217\367\324\353\320\272Uw\263y+\207\2111W\275"
  59      F7D4EBD0 
  59      BA5577B3 
  59      792B8789 
  59      3157BD
  60 0095 4B53F048 		.ascii	"KS\360H+l\221\010<\015\337\364?\002\214\300\272\242"
  60      2B6C9108 
  60      3C0DDFF4 
  60      3F028CC0 
  60      BAA2
  61 00a7 0A8D2907 		.ascii	"\012\215)\007\013\025\032\261\003\216$\272\306\244\205"
  61      0B151AB1 
  61      038E24BA 
  61      C6A485
  62 00b6 184749B2 		.ascii	"\030GI\262\230-3Q\012\035\341\376\364:\352?\352%r\231"
  62      982D3351 
  62      0A1DE1FE 
  62      F43AEA3F 
  62      EA257299 
  63 00ca 2A34A1E4 		.ascii	"*4\241\344\017[.Yy\334\230.y\224\320\003\364\333i\217"
  63      0F5B2E59 
  63      79DC982E 
  63      7994D003 
  63      F4DB698F 
  64 00de 924A0C58 		.ascii	"\222J\014X0#c6\260\250\021\017\356L\256g\0353#t\216"
  64      30236336 
  64      B0A8110F 
  64      EE4CAE67 
  64      1D332374 
  65 00f3 A24FBD10 		.ascii	"\242O\275\020\314c\217'!\002,\264\246\\\212%\004\350"
  65      CC638F27 
  65      21022CB4 
  65      A65C8A25 
  65      04E8
  66 0105 C734FAFE 		.ascii	"\3074\372\376\015\230\202x\024\253FJ\202`\333l\036\233"
  66      0D988278 
  66      14AB464A 
  66      8260DB6C 
  66      1E9B
  67 0117 B6ED2C76 		.ascii	"\266\355,v\275\351\004\241\323\014\\\307\365\303\232"
  67      BDE904A1 
  67      D30C5CC7 
  67      F5C39A
  68 0126 ED4287B5 		.ascii	"\355B\207\265\306\356\257v\243\036\204M\347\240\\<,"
  68      C6EEAF76 
  68      A31E844D 
  68      E7A05C3C 
  68      2C
  69 0137 5E30CEAD 		.ascii	"^0\316\255\007^\365|\277f\373\370\002z\227_,"
  69      075EF57C 
  69      BF66FBF8 
  69      027A975F 
  69      2C
  70              		.text
  71              		.section	.gnu.lto_chTMStopMeasurementX.efe19c4060afc9be,"",%progbits
ARM GAS  /tmp/cceDQEjf.s 			page 5


  72 0000 789C9D55 		.ascii	"x\234\235UMH\033A\024~o&\331\374\307x\264\240\025\361"
  72      4D481B41 
  72      147E6F26 
  72      D9FCC778 
  72      B4A015F1 
  73 0014 602B24DE 		.ascii	"`+$\336zm\351E\021)\012^\204\324CXI\0136\222\204\266"
  73      7A6DE945 
  73      11290A5E 
  73      84D44358 
  73      490B3692 
  74 002a F460D6E8 		.ascii	"\364`\326\350!\275I/\376\\\214\265Zk\177\216\325R\241"
  74      21BD492F 
  74      FE5C8CB5 
  74      5A6B7F8E 
  74      D552A1
  75 003d A55A0FA1 		.ascii	"\245Z\017\241x\012\350\301\203\024\013\036<JmAH\337"
  75      780AE8C1 
  75      83140B1E 
  75      3C4A6D41 
  75      48DF
  76 004f CCEEC6C4 		.ascii	"\314\356\306\304\250\331f\222\3547\231\231\357\233o"
  76      A8D96692 
  76      EC379999 
  76      EF9B6F
  77 005e DE9B9965 		.ascii	"\336\233\231e\200\364\251,\335\364\353t\002\364\023"
  77      80F4A92C 
  77      DDF4EB74 
  77      02F413
  78 006d A203904D 		.ascii	"\242\003\220Mn\003\21453\306\327\233@k\263\345C\240"
  78      6E038C35 
  78      33C6D79B 
  78      406BB3E5 
  78      43A0
  79 007f 757054F4 		.ascii	"upT\364f\033\263\213\2066Etv\330\315f\005QTh\202\024"
  79      661BB38B 
  79      86364574 
  79      76D8CD66 
  79      05515468 
  80 0095 E336BB82 		.ascii	"\3436\273\202\251~9\227\267\005\3465\355\305\344F\272"
  80      A97E3997 
  80      B705E635 
  80      EDC5E446 
  80      BA
  81 00a6 33BD5F28 		.ascii	"3\275_(\\WE\353 B.\263\350k\000\025\021\232A \003[\271"
  81      5C5745EB 
  81      20422EB3 
  81      E86B0015 
  81      119A4120 
  82 00bd 2BC99B2D 		.ascii	"+\311\233-\341q\311;\236\033\255N\253\234\356\364\304"
  82      E171C93B 
  82      9E1BAD4E 
  82      AB9CEEF4 
  82      C4
  83 00ce 5F0BED68 		.ascii	"_\013\355h\307c\201\226\335HgxV;-\024\270\2126I<8q\353"
  83      C7638196 
  83      DD486778 
  83      563B2D14 
ARM GAS  /tmp/cceDQEjf.s 			page 6


  83      B88A3649 
  84 00e6 C4DB06D1 		.ascii	"\304\333\006\321i\221xh\257\215\267f\205W\261\276\275"
  84      69917868 
  84      AF8DB766 
  84      8557B1BE 
  84      BD
  85 00f7 93BA5AC2 		.ascii	"\223\272Z\302bN\366\177\254\214\243\026V~U\251\205\026"
  85      624EF67F 
  85      AC8CA316 
  85      567E55A9 
  85      8516
  86 0109 BD92743C 		.ascii	"\275\222t<\367\233\377XV\276\260\257\373\205T+,\010"
  86      F79BFF58 
  86      56BEB0AF 
  86      FB85542B 
  86      2C08
  87 011b 8571AD53 		.ascii	"\205q\255SE;\203F\324\367\331O~\201\004\215\200\006"
  87      453B8346 
  87      D4F7D94F 
  87      7E81048D 
  87      8006
  88 012d 0661CC62 		.ascii	"\006a\314b\013p\014\343;l\005\007\375\237\247\377N\302"
  88      0B700CE3 
  88      3B6C0507 
  88      FD9FA7FF 
  88      4EC2
  89 013f B7842EC2 		.ascii	"\267\204.\302\025B7\341\033B\017\3412\241\227\3605\241"
  89      154237E1 
  89      1B420FE1 
  89      32A197F0 
  89      35A1
  90 0151 8F7089D0 		.ascii	"\217p\211\320O\270HXG\370\2120@\270@XO\370\222\220\212"
  90      4FB84858 
  90      47F88A30 
  90      40B84058 
  90      4FF89290 
  91 0166 1D26342D 		.ascii	"\035&4- \014\311\322+P\234\263>2$*<\007\337\006\226"
  91      200CC9D2 
  91      2B509CB3 
  91      3E32242A 
  91      3C07DF06 
  92 017b 72335BDC 		.ascii	"r3[\334\030i@\030?\220\323\263\022AG;\254h\023\250\242"
  92      18694018 
  92      3F90D3B3 
  92      1241473B 
  92      AC6813A8 
  93 0190 C2676166 		.ascii	"\302gaf,\240\242\203\211\2059A\313j\232\037\364:\310"
  93      2CA0A283 
  93      89853941 
  93      CB6A9A1F 
  93      F43AC8
  94 01a3 1BE2BE78 		.ascii	"\033\342\276x\354r\311\314Az@\034V]1\202\254\035n\322"
  94      EC72C9CC 
  94      417A401C 
  94      565D3182 
  94      AC1D6ED2 
  95 01b7 61142224 		.ascii	"a\024\"$\346b\317\340\257\346T\321\215\017\364\333E"
ARM GAS  /tmp/cceDQEjf.s 			page 7


  95      E662CFE0 
  95      AFE654D1 
  95      8D0FF4DB 
  95      45
  96 01c8 E8B88B3A 		.ascii	"\350\270\213:\305\373f\013\230a\312H\030\205\333H\230"
  96      C5FB660B 
  96      9861CA48 
  96      1885DB48 
  96      98
  97 01d9 3D8CEF69 		.ascii	"=\214\357i9\026\016wD\\\002\244\264\271\374\360\022"
  97      39160E77 
  97      445C02A4 
  97      B4B9FCF0 
  97      12
  98 01ea 2DCEA01B 		.ascii	"-\316\240\033\255I9\252K\335\263(\305\3640\345w\260"
  98      AD4939AA 
  98      4BDDB328 
  98      C5F430E5 
  98      77B0
  99 01fc 2C0B3C8C 		.ascii	",\013<\214\237(\215a\\\225\317\217\362y>/N\031O\217"
  99      9F288D61 
  99      5C95CF8F 
  99      F2793E2F 
  99      4E194F8F 
 100 0210 114F2FA3 		.ascii	"\021O/\24356\310mf\206\220\231cs0\236\232&\315\3172"
 100      3536C86D 
 100      66869099 
 100      6373309E 
 100      9A26CDCF 
 101 0225 0F2EA28A 		.ascii	"\017.\242\212\201\0369\214\246\357\002\275\313\202^"
 101      811E398C 
 101      A6EF02BD 
 101      CB825E
 102 0234 54CEECD2 		.ascii	"T\316\354\322]\357M\371MMwYn/\340\362\022/\031\276f"
 102      5DEF4DF9 
 102      4D4D7759 
 102      6E2FE0F2 
 102      122F19BE 
 103 0249 37891E0A 		.ascii	"7\211\036\012gD\244]\266\377q\230\355^\331\245\207\247"
 103      6744A45D 
 103      B6FF7198 
 103      ED5ED9A5 
 103      87A7
 104 025b 6B979718 		.ascii	"k\227\227\030\274z\022\335\240W7Hw\251\251\347\223\\"
 104      BC7A12DD 
 104      A0573748 
 104      77A9A9E7 
 104      935C
 105 026d DFE55C1B 		.ascii	"\337\345\\\033\030\2578\"\036\361\303\242A\277\2416"
 105      18AF3822 
 105      1EF1C3A2 
 105      41BFA136 
 106 027d 9E3A335D 		.ascii	"\236:3]Gz\324S\031\274\352\372D\326\275\321\013\302"
 106      477AD453 
 106      19BCEAFA 
 106      44D6BDD1 
 106      0BC2
ARM GAS  /tmp/cceDQEjf.s 			page 8


 107 028f 940B545B 		.ascii	"\224\013T[W1\357\337a\363\027FKb\0248\333\020}b\371"
 107      5731EFDF 
 107      61F31746 
 107      4B621438 
 107      DB107D62 
 108 02a4 EB4D5C78 		.ascii	"\353M\\x:\236r[\213\030\3252\334\014\231\256BF\363!"
 108      3A9E725B 
 108      8B18D532 
 108      DC0C99AE 
 108      4246F321 
 109 02b8 A13240AF 		.ascii	"\2412@\257>s\252\372jBJ\211\305\003\\\343%\036\353K"
 109      3E73AAFA 
 109      6A424A89 
 109      C5035CE3 
 109      251EEB4B 
 110 02cc 3D12E379 		.ascii	"=\022\343y\243\364\2709=j\315\243R\351Q\321\257\260"
 110      A3F4B839 
 110      3D6ACDA3 
 110      52E951D1 
 110      AFB0
 111 02de 6D40BA8B 		.ascii	"m@\272\213\313OF\257\2709\250Sl\376k\301`H\377\306\022"
 111      CB4F46AF 
 111      B839A853 
 111      6CFE6BC1 
 111      6048FFC6 
 112 02f3 A1783294 		.ascii	"\241x2\224\210GB\221hr8\030\001\236\034\036\271q\256"
 112      88474291 
 112      68723818 
 112      019E1C1E 
 112      B971AE
 113 0306 7B24164F 		.ascii	"{$\026O&Bw\372z\356\366<\245q\221X\\\035||k8\030\005"
 113      264277FA 
 113      7AEEF63C 
 113      A5719158 
 113      5C1D7C7C 
 114 031e FE28F644 		.ascii	"\376(\366D\211\015\015%\324\344?|\037\257\375"
 114      890D0D25 
 114      D4E43F7C 
 114      1FAFFD
 115              		.text
 116              		.section	.gnu.lto__tm_init.efe19c4060afc9be,"",%progbits
 117 0000 789C9D52 		.ascii	"x\234\235R\277K\034A\030}o\346\3564F\214e\024L\016\355"
 117      BF4B1C41 
 117      187D6FE6 
 117      EE34468C 
 117      65144C0E 
 118 0015 22DC1536 		.ascii	"\"\334\0256\371\023bi@\020\341\274bY0\302\021\321kb"
 118      F9136269 
 118      4010E1BC 
 118      625930C2 
 118      11D16B62 
 119 0029 73938BA0 		.ascii	"s\223\213\240\345a\225[R(\001\005\013\013\013\013\013"
 119      E561955B 
 119      52280105 
 119      0B0B0B0B 
 119      0B
 120 003a 73444871 		.ascii	"sDHq\004\253\224\026\022\017\253+% \010\353\314\316"
ARM GAS  /tmp/cceDQEjf.s 			page 9


 120      04AB9416 
 120      120FAB2B 
 120      252008EB 
 120      CCCE
 121 004c EC5D96BB 		.ascii	"\354]\226\273Xd\366\307\314\316\276\367}\357}\337\010"
 121      5864F6C7 
 121      CCCEBEF7 
 121      7DEF7DDF 
 121      08
 122 005d 505FBD63 		.ascii	"P_\275cL?[\022\230\3223%(j\027\300\307\254 \315BS*\202"
 122      4C3F5B12 
 122      98D23325 
 122      286A17C0 
 122      C7AC20CD 
 123 0075 95F98829 		.ascii	"\225\371\210)&\261\247\324N\355\274\372\246z\025\206"
 123      26B1A7D4 
 123      4EEDBCFA 
 123      A67A1586 
 124 0085 2F7DB35B 		.ascii	"/}\263[$\232G\327/\306\340\223\310\302\314\002\251d"
 124      249A47D7 
 124      2FC6E093 
 124      C8C2CC02 
 124      A964
 125 0097 0EC36BD4 		.ascii	"\016\303k\324jJm\313]u\037\206\322\247\024\230\240!"
 125      6A4A6DCB 
 125      5D751F86 
 125      D2A71498 
 125      A021
 126 00a9 B7EBA7B4 		.ascii	"\267\353\247\264\344\006\035\373y\222\335\252\237\360"
 126      E4061DFB 
 126      7992DDAA 
 126      9FF0
 127 00b7 3EC87C13 		.ascii	">\310|\023\215\253\260\002\214\020\005\356r\322\374"
 127      8DABB002 
 127      8C1005EE 
 127      72D2FC
 128 00c6 4A6353A9 		.ascii	"JcS\251Q\026\270\247\277\213\316\336\234\231\215\370"
 128      5116B8A7 
 128      BF8BCEDE 
 128      9C998DF8 
 129 00d6 B73A9659 		.ascii	"\267:\226Y\310&\252\257\177\0057\032\367\225iL\343\225"
 129      C826AAAF 
 129      7F05371A 
 129      F795694C 
 129      E395
 130 00e8 CF940C50 		.ascii	"\317\224\014P\247\317\264\330\300\235\032\364\231\341"
 130      A7CFB4D8 
 130      C09D1AF4 
 130      99E1
 131 00f6 3B5B20A3 		.ascii	";[ \243!\0239\007\226\314k\301mZS? >\017\330@\256\034"
 131      21133907 
 131      96CC6BC1 
 131      6D5A533F 
 131      203E0FD8 
 132 010d 9F545C8E 		.ascii	"\237T\\\216\001\201ld\252U\037\177\264 \033\370\240"
 132      01816C64 
 132      AA551F7F 
ARM GAS  /tmp/cceDQEjf.s 			page 10


 132      B4201BF8 
 132      A0
 133 011e D14EF765 		.ascii	"\321N\367e\260o\225G2\277\034\321\272\352\232;\320 "
 133      B06F9547 
 133      32BF1CD1 
 133      BAEA9A3B 
 133      D020
 134 0130 9BB13B9C 		.ascii	"\233\261;\234\011\033aIg\302\262\223\011\204z<s\361"
 134      091B6149 
 134      67C2B293 
 134      09847A3C 
 134      73F1
 135 0142 2E75BC02 		.ascii	".u\274\002\017\273\266c\206\370\233\021go\375\013-\373"
 135      0FBBB663 
 135      86F89B11 
 135      676FFD0B 
 135      2DFB
 136 0154 A1DB49F4 		.ascii	"\241\333I\364`\007\235\352\207\276M\242\237t\320\351"
 136      60079DEA 
 136      87BE4DA2 
 136      9F74D0E9 
 137 0164 2E7A2842 		.ascii	".z(B\377D\252\025\374fl\3315\350)\213${\313g\206\317"
 137      FF44AA15 
 137      FC666CD9 
 137      35E8298B 
 137      247BCB67 
 138 017a E188D60E 		.ascii	"\341\210\326\016\316\372\321\304c4\255m\3616\370\343"
 138      CEFAD1C4 
 138      6334AD6D 
 138      F136F8E3 
 139 018a 781ED96B 		.ascii	"x\036\331k\275cb6n\375\377\234!\317\250o\342\373\212"
 139      BD636236 
 139      6EFDFF9C 
 139      21CFA86F 
 139      E2FB8A
 140 019d 4B6513CC 		.ascii	"Ke\023\314\340Xm\353 Q\232\013\230\223\236\354\365\234"
 140      E0586DEB 
 140      20519A0B 
 140      98939EEC 
 140      F59C
 141 01af A1E953AC 		.ascii	"\241\351S\254\033\206\361\\.o\357\367\353\371\265r~"
 141      1B86F15C 
 141      2E6FEFF7 
 141      EBF9B572 
 141      7E
 142 01c0 7DCDCB7B 		.ascii	"}\315\313{\313\345R\316\203(\227d\271\264\372\000\236"
 142      CBE552CE 
 142      83289764 
 142      B9B4FA00 
 142      9E
 143 01d1 56B89D   		.ascii	"V\270\235"
 144              		.text
 145              		.section	.gnu.lto_chTMChainMeasurementToX.efe19c4060afc9be,"",%progbits
 146 0000 789C9D55 		.ascii	"x\234\235U?L\023Q\030\377\276{wWh\201\026\230\324\200"
 146      3F4C1351 
 146      18FFBE7B 
 146      77576881 
ARM GAS  /tmp/cceDQEjf.s 			page 11


 146      1698D480 
 147 0014 84382024 		.ascii	"\2048 $-\272\270j\\0\206\001\022\006I*\303\345Hc\202"
 147      2DBAB86A 
 147      5C308601 
 147      1206492A 
 147      C3E54863 
 148 0029 256DA34C 		.ascii	"%m\243L\364(\014u#.\374Y,\"(\325\270\0310\0225R\031"
 148      F4280C75 
 148      232EFC59 
 148      2C2228D5 
 148      B8193012 
 149 0040 3A303581 		.ascii	":05\201\201\201\030H\030\210\223\011\013I\375\336\273"
 149      81811848 
 149      18889309 
 149      0B49FDDE 
 149      BB
 150 0051 3B385A6D 		.ascii	";8Zm/\275\366\336\357\362\336\367\373\275\337}\337{"
 150      2FBDF6DE 
 150      EFF2DEF7 
 150      FBBDDF7D 
 150      DF7B
 151 0063 EF2440FA 		.ascii	"\357$@\372\225_\017\351\376\345\001\030!D\017\2404\273"
 151      955F0FE9 
 151      FEE50118 
 151      21440FA0 
 151      34BB
 152 0075 0330D521 		.ascii	"\0030\325!Il\263\035\214.\271\020\002\243\227\241jv"
 152      496CB31D 
 152      8C2EB910 
 152      02A397A1 
 152      6A76
 153 0087 CB92C23B 		.ascii	"\313\222\302;\272T>\330\253\330\335*\"\177\240\011\222"
 153      BA543ED8 
 153      ABD8DD2A 
 153      227FA009 
 153      92
 154 0098 12931515 		.ascii	"\022\223\025\025\223Cb.o',\031\306\342\354V\252/uP,"
 154      9343622E 
 154      6F272C19 
 154      C6E2EC56 
 154      AA2F7550 
 155 00ad 5ED779EF 		.ascii	"^\327y\357\010B\376\325\221\377\012\350\210\320\001"
 155      0842FED5 
 155      91FF0AE8 
 155      88D001
 156 00bc 1C25902F 		.ascii	"\034%\220/\273\022\274\227\016\036\023\274\263\323\246"
 156      BB12BC97 
 156      0E1E13BC 
 156      B3D3A6
 157 00cb 5A6827BB 		.ascii	"Zh'\273>\027\264\314V*\3152\306Y\261\310t\224\005\361"
 157      3E17B4CC 
 157      562ACD32 
 157      C659B1C8 
 157      749405F1 
 158 00df F0D46B12 		.ascii	"\360\324k\022\357Z\304:\227\304c\2456\336\206\033^\331"
 158      EF5AC43A 
 158      97C463A5 
ARM GAS  /tmp/cceDQEjf.s 			page 12


 158      36DE861B 
 158      5ED9
 159 00f1 FBED9FD6 		.ascii	"\373\355\237\326\224\315\264\247\026Va]\255\205\026"
 159      94CDB4A7 
 159      1656615D 
 159      AD8516
 160 0100 A948CA65 		.ascii	"\251H\312eW\033\316\262\3527\351\373A1y\003\226\271"
 160      571BCEB2 
 160      EA37E9FB 
 160      41317903 
 160      96B9
 161 0112 C2B4D1A7 		.ascii	"\302\264\321\247\243\"A\033\212\322\257\375f\345\022"
 161      A322411B 
 161      8AD2AFFD 
 161      66E512
 162 0121 5812DB29 		.ascii	"X\022\333)bs\335\377\230\214\306\305}M\3020~ \242L\230"
 162      6273DDFF 
 162      988CC6C5 
 162      7D4DC230 
 162      7E20A24C 
 163 0136 25AC8730 		.ascii	"%\254\2070f\260\023\274\204k\204>\302w\204\015\204o"
 163      66B013BC 
 163      846B843E 
 163      C277840D 
 163      846F
 164 0148 091B0957 		.ascii	"\011\033\011W\011\375\204+\204\001\3027\204\315\204"
 164      09FD842B 
 164      8401C237 
 164      84CD84
 165 0157 CB842D84 		.ascii	"\313\204-\204\257\011[\011\227\010\351R`\3060\002\334"
 165      AF095B09 
 165      9708E952 
 165      60C63002 
 165      DC
 166 0168 8AB80638 		.ascii	"\212\270\0068\362\0152Hf\370\003\313\303\217\341\257"
 166      F20D3248 
 166      66F803CB 
 166      C38FE1AF 
 167 0178 F9856D66 		.ascii	"\371\205mfEZ\020\306\217\344\360\342\322\260\276\007"
 167      455A10C6 
 167      8FE4F0E2 
 167      D2B0BE07 
 168 0188 B2C60CEA 		.ascii	"\262\306\014\352\250\262EX\230\012\350\350\221\370K"
 168      A8B24558 
 168      980AE8E8 
 168      91F84B
 169 0197 D5819131 		.ascii	"\325\201\2211\214&0\237Al\355\307\274\331c\202\231\207"
 169      8C26309F 
 169      416CEDC7 
 169      BCD96382 
 169      9987
 170 01a9 D483FCFB 		.ascii	"\324\203\374\373\025\277\251\330\003\335\264\365\270"
 170      15BFA9D8 
 170      03DDB4F5 
 170      B8
 171 01b6 0229D54B 		.ascii	"\002)\325K\032\012\015>\323\204\340\341\371t\000\333"
 171      1A0A0D3E 
ARM GAS  /tmp/cceDQEjf.s 			page 13


 171      D384E0E1 
 171      F97400DB 
 172 01c6 20FDC93E 		.ascii	" \375\311>1yV-)\273V-)\305\003V9&+\026T\343\013\272"
 172      3179562D 
 172      29BB562D 
 172      29C50356 
 172      39262B16 
 173 01de A2144830 		.ascii	"\242\024H0\344R\252\232+\222z\344J\212w\202\235\237"
 173      E452AA9A 
 173      2B927AE4 
 173      4A8A7782 
 173      9D9F
 174 01f0 E1C22E5E 		.ascii	"\341\302.^J?\013\343g\252_\030\327E\373I\264\245\005"
 174      4A3F0BE3 
 174      67AA5F18 
 174      D745FB49 
 174      B4A505
 175 0203 F18A5C7A 		.ascii	"\361\212\\z\035\271\224\355\\\2325\220\354\330<L'\347"
 175      1DB994ED 
 175      5C9A3590 
 175      ECD83C4C 
 175      27E7
 176 0215 49F30B0D 		.ascii	"I\363\013\015j\350#*\017\364\2120^\0360\207\\\350E\304"
 176      6AE8232A 
 176      0FF48A30 
 176      5E1E3087 
 176      5CE845C4 
 177 0229 CC3ED3F5 		.ascii	"\314>\323\365\376\\\223\255\331PV\327\022.:\274\244"
 177      FE5C93AD 
 177      D95056D7 
 177      122E3ABC 
 177      A4
 178 023a D9866213 		.ascii	"\331\206b\023\033)\247D7}\3541\207\221\312b\246\221"
 178      1B29A744 
 178      377DEC31 
 178      8791CA62 
 178      A691
 179 024c 46D3081D 		.ascii	"F\323\010\035\216\266\236_p}\377\3472\260>>D<a\307\347"
 179      8EB69E5F 
 179      707DFFE7 
 179      32B03E3E 
 179      443C61C7 
 180 0261 460296DA 		.ascii	"F\002\226\332t\362\302\\3\351\321Hy\222\252\353\023"
 180      74F2C25C 
 180      33E9D148 
 180      7992AAEB 
 180      13
 181 0272 D9F44627 		.ascii	"\331\364F'\276-\327R\355\275\316\327\310O\310\035a\304"
 181      BE2DD752 
 181      EDBDCED7 
 181      C84FC81D 
 181      61C4
 182 0284 91A3968B 		.ascii	"\221\243\226\213\302\017\362)6\333\031\367\364g\316"
 182      C20FF229 
 182      36DB19F7 
 182      F467CE
 183 0293 EB2E63A4 		.ascii	"\353.c\244\234fv\312L\025\352*\204\270\3120}\313\354"
ARM GAS  /tmp/cceDQEjf.s 			page 14


 183      9C6676CA 
 183      4C15EA2A 
 183      84B8CA30 
 183      7DCBEC
 184 02a6 A95AAB09 		.ascii	"\251Z\253\011)\016\213\207\270\301\034\036[\235\036"
 184      290E8B87 
 184      B8C11C1E 
 184      5B9D1E
 185 02b5 29EE459B 		.ascii	")\356E\233\360\230\233\237t\347Q)\367\250\232g\324\016"
 185      F0989B9F 
 185      74E75129 
 185      F7A89A67 
 185      D40E
 186 02c7 201DC997 		.ascii	" \035\311\227w\300\000_\0054\310\027\371\325`0d\376"
 186      77C0005F 
 186      0534C817 
 186      F9D56030 
 186      64FE
 187 02d9 A3F1502C 		.ascii	"\243\361P,\021\212\307\264\220\026I\214\0055\220\023"
 187      118AC7B4 
 187      9016498C 
 187      05359013 
 188 02e9 63E3B778 		.ascii	"c\343\267xs\373fI\320x4\226\210\207\356\015\366\337"
 188      73FB6649 
 188      D0783496 
 188      8887EE0D 
 188      F6DF
 189 02fb EF9FA068 		.ascii	"\357\237\240h-\032\323G\236\335\031\013F\200Q8{\032"
 189      2D1AD347 
 189      9EDD190B 
 189      46805138 
 189      7B1A
 190 030d 7DAE4647 		.ascii	"}\256FGG\343z\342/A\335\237$"
 190      47E37AE2 
 190      2F41DD9F 
 190      24
 191              		.text
 192              		.section	.gnu.lto_.cgraph.efe19c4060afc9be,"",%progbits
 193 0000 789C6362 		.ascii	"x\234cb`d`f``\210`\200\002\246\345\214\365\014\014\023"
 193      60646066 
 193      60608860 
 193      8002A6E5 
 193      8CF50C0C 
 194 0015 CE31D4D7 		.ascii	"\3161\324\327\317\353`dZ\301X\317\210\340\255d\254g"
 194      CFEB6064 
 194      5AC158CF 
 194      88E0AD64 
 194      AC67
 195 0027 42F09631 		.ascii	"B\360\2261\3263#x\253\030\353Y\340<ffF\206G\017\377"
 195      D6332378 
 195      AB18EB59 
 195      E03C6666 
 195      4686470F 
 196 003c 01692686 		.ascii	"\001i&\206\246\2667\362\014\000\011\"\034\256"
 196      A6B637F2 
 196      0C000922 
 196      1CAE
ARM GAS  /tmp/cceDQEjf.s 			page 15


 197              		.text
 198              		.section	.gnu.lto_.vars.efe19c4060afc9be,"",%progbits
 199 0000 789C6362 		.ascii	"x\234cb`d`f```g\200\000\306\325\214\014\014\365\014"
 199      60646066 
 199      60606067 
 199      8000C6D5 
 199      8C0C0CF5 
 200 0015 00060801 		.ascii	"\000\006\010\001:"
 200      3A
 201              		.text
 202              		.section	.gnu.lto_.refs.efe19c4060afc9be,"",%progbits
 203 0000 789C6362 		.ascii	"x\234cb`d`f``\340a\200\000F&F\006&ff\260\030\000\002"
 203      60646066 
 203      6060E061 
 203      80004626 
 203      46062666 
 204 0019 150022   		.ascii	"\025\000\""
 205              		.text
 206              		.section	.gnu.lto_.statics.efe19c4060afc9be,"",%progbits
 207 0000 789C6362 		.ascii	"x\234cb`d`b\300\016@\342\214\020&\000\000\375\000\011"
 207      60646062 
 207      C00E40E2 
 207      8C102600 
 207      00FD0009 
 208              		.text
 209              		.section	.gnu.lto_.decls.efe19c4060afc9be,"",%progbits
 210 0000 789CAD5A 		.ascii	"x\234\255Z{p\024E\032\357\236\315\276\010\006D\321\234"
 210      7B701445 
 210      1AEF9ECD 
 210      BE080644 
 210      D19C
 211 0012 E51DF14A 		.ascii	"\345\035\361J\256\320:\330\204p<\312Ga\005\024\356\010"
 211      AED03AD8 
 211      84703CCA 
 211      47610514 
 211      EE08
 212 0024 5024DE71 		.ascii	"P$\336qU\267\265\267l\006\262^\366\341\354\204\307?"
 212      55B7B5B7 
 212      6C06B25E 
 212      F6E1EC84 
 212      C73F
 213 0036 570BB120 		.ascii	"W\013\261 p>\200\303;\020\205 o\344x\211\004\015\010"
 213      703E80C3 
 213      3B108520 
 213      6FE47889 
 213      040D08
 214 0049 A7912006 		.ascii	"\247\221 \006<\270\360\254\350!,A\275\025\221\213\024"
 214      3CB8F0AC 
 214      E8212C41 
 214      BD15918B 
 214      14
 215 005a 8F68AEBB 		.ascii	"\217h\256\273g\246\247gv&\263\2230\265\323;3\335\375"
 215      67A6A767 
 215      7626B393 
 215      30B5D33B 
 215      33DDFD
 216 006d FBDEDD5F 		.ascii	"\373\336\335_\367\014\007 \300\3078\016\200NtL\037\016"
ARM GAS  /tmp/cceDQEjf.s 			page 16


 216      F70C0720 
 216      C0C7380E 
 216      804E744C 
 216      1F0E
 217 007f C01A2700 		.ascii	"\300\032'\000.\364\354\011\240\036\350\021\250Cg\023"
 217      2EF4EC09 
 217      A01EE811 
 217      A8436713 
 218 008f 3A8FA2F3 		.ascii	":\217\242\363\004:O\241\023\367\376\002h\017\334\316"
 218      043A4FA1 
 218      13F7FE02 
 218      680FDCCE 
 219 009f 8BCEB5E8 		.ascii	"\213\316\265\350\314Cgot\276\205\316u\350t\243\263\036"
 219      CC43676F 
 219      74BE85CE 
 219      75E874A3 
 219      B31E
 220 00b1 9DFBE436 		.ascii	"\235\373\3446\030w\013:w\241s7:\367\240\263A\306\255"
 220      18770B3A 
 220      77A17337 
 220      3AF7A0B3 
 220      41C6AD
 221 00c4 039907A6 		.ascii	"\003\231\007\246\357\221\361\024lLg;\352\260\003\235"
 221      EF91F114 
 221      6C4C673B 
 221      EAB0039D 
 222 00d4 6D50A2C3 		.ascii	"mP\242\303a:P\302\204r?\375qT\306p\353\370\364\032`"
 222      613A50C2 
 222      84723FFD 
 222      7154C670 
 222      EBF8F41A 
 223 00e9 5E40F797 		.ascii	"^@\367\227\241\304\373:\231\177\267Lc+\224\370\336-"
 223      A1C4FB3A 
 223      997FB74C 
 223      632B94F8 
 223      DE2D
 224 00fb F3BE4B96 		.ascii	"\363\276K\226\011\3124\214t\204\365w\227\216\366:\231"
 224      09CA348C 
 224      7484F577 
 224      978EF63A 
 224      99
 225 010c BE426BAD 		.ascii	"\276Bk\255NW_\242gk\200d\033L\323Ho\016\031[\261\223"
 225      4E575FA2 
 225      676B8064 
 225      1B4CD348 
 225      6F0E195B 
 226 0122 11ED538C 		.ascii	"\021\355S\214\254\012m\267\211\334\353\030\036\\\214"
 226      AC0A6DB7 
 226      89DCEB18 
 226      1E5C8C
 227 0131 4E157AAC 		.ascii	"N\025z\254\254\247\014t<\000\254J\236\277\272\270&9"
 227      ACA70C74 
 227      3C00AC4A 
 227      9EBFBAB8 
 227      2639
 228 0143 EE4667E7 		.ascii	"\356Fg\347\202\276\367\201W\223\350\250\233\237LB\321"
 228      82BEF781 
ARM GAS  /tmp/cceDQEjf.s 			page 17


 228      5793E8A8 
 228      9B9F4C42 
 228      D1
 229 0154 0F9FE80F 		.ascii	"\017\237\350\017~\002\3740\017Q. W\275\321U\016\351"
 229      7E02FC30 
 229      0F512E20 
 229      57BDD155 
 229      0EE9
 230 0166 E8876BE0 		.ascii	"\350\207k\340}\344\312A\214\011r\301\242dr\036\356:"
 230      7DE4CA41 
 230      8C0972C1 
 230      A264721E 
 230      EE3A
 231 0178 EE705E3F 		.ascii	"\356p^?\260\004\343\024\324^D\204\025\210\203\220b\344"
 231      B004E314 
 231      D45E4484 
 231      15888390 
 231      62E4
 232 018a A30E03C1 		.ascii	"\243\016\003\301\272dr1j\005\375p\035\354\207P8\010"
 232      BA647231 
 232      6A05FD70 
 232      1DEC8750 
 232      3808
 233 019c 1E059B93 		.ascii	"\036\005\233\223\344\220\334^\366~\320\037\\;\273\363"
 233      E490DC5E 
 233      F67ED01F 
 233      5C3BBBF3 
 234 01ac 41E93A1B 		.ascii	"A\351:\033l\314\337&\204\351\207\033\341\243\022\245"
 234      6CCCDF26 
 234      84E9871B 
 234      E1A312A5 
 235 01bc A444093F 		.ascii	"\244D\011?\005\362\363\216z\227\201J\234\017\201:$\011"
 235      05F2F38E 
 235      7A97814A 
 235      9C0F813A 
 235      2409
 236 01ce D689CB0B 		.ascii	"\326\211\313\013jU\241\200\2112XA\336\202^$\310cP\246"
 236      6A55A180 
 236      89325841 
 236      DE825E24 
 236      C86350A6 
 237 01e2 B0EDC537 		.ascii	"\260\355\3057\016\311aj\033j\033\201\232\255@mXv\374"
 237      0EC9616A 
 237      1B6A1B81 
 237      9AAD406D 
 237      5876FC
 238 01f5 900FC8B2 		.ascii	"\220\017\310\262\271\275,\307\344^j%\001K\325\312\025"
 238      B9BD2CC7 
 238      E45E6A25 
 238      014BD5CA 
 238      15
 239 0206 1E37FA00 		.ascii	"\0367\372\000\373\0358p\035BY\221\327\026\356lv\030"
 239      FB1D3870 
 239      1D425991 
 239      D716EE6C 
 239      7618
 240 0218 F3AC5C4B 		.ascii	"\363\254\\K\207\322F>\030]*\312\271MA\233\363\355 \026"
ARM GAS  /tmp/cceDQEjf.s 			page 18


 240      87D2463E 
 240      185D2ACA 
 240      B94D419B 
 240      F3ED2016 
 241 022c 9822CEE5 		.ascii	"\230\"\316\345\024\304\026\013D\217\005\217\266\215"
 241      14C4160B 
 241      448F058F 
 241      B68D
 242 023a 544F1898 		.ascii	"TO\030\230\317\251\006?\255\030\\\262`7\264\376\022"
 242      CFA9063F 
 242      AD185CB2 
 242      6037B4FE 
 242      12
 243 024b 15E7DABB 		.ascii	"\025\347\332\273\226Z\327J\244\321Q]M\262\326\241\210"
 243      965AD74A 
 243      A4D1515D 
 243      4DB2D6A1 
 243      88
 244 025c 74707EB2 		.ascii	"tp~\262\026\316\3051\244\264\035\255\301`\205\332G\204"
 244      16CEC531 
 244      A4B41DAD 
 244      C16085DA 
 244      4784
 245 026e 7A85116A 		.ascii	"z\205\021j\265\316\213\355\240\035 h\3139\325\221\277"
 245      B5CE8BED 
 245      A01D2068 
 245      CB39D591 
 245      BF
 246 027f 6B7A5CD1 		.ascii	"kz\\\321\210W\247!\257VC^\252!\257\254!r@\320\315^\034"
 246      8857A721 
 246      AF56435E 
 246      AA21AFAC 
 246      217240D0 
 247 0296 58A32AF7 		.ascii	"X\243*\367cF\271Z\366\225\353\276F\356\222y\260c\215"
 247      6346B95A 
 247      F695EBBE 
 247      46EE9279 
 247      B0638D
 248 02a9 1F6E8603 		.ascii	"\037n\206\003\201\323\017\267\300\207\320\315.R\356"
 248      81D30FB7 
 248      C087D0CD 
 248      2E52EE
 249 02b8 26E51E52 		.ascii	"&\345\036R6\2402\303\263\365c\353Z\230\2534B\032,w\310"
 249      36A032C3 
 249      B3F563EB 
 249      5A98AB34 
 249      421A2C77 
 250 02cd D71CD84A 		.ascii	"\327\034\330J\325xe\343\222&y\370z\030\254M&\227b\007"
 250      D57865E3 
 250      922679F8 
 250      7A18AC4D 
 250      26976207 
 251 02e1 967A72E0 		.ascii	"\226zr\340\024iV\007\007\200\345\271&Td\"\277\000\353"
 251      14695607 
 251      0780E5B9 
 251      26546422 
 251      BF00EB
ARM GAS  /tmp/cceDQEjf.s 			page 19


 252 02f4 F1C87870 		.ascii	"\361\310xp^>\031\356\201\334\255R#\336\207\220c\345"
 252      5E3E19EE 
 252      81DCAD52 
 252      23DE8790 
 252      63E5
 253 0306 D54E1A1E 		.ascii	"\325N\032\036i*\340\3009\312[\363\252?\343vdf\340\300"
 253      692AE0C0 
 253      39CA5BF3 
 253      AA3FE376 
 253      6466E0C0 
 254 031a 550E1AB2 		.ascii	"U\016\032\262\351\207\037!\\?l\302l\366\261\315&\356"
 254      E9871F21 
 254      5C3F6CC2 
 254      6CF6B1CD 
 254      26EE
 255 032c 76C3A1E1 		.ascii	"v\303\241\341\363pV|\336\244|\266\017\240l\372\341\021"
 255      F370567C 
 255      DEA47CB6 
 255      0FA06CFA 
 255      E111
 256 033e B9B3199B 		.ascii	"\271\263\031\233G\021\275Z\373l\036\315d\363X&\233u"
 256      4711BD5A 
 256      FB6C1ECD 
 256      64F35826 
 256      9B75
 257 0350 E76536DD 		.ascii	"\347e6\335v\246\340\177\313S\260\352\"\034x\331\241"
 257      76A6E07F 
 257      CB53B0EA 
 257      221C78D9 
 257      A1
 258 0361 48975AF1 		.ascii	"H\227Z\361\200B\302\200\257\023p\200\316\211[\272`k"
 258      8042C280 
 258      AF137080 
 258      CE895BBA 
 258      606B
 259 0373 81C70E5F 		.ascii	"\201\307\016_\247\265\251\201\354\225\232;\226i\364"
 259      A7B5A981 
 259      EC959A3B 
 259      9669F4
 260 0382 FCEF94EB 		.ascii	"\374\357\224\353\216\315\252\357\230\033\205\003\333"
 260      8ECDAAEF 
 260      981B8503 
 260      DB
 261 038f 498F5348 		.ascii	"I\217SH\212\275&F\201\231\235v\323N\215\217vmIs\203"
 261      8ABD2646 
 261      81999D76 
 261      D34E8D8F 
 261      766D4973 
 262 03a4 E2DE3293 		.ascii	"\342\3362\223Tu\347\264\252\3739X\223<\277xq\262n\\"
 262      5475E7B4 
 262      AAFB3958 
 262      933CBF78 
 262      71B26E5C 
 263 03b8 F27C67E7 		.ascii	"\362|g\347\000%ca\247\224\363\034%\373K\240\0350/\220"
 263      00256361 
 263      A794F31C 
 263      25FB4BA0 
ARM GAS  /tmp/cceDQEjf.s 			page 20


 263      1D302F90 
 264 03cc 64E85DAA 		.ascii	"d\350]\252\221=\373V\236\2265\225\005\022\007\332H\317"
 264      913DFB56 
 264      9E963595 
 264      051207DA 
 264      48CF
 265 03de 4B86E9CF 		.ascii	"K\206\351\317%&\375i?\366\246v \225\016\007\231=03\343"
 265      2526FD69 
 265      3FF6A676 
 265      20950E07 
 265      993D3033 
 266 03f3 5C86F4D4 		.ascii	"\\\206\364\324T\353A\035\347_\021\316\257:\324q \257"
 266      54EB411D 
 266      E75F11CE 
 266      AF3AD471 
 266      20AF
 267 0405 0BBEB538 		.ascii	"\013\276\2658\230\253\264!\317i\206\347\324\353\323"
 267      98ABB421 
 267      CF6986E7 
 267      D4EBD3
 268 0414 0D587665 		.ascii	"\015Xve\262\\7\232\245e>;}KX\376\201\262\334\376\232"
 268      B25C379A 
 268      A5653E3B 
 268      7D4B58FE 
 268      81B2DCFE 
 269 0429 96E5AE70 		.ascii	"\226\345\256p0S\327\014Y\276\306\260\334\372\232\021"
 269      3053D70C 
 269      59BEC6B0 
 269      DCFA9A11 
 270 0439 CB1C9375 		.ascii	"\313\034\223u\030\246\316,\331\272\034Jw\0141\361K9"
 270      18A6CE2C 
 270      D9BA1C4A 
 270      770C31F1 
 270      4B39
 271 044b 98DFEB86 		.ascii	"\230\337\353\206\264\2573\264\233WO3\240\335O\223C}"
 271      B4AF33B4 
 271      9B574F33 
 271      A0DD4F93 
 271      437D
 272 045d 4F226319 		.ascii	"O\"c\031ElY\3755\354i\246'a\256\244\230\251\001=\313"
 272      456C59FD 
 272      35EC69A6 
 272      2761AEA4 
 272      98A9013D 
 273 0472 F46CE765 		.ascii	"\364l\347e?\222\244\343\315\0345\205i\350q^\266\205"
 273      3F92A4E3 
 273      CD1C3585 
 273      69E8715E 
 273      B685
 274 0484 8AB367DF 		.ascii	"\212\263g\337\017M\243\272\233i&\211D\212{\271\314\345"
 274      0F4DA3BA 
 274      9B692689 
 274      448A7BB9 
 274      CCE5
 275 0496 E1C04E42 		.ascii	"\341\300NB\261\206323~\252\230\271\255\351\273\367\026"
 275      B1863332 
 275      337EAA98 
ARM GAS  /tmp/cceDQEjf.s 			page 21


 275      B9ADE9BB 
 275      F716
 276 04a8 B2738C72 		.ascii	"\262s\214r@[^\246\016$\017\023\362\377!\344k\015\311"
 276      405B5EA6 
 276      0E240F13 
 276      F2FF21E4 
 276      6B0DC9
 277 04bb D732E4AF 		.ascii	"\3272\344\257\034\333y\333h$\361\232Q\357b\372`\215"
 277      1CDB79DB 
 277      6824F19A 
 277      51EF62FA 
 277      608D
 278 04cd F82287BD 		.ascii	"\370\"\207\275\350U'T\305\334x\323\241\030\355\311\\"
 278      E8552754 
 278      C5DC78D3 
 278      A118EDC9 
 278      5C
 279 04de 9616B957 		.ascii	"\226\026\271W\214H\270_\345T\270\277rl\311\206\327\234"
 279      8C48B85F 
 279      E554B8BF 
 279      726CC986 
 279      D79C
 280 04f0 3DF56989 		.ascii	"=\365i\211\2335\024\265y|OW/\022\342:\212\330b\201h"
 280      9B3514B5 
 280      797C4F57 
 280      2F12E23A 
 280      8AD86281 
 281 0505 B57A5110 		.ascii	"\265zQ\0207R\304V[\210\346<n\241\210)\013D\303\224\331"
 281      3752C456 
 281      5B88E63C 
 281      6EA18829 
 281      0B44C394 
 282 051a 00F11F14 		.ascii	"\000\361\037\0241m\013\321\234\307\035\024\261\335\002"
 282      316D0BD1 
 282      9CC71D14 
 282      B1DD02
 283 0529 313F4B1E 		.ascii	"1?K\036wS\304\016[\210\346<\356\245\210\215\277\356"
 283      7753C40E 
 283      5B88E63C 
 283      EEA5888D 
 283      BFEE
 284 053b 1AB1C088 		.ascii	"\032\261\300\210\307\014\237\322'^\0138\032\024\034"
 284      C70C9FD2 
 284      275E0B38 
 284      1A141C
 285 054a 68702AA3 		.ascii	"hp*\243G[\323\222\206\233\335\011\000\212u\300\251\216"
 285      475BD392 
 285      869BDD09 
 285      008A75C0 
 285      A98E
 286 055c 7D9DF6C6 		.ascii	"}\235\366\306>#mH\363\303G\024\264y\223\325\234c\355"
 286      3E236D48 
 286      F3C34714 
 286      B47993D5 
 286      9C63ED
 287 056f 5712E651 		.ascii	"W\022\346Q\212\3312\250g~\245\031\261\344\011\350\374"
 287      8AD932A8 
ARM GAS  /tmp/cceDQEjf.s 			page 22


 287      677EA519 
 287      B1E409E8 
 287      FC
 288 0580 FA83F9CB 		.ascii	"\372\203\371\313\231!\323C\321\360\370\247\216\217\264"
 288      9921D343 
 288      D1F0F8A7 
 288      8E8FB4
 289 058f 79323FDF 		.ascii	"y2?\337\2545Z)r\003Q\271\205\363RN\344kz)\255YO:q{\243"
 289      AC355A29 
 289      720351B9 
 289      85F3524E 
 289      E46B7A29 
 290 05aa 11D6BAB7 		.ascii	"\021\326\272\267\271\257ld}\345\234j\212G\272\035<W"
 290      B9AF6C64 
 290      7DE59C6A 
 290      8A47BA1D 
 290      3C57
 291 05bc E725F35D 		.ascii	"\347%\363]\214\350\026\232R\366\2718<U\177\341T\247"
 291      8CE8169A 
 291      52F6B938 
 291      3C557FE1 
 291      54A7
 292 05ce EA7774BB 		.ascii	"\352wt\273\015\331c\355$X_S\254\015\313\336\371\201"
 292      0DD963ED 
 292      24585F53 
 292      AC0DCBDE 
 292      F981
 293 05e0 5354A59F 		.ascii	"ST\245\237\365\241v\326\207TyP\326\235\275\326\034\270"
 293      F5A176D6 
 293      87547950 
 293      D69DBDD6 
 293      1CB8
 294 05f2 C604C9D9 		.ascii	"\306\004\311\331#\243\214\331\315b\310\350\236\036\367"
 294      23A38CD9 
 294      CD62C8E8 
 294      9E1EF7
 295 0601 10D96F31 		.ascii	"\020\331o1z|[Myvrv\205\347\300<\227*\316w\366\304\031"
 295      7A7C5B4D 
 295      79767276 
 295      85E7C03C 
 295      972ACE77 
 296 0618 D473711A 		.ascii	"\324sq\032\2108\213\\\2528\365=\023g)#\316m{\342\024"
 296      88388B5C 
 296      AA38F53D 
 296      13672923 
 296      CE6D7BE2 
 297 062d 32E248E9 		.ascii	"2\342H\351\333=`\251U\372\206\331:\310\335\0032s'\374"
 297      DB3D60A9 
 297      55FA86D9 
 297      3AC8DD03 
 297      327327FC 
 298 0641 9466E8DB 		.ascii	"\224f\350\333\362@\346\221\303\220\"\232K\332\310}?"
 298      F240E691 
 298      C390229A 
 298      4BDAC87D 
 298      3F
 299 0652 249A5BC1 		.ascii	"$\232[\301hn\277&\240\354`\035\"X\253]j@\03584XQ\272"
ARM GAS  /tmp/cceDQEjf.s 			page 23


 299      686EBF26 
 299      A0EC601D 
 299      2258AB5D 
 299      6A401D38 
 300 066a 4B670497 		.ascii	"Kg\004\227\326\010\270\032S\273A6\337\324m8\245\016"
 300      D608B81A 
 300      53BB4136 
 300      DFD46D38 
 300      A50E
 301 067c DFB8C19D 		.ascii	"\337\270\301\235\200@)\017\341\020+\026\371\352'\026"
 301      8040290F 
 301      E1102B16 
 301      F9EA2716 
 302 068c F313D018 		.ascii	"\363\023\320\030\027d\030WQ\3416\012\332\341\353i\366"
 302      17641857 
 302      51E1360A 
 302      DAE1EB69 
 302      F6
 303 069d F8249E9C 		.ascii	"\370$\236\234\352)`\373\336\236.\262l/\211>%2\275\317"
 303      EA2960FB 
 303      DE9E2EB2 
 303      6C2F893E 
 303      2532BDCF 
 304 06b1 B8C5F11E 		.ascii	"\270\305\361\036/\211\2160jo8\326\035\265\313\007\007"
 304      2F898E30 
 304      6A6F38D6 
 304      1DB5CB07 
 304      07
 305 06c2 8ED3F0EC 		.ascii	"\216\323\360\354\260\300)\2600_\026K+V/'9\274\003p\222"
 305      B0C029B0 
 305      305F164B 
 305      2B562F27 
 305      39BC0370 
 306 06d7 EA25BD52 		.ascii	"\352%\275R\267\003`\021\343g\014\327Gg\230\365Q\353"
 306      B7036011 
 306      E3670CD7 
 306      476798F5 
 306      51EB
 307 06e9 4AA31D00 		.ascii	"J\243\035\000\230\221\275\370\341-\262\323\210\373\246"
 307      9891BDF8 
 307      E12DB2D3 
 307      88FBA6
 308 06f8 5676CB41 		.ascii	"Vv\313A2\017\226A?<\213R\016\304\3359\216nBs E5\237"
 308      320F9641 
 308      3F3C8B52 
 308      0EC4DD39 
 308      8E6E4273 
 309 0710 7AAFCD82 		.ascii	"z\257\315\202\250V\367\005\032\335'\211 \322\206\312"
 309      A856F705 
 309      1ADD2789 
 309      20D286CA 
 310 0720 158AD9F2 		.ascii	"\025\212\331\362\230\322Z\273y\242\\\017\262\260\246"
 310      98D25ABB 
 310      79A25C0F 
 310      B2B0A6
 311 072f 128C3729 		.ascii	"\022\2147)b\373c]\363Xh\212\250([\012\205NU\356\307"
 311      62FB635D 
ARM GAS  /tmp/cceDQEjf.s 			page 24


 311      F358688A 
 311      A8285B0A 
 311      854E55EE 
 312 0744 ED201664 		.ascii	"\355 \026d Z.\255\223\352^W_\242\363EnL;e\350:)\306"
 312      205A2EAD 
 312      93EA5E57 
 312      5FA2F345 
 312      6E4C3B65 
 313 075c 75DEFCFE 		.ascii	"u\336\374\376\370\347\371\006Vu\030\350|\007\305l\255"
 313      F8E7F906 
 313      567518E8 
 313      7C07C56C 
 313      AD
 314 076d CFEB5AE9 		.ascii	"\317\353Z\351\206\276c\220M\357\245\220\351\323y]\353"
 314      86BE6390 
 314      4DEFA590 
 314      E9D3795D 
 314      EB
 315 077e C86A716A 		.ascii	"\310jqjWGl\210~CB\364\240\233\206\350\251\\\305\271"
 315      57476C88 
 315      7E4342F4 
 315      A09B86E8 
 315      A95CC5B9 
 316 0792 256531DE 		.ascii	"%e1\336\236b\274\275\015y\273\303\017/s\370\305\313"
 316      9E62BCBD 
 316      0D79BBC3 
 316      0F2F73F8 
 316      C5CB
 317 07a4 57A4FCAF 		.ascii	"W\244\374\257\352\371\346!\235fS\343\303T\007\035\366"
 317      EAF9E621 
 317      9D6653E3 
 317      C354071D 
 317      F6
 318 07b5 7450A0B1 		.ascii	"tP\240\261\2309\265\213,\265O\335j\226Ro\262\261\255"
 318      9839B58B 
 318      2CB54FDD 
 318      6A96526F 
 318      B2B1AD
 319 07c8 5C8FB4B4 		.ascii	"\\\217\264\264\242\264\015v"
 319      A2B40D76 
 320 07d0 966276EC 		.ascii	"\226bv\354\267\012\360\221:f31\311L\226\242\220\351"
 320      B70AF091 
 320      3A663331 
 320      C94C96A2 
 320      90E9
 321 07e2 F7AD06AA 		.ascii	"\367\255\006\252\321FlZjE\032\020\351~\21626\342\235"
 321      D1466C5A 
 321      6A451A10 
 321      E97E8E32 
 321      36E29D
 322 07f5 D5D4033D 		.ascii	"\325\324\003=\235\215%\360\016\212\230\266\205\2505"
 322      9D8D25F0 
 322      0E8A98B6 
 322      85A835
 323 0804 2C73B0DB 		.ascii	",s\260\333\301~\370?8\020p~\330N^\373]gG\3344\321\036"
 323      C17EF83F 
 323      3810707E 
ARM GAS  /tmp/cceDQEjf.s 			page 25


 323      D84E5EFB 
 323      5D6747DC 
 324 081b DED74EBF 		.ascii	"\336\327N\277\256\032\244\273\241*\031\271\235b\266"
 324      AE1AA4BB 
 324      A12A19B9 
 324      9D62B6
 325 082a 3FD8DD48 		.ascii	"?\330\335HUF\334\032\022o\267)b\343O\273\341\367\006"
 325      5546DC1A 
 325      126FB729 
 325      62E34FBB 
 325      E1F706
 326 083d C3C95C8F 		.ascii	"\303\311\\\217\202\330\372\306\235Z\360/\244\230)\013"
 326      82D8FAC6 
 326      9D5AF02F 
 326      A498290B 
 327 084d 2EAD3792 		.ascii	".\2557\222$\304%\024\261\303\002\321p-l\344\026i\306"
 327      24C42514 
 327      B1C302D1 
 327      702D6CE4 
 327      1669C6
 328 0860 2DBE416E 		.ascii	"-\276An\201h]!nq\203\014J\267H\331A\312\037I\231t0\356"
 328      81685D21 
 328      6E71830C 
 328      4AB748D9 
 328      41CA1F49 
 329 0878 B2D2A3BC 		.ascii	"\262\322\243\274\320i\371Tu\027\335\373\223l\222[\263"
 329      D069F954 
 329      7517DDFB 
 329      936C925B 
 329      B3
 330 0889 573A7FA4 		.ascii	"W:\177\244\275\361\267F\354\310\373\202\003{\302\032"
 330      BDF1B746 
 330      ECC8FB82 
 330      037BC21A 
 331 0899 0F7D3B77 		.ascii	"\017};w\264\2137:Z\030\262\037\3450\232\340\360S\372"
 331      B48B373A 
 331      5A18B21F 
 331      E5309AE0 
 331      F053FA
 332 08ac 0DCE2746 		.ascii	"\015\316'F\271Q\216\255}kU\021\367\352\330\377\013a"
 332      B9518EAD 
 332      7D6B5511 
 332      F7EAD8FF 
 332      0B61
 333 08be BF9EB2DF 		.ascii	"\277\236\262\337\370\361-h\316\277\016\210\003M\244"
 333      F8F12D68 
 333      CEBF0E88 
 333      034DA4
 334 08cd E3CB8642 		.ascii	"\343\313\206B\274\314\012\361\261\321k\026\247\306\267"
 334      BCCC0AF1 
 334      B1D16B16 
 334      A7C6B7
 335 08dc 1639B06F 		.ascii	"\0269\260o\235\244\210\215Gz\376\232E\302\374\214b6"
 335      9DA4888D 
 335      477AFE9A 
 335      45C2FC8C 
 335      6236
ARM GAS  /tmp/cceDQEjf.s 			page 26


 336 08ee 5B6C2A6A 		.ascii	"[l*j\0215\021\220\254I\016R\326\024\311\371\311A\233"
 336      11351190 
 336      AC490E52 
 336      D614C9F9 
 336      C9419B
 337 0901 18BDF4A5 		.ascii	"\030\275\364\245\000\234N\277\177s\340\241\347\022\325"
 337      009C4EBF 
 337      7F73E0A1 
 337      E712D5
 338 0910 6F5BD3CE 		.ascii	"o[\323\316\015\233\235\022\256m\260\025\004\354[\012"
 338      0D9B9D12 
 338      AE6DB015 
 338      04EC5B0A 
 339 0920 B661D967 		.ascii	"\266a\331g\037\321\335~\207n}\342\320\256O\034t}\342"
 339      1FD1DD7E 
 339      876E7DE2 
 339      D0AE4F1C 
 339      747DE2
 340 0933 20EB13ED 		.ascii	" \353\023\355\313\220l\232s\340\006\325\343\236}'O\214"
 340      CB906C9A 
 340      73E006D5 
 340      E39E7D27 
 340      4F8C
 341 0945 3266B85B 		.ascii	"2f\270[\351\216\235w\347\253\035\272w\347h\276e\277"
 341      E98E9D77 
 341      E7AB1DBA 
 341      77E768BE 
 341      65BF
 342 0957 01B15ED0 		.ascii	"\001\261^\320\254\"^1\327\253\350\261\365\260\362\236"
 342      AC225E31 
 342      D7ABE8B1 
 342      F5B0F29E 
 343 0967 57F71206 		.ascii	"W\367\022\006\2232gd\255C3\001k\324\251\253C\371\254"
 343      93326764 
 343      AD433301 
 343      6BD4A9AB 
 343      43F9AC
 344 097a 57D15DEB 		.ascii	"W\321]\353\021\253\024\303z\266 )\306R\012\231\266\014"
 344      11AB14C3 
 344      7AB62029 
 344      C6520A99 
 344      B60C
 345 098c 95AC3FD4 		.ascii	"\225\254?\324Qc\331\017\027;\310\207:K\034x\300\375"
 345      5163D90F 
 345      173BC887 
 345      3A4B1C78 
 345      C0FD
 346 099e 2B295F25 		.ascii	"+)_%\345\033\244\\\257\016\301\346J\302\021H\301\227"
 346      E51BA45C 
 346      AF0EC1E6 
 346      4AC21148 
 346      C197
 347 09b0 3A3879CC 		.ascii	":8y\314k\234p'B\333\017\227Q\304\026[\210\032\245\222"
 347      6B9C7027 
 347      42DB0F97 
 347      51C4165B 
 347      881AA592 
ARM GAS  /tmp/cceDQEjf.s 			page 27


 348 09c4 D09662D5 		.ascii	"\320\226b\325\017_\247\210\251f\325P\266}\234\301\344"
 348      0F5FA788 
 348      A966D550 
 348      B67D9CC1 
 348      E4
 349 09d5 C00A6229 		.ascii	"\300\012b)\202Yj\007\261\257\271\235\0260v\252Ev\312"
 349      82596A07 
 349      B1AFB99D 
 349      163076AA 
 349      4576CA
 350 09e8 F1C385C4 		.ascii	"\361\303\205\304*\033I\271\211\224\233\331Ir\275W\231"
 350      2A1B49B9 
 350      89949BD9 
 350      4972BD57 
 350      99
 351 09f9 24DB2719 		.ascii	"$\333'\031OH\306\263\266\221\377I\237\025n\245\210\255"
 351      4F48C6B3 
 351      B691FF49 
 351      9F156EA5 
 351      88AD
 352 0a0b 53BB56BE 		.ascii	"S\273V\276\341\032\326H\254KL\036p\031\222\305\311\227"
 352      E11AD648 
 352      AC4B4C1E 
 352      701992C5 
 352      C997
 353 0a1d 240FA821 		.ascii	"$\017\250!\002me\005:@\003\270\371\253]\352\254\257"
 353      026D6505 
 353      3A4003B8 
 353      F9AB5DEA 
 353      ACAF
 354 0a2f FDDA83EC 		.ascii	"\375\332\203\354\3358\350\307'd\314\255\261\330\024"
 354      DD38E8C7 
 354      2764CCAD 
 354      B1D814
 355 0a3e F2C3ED10 		.ascii	"\362\303\355\020\277x\310f\213\307\360\303\015'\205"
 355      BF78C866 
 355      8BC7F0C3 
 355      0D2785
 356 0a4d FB03D00E 		.ascii	"\373\003\320\016=;\310|\373\001\345\374J\353\211\316"
 356      3D3BC87C 
 356      FB01E5FC 
 356      4AEB89CE 
 357 0a5d 97E43DBE 		.ascii	"\227\344=\276,\2400oo\033\316\266o3\263mz\337\305\336"
 357      2CA0306F 
 357      6F1BCEB6 
 357      6F33B36D 
 357      7ADFC5DE 
 358 0a71 06DABD1F 		.ascii	"\006\332\275\037\233\360\205\032\331\204\333\211g~O"
 358      9BF0851A 
 358      D984DB89 
 358      677E4F
 359 0a80 38C19D3B 		.ascii	"8\301\235;\366]\274\267\2331\251\303\274E1\033\367\333"
 359      F65DBCB7 
 359      9B31A9C3 
 359      BC45311B 
 359      F7DB
 360 0a92 FA24B6C0 		.ascii	"\372$\266\300\024rn/\005\262\331\012\3224&u\220\265"
ARM GAS  /tmp/cceDQEjf.s 			page 28


 360      14726E2F 
 360      05B2D90A 
 360      D2342675 
 360      90B5
 361 0aa4 14B2C51E 		.ascii	"\024\262\305\036\2449\227\257P\310V+H\323\344]\007\271"
 361      A43997AF 
 361      50C8562B 
 361      48D3E45D 
 361      07B9
 362 0ab6 9C42A6EC 		.ascii	"\234B\246\354A\232s\271\232B\246\255 M_e-\253Q\267X"
 362      419A73B9 
 362      9A42A6AD 
 362      204D5F65 
 362      2DAB51B7 
 363 0acb 71341DBC 		.ascii	"q4\035\274C\321\304\201\215\224\273v{\334\231\013\274"
 363      43D1C481 
 363      8D94BB76 
 363      7BDC990B 
 363      BC
 364 0adc 95427658 		.ascii	"\225BvXA\026di\226]\024\262\361}[\220\346\\\356U]\334"
 364      41166469 
 364      965D14B2 
 364      F17D5B90 
 364      E65CEE55 
 365 0af2 0AD26A47 		.ascii	"\012\322jG\360n\260X\331\227\2256\256\315\247\347\243"
 365      F06EB058 
 365      D9979536 
 365      AECDA7E7 
 365      A3
 366 0b03 8EBBC995 		.ascii	"\216\273\311\225\346\275\007ib\336\347\230\234j\252"
 366      E6BD0769 
 366      62DEE798 
 366      9C6AAA
 367 0b12 41AC0D67 		.ascii	"A\254\015gl\306\017\324\350\262'\215\271\202\232\325"
 367      6CC60FD4 
 367      E8B2278D 
 367      B9829AD5 
 368 0b22 E8B28234 		.ascii	"\350\262\2024\335\340\324A\236P\243\313\036\2449\227"
 368      DDE0D441 
 368      9E50A3CB 
 368      1EA43997 
 369 0b32 67D4E8B2 		.ascii	"g\324\350\262\2024\337\235R\266\031\260u8pA\015\011"
 369      8234DF9D 
 369      52B619B0 
 369      75387041 
 369      0D09
 370 0b44 7B90E65C 		.ascii	"{\220\346\\\246\325\220\260\202\034\235\245.\257\251"
 370      A6D590B0 
 370      821C9DA5 
 370      2EAFA9
 371 0b53 2171C016 		.ascii	"!q\300\026\2449\2277\324\220\260\202\034\227\245.\347"
 371      A4399737 
 371      D490B082 
 371      1C97A52E 
 371      E7
 372 0b64 E552BFB4 		.ascii	"\345R\277\264\007i\316\345\213\024\262\325\012rr\226"
 372      0769CEE5 
ARM GAS  /tmp/cceDQEjf.s 			page 29


 372      8B14B2D5 
 372      0A727296 
 373 0b74 BA5C4A21 		.ascii	"\272\\J!S\366 \315\271\\N!\323V\220S\215\270\314<\330"
 373      53F620CD 
 373      B95C4E21 
 373      D3569053 
 373      8DB8CC3C 
 374 0b89 4CC40F77 		.ascii	"L\304\017w\243\034\364~?|\207\244i\365\244|\227\224"
 374      A31CF47E 
 374      3F7C87A4 
 374      69F5A47C 
 374      9794
 375 0b9b 0DA4DC4F 		.ascii	"\015\244\334O\312\003\244\374')?$\345!R\036&\345\021"
 375      CA03A4FC 
 375      27293F24 
 375      E521521E 
 375      26E511
 376 0bae 523693F2 		.ascii	"R6\223\362_\244<A\312\026R\236\"\345\031R\236#e+)?'"
 376      5FA43C41 
 376      CA16529E 
 376      22E51952 
 376      9E23652B 
 377 0bc5 E579525E 		.ascii	"\345yR^ eJM\022u\3539\234}\231\217km\352RE\327\017\177"
 377      20654A4D 
 377      1275EB39 
 377      9C7D998F 
 377      6B6DEA52 
 378 0bdd 706CDEEF 		.ascii	"pl\336\357\262i?\3749\275y\277/\325~\240\237\030\216"
 378      B2693FFC 
 378      39BD79BF 
 378      2FD57EA0 
 378      9F188E
 379 0bf0 F081081F 		.ascii	"\360\201\010\037LT\013|\204\217\212\001\321\365\314"
 379      4C540B7C 
 379      848F8A01 
 379      D1F5CC
 380 0bff C4670B4A 		.ascii	"\304g\013J\300\317\206\014\361I\277X\302'\210\276p4"
 380      C0CF860C 
 380      F149BF58 
 380      C22788BE 
 380      7034
 381 0c11 54555DC1 		.ascii	"TU]\301\373B\225bdH%p\013b\010\267\036\246k\026\217"
 381      FB429562 
 381      64482570 
 381      0B6208B7 
 381      1EA66B16 
 382 0c26 0962C2F7 		.ascii	"\011b\302\367\324\224\322\222\322\331\276P,\022\017"
 382      D494D292 
 382      D2D9BE50 
 382      2C120F
 383 0c35 57F142C2 		.ascii	"W\361B\302\367LI\011\3569'\316'PgOu8*\026\017\015\210"
 383      F74C4909 
 383      EE3927CE 
 383      2750674F 
 383      75382A16 
 384 0c4c A22F1617 		.ascii	"\242/\026\027qk\337\214PhpP\210\014\216\306\242\374"
 384      716BDF8C 
ARM GAS  /tmp/cceDQEjf.s 			page 30


 384      50687050 
 384      880C8EC6 
 384      A2FC
 385 0c5e 603E382D 		.ascii	"`>8-<xX`\304\340\241\205E\305\317\027\373\246\205\243"
 385      3C785860 
 385      C4E0A185 
 385      45C5CF17 
 385      FBA685A3 
 386 0c72 98425578 		.ascii	"\230BUx\032n\347\323\264\363\015\0332b\3100\037e\003"
 386      1A6EE7D3 
 386      B4F30D1B 
 386      3262C830 
 386      1F6503
 387 0c85 FDB4F50A 		.ascii	"\375\264\365\012\343\011\261\002QE\324s\246\361\011"
 387      E309B102 
 387      5145D473 
 387      A6F109
 388 0c94 D1392B26 		.ascii	"\3219+&$\304\234\252`BtU\023I`\324#\210D\035\"\341o"
 388      24C49CAA 
 388      60427455 
 388      134960D4 
 388      2388441D 
 389 0cab F8B080D8 		.ascii	"\370\260\200\330+T\035\251\256\012\212\341\231|^\250"
 389      2B541DA9 
 389      AE0A8AE1 
 389      997C5EA8 
 390 0cbb B2BC74D2 		.ascii	"\262\274t\322\264\347\370\2208>\032\026\037\320\311"
 390      B4E7F890 
 390      383E1A16 
 390      1FD0C9
 391 0cca 9D104292 		.ascii	"\235\020B\222jB\300!F\342\375q\35321(\210\245\252n\247"
 391      6A42C021 
 391      46E2FD71 
 391      EB323128 
 391      88A5AA6E 
 392 0cdf 7AA2B170 		.ascii	"z\242\261p\264*\034\345\357\225\252cqMm@\214\004\302"
 392      B42A1CE5 
 392      EF95AA63 
 392      714D6D40 
 392      8C04C2
 393 0cf2 08FB7E5C 		.ascii	"\010\373~\\[R\031\014G\231\352\362\330\324\034\004\\"
 393      5B52190C 
 393      4799EAF2 
 393      D8D41C04 
 393      5C
 394 0d03 848BA1B9 		.ascii	"\204\213\241\271\241\312@bNB\344#\001\261\300\324P\211"
 394      A1CA4062 
 394      4E42E423 
 394      01B1C0D4 
 394      5089
 395 0d15 50650592 		.ascii	"Pe\005\222\327K\033\367\026\370`\305\234@U8\201\344"
 395      D74B1BF7 
 395      16F860C5 
 395      9C405538 
 395      81E4
 396 0d27 ED2356E2 		.ascii	"\355#V\342\333D\340\371j\276\032\011\355\222\356]\361"
 396      DB44E0F9 
ARM GAS  /tmp/cceDQEjf.s 			page 31


 396      6ABE1A09 
 396      ED92EE5D 
 396      F1
 397 0d38 40949F2D 		.ascii	"@\224\237-\242\277\270\300\317t\213q!\034\013H\267\341"
 397      A2BFB8C0 
 397      CF748B71 
 397      211C0B48 
 397      B7E1
 398 0d4a 983B148B 		.ascii	"\230;\024\213\212\250v`\227V\257\014\305\004\036\021"
 398      8AA87660 
 398      9756AF0C 
 398      C5041E11 
 399 0d5a CEC58F91 		.ascii	"\316\305\217\221DbH\234\375\210u\217\300\314\021\330"
 399      4462489C 
 399      FD88758F 
 399      C0CC11D8 
 400 0d6a B33C023F 		.ascii	"\263<\002?\003Y0 r\3020N\370\025'\014\347\204\021\234"
 400      03593020 
 400      72C2304E 
 400      F815270C 
 400      E784119C 
 401 0d7e 30921346 		.ascii	"0\222\023F9\204\242Bt\026qU\002\372+v\306\003\010\331"
 401      3984A242 
 401      74167155 
 401      02FA2B76 
 401      C60308D9 
 402 0d92 8D199EC5 		.ascii	"\215\031\236\305\013\350?VU\301\0139\241\312\240\200"
 402      0BE83F56 
 402      55C10B39 
 402      A1CAA080 
 403 0da2 A5084678 		.ascii	"\245\010Fx\217\230\020\203\"\022\316\215-:\022\375\307"
 403      8F981083 
 403      2212CE8D 
 403      2D3A12FD 
 403      C7
 404 0db3 03E4895B 		.ascii	"\003\344\211[\214\304*xr?\275*8#\341\026\005~z\202\310"
 404      8CC42A78 
 404      723FBD2A 
 404      3823E116 
 404      057E7A82 
 405 0dc8 892F9C91 		.ascii	"\211/\234\221\304\014T){\251K\250\230\203\036x\370\331"
 405      C40C5429 
 405      7BA94BA8 
 405      98831E78 
 405      F8D9
 406 0dda 613184BA 		.ascii	"a1\204\272\271f\211\261i\317\305s\371\231\310.\221`"
 406      B96689B1 
 406      69CFC573 
 406      F999C82E 
 406      9160
 407 0dec E24FA809 		.ascii	"\342O\250\011?\013_8\342\201\352<E\257\222\232\275\361"
 407      3F0B5F38 
 407      E281EA3C 
 407      45AF929A 
 407      BDF1
 408 0dfe C0AC6058 		.ascii	"\300\254`X\014Gg\364\212\007\020\012\321\266\223\\\242"
 408      0C4767F4 
ARM GAS  /tmp/cceDQEjf.s 			page 32


 408      8A07100A 
 408      D1B6935C 
 408      A2
 409 0e0f 077C9C8F 		.ascii	"\007|\234\217\"\267\234\341\214T#\275\01605eD\234\215"
 409      22B79CE1 
 409      8C5423BD 
 409      0E303565 
 409      449C8D
 410 0e22 832E2219 		.ascii	"\203.\"\031\013\375\307fE\221\310\244\027\242\036!6"
 410      0BFDC766 
 410      4591C8A4 
 410      17A21E21 
 410      36
 411 0e33 43A4503B 		.ascii	"C\244P;L\266\027\026#XEL\206\036\306c\261*\267 \365"
 411      4CB61716 
 411      2358454C 
 411      861EC663 
 411      B12AB720 
 412 0e48 7509C492 		.ascii	"u\011\304\222N\201\350N\220u'H\272\363\242\247\325\202"
 412      4E81E84E 
 412      90752748 
 412      BAF3A2A7 
 412      D582
 413 0e5a 80C4720A 		.ascii	"\200\304r\012\030\247\377\314\260 V\007\253\0028.\004"
 413      18A7FFCC 
 413      B0205607 
 413      AB02382E 
 413      04
 414 0e6b 45A43E9A 		.ascii	"E\244>\232\247\001\361.\315\275{\246H\270\301\377\330"
 414      A701F12E 
 414      CDBD7BA6 
 414      48B8C1FF 
 414      D8
 415 0e7c 85BCD8F7 		.ascii	"\205\274\330\367\324\260*\032\216.PU\005_%\006\321\305"
 415      D4B02A1A 
 415      8E2E5055 
 415      055F2506 
 415      D1C5
 416 0e8e F4EA6828 		.ascii	"\364\352h(@\032\343+\027\356\024\024r\321\037\016M\334"
 416      401AE32B 
 416      17EE1414 
 416      72D11F0E 
 416      4DDC
 417 0ea0 0F3DC264 		.ascii	"\017=\302d\373\261\203Tl\372\364\004/r\241J\317\230"
 417      FBB18354 
 417      6CFAF404 
 417      2F72A14A 
 417      CF98
 418 0eb2 DF9507CA 		.ascii	"\337\225\007\312\321\260\242\361/D\335WRZ6\276L\325"
 418      D1B0A2F1 
 418      2F44DD57 
 418      525A36BE 
 418      4CD5
 419 0ec4 20F6AF50 		.ascii	" \366\257P\244\030\207\177I\371\224\011\256\222\337"
 419      A418877F 
 419      49F99409 
 419      AE92DF
ARM GAS  /tmp/cceDQEjf.s 			page 33


 420 0ed3 97944C2C 		.ascii	"\227\224L,w\225L\036\217\377\306N\305w\236\262\011c"
 420      77954C1E 
 420      8FFFC64E 
 420      C5779EB2 
 420      0963
 421 0ee5 C74EC6F7 		.ascii	"\307N\306\367\023\312\236E\177\356\247'M\030\203\376"
 421      13CA9E45 
 421      7FEEA727 
 421      4D1883FE 
 422 0ef5 73269794 		.ascii	"s&\227\224Mq\226L*\235\\\350,}\252\3547\205\336\247"
 422      4D71964C 
 422      2A9D5CE8 
 422      2C7DAAEC 
 422      3785DEA7 
 423 0f09 9F9D5852 		.ascii	"\237\235XR>~\322\304B\357\224\261ec\247\374v\354\230"
 423      3E7ED2C4 
 423      42EF94B1 
 423      6563A7FC 
 423      76EC98
 424 0f1c 42525F44 		.ascii	"BR_D\352\213h}\021\255/\"\365CI\375PZ?\224\326\017%"
 424      EA8B687D 
 424      11AD2F22 
 424      F54349FD 
 424      505A3F94 
 425 0f33 F5C5A4BE 		.ascii	"\365\305\244\276\230\326\027\377\037PP\305$"
 425      98D617FF 
 425      1F5050C5 
 425      24
 426              		.text
 427              		.section	.gnu.lto_.symtab.efe19c4060afc9be,"",%progbits
 428 0000 6368544D 		.ascii	"chTMObjectInit\000\000\000\000\000\000\000\000\000\000"
 428      4F626A65 
 428      6374496E 
 428      69740000 
 428      00000000 
 429 0018 0000A000 		.ascii	"\000\000\240\000\000\000chTMStartMeasurementX\000\000"
 429      00006368 
 429      544D5374 
 429      6172744D 
 429      65617375 
 430 0035 00000000 		.ascii	"\000\000\000\000\000\000\000\000\000\000\307\000\000"
 430      00000000 
 430      0000C700 
 430      00
 431 0042 00636854 		.ascii	"\000chTMStopMeasurementX\000\000\000\000\000\000\000"
 431      4D53746F 
 431      704D6561 
 431      73757265 
 431      6D656E74 
 432 005e 00000000 		.ascii	"\000\000\000\000\000\315\000\000\000_tm_init\000\000"
 432      00CD0000 
 432      005F746D 
 432      5F696E69 
 432      740000
 433 0071 00000000 		.ascii	"\000\000\000\000\000\000\000\000\000\000\322\000\000"
 433      00000000 
 433      0000D200 
ARM GAS  /tmp/cceDQEjf.s 			page 34


 433      00
 434 007e 00636854 		.ascii	"\000chTMChainMeasurementToX\000\000\000\000\000\000"
 434      4D436861 
 434      696E4D65 
 434      61737572 
 434      656D656E 
 435 009c 00000000 		.ascii	"\000\000\000\000\000\000\326\000\000\000ch\000\000\002"
 435      0000D600 
 435      00006368 
 435      000002
 436 00ab 00000000 		.ascii	"\000\000\000\000\000\000\000\000\000\341\000\000\000"
 436      00000000 
 436      00E10000 
 436      00
 437              		.text
 438              		.section	.gnu.lto_.opts,"",%progbits
 439 0000 272D6D63 		.ascii	"'-mcpu=cortex-m3''-mno-thumb-interwork''-mthumb''-g"
 439      70753D63 
 439      6F727465 
 439      782D6D33 
 439      27272D6D 
 440 0033 67646227 		.ascii	"gdb''-O2''-fomit-frame-pointer''-falign-functions=1"
 440      272D4F32 
 440      27272D66 
 440      6F6D6974 
 440      2D667261 
 441 0066 3627272D 		.ascii	"6''-ffunction-sections''-fdata-sections''-fno-commo"
 441      6666756E 
 441      6374696F 
 441      6E2D7365 
 441      6374696F 
 442 0099 6E27272D 		.ascii	"n''-flto'\000"
 442      666C746F 
 442      2700
 443              		.text
 444              		.cfi_sections	.debug_frame
 445              		.section	.text.chTMObjectInit,"ax",%progbits
 446              		.align	2
 447              		.p2align 4,,15
 448              		.global	chTMObjectInit
 449              		.thumb
 450              		.thumb_func
 451              		.type	chTMObjectInit, %function
 452              	chTMObjectInit:
 453              	.LFB167:
 454              		.file 1 "../../../os/rt/src/chtm.c"
 455              		.loc 1 96 0
 456              		.cfi_startproc
 457              		@ args = 0, pretend = 0, frame = 0
 458              		@ frame_needed = 0, uses_anonymous_args = 0
 459              		@ link register save eliminated.
 460              	.LVL0:
 461              		.loc 1 102 0
 462 0000 0022     		movs	r2, #0
 463 0002 0023     		movs	r3, #0
 464 0004 C0E90423 		strd	r2, [r0, #16]
 465              		.loc 1 99 0
ARM GAS  /tmp/cceDQEjf.s 			page 35


 466 0008 0023     		movs	r3, #0
 467              		.loc 1 98 0
 468 000a 4FF0FF32 		mov	r2, #-1
 469              		.loc 1 99 0
 470 000e 80E80C00 		stmia	r0, {r2, r3}
 471              		.loc 1 100 0
 472 0012 8360     		str	r3, [r0, #8]
 473              		.loc 1 101 0
 474 0014 C360     		str	r3, [r0, #12]
 475 0016 7047     		bx	lr
 476              		.cfi_endproc
 477              	.LFE167:
 478              		.size	chTMObjectInit, .-chTMObjectInit
 479 0018 AFF30080 		.section	.text.chTMStartMeasurementX,"ax",%progbits
 479      AFF30080 
 480              		.align	2
 481              		.p2align 4,,15
 482              		.global	chTMStartMeasurementX
 483              		.thumb
 484              		.thumb_func
 485              		.type	chTMStartMeasurementX, %function
 486              	chTMStartMeasurementX:
 487              	.LFB168:
 488              		.loc 1 113 0
 489              		.cfi_startproc
 490              		@ args = 0, pretend = 0, frame = 0
 491              		@ frame_needed = 0, uses_anonymous_args = 0
 492              		@ link register save eliminated.
 493              	.LVL1:
 494              	.LBB14:
 495              	.LBB15:
 496              		.file 2 "../../../os/rt/ports/ARMCMx/chcore_v7m.h"
 497              		.loc 2 548 0
 498 0000 4FF48053 		mov	r3, #4096
 499 0004 CEF20003 		movt	r3, 57344
 500 0008 5968     		ldr	r1, [r3, #4]
 501              	.LBE15:
 502              	.LBE14:
 503              		.loc 1 115 0
 504 000a 8160     		str	r1, [r0, #8]
 505 000c 7047     		bx	lr
 506              		.cfi_endproc
 507              	.LFE168:
 508              		.size	chTMStartMeasurementX, .-chTMStartMeasurementX
 509 000e 00BF     		.section	.text.chTMStopMeasurementX,"ax",%progbits
 510              		.align	2
 511              		.p2align 4,,15
 512              		.global	chTMStopMeasurementX
 513              		.thumb
 514              		.thumb_func
 515              		.type	chTMStopMeasurementX, %function
 516              	chTMStopMeasurementX:
 517              	.LFB169:
 518              		.loc 1 126 0
 519              		.cfi_startproc
 520              		@ args = 0, pretend = 0, frame = 0
 521              		@ frame_needed = 0, uses_anonymous_args = 0
ARM GAS  /tmp/cceDQEjf.s 			page 36


 522              		@ link register save eliminated.
 523              	.LVL2:
 524              	.LBB16:
 525              	.LBB17:
 526              		.loc 2 548 0
 527 0000 4FF48053 		mov	r3, #4096
 528 0004 CEF20003 		movt	r3, 57344
 529              	.LBE17:
 530              	.LBE16:
 531              		.loc 1 128 0
 532 0008 0E4A     		ldr	r2, .L8
 533              	.LBB19:
 534              	.LBB18:
 535              		.loc 2 548 0
 536 000a 5968     		ldr	r1, [r3, #4]
 537              	.LBE18:
 538              	.LBE19:
 539              		.loc 1 126 0
 540 000c 30B4     		push	{r4, r5}
 541              	.LCFI0:
 542              		.cfi_def_cfa_offset 8
 543              		.cfi_offset 4, -8
 544              		.cfi_offset 5, -4
 545              	.LBB20:
 546              	.LBB21:
 547              		.loc 1 59 0
 548 000e 8468     		ldr	r4, [r0, #8]
 549              	.LBE21:
 550              	.LBE20:
 551              		.loc 1 128 0
 552 0010 936A     		ldr	r3, [r2, #40]
 553              	.LVL3:
 554              	.LBB24:
 555              	.LBB22:
 556              		.loc 1 58 0
 557 0012 C568     		ldr	r5, [r0, #12]
 558              		.loc 1 59 0
 559 0014 091B     		subs	r1, r1, r4
 560              	.LVL4:
 561 0016 C91A     		subs	r1, r1, r3
 562              		.loc 1 61 0
 563 0018 4468     		ldr	r4, [r0, #4]
 564              		.loc 1 60 0
 565 001a D0E90423 		ldrd	r2, [r0, #16]
 566              		.loc 1 58 0
 567 001e 0135     		adds	r5, r5, #1
 568              		.loc 1 60 0
 569 0020 5218     		adds	r2, r2, r1
 570 0022 43F10003 		adc	r3, r3, #0
 571              	.LVL5:
 572              		.loc 1 61 0
 573 0026 A142     		cmp	r1, r4
 574              		.loc 1 58 0
 575 0028 C560     		str	r5, [r0, #12]
 576              		.loc 1 59 0
 577 002a 8160     		str	r1, [r0, #8]
 578              		.loc 1 60 0
ARM GAS  /tmp/cceDQEjf.s 			page 37


 579 002c C0E90423 		strd	r2, [r0, #16]
 580              		.loc 1 61 0
 581 0030 05D8     		bhi	.L7
 582              		.loc 1 63 0
 583 0032 0268     		ldr	r2, [r0, #0]
 584 0034 9142     		cmp	r1, r2
 585              		.loc 1 64 0
 586 0036 38BF     		it	cc
 587 0038 0160     		strcc	r1, [r0, #0]
 588              	.L3:
 589              	.LBE22:
 590              	.LBE24:
 591              		.loc 1 129 0
 592 003a 30BC     		pop	{r4, r5}
 593 003c 7047     		bx	lr
 594              	.L7:
 595              	.LBB25:
 596              	.LBB23:
 597              		.loc 1 62 0
 598 003e 4160     		str	r1, [r0, #4]
 599 0040 FBE7     		b	.L3
 600              	.L9:
 601 0042 00BF     		.align	2
 602              	.L8:
 603 0044 00000000 		.word	ch
 604              	.LBE23:
 605              	.LBE25:
 606              		.cfi_endproc
 607              	.LFE169:
 608              		.size	chTMStopMeasurementX, .-chTMStopMeasurementX
 609 0048 AFF30080 		.section	.text._tm_init,"ax",%progbits
 609      AFF30080 
 610              		.align	2
 611              		.p2align 4,,15
 612              		.global	_tm_init
 613              		.thumb
 614              		.thumb_func
 615              		.type	_tm_init, %function
 616              	_tm_init:
 617              	.LFB166:
 618              		.loc 1 76 0
 619              		.cfi_startproc
 620              		@ args = 0, pretend = 0, frame = 24
 621              		@ frame_needed = 0, uses_anonymous_args = 0
 622 0000 10B5     		push	{r4, lr}
 623              	.LCFI1:
 624              		.cfi_def_cfa_offset 8
 625              		.cfi_offset 4, -8
 626              		.cfi_offset 14, -4
 627              		.loc 1 82 0
 628 0002 40F20004 		movw	r4, #:lower16:ch
 629              		.loc 1 76 0
 630 0006 86B0     		sub	sp, sp, #24
 631              	.LCFI2:
 632              		.cfi_def_cfa_offset 32
 633              		.loc 1 82 0
 634 0008 0023     		movs	r3, #0
ARM GAS  /tmp/cceDQEjf.s 			page 38


 635 000a C0F20004 		movt	r4, #:upper16:ch
 636              	.LBB26:
 637              	.LBB27:
 638              		.loc 1 98 0
 639 000e 4FF0FF32 		mov	r2, #-1
 640              		.loc 1 99 0
 641 0012 8DE80C00 		stmia	sp, {r2, r3}
 642              	.LBE27:
 643              	.LBE26:
 644              		.loc 1 84 0
 645 0016 6846     		mov	r0, sp
 646              	.LBB30:
 647              	.LBB28:
 648              		.loc 1 102 0
 649 0018 0022     		movs	r2, #0
 650              	.LBE28:
 651              	.LBE30:
 652              		.loc 1 82 0
 653 001a A362     		str	r3, [r4, #40]
 654              	.LVL6:
 655              	.LBB31:
 656              	.LBB29:
 657              		.loc 1 100 0
 658 001c 0293     		str	r3, [sp, #8]
 659              		.loc 1 101 0
 660 001e 0393     		str	r3, [sp, #12]
 661              		.loc 1 102 0
 662 0020 0023     		movs	r3, #0
 663 0022 CDE90423 		strd	r2, [sp, #16]
 664              	.LBE29:
 665              	.LBE31:
 666              		.loc 1 84 0
 667 0026 FFF7FEFF 		bl	chTMStartMeasurementX
 668              	.LVL7:
 669              		.loc 1 85 0
 670 002a 6846     		mov	r0, sp
 671 002c FFF7FEFF 		bl	chTMStopMeasurementX
 672              	.LVL8:
 673              		.loc 1 86 0
 674 0030 029B     		ldr	r3, [sp, #8]
 675 0032 A362     		str	r3, [r4, #40]
 676              		.loc 1 87 0
 677 0034 06B0     		add	sp, sp, #24
 678 0036 10BD     		pop	{r4, pc}
 679              		.cfi_endproc
 680              	.LFE166:
 681              		.size	_tm_init, .-_tm_init
 682 0038 AFF30080 		.section	.text.chTMChainMeasurementToX,"ax",%progbits
 682      AFF30080 
 683              		.align	2
 684              		.p2align 4,,15
 685              		.global	chTMChainMeasurementToX
 686              		.thumb
 687              		.thumb_func
 688              		.type	chTMChainMeasurementToX, %function
 689              	chTMChainMeasurementToX:
 690              	.LFB170:
ARM GAS  /tmp/cceDQEjf.s 			page 39


 691              		.loc 1 144 0
 692              		.cfi_startproc
 693              		@ args = 0, pretend = 0, frame = 0
 694              		@ frame_needed = 0, uses_anonymous_args = 0
 695              		@ link register save eliminated.
 696              	.LVL9:
 697              	.LBB32:
 698              	.LBB33:
 699              		.loc 2 548 0
 700 0000 4FF48053 		mov	r3, #4096
 701 0004 CEF20003 		movt	r3, 57344
 702 0008 5A68     		ldr	r2, [r3, #4]
 703              	.LBE33:
 704              	.LBE32:
 705              		.loc 1 144 0
 706 000a 30B4     		push	{r4, r5}
 707              	.LCFI3:
 708              		.cfi_def_cfa_offset 8
 709              		.cfi_offset 4, -8
 710              		.cfi_offset 5, -4
 711              		.loc 1 147 0
 712 000c 8A60     		str	r2, [r1, #8]
 713              	.LVL10:
 714              	.LBB34:
 715              	.LBB35:
 716              		.loc 1 59 0
 717 000e 8168     		ldr	r1, [r0, #8]
 718              	.LVL11:
 719              		.loc 1 58 0
 720 0010 C568     		ldr	r5, [r0, #12]
 721              		.loc 1 59 0
 722 0012 511A     		subs	r1, r2, r1
 723              		.loc 1 61 0
 724 0014 4468     		ldr	r4, [r0, #4]
 725              		.loc 1 60 0
 726 0016 D0E90423 		ldrd	r2, [r0, #16]
 727              	.LVL12:
 728              		.loc 1 58 0
 729 001a 0135     		adds	r5, r5, #1
 730              		.loc 1 60 0
 731 001c 5218     		adds	r2, r2, r1
 732 001e 43F10003 		adc	r3, r3, #0
 733              		.loc 1 61 0
 734 0022 A142     		cmp	r1, r4
 735              		.loc 1 58 0
 736 0024 C560     		str	r5, [r0, #12]
 737              		.loc 1 59 0
 738 0026 8160     		str	r1, [r0, #8]
 739              		.loc 1 60 0
 740 0028 C0E90423 		strd	r2, [r0, #16]
 741              		.loc 1 61 0
 742 002c 05D8     		bhi	.L14
 743              		.loc 1 63 0
 744 002e 0368     		ldr	r3, [r0, #0]
 745 0030 9942     		cmp	r1, r3
 746              		.loc 1 64 0
 747 0032 38BF     		it	cc
ARM GAS  /tmp/cceDQEjf.s 			page 40


 748 0034 0160     		strcc	r1, [r0, #0]
 749              	.L11:
 750              	.LBE35:
 751              	.LBE34:
 752              		.loc 1 151 0
 753 0036 30BC     		pop	{r4, r5}
 754 0038 7047     		bx	lr
 755              	.L14:
 756              	.LBB37:
 757              	.LBB36:
 758              		.loc 1 62 0
 759 003a 4160     		str	r1, [r0, #4]
 760 003c FBE7     		b	.L11
 761              	.LBE36:
 762              	.LBE37:
 763              		.cfi_endproc
 764              	.LFE170:
 765              		.size	chTMChainMeasurementToX, .-chTMChainMeasurementToX
 766 003e 00BF     		.text
 767              	.Letext0:
 768              		.file 3 "../../../os/rt/include/chschd.h"
 769              		.file 4 "/opt/ARM/gcc-arm-none-eabi-4_7-2013q3/bin/../lib/gcc/arm-none-eabi/4.7.4/../../../../arm-
 770              		.file 5 "../../../os/rt/ports/ARMCMx/compilers/GCC/chtypes.h"
 771              		.file 6 "../../../os/ext/CMSIS/include/core_cm3.h"
 772              		.file 7 "../../../os/rt/ports/ARMCMx/chcore.h"
 773              		.file 8 "../../../os/rt/include/chtm.h"
 774              		.file 9 "../../../os/rt/include/chmtx.h"