ARM GAS  /tmp/ccW1kXgu.s 			page 1


   1              		.syntax unified
   2              		.cpu cortex-m3
   3              		.fpu softvfp
   4              		.eabi_attribute 20, 1
   5              		.eabi_attribute 21, 1
   6              		.eabi_attribute 23, 3
   7              		.eabi_attribute 24, 1
   8              		.eabi_attribute 25, 1
   9              		.eabi_attribute 26, 1
  10              		.eabi_attribute 30, 2
  11              		.eabi_attribute 34, 1
  12              		.eabi_attribute 18, 4
  13              		.thumb
  14              		.file	"chvt.c"
  15              		.text
  16              	.Ltext0:
  17              		.section	.gnu.lto_.jmpfuncs.9de4c9003f0a5b60,"",%progbits
  18 0000 789C6362 		.ascii	"x\234cb`d`g\300\016\370\24143\003\003#?#P!\023##\220"
  18      60646067 
  18      C00EF8A1 
  18      34330303 
  18      233F2350 
  19 0019 0B000471 		.ascii	"\013\000\004q\0003"
  19      0033
  20              		.text
  21              		.section	.gnu.lto_.inline.9de4c9003f0a5b60,"",%progbits
  22 0000 789C6362 		.ascii	"x\234cb`d\340e\300\016r\24043\003\003;\033#\003\023"
  22      6064E065 
  22      C00E72A0 
  22      34330303 
  22      3B1B2303 
  23 0015 C7013B06 		.ascii	"\307\001;\006\266\005\362L@-\352\227\031\030\231\031"
  23      B605F24C 
  23      402DEA97 
  23      19189919 
  24 0025 93241952 		.ascii	"\223$\031R\031\031\200\\\306d8\013H2\233\357\373\312"
  24      1919805C 
  24      C664380B 
  24      48329BEF 
  24      FBCA
  25 0037 C1C0BDC2 		.ascii	"\301\300\275\302\215\211\201e\201\274\000\003\0237P"
  25      8D898165 
  25      81BC0003 
  25      133750
  26 0046 66821F8C 		.ascii	"f\202\037\214b\020\227\003\032&\373\344.#D\015T\234"
  26      62109703 
  26      1A26FBE4 
  26      2E23440D 
  26      549C
  27 0058 910B6417 		.ascii	"\221\013d\027\000$\350\016\313"
  27      0024E80E 
  27      CB
  28              		.text
  29              		.section	.gnu.lto_.pureconst.9de4c9003f0a5b60,"",%progbits
  30 0000 789C6362 		.ascii	"x\234cb`d`f```g\200\000f\006\011F)&)\000\001\371\000"
  30      60646066 
  30      60606067 
ARM GAS  /tmp/ccW1kXgu.s 			page 2


  30      80006606 
  30      09462926 
  31 0019 60       		.ascii	"`"
  32              		.text
  33              		.section	.gnu.lto__vt_init.9de4c9003f0a5b60,"",%progbits
  34 0000 789C6362 		.ascii	"x\234cb`\004BL \011\304\326L\014\0142@\232\221\231\201"
  34      6004424C 
  34      2009C4D6 
  34      4C0C0C32 
  34      409A9199 
  35 0015 9169C239 		.ascii	"\221i\3029\006\206F\005&FF\020\003\250\245\236\211\261"
  35      06864605 
  35      26464610 
  35      03A8A59E 
  35      89B1
  36 0027 3E14AC93 		.ascii	">\024\254\223Q\211aaC\303\244\011\207\233<\232\036\374"
  36      51896161 
  36      43C3A409 
  36      879B3C9A 
  36      1EFC
  37 0039 FF2F9F0A 		.ascii	"\377/\237\012\022\215gd8\325\361XG\222!\225\221\221"
  37      128D6764 
  37      38D5F158 
  37      47922195 
  37      9191
  38 004b 41810144 		.ascii	"A\201\001D31\260\240\332\361e;\367\237\031l\373\231"
  38      3331B0A0 
  38      DAF1653B 
  38      F79F196C 
  38      FB99
  39 005d 0E3CF85F 		.ascii	"\016<\370_\317\300\300\016\024aehih\020\000i\006\203"
  39      CFC0C00E 
  39      14616568 
  39      69681000 
  39      690683
  40 0070 40100DB2 		.ascii	"@\020\015\262/\010\250\031\304`>\305\320\364\223\371"
  40      2F08A819 
  40      C4603EC5 
  40      D0F493F9 
  41 0080 C88C674C 		.ascii	"\310\214gL\261\214\013\031Y\031\264\031\264\200\266"
  41      B18C0B19 
  41      5919B419 
  41      B480B6
  42 008f 31832966 		.ascii	"1\203)f\346Y\0143\031S\031Y\230\252\030~6p\2442\262"
  42      E6590C33 
  42      19531959 
  42      98AA187E 
  42      3670A432 
  43 00a4 326642FC 		.ascii	"2fB\374\006\262\234\025\354h\006\2068\0201\203\035\314"
  43      06B29C15 
  43      EC680686 
  43      38103183 
  43      1DCC
  44 00b6 02323B38 		.ascii	"\0022;8\201,\250z6F\2509@m`e/x\201\304\016^\260S\200"
  44      812CA87A 
  44      3646A839 
  44      406D6065 
ARM GAS  /tmp/ccW1kXgu.s 			page 3


  44      2F7881C4 
  45 00cf 167BDE60 		.ascii	"\026{\336`\245\310\326\0100\003\350\221\023\314\304"
  45      A5C8D608 
  45      3003E891 
  45      13CCC4
  46 00de 5B6A7166 		.ascii	"[jqf\306.F$k\331\311\264\226\031j-H\232\203\341\377"
  46      C62E4624 
  46      6BD9C9B4 
  46      96196A2D 
  46      489A83E1 
  47 00f3 7F66A8F1 		.ascii	"\177f\250\361of<\243\206\361,H\306\263\203\335~\216"
  47      6F663CA3 
  47      86F12C48 
  47      C6B383DD 
  47      7E8E
  48 0105 811118B9 		.ascii	"\201\021\030\271\020\243a \020\024\344\300h\004\206"
  48      10A36120 
  48      1014E4C0 
  48      680486
  49 0114 0183949E 		.ascii	"\001\203\224\236\236>\004\345\027\353\027\225\350\027"
  49      9E3E04E5 
  49      17EB1795 
  49      E817
  50 0122 1725EB27 		.ascii	"\027%\353'g\224\225\350%3\000\000\030\353mT"
  50      679495E8 
  50      25330000 
  50      18EB6D54 
  51              		.text
  52              		.section	.gnu.lto_chVTDoSetI.9de4c9003f0a5b60,"",%progbits
  53 0000 789C9D56 		.ascii	"x\234\235VKh\234U\024>\347\336\3771\223\311cL\310\253"
  53      4B689C55 
  53      143EE7DE 
  53      FF3193C9 
  53      634CC8AB 
  54 0014 0F134AC1 		.ascii	"\017\023J\301`\332\214\325\205\025\334\210.\014m\026"
  54      60DA8CD5 
  54      8515DC88 
  54      2E0C6D16 
  55 0024 4D2B96C0 		.ascii	"M+\226\3004\304?#\023\210IH\306\261\272h\246I\026A\212"
  55      34C43F23 
  55      13884948 
  55      C6B1BA68 
  55      A6491641 
  56 0039 545751D3 		.ascii	"TWQ\323\330\244Z\222\021\025[\334\224B\304\246\3518"
  56      D8A45A92 
  56      11155BDC 
  56      9442C4A6 
  56      E938
  57 004b 04412CA1 		.ascii	"\004A,\241\213.\012IE\244\240`(\025\002\361\334\327"
  57      8B2E0A49 
  57      45A4A060 
  57      281502F1 
  57      DCD7
  58 005d 3CD29934 		.ascii	"<\322\2314\346\317\343\374\367\336\363\235\363\235\307"
  58      E6CFE3FC 
  58      F7DEF39D 
  58      F39DC7
ARM GAS  /tmp/ccW1kXgu.s 			page 4


  59 006c BDF76780 		.ascii	"\275\367g\200\364\363\3703N\177\361R\200\011\222X\012"
  59      F4F3F833 
  59      4E7FF152 
  59      80099258 
  59      0A
  60 007d C8CEFF02 		.ascii	"\310\316\377\002p\266\2211~\256\032\022M\326\330K\220"
  60      70B69131 
  60      7EAE1A12 
  60      4DD6D84B 
  60      90
  61 008e 788EA3A5 		.ascii	"x\216\243\245\246-f_\264i\332\371;\0054o\243O\315;\314"
  61      A62D665F 
  61      B469DAF9 
  61      3B05346F 
  61      A34FCD3B 
  62 00a3 BD5D43F3 		.ascii	"\275]C\363\276\353/\322\264k\246}X\"^\320\257\344tc"
  62      BEEB2FD2 
  62      B46BA67D 
  62      58225ED0 
  62      AFE47463 
  63 00b7 09F39FBB 		.ascii	"\011\363\237\273E\310\246\300\230K\212\001D1O\304\206"
  63      45C8A6C0 
  63      984B8A01 
  63      44314FC4 
  63      86
  64 00c8 19B76CC7 		.ascii	"\031\267l\307\365\371K\0028\374\206$\352\337\007\323"
  64      F5F94B02 
  64      38FC8624 
  64      EADF07D3 
  65 00d8 89C42789 		.ascii	"\211\304'\211\033#M#\36766\032\"b\266\023!\375\327\312"
  65      1B234D23 
  65      F736361A 
  65      2262B613 
  65      21FDD7CA 
  66 00ec 33F51041 		.ascii	"3\365\020A\204 \010\311\200\345\207T\004w\307\335\011"
  66      842008C9 
  66      80E58754 
  66      0477C7DD 
  66      09
  67 00fd 6AF58BF8 		.ascii	"j\365\213\370N`\013\263Wp\033\270\3637F^\3278.qksW\230"
  67      4E600BB3 
  67      57701BB8 
  67      F337465E 
  67      D7382E71 
  68 0115 C2356A9C 		.ascii	"\3025j\234\265=\232\3113\333q7\232\310\270c\260\027"
  68      B53D9AC9 
  68      33DB7137 
  68      9AC8B863 
  68      B017
  69 0127 057269D2 		.ascii	"\005ri\3220\335\332\343h\302x\264\0304H\350\352\205"
  69      30DDDAE3 
  69      68C278B4 
  69      183448E8 
  69      EA85
  70 0139 6D39CDC6 		.ascii	"m9\315\306hK\256\337~\370\353\222\265\245\313tj\245"
  70      684BAEDF 
  70      7EF8EB92 
ARM GAS  /tmp/ccW1kXgu.s 			page 5


  70      B5A5CB74 
  70      6AA5
  71 014b 652DE9CC 		.ascii	"e-\351\314\263\037\357m\014\357\207K\232\272d}\\\272"
  71      B31FEF6D 
  71      0CEF874B 
  71      9ABA647D 
  71      5CBA
  72 015d 5EFF3C59 		.ascii	"^\377<Y O\\\351\012\256\222\346\233Rw\242\254\000KZ"
  72      204F5CE9 
  72      0AAE92E6 
  72      9B5277A2 
  72      AC004B5A 
  73 0171 875CCB0E 		.ascii	"\207\\\313\016\203\260\324^\230\374\263P>H#O\337e\320"
  73      83B0D45E 
  73      98FCB350 
  73      3E48234F 
  73      DF65D0
  74 0184 2DF5C703 		.ascii	"-\365\307\003\005\265]\020%=\204d\365\033\334\017LK"
  74      05B55D10 
  74      253D8464 
  74      F51BDC0F 
  74      4C4B
  75 0196 4EF232EE 		.ascii	"N\3622\356\003\013\303\3705\215m\222\337\223tH~G\322"
  75      030BC3F8 
  75      358D6D92 
  75      DF937448 
  75      7E47D2
  76 01a9 D5EB7E54 		.ascii	"\325\353~T\372\2454\236\246q\031\311\213$\313I\316\220"
  76      FAA5349E 
  76      A67119C9 
  76      8B24CB49 
  76      CE90
  77 01bb ACD0F682 		.ascii	"\254\320\366\202$/\321\270R\353U\351q\265^\257\321\366"
  77      242FD1B8 
  77      52EB55E9 
  77      71B55EAF 
  77      D1F6
  78 01cd 6AF5B88E 		.ascii	"j\365\270\216\344\2274\256\327\363\273\265\376\036\222"
  78      E49734AE 
  78      D7F3BBB5 
  78      FE1E92
  79 01dc 5F913C40 		.ascii	"_\221<@2I\362 \311Y\222\364\3300\226H\004\231\322\357"
  79      3249F220 
  79      C95992F4 
  79      D8309648 
  79      0499D2EF 
  80 01f0 9131CBE7 		.ascii	"\2211\313\347\230\220\264\215\333)h\222<\015#G\326&"
  80      9890B48D 
  80      DB296892 
  80      3C0D2347 
  80      D626
  81 0202 CF84F12A 		.ascii	"\317\204\361*\325\271\031\236\245\034\360\317\340S\214"
  81      D5B9199E 
  81      A51CF0CF 
  81      E0538C
  82 0211 A08F7928 		.ascii	"\240\217y(\013N=\016Q\372;eN\"O\264\204\000\256O\316"
  82      0B4E3D0E 
ARM GAS  /tmp/ccW1kXgu.s 			page 6


  82      51FA3B65 
  82      4E224FB4 
  82      8400AE4F 
  83 0226 600ED229 		.ascii	"`\016\322)\216D\203t$\262c\341B\215\002z\350J,\347R"
  83      8E448374 
  83      24B263E1 
  83      428D027A 
  83      E84A2CE7 
  84 023b F8B58912 		.ascii	"\370\265\211\022\366\001\374\233\360E0\200=(\321\302"
  84      F601FC9B 
  84      F0453080 
  84      3D28D1C2 
  85 024b 5E00401E 		.ascii	"^\000@\036\207\247\004\371\011.\337\350\377\270-\215"
  85      87A704F9 
  85      092EDFE8 
  85      FFB82D8D 
  86 025b 2F023BA9 		.ascii	"/\002;\251\214\252\250\311\264p\366S\207l]\225\020("
  86      8CAAA8C9 
  86      B470F653 
  86      876C5D95 
  86      1028
  87 026d 2450654D 		.ascii	"$PeMa\013=\036\036h\206db\214\210\225\012\202g\203\021"
  87      610B3D1E 
  87      1E688664 
  87      628C8895 
  87      0A826783 
  88 0282 2C939D5C 		.ascii	",\223\235\\\016\011z,P\357\206]fcP\250\017\370\3410"
  88      0E097A2C 
  88      50EF865D 
  88      666350A8 
  88      0FF8E130 
  89 0296 5E97911E 		.ascii	"^\227\221\036$;\222f\372\356JE\030\347%S]/\270\011c"
  89      243B9266 
  89      FAEE4A45 
  89      18E72553 
  89      5D2FB809 
  90 02ab F77161EA 		.ascii	"\367qa\352-5\357\241\277^v{\356\351\337.\202\375\007"
  90      2D35EFA1 
  90      BF5E767B 
  90      EEE9DF2E 
  90      82FD07
  91 02be 3959589A 		.ascii	"9YX\232\212\033\003\242A\224.\313\350Y\262\266\244G"
  91      8A1B03A2 
  91      41942ECB 
  91      E859B2B6 
  91      A447
  92 02d0 70A5E189 		.ascii	"p\245\341\211$\336\204\205\337\361n\326\207\253\223"
  92      24DE8485 
  92      DFF16ED6 
  92      87AB93
  93 02df 5C813AF9 		.ascii	"\\\201:\371\224k\231\333\224\310\255L\260y\226\001\211"
  93      946B99DB 
  93      94C8AD4C 
  93      B0799601 
  93      89
  94 02f0 1343E389 		.ascii	"\023C\343\211\023\003\341\211\022\366\262h\242\326\265"
  94      1303E189 
ARM GAS  /tmp/ccW1kXgu.s 			page 7


  94      12F6B268 
  94      A2D6B5
  95 02ff A987A8EC 		.ascii	"\251\207\250\354J[\326N\353i\353zR\272D\376F\207\327"
  95      4A5BD64E 
  95      EB69EB7A 
  95      52BA44FE 
  95      4687D7
  96 0312 33863D2C 		.ascii	"3\206=,\2450\344\302\242\334\233b\262\320A\027\325\247"
  96      A530E4C2 
  96      A2DC9B62 
  96      B2D04117 
  96      D5A7
  97 0324 CDAE2D0F 		.ascii	"\315\256-\017:2\007\260\004\326\303\217~Xl\330\334\020"
  97      3A3207B0 
  97      04D6C38F 
  97      7E586CD8 
  97      DC10
  98 0336 29D910F3 		.ascii	")\331\020\363\233\032B\007\021\304N\324-MF\"\370\224"
  98      9B1A4207 
  98      11C44ED4 
  98      2D4D4622 
  98      F894
  99 0348 C93B7577 		.ascii	"\311;uw\312\021\351\350H\257\2574\030\326e;\314\310"
  99      CA11E9E8 
  99      48AFAF34 
  99      18D6653B 
  99      CCC8
 100 035a B86B32F2 		.ascii	"\270k2\362\310\325\3554:\316\357pc\267\\\266T\231J\023"
 100      C8D5ED34 
 100      3ACEEF70 
 100      63B75CB6 
 100      54994A13 
 101 036e 98D90AB9 		.ascii	"\230\331\012\271\200\27192-P\2417\037]sF;\250\271ew"
 101      80B93932 
 101      2D50A137 
 101      1F5D7346 
 101      3BA8B965 
 102 0383 AE6B762E 		.ascii	"\256kv.H\357\216\211\235\232\347>\316f\234\007\245\271"
 102      48EF8E89 
 102      9D9AE73E 
 102      CE669C07 
 102      A5B9
 103 0395 6C6BBAB2 		.ascii	"lk\272\2625\005\223\245\331l\301*\211\237T\334\252`"
 103      350593A5 
 103      D96CC12A 
 103      899F54DC 
 103      AA60
 104 03a7 61FC99C2 		.ascii	"a\374\231\302\335V\305*u\305>\276\265ws\305~{R\305\230"
 104      DD56C52A 
 104      75C53EBE 
 104      B57773C5 
 104      7E7B52C5 
 105 03bc A958654E 		.ascii	"\251XeN\305|r\247\210\376\256%\236Nz\235\223p\305v\261"
 105      C57C72A7 
 105      88FEAE25 
 105      9E4E7A9D 
 105      9370C576 
ARM GAS  /tmp/ccW1kXgu.s 			page 8


 106 03d1 7119EA29 		.ascii	"q\031\352)\035\016\235U$\304\234kK\214\037\220\276\207"
 106      1D0E9D55 
 106      24C49C6B 
 106      4B8C1F90 
 106      BE87
 107 03e3 B8ACC6D2 		.ascii	"\270\254\306\322\\\2379\310\252=\244\364U\231X\257\346"
 107      5C9F39C8 
 107      AA3DA4F4 
 107      559958AF 
 107      E6
 108 03f4 24BE5A25 		.ascii	"$\276Z%\376\366\334\323F\271F\237z\331\274s\223\367"
 108      FEF6DCD3 
 108      46B9469F 
 108      7AD9BC73 
 108      93F7
 109 0406 59B5115C 		.ascii	"Y\265\021\\\023\002\231;\235\177\256\325\030\366% >"
 109      1302993B 
 109      9D7FAED5 
 109      18F62520 
 109      3E
 110 0417 C5D06C74 		.ascii	"\305\320lt\265\312%$g\3473]\366,\325\252\307\252\316"
 110      B5CA2524 
 110      67E7335D 
 110      F62CD5AA 
 110      C7AACE
 111 042a 8B577D15 		.ascii	"\213W}\025'x\006(\255\231#\201p\265>\332\220\325~J\303"
 111      27780628 
 111      AD992381 
 111      70B53EDA 
 111      90D57E4A 
 112 043f 3250EAEA 		.ascii	"2P\352\352\305\260\306O\201\012z\001s\305\264\256\315"
 112      C5B0C64F 
 112      810A7A01 
 112      73C5B4AE 
 112      CD
 113 0450 CDB09C9B 		.ascii	"\315\260\234\233\202\027\272)\376\260s\343\226q\010"
 113      8217BA29 
 113      FEB073E3 
 113      967108
 114 045f DA29BF71 		.ascii	"\332)\277q^W<g\212\265\317P\023.\307\355'9\214\346\202"
 114      5E573C67 
 114      8AB5CF50 
 114      132EC7ED 
 114      27398CE6 
 115 0474 C8BCBED4 		.ascii	"\310\274\276\324\346\256\025\243\232q\227r\363\241\226"
 115      E6AE15A3 
 115      9A719772 
 115      F3A196
 116 0483 7239E116 		.ascii	"r9\341\026\001\326\031\340#\236\037\243\002\036YH^\316"
 116      01D619E0 
 116      239E1FA3 
 116      021E5948 
 116      5ECE
 117 0495 BD48ADE2 		.ascii	"\275H\255\342l\035\203\324E\245OH\223\236\335\333(*"
 117      6C1D83D4 
 117      45A54F48 
 117      939EDDDB 
ARM GAS  /tmp/ccW1kXgu.s 			page 9


 117      282A
 118 04a7 66CF1130 		.ascii	"f\317\0210\270=\0045\366Z\241\010\215\302\246\010,a"
 118      B83D0435 
 118      F65AA108 
 118      8DC2A608 
 118      2C61
 119 04b9 871F24AF 		.ascii	"\207\037$\257\345\007\360\177\317\272\223\362\305\257"
 119      E507F07F 
 119      CFBA93F2 
 119      C5AF
 120 04c7 AF1EB10C 		.ascii	"\257\036\261\014\260\261!\336\251\277\351\2532\377r"
 120      B0B121DE 
 120      A9BFE9AB 
 120      32FF72
 121 04d6 3E268C8C 		.ascii	">&\214\214\271\242\025w\265\264\204\324o\377Ph0\026"
 121      B9A21577 
 121      B5B484D4 
 121      6FFF5068 
 121      3016
 122 04e8 1A1AF442 		.ascii	"\032\032\364B^4\036k\361\000\007x_\377{\241\\\205hW"
 122      5E341E6B 
 122      F1000778 
 122      5FFF7BA1 
 122      5C856857 
 123 04fc 6F68A07F 		.ascii	"oh\240\17706\024:~\242\355\205\347CG\217\276\026:\321"
 123      3036143A 
 123      7EA2ED85 
 123      E743478F 
 123      BE163AD1 
 124 0510 DA163F14 		.ascii	"\332\026?\024\032\212u\366\366v\267D\201\307c\003vw"
 124      1A8A75F6 
 124      F676B744 
 124      81C76303 
 124      7677
 125 0522 A4B7EB7D 		.ascii	"\244\267\353}'\036{\373\335>\217\017t\015Z\261\236w"
 125      271E7BFB 
 125      DD3E8F0F 
 125      740D5AB1 
 125      9E77
 126 0534 22CD9B5C 		.ascii	"\"\315\233\\)C\257\264\267\275\332v\232|z\375\203\221"
 126      2943AFB4 
 126      B7BDDA76 
 126      9A7C7AFD 
 126      8391
 127 0546 4EA13748 		.ascii	"N\2417HV\376\003\254\262\201!"
 127      56FE03AC 
 127      B28121
 128              		.text
 129              		.section	.gnu.lto_chVTDoResetI.9de4c9003f0a5b60,"",%progbits
 130 0000 789C9D95 		.ascii	"x\234\235\225?H[A\034\307\177\277\273\367\362|F\215"
 130      3F485B41 
 130      1CC77FBF 
 130      BBF7F27C 
 130      468D
 131 0012 6B534A45 		.ascii	"kSJE\244H\205\244\243K\207\322E\007\007\003\205R\210"
 131      A44885A4 
 131      A34B87D2 
ARM GAS  /tmp/ccW1kXgu.s 			page 10


 131      45070703 
 131      855288
 132 0025 0E8F073A 		.ascii	"\016\217\007:\024%\006)]\362\232t\010\235\244S\352T"
 132      14250629 
 132      5DF29A74 
 132      089DA453 
 132      EA54
 133 0037 B5DA9446 		.ascii	"\265\332\224F\003\205\026\332\241-\230J\011\301Rp\350"
 133      038516DA 
 133      A12D984A 
 133      09C15270 
 133      E8
 134 0048 E852E920 		.ascii	"\350R\351 \235D,\264\244\277\273w\327$Fm\314\323\370"
 134      9D442CB4 
 134      A4BFBB77 
 134      D724466D 
 134      CCD3F8
 135 005b 3DEEF2F9 		.ascii	"=\356\362\371\375{\367\373\311\000\351\247\371\271N"
 135      FD7BF7FB 
 135      C900E9A7 
 135      F9B94E
 136 006a 1FCF0218 		.ascii	"\037\317\002\030'\305\000 [\330\006x\320\307\030?\264"
 136      27C50020 
 136      5BD80678 
 136      D0C7183F 
 136      B4
 137 007b C01B3416 		.ascii	"\300\0334\026\267\350\374\032G\323\3377\364\302D\024"
 137      B7E8FC1A 
 137      47D3DF37 
 137      F4C24414 
 138 008b 0BB29962 		.ascii	"\013\262\231b\33401uKZ\267\373a\311\363\036/l\246G\322"
 138      DC303175 
 138      4B5AB7FB 
 138      61C9F31E 
 138      2F6CA647 
 139 00a0 BBD5EA65 		.ascii	"\273\325\352eW\354N\"\224\277\254\362\013\340\"B\037"
 139      57EC4E22 
 139      94BFACF2 
 139      0BE02242 
 139      1F
 140 00b1 08656034 		.ascii	"\010e`4\306\341s\336fzPq\\ry\313\247z\025\305Z\242\262"
 140      C6E173DE 
 140      667A5071 
 140      5C7279CB 
 140      A77A15C5 
 141 00c8 763B544B 		.ascii	"v;TK\276\2322+\255\207[H\254\011\333\331x\217\355\024"
 141      BE9A322B 
 141      AD875B48 
 141      AC09DBD9 
 141      788FED14 
 142 00dc A4547CC3 		.ascii	"\244T|\303\332I\256R<l\213+\025\177\342\231\\\251\260"
 142      DA49AE52 
 142      3C6C8B2B 
 142      157FE299 
 142      5CA9B0
 143 00ef C7F68B81 		.ascii	"\307\366\213\201\017\354\343n55\000+\"\331\2147By2\270"
 143      0FECE36E 
ARM GAS  /tmp/ccW1kXgu.s 			page 11


 143      3535002B 
 143      22D98C37 
 143      427932B8 
 144 0103 84D244E1 		.ascii	"\204\322D\341\025;!UQ\211\213\210q|\201\003\300!\216"
 144      153B2155 
 144      51898B88 
 144      717C8103 
 144      C0218E
 145 0116 4FB19F4E 		.ascii	"O\261\237N\342\270Dj\222.\223\006HWH-\322g\244\266\372"
 145      E2B8446A 
 145      922E9306 
 145      4857482D 
 145      D267A4B6 
 146 012b 5E907495 		.ascii	"^\220t\225\264\213t\215\264\207\3649i\2104OJ\217\011"
 146      B48B748D 
 146      B487F439 
 146      6988344F 
 146      4A8F09
 147 013e 0F3DAF17 		.ascii	"\017=\257\027\247e\014\362\031\027*nm\214b\020\013^"
 147      A7650CF2 
 147      19172A6E 
 147      6D8C6210 
 147      0B5E
 148 0150 86F49DDF 		.ascii	"\206\364\235\337\205p\034_\242\011\016\362!\270Ja\361"
 148      85701C5F 
 148      A2090EF2 
 148      21B84A61 
 148      F1
 149 0161 4578822E 		.ascii	"Ex\202.\032\314A\231\273Nu\242\326@\002\314[\2323$g"
 149      1ACC4199 
 149      BB4E75A2 
 149      D64002CC 
 149      5B9A3324 
 150 0176 D671BC91 		.ascii	"\326q\274\221CP\315'\270\254\2559\263\211\303&N\373"
 150      4350CD27 
 150      B8ACAD39 
 150      B389C326 
 150      4EFB
 151 0188 CBA46AFE 		.ascii	"\313\244j\376\002\344\222hin\024\374\335\026C \330\217"
 151      02E49268 
 151      696E14FC 
 151      DD164320 
 151      D88F
 152 019a 82EEAD36 		.ascii	"\202\356\2556g\375/mV\013#=\232\263\352\034\326C\226"
 152      67FD2F6D 
 152      560B233D 
 152      9AB3EA1C 
 152      D64396
 153 01ad 868E787D 		.ascii	"\206\216x}\261\034q\223\204\307J\315\243}\236B\237\356"
 153      B11C7193 
 153      84C74ACD 
 153      A37D9E42 
 153      9FEE
 154 01bf D13EE691 		.ascii	"\321>\346\221i\217\226\004\207w\326\227\261\016\015"
 154      698F9604 
 154      8777D697 
 154      B10E0D
ARM GAS  /tmp/ccW1kXgu.s 			page 12


 155 01ce 9CE46F4A 		.ascii	"\234\344oJ\222\334'\305\246\245\375\016\037\254\277"
 155      92DC27C5 
 155      A6A5FD0E 
 155      1FACBF
 156 01dd C386E24A 		.ascii	"\303\206\342J\351PVlv\037~y\035.v\322\035\223oJ\320"
 156      E950566C 
 156      761F7E79 
 156      1D2E76D2 
 156      1D936F4A 
 157 01f2 9DE0D779 		.ascii	"\235\340\327y\002\351\222\337\226\013zO\237\271:\346"
 157      02E992DF 
 157      960B7A4F 
 157      9FB93AE6 
 158 0202 50AD7275 		.ascii	"P\255ru\017v6\366\270.HP\345v^\017\371n\271\242w\232"
 158      0F7636F6 
 158      B82E4850 
 158      E5765E0F 
 158      F96EB9A2 
 159 0218 0BC9B83F 		.ascii	"\013\311\270?Ai\017\2635\273\312B\020\225e2$A\031Q\216"
 159      41690FB3 
 159      35BBCA42 
 159      10956532 
 159      24411951 
 160 022d 37B4724C 		.ascii	"7\264rL\224\341\320\342\025\340k\345\327\007\350w\220"
 160      94E1D0E2 
 160      15E06BE5 
 160      D707E877 
 160      90
 161 023e 6A2475CD 		.ascii	"j$u\315\352\037e\273\013'Q\335T\027\273\265)\362A\377"
 161      EA1F65BB 
 161      0B2751DD 
 161      5417BBB5 
 161      29F241FF 
 162 0252 3B648795 		.ascii	";d\207\225\217\276_\321\001u\265Y\312\037\226\\\321"
 162      8FBE5FD1 
 162      0175B559 
 162      CA1F965C 
 162      D1
 163 0263 DF6FF6BF 		.ascii	"\337o\366\277N\022CM\033\356ij\200\340\031\275$\306"
 163      4E12434D 
 163      1BEE696A 
 163      80E019BD 
 163      24C6
 164 0275 9A264314 		.ascii	"\232&C\024\025\361\000[4\262\374M5\0143\236\036\206"
 164      15F1005B 
 164      34B2FC4D 
 164      350C339E 
 164      1E86
 165 0287 26833135 		.ascii	"&\20315\314\302g\216C2\007P\001c\355\321\333\375\306"
 165      CCC2678E 
 165      43320750 
 165      0163EDD1 
 165      DBFDC6
 166 029a 0292BFAF 		.ascii	"\002\222\277\2574\231N-c\017\225\221\2416\342bHW\322"
 166      34994E2D 
 166      630F9591 
 166      A136E262 
ARM GAS  /tmp/ccW1kXgu.s 			page 13


 166      4857D2
 167 02ad F467D536 		.ascii	"\364g\3256`\371\217\333\210\217\213\254\350P\004\021"
 167      60F98FDB 
 167      888F8BAC 
 167      E8500411 
 168 02bd 8E44A2FE 		.ascii	"\216D\242\376\357\314\\4\221\214\316%\234\25035\237"
 168      EFCC5C34 
 168      918CCE25 
 168      9CA83335 
 168      9F
 169 02ce 8C38C0E7 		.ascii	"\2148\300\347\223\263C\307\216gg\022\311\271\350\215"
 169      93B343C7 
 169      8E676712 
 169      C9B9E88D 
 170 02de D8D8CDB1 		.ascii	"\330\330\315\261{\364=g&\341N&\247\357\272\211\310\024"
 170      7BF43D67 
 170      26E14E26 
 170      A7EFBA89 
 170      C814
 171 02f0 1862F117 		.ascii	"\030b\361\027\234\342t\371"
 171      9CE274F9 
 172              		.text
 173              		.section	.gnu.lto_.cgraph.9de4c9003f0a5b60,"",%progbits
 174 0000 789C45C7 		.ascii	"x\234E\307\301\015@@\024E\321\367\376\237iC\223\012"
 174      C10D4040 
 174      1445D1F7 
 174      FE9F6943 
 174      930A
 175 0012 F8B3236C 		.ascii	"\370\263#lT`#H\210*D\354(B\242\016\"\214\273\2719\002"
 175      54602348 
 175      882A44EC 
 175      2842A20E 
 175      228CBBB9 
 176 0028 4201A478 		.ascii	"B\001\244x\223\226\006T\033\314\352\234\322\321\370"
 176      93960654 
 176      1BCCEA9C 
 176      D2D1F8
 177 0037 ABA74914 		.ascii	"\253\247I\024G\232>\012\201\234h.b\240\371\017J\207"
 177      479A3E0A 
 177      819C682E 
 177      62A0F90F 
 177      4A87
 178 0049 395BEE2B 		.ascii	"9[\356+\216rw*\036\315zRE1\027K\202\013[\263#\234"
 178      8E72772A 
 178      1ECD7A52 
 178      4531174B 
 178      820B5BB3 
 179              		.text
 180              		.section	.gnu.lto_.vars.9de4c9003f0a5b60,"",%progbits
 181 0000 789C6362 		.ascii	"x\234cb`d`f```g\200\000\306\025\214\014\014\365\014"
 181      60646066 
 181      60606067 
 181      8000C615 
 181      8C0C0CF5 
 182 0015 0005F601 		.ascii	"\000\005\366\0017"
 182      37
 183              		.text
ARM GAS  /tmp/ccW1kXgu.s 			page 14


 184              		.section	.gnu.lto_.refs.9de4c9003f0a5b60,"",%progbits
 185 0000 789C6362 		.ascii	"x\234cb`d`f``Pc\200\0006 \217\025\212\201$##\230\005"
 185      60646066 
 185      60605063 
 185      80003620 
 185      8F158A81 
 186 0019 52C3C204 		.ascii	"R\303\302\004\242Y\201\230\201\001\000\015\331\000l"
 186      A2598198 
 186      8101000D 
 186      D9006C
 187              		.text
 188              		.section	.gnu.lto_.statics.9de4c9003f0a5b60,"",%progbits
 189 0000 789C6362 		.ascii	"x\234cb`d`b\300\016@\342\214\020&\000\000\375\000\011"
 189      60646062 
 189      C00E40E2 
 189      8C102600 
 189      00FD0009 
 190              		.text
 191              		.section	.gnu.lto_.decls.9de4c9003f0a5b60,"",%progbits
 192 0000 789CAD5A 		.ascii	"x\234\255Zmp\024E\032\236\236\311\356f\011\004\304\303"
 192      6D701445 
 192      1A9E9EC9 
 192      EE660904 
 192      C4C3
 193 0012 CA795A44 		.ascii	"\312yZDK\256\320\022\226\020>\313\223\202\013\226pe"
 193      4BAED012 
 193      96103ECB 
 193      93820B96 
 193      7065
 194 0024 D45AB82B 		.ascii	"\324Z\270+\377l\255\313f!{\227\315\256\263\223\000\377"
 194      FF6CADCB 
 194      66217B97 
 194      CDAEB393 
 194      00FF
 195 0036 D6209C22 		.ascii	"\326 \234\"P\300\225\362)D\020\011\312\005Q\021\020"
 195      50C095F2 
 195      29441009 
 195      CA055111 
 195      10
 196 0047 50C48801 		.ascii	"P\304\210\001\003\022\214\"\032\274\350\345\242\222"
 196      03128C22 
 196      1ABCE8E5 
 196      A292
 197 0055 C889C63A 		.ascii	"\310\211\306:\220`\356\355\236\231\236\236\331\231\235"
 197      9060EEED 
 197      9E999E9E 
 197      D9999D
 198 0064 9D8D53DB 		.ascii	"\235\215S\333\275\363\321\357\323\317\373\321\357t\317"
 198      BDF3D1EF 
 198      D3CFFBD1 
 198      EF74CF
 199 0073 0CCF210E 		.ascii	"\014\317!\016o\355\360\327\017\333\265R\216\273\335"
 199      6FEDF0D7 
 199      0FDBB552 
 199      8EBBDD
 200 0082 C5717970 		.ascii	"\305qyp\356^(\370j='on(;\241\274\014\345,\224O\261\034"
 200      EE5E28F8 
ARM GAS  /tmp/ccW1kXgu.s 			page 15


 200      6A3D276F 
 200      6E283BA1 
 200      BC0CE52C 
 201 009a 942F9476 		.ascii	"\224/\224v\035\234~\303m\275P\032\241\024B\031\014e"
 201      1D9C7EC3 
 201      6DBD501A 
 201      A1144219 
 201      0C65
 202 00ac 1934FC12 		.ascii	"\0314\374\022\376\327\301\377z$c\013P\240Kn)\034\257"
 202      FED7C1FF 
 202      7A24630B 
 202      50A04B6E 
 202      291CAF
 203 00bf 80F23494 		.ascii	"\200\3624\224\225PV!\031w\247\005>\3461\\\221W\361\033"
 203      95505621 
 203      1977A705 
 203      3EE6315C 
 203      9157F11B 
 204 00d3 15BE1E28 		.ascii	"\025\276\036(\207\241L\203\262\307\320\357\006(\033"
 204      87A14C83 
 204      B2C7D0EF 
 204      06281B
 205 00e2 A1B4281C 		.ascii	"\241\264(\034NA9\017\327\006Ay\027\312!\205\013\346"
 205      4E41390F 
 205      D7064179 
 205      17CA2185 
 205      0BE6
 206 00f4 B157E171 		.ascii	"\261W\341q\020\316\355\203\262\237\223\271\011J\377"
 206      10CEED83 
 206      B29F93B9 
 206      094AFF
 207 0103 ED8A1D78 		.ascii	"\355\212\035x(\247Q:Gl\247a\006\033\010\012\247z\205"
 207      28A7513A 
 207      476CA761 
 207      061B080A 
 207      A77A85
 208 0116 E33B2676 		.ascii	"\343;&vi\203\322\300i\334\362\225\376\017*\034T\216"
 208      6983D2C0 
 208      69DCF295 
 208      FE0F2A1C 
 208      548E
 209 0128 2B159EAB 		.ascii	"+\025\236\253\024Ng\025\177\250\234>6\341\344\345\236"
 209      144E6715 
 209      7FA89C3E 
 209      36E1E4E5 
 209      9E
 210 0139 4CA5EA52 		.ascii	"L\245\352R\251e\251\321\015\300\351\267\\\000\025z1"
 210      A965A9D1 
 210      0DC0E9B7 
 210      5C00157A 
 210      31
 211 014a 4DBC37D8 		.ascii	"M\2747\330+\013\216\342^H\245V\247R)\024@\365\310\013"
 211      2B0B8EE2 
 211      5E48A556 
 211      A7522914 
 211      40F5C80B 
 212 015e E778C4DD 		.ascii	"\347x\304\335\305\355J\221M\016\032%v@\251\306\015\037"
ARM GAS  /tmp/ccW1kXgu.s 			page 16


 212      C5ED4A91 
 212      4D0E1A25 
 212      7640A9C6 
 212      0D1F
 213 0170 B5F139A2 		.ascii	"\265\3619\242\277@\320\247\"\270\274\035\335\305\275"
 213      BF40D0A7 
 213      22B8BC1D 
 213      DDC5BD
 214 017f B4E2C27B 		.ascii	"\264\342\302{\202\014\025@\202\227%N\216\345V2\260|"
 214      820C1540 
 214      8297254E 
 214      8EE55632 
 214      B07C
 215 0191 59DDEBEF 		.ascii	"Y\335\353\357\0278\247\315Gr[R\365\035\253\227\244f"
 215      1738A7CD 
 215      47725B52 
 215      F51DAB97 
 215      A466
 216 01a3 5DE9EFF7 		.ascii	"]\351\357\367\334\304=\203\265\253_\006\304\244\000"
 216      DCC43D83 
 216      B5AB5F06 
 216      C4A400
 217 01b2 BA7704A5 		.ascii	"\272w\004\245_L\351\347)\330\015\350&eo\256\322-\317"
 217      5F4CE9E7 
 217      29D80DE8 
 217      26656FAE 
 217      D22DCF
 218 01c5 ED47AA16 		.ascii	"\355G\252\026\3336_\237\250\362\370=\267\003\243\036"
 218      DB365F9F 
 218      A8F2F83D 
 218      B703A31E 
 219 01d5 AD2B2290 		.ascii	"\255+\"\220Xd'\032i\240\272\013\361\354\011\314\253"
 219      5864271A 
 219      69A0BA0B 
 219      F1EC09CC 
 219      AB
 220 01e6 E3FB5C78 		.ascii	"\343\373\\x\355Vx\011\304\320\\\001\267\034\273\003"
 220      ED567809 
 220      C4D05C01 
 220      B71CBB03 
 221 01f6 44673517 		.ascii	"Dg5\027\016\347\326`\234\342f\3061\365\210B\374\306"
 221      0EE7D660 
 221      9CE266C6 
 221      31F58842 
 221      FCC6
 222 0208 E0993D68 		.ascii	"\340\231=h8\200|N\225\272\264e\357\331i2\277,\220xn"
 222      38807C4E 
 222      95BAB465 
 222      EFD96932 
 222      BF2C9078 
 223 021d 058F255F 		.ascii	"\005\217%_\005\024Y\236`\247dl|\226S\316\367\235\230"
 223      0514599E 
 223      60A7646C 
 223      7C9653CE 
 223      F79D98
 224 0230 C7A56FAE 		.ascii	"\307\245o\256\333\270z\240\216m\340\016\240FT\000\210"
 224      DBB87AA0 
ARM GAS  /tmp/ccW1kXgu.s 			page 17


 224      8E6DE00E 
 224      A0465400 
 224      88
 225 0241 1B2962D3 		.ascii	"\033)b\323\311\213\310\334\010\352\276\274\251m\224"
 225      C98BC8DC 
 225      08EABEBC 
 225      A96D94
 226 0250 CD04731B 		.ascii	"\315\004s\033\305l\371\223\023\304b\0261\265$5\332\255"
 226      C56CF993 
 226      13C46216 
 226      31B52435 
 226      DAAD
 227 0262 8E949728 		.ascii	"\216\224\227(b\333\311.d>\002\324\375|\033\226:\377"
 227      62DBC92E 
 227      643E02D4 
 227      FD7C1B96 
 227      3AFF
 228 0274 39898323 		.ascii	"9\211\203#\3728\010\240i\005\034\322\202\325B\222u\377"
 228      FA3808A0 
 228      69051CD2 
 228      82D54292 
 228      75FF
 229 0286 61629ED7 		.ascii	"ab\236\327x\325\375\355\315\333\224\001\257#%weM\344"
 229      78D5FDED 
 229      CDDB9401 
 229      AF232577 
 229      654DE4
 230 0299 1D805147 		.ascii	"\035\200QG\241~K\273\306s\207\251\351\332\031\323\231"
 230      A17E4BBB 
 230      C67387A9 
 230      E9DA19D3 
 230      99
 231 02aa BB23DFA0 		.ascii	"\273#\337\240G\272\203\247a\005\232(d\217m\314\0143"
 231      47BA83A7 
 231      61059A28 
 231      648F6DCC 
 231      0C33
 232 02bc F346FAC6 		.ascii	"\363F\372\306\006u\000\275\216Fq\256\000\332\207n\203"
 232      067500BD 
 232      8E4671AE 
 232      00DA876E 
 232      83
 233 02cd 83FDA43E 		.ascii	"\203\375\244>H\352C\244~\027\352\2146\307x8\024\225"
 233      48EA43A4 
 233      7E17EA8C 
 233      36C77838 
 233      1495
 234 02df 2D8F7A0C 		.ascii	"-\217z\014G\023\343\300\303\244\015\353O6\373\300\351"
 234      4713E3C0 
 234      C3A40DEB 
 234      4F36FBC0 
 234      E9
 235 02f0 0F782DFD 		.ascii	"\017x-\375\364\037w\313\247\357\340\266\247Rk\261A\324"
 235      F41F77CB 
 235      A7EFE0B6 
 235      A7526BB1 
 235      41D4
ARM GAS  /tmp/ccW1kXgu.s 			page 18


 236 0302 80FF8434 		.ascii	"\200\377\2044{\031RP\203\327\234\221 \013\341\240Vc"
 236      7B195250 
 236      83D79C91 
 236      200BE1A0 
 236      5663
 237 0314 FA332AB4 		.ascii	"\3723*\264~\210yD\253\204\331\016\345\020\352\240\262"
 237      7E887944 
 237      AB84D90E 
 237      E510EAA0 
 237      B2
 238 0325 4D9BAD3C 		.ascii	"M\233\255<\240\352\307J\023\367}M\205\237,\260\024\305"
 238      A0EAC74A 
 238      13F77D4D 
 238      859F2CB0 
 238      14C5
 239 0337 B6508C68 		.ascii	"\266P\214h\222m\261p\337\246\233u\016l\376\265\362\355"
 239      926DB170 
 239      DFA69B75 
 239      0E6CFEB5 
 239      F2ED
 240 0349 47C67186 		.ascii	"G\306q\206Y \235_\272\251_\232\3566wJ\000\235\004>\001"
 240      59209D5F 
 240      BAA95F9A 
 240      EE36774A 
 240      009D043E 
 241 035e 74169836 		.ascii	"t\026\2306[8%\203\202X\254R\247\336\307&\352\255^\275"
 241      5B382583 
 241      8258AC52 
 241      A7DEC726 
 241      EAAD5EBD 
 242 0372 A4DEB17A 		.ascii	"\244\336\261z\347\215\352a\037\353\325\273B\325k|\375"
 242      E78DEA61 
 242      1FEBD5BB 
 242      42D56B7C 
 242      FD
 243 0383 DAF122FD 		.ascii	"\332\361\"\375@\371<\023\021\031\236\347\236\027h\216"
 243      40F93C13 
 243      11199EE7 
 243      9E17688E 
 244 0393 F99D5EFC 		.ascii	"\371\235^\374Bf\361\006\"\336H\305;\015\342\377\322"
 244      4266F106 
 244      22DE48C5 
 244      3B0DE2FF 
 244      D2
 245 03a4 8BDFCE3D 		.ascii	"\213\337\316=\217\305S\365\263R\035\375\375#\315nb\035"
 245      8FC553F5 
 245      B3521DFD 
 245      FD23CD6E 
 245      621D
 246 03b6 3C3501F6 		.ascii	"<5\001\366\025\233\017\277$\267\3037\005\355v\270\351"
 246      159B0FBF 
 246      24B7C337 
 246      05ED76B8 
 246      E9
 247 03c7 9C62852C 		.ascii	"\234b\205,\220x\3568\221\3544\275\035v2\267\303\336"
 247      9078EE38 
 247      91EC34BD 
ARM GAS  /tmp/ccW1kXgu.s 			page 19


 247      1D7632B7 
 247      C3DE
 248 03d9 D36A9ED5 		.ascii	"\323j\236\325m\002Im\230\314,\267i\177\332\355\367\026"
 248      6D02496D 
 248      98CC2CB7 
 248      697FDAED 
 248      F716
 249 03eb 03F36F08 		.ascii	"\003\363o\010\3633\224y\313\226\302\014\274\3658\230"
 249      F3339479 
 249      CB96C20C 
 249      BCF53898 
 250 03fb 55B729E7 		.ascii	"U\267)\347n\206s\347\346\371&\224\335\351\224\353\247"
 250      6E8673E7 
 250      E6F92694 
 250      DDE994EB 
 250      A7
 251 040c B37D4DD7 		.ascii	"\263}M\327%s\226\362%B\371\002\245\334\273QO9\023\016"
 251      257396F2 
 251      2542F902 
 251      A5DCBB51 
 251      4F39130E 
 252 0420 2675D994 		.ascii	"&u\331\224\362e\206r\373F3\312\274\325\275\327t\306"
 252      F2658672 
 252      FB4633CA 
 252      BCD5BDD7 
 252      74C6
 253 0432 9347FB9D 		.ascii	"\223G\373\235I\\\374\035\341\373\223i\337?1}\267l5\233"
 253      495CFC1D 
 253      E1FB9369 
 253      DF3F317D 
 253      B76C359B 
 254 0446 F10CD7DD 		.ascii	"\361\014\327\335\274zI\356\354\245\210m[\007>\343\221"
 254      BC7A49EE 
 254      ECA5886D 
 254      5B073EE3 
 254      91
 255 0457 31AF51CC 		.ascii	"1\257Q\314\316\2219\317x\010\2422\331\227-\224\315\234"
 255      CE9139CF 
 255      7808A232 
 255      D9972D94 
 255      CD9C
 256 0469 E23AB999 		.ascii	"\342:\271\231\324\345\251n\275\330\264\367\353O=2\256"
 256      D4E5A96E 
 256      BDD8B4F7 
 256      EB4F3D32 
 256      AE
 257 047a 63B0148F 		.ascii	"c\260\024\217\301\336\316\323\226\016\255\307}\234\022"
 257      C1DECED3 
 257      960EADC7 
 257      7D9C12
 258 0489 001EC3D2 		.ascii	"\000\036\303\322\301\243_\013x\350Z\300\343\225\227"
 258      C1A35F0B 
 258      78E85AC0 
 258      E39597
 259 0498 BE4339E7 		.ascii	"\276C9\347\002<\327\234\247\332\362\322\226\353\357"
 259      023CD79C 
 259      A7DAF2D2 
ARM GAS  /tmp/ccW1kXgu.s 			page 20


 259      96EBEF
 260 04a7 4F753263 		.ascii	"Ou2ca\035\224\"\346Tc\333m\255?\317}Hz\\\312\233\305"
 260      611D9422 
 260      E65463DB 
 260      6DAD3FCF 
 260      7D487A5C 
 261 04be 183EABC6 		.ascii	"\030>\253\306X\343\301\013Mfy\0049\212p-\211\335Az?"
 261      58E3C10B 
 261      4D667904 
 261      398A702D 
 261      89DD417A 
 262 04d3 477A5F6E 		.ascii	"Gz_n\332\373r\266\367\323{\257\231\365\356\265\352="
 262      DAFB72B6 
 262      F7D37BAF 
 262      99F5EEB5 
 262      EA3D
 263 04e5 C37D88F5 		.ascii	"\303}\210\365\371*\036G\360J\027\275\345\\\375\250\017"
 263      F92A1E47 
 263      F04A17BD 
 263      E55CFDA8 
 263      0F
 264 04f6 A92E9B56 		.ascii	"\251.\233V\300vE\216u\263\313g]*\371\306\323k^\334\350"
 264      C076458E 
 264      75B3CB67 
 264      5D2AF9C6 
 264      D36B5EDC 
 265 050b 1AE87092 		.ascii	"\032\350p\222\311l\240\250-\263\0076\234T\304\315\024"
 265      C96CA0A8 
 265      2DB30736 
 265      9C54C4CD 
 265      14
 266 051c B1CD06D1 		.ascii	"\261\315\006\321n\371\240\"n\245\210\355\216\020\255"
 266      6EF9A022 
 266      6EA588ED 
 266      8E10AD
 267 052b 396EA388 		.ascii	"9n\243\210\2356\210\246\223j\023\304\035\024\261\307"
 267      9D3688A6 
 267      936A13C4 
 267      1D14B1C7 
 268 053b 11A235C7 		.ascii	"\021\2425\307\006\212\330k\203X\224%\307\335\024\261"
 268      068AD86B 
 268      83589425 
 268      C7DD14B1 
 269 054b CF11A235 		.ascii	"\317\021\2425\307W(b\223\315\362\263\330\214cZL\031"
 269      C7572862 
 269      93CDF2B3 
 269      D88C635A 
 269      4C19
 270 055d 27704FF1 		.ascii	"'pO\361tP\300b\316\245\346\216\306\023\027\372\370\034"
 270      7450C062 
 270      CEA5E68E 
 270      C61317FA 
 270      F81C
 271 056f E29F42ED 		.ascii	"\342\237B\355wi\211\257\337Y\34233\206|g:BA[\032rZ\253"
 271      776989AF 
 271      DF59E233 
 271      33867C67 
ARM GAS  /tmp/ccW1kXgu.s 			page 21


 271      3A42415B 
 272 0587 9960BE47 		.ascii	"\231`\276G1\333F\017,\254t\371J\271[u\3548Z\264\236"
 272      31DB460F 
 272      2CAC74F9 
 272      4AB95B75 
 272      EC385AB4 
 273 059c 4998F914 		.ascii	"I\230\371\024\015g%-;\322\346\251\242\"\253\326\260"
 273      0D67252D 
 273      3BD2E6A9 
 273      A222ABD6 
 273      B0
 274 05ad 52E14741 		.ascii	"R\341GA\275\233\367R&\312>\335\355G\330\370\247\\\270"
 274      BD9BF752 
 274      26CA3EDD 
 274      ED47D8F8 
 274      A75CB8
 275 05c0 BD597EB5 		.ascii	"\275Y~\265\227\266\016\225]l\250\234\325\\qg\316c\347"
 275      97B60E95 
 275      5D6CA89C 
 275      D55C7167 
 275      CE63E7
 276 05d3 FBBA5491 		.ascii	"\373\272T\221\233Q\335\306RJ\216\177\205\334\327\317"
 276      9B51DDC6 
 276      524A8E7F 
 276      85DCD7CF 
 277 05e3 BBB44942 		.ascii	"\273\264IBk\227a\222\220=\330k\004\354+\2276I\330w\235"
 277      6B976192 
 277      903DD86B 
 277      04EC2B97 
 277      3649D877 
 278 05f8 576D850C 		.ascii	"Wm\205\014\223\004\244\277\347#j=\244\030\317Yk\236"
 278      9304A4BF 
 278      E7236A3D 
 278      A418CF59 
 278      6B9E
 279 060a BBC88C92 		.ascii	"\273\310\214\222\363'\247\232\323\315\"e\344f\310\003"
 279      F327A79A 
 279      D3CD2265 
 279      E466C803 
 280 061a 44F71F18 		.ascii	"D\367\037\030C\356\245\206\224-\343T\237\237\031}.;"
 280      43EEA586 
 280      942DE354 
 280      9F9F197D 
 280      2E3B
 281 062c D367F4C0 		.ascii	"\323g\364\300\3659B\364\251sk\372\\\036\240>\313\335"
 281      F53942F4 
 281      A9736BFA 
 281      5C1EA03E 
 281      CBDD
 282 063e 9A3ED79C 		.ascii	"\232>\327\234\3513\216\321G\236\276\335\310\255\265"
 282      E9338ED1 
 282      479EBEDD 
 282      C8ADB5
 283 064d 9BBE615A 		.ascii	"\233\276aZ\307\370\033\271\364\311\023>K\227\007\215"
 283      C7F81BB9 
 283      F4C9133E 
 283      4B97078D 
ARM GAS  /tmp/ccW1kXgu.s 			page 22


 284 065d 855CFA96 		.ascii	"\205\\\372\226\307tEL\227r0W~\217\230n\015c\272V\375"
 284      C774454C 
 284      97723057 
 284      7E8F986E 
 284      0D63BA56 
 285 0672 C4DB0958 		.ascii	"\304\333\011X3\001[\347\326\306\324\333\307\307\250"
 285      33015BE7 
 285      D6C6D4DB 
 285      C7C7A8
 286 0681 56771BBC 		.ascii	"Vw\033\274\340\326{\001_\306\275]\301Sh\324\257nH\275"
 286      E0D67B01 
 286      5FC6BD5D 
 286      C15368D4 
 286      AF6E48BD 
 287 0695 860F3CDC 		.ascii	"\206\017<\334\257\001\001\263\036\302\020[\026\242\365"
 287      AF0101B3 
 287      1EC2105B 
 287      16A2F5
 288 06a4 039B7B14 		.ascii	"\003\233{\024\247\363.\227\346]\325\206/R\320>\337@"
 288      A7F32E97 
 288      E65DD586 
 288      2F52D03E 
 288      DF40
 289 06b6 2790E409 		.ascii	"'\220\344\011\327\036\012\330{`\240K<\307k\250V\242"
 289      D71E0AD8 
 289      7B60A04B 
 289      3CC76BA8 
 289      56A2
 290 06c8 D31B4C5C 		.ascii	"\323\033L\\\254\271\250\015\251\224qHe\267(:\306\330"
 290      ACB9A80D 
 290      A9947148 
 290      65B7283A 
 290      C6D8
 291 06da FDD0E95C 		.ascii	"\375\320\351\\\354\256l<w\202\016\320>\033\234b\033"
 291      ECAE6C3C 
 291      77820ED0 
 291      3E1B9C62 
 291      1B
 292 06eb FF65B1B8 		.ascii	"\377e\261\270b\015s\216\307\017 NQ\303\364l2<\200\260"
 292      620D738E 
 292      C70F204E 
 292      51C3F46C 
 292      323C80B0 
 293 06ff 19E59F99 		.ascii	"\031\345\237\231.\221>c\226H\355\233\314\036@\240\264"
 293      2E913E63 
 293      9648ED9B 
 293      CC1E40A0 
 293      B4
 294 0710 294C005D 		.ascii	")L\000]%\017\007\261l\347\246\234\"$}c\011\006\320\347"
 294      250F07B1 
 294      6CE7A69C 
 294      22247D63 
 294      0906D0E7 
 295 0724 30EF0076 		.ascii	"0\357\000v\355<}T\315s\355\324\362\235o\332=\212\327"
 295      ED3C7D54 
 295      CD73EDD4 
 295      F29D6FDA 
ARM GAS  /tmp/ccW1kXgu.s 			page 23


 295      3D8AD7
 296 0737 DBBE5867 		.ascii	"\333\276Xg\373\024QD~\236\323E1\333\356Q[O\327\315\022"
 296      FB145144 
 296      7E9ED345 
 296      31DBEE51 
 296      5B4FD7CD 
 297 074c D5FDD136 		.ascii	"\325\375\3216\336TG\343e\212\330{Of\216\343,\021Uc\313"
 297      DE5447E3 
 297      658AD87B 
 297      4F668EE3 
 297      2C115563 
 298 0761 63E17F9A 		.ascii	"c\341\177\232\336\177p\202X\234\206h\273\272Ni\217\332"
 298      DE7F7082 
 298      589C8668 
 298      BBBA4E69 
 298      8FDA
 299 0773 86119BD7 		.ascii	"\206\021\233\327yp\337]\246\241\323\305\204\316W\275"
 299      7970DF5D 
 299      A6A1D3C5 
 299      84CE57BD 
 300 0783 AD5FE81E 		.ascii	"\255_\350\036\264*\233`b\363\006\212\331\276\2770\263"
 300      B42A9B60 
 300      62F3068A 
 300      D9BEBF30 
 300      B3
 301 0794 D14D63C7 		.ascii	"\321Mc\307dJ\375\012\205\3549W\230\331F\216\336oea#"
 301      644AFD0A 
 301      85EC3957 
 301      98D9468E 
 301      DE6F6561 
 302 07a9 7688FE97 		.ascii	"v\210\376\227\014\321\003\036:D?)P\203[6\026\023\355"
 302      0CD1031E 
 302      3A443F29 
 302      50835B36 
 302      1613ED
 303 07bc 5D4CB47F 		.ascii	"]L\264\177\003\321.\004\320\267<~=\323M\352\357\264"
 303      03D12E04 
 303      D0B73C7E 
 303      3DD34DEA 
 303      EFB4
 304 07ce C8B7     		.ascii	"\310\267"
 305 07d0 1ED297D8 		.ascii	"\036\322\227\330\371\361Qj\203>g6(\326y\314\272\267"
 305      F9F1516A 
 305      833E6736 
 305      28D679CC 
 305      BAB7
 306 07e2 FFB0BDBD 		.ascii	"\377\260\275\275\357\321\346)\373\207f\356n\212\255"
 306      EFD1E629 
 306      FB8766EE 
 306      6E8AAD
 307 07f1 17E5A770 		.ascii	"\027\345\247p\255\024\263\357\210\335\000\237b \233"
 307      AD14B3EF 
 307      88DD009F 
 307      62209B
 308 0800 8E496E65 		.ascii	"\216Ine\355\024\262\347-\273D5\335\214\246\255Uz\365"
 308      ED14B2E7 
 308      2DBB4435 
ARM GAS  /tmp/ccW1kXgu.s 			page 24


 308      DD8CA6AD 
 308      557AF5
 309 0813 6F0CD5DC 		.ascii	"o\014\325\334\210\037\354v\336<\320\333\261\014~\215"
 309      881FEC76 
 309      DE3CD0DB 
 309      B10C7E8D 
 310 0823 22F63842 		.ascii	"\"\3668B\324;\226\331\330\247\321\001\364\003\032\305"
 310      D43B96D9 
 310      D8A7D101 
 310      F4031AC5 
 311 0833 F101F423 		.ascii	"\361\001\364#y9x\205\315\270\235\304z\370\261z\317f"
 311      79397885 
 311      CDB89DC4 
 311      7AF8B17A 
 311      CF66
 312 0845 CD21B90E 		.ascii	"\315!\271\016U\331\311=\024\263\367\226\\G\252\232q"
 312      55D9C93D 
 312      14B3F796 
 312      5C47AA9A 
 312      71
 313 0856 9792F1F6 		.ascii	"\227\222\361\366#El\2725\207\2707I'W)b\373s\277\326"
 313      23456CBA 
 313      3587B837 
 313      49275729 
 313      62FB73BF 
 314 086b AAFFF17C 		.ascii	"\252\377\361|\025\263\323\206\245\375\303$\031\361)"
 314      15B3D386 
 314      A5FDC324 
 314      19F129
 315 087a 8AD86783 		.ascii	"\212\330g\203h\272 6\013\213n&,z ,\240\257\357HX\374"
 315      68BA2036 
 315      0B8B6E26 
 315      2C7A202C 
 315      A0AFEF48 
 316 0890 4C92521F 		.ascii	"L\222R\037\251\177!uJ\300u\235\300\204\313?\362\325"
 316      A97F2175 
 316      4AC0759D 
 316      C084CB3F 
 316      F2D5
 317 08a2 F7496D1F 		.ascii	"\367Im\037j\341bx}\223\315\354\326\352\215\322\243T"
 317      6AE16278 
 317      7D93CDEC 
 317      D6EA8DD2 
 317      A354
 318 08b4 1A7FB6C4 		.ascii	"\032\177\266\304f\336e\002\216\204\015\371j\346\355"
 318      66DE6502 
 318      8E840DF9 
 318      6AE6ED
 319 08c3 3B95E185 		.ascii	";\225\341\205\222\036\206<\223\022\314np\370,\375$\344"
 319      921E863C 
 319      9312CC6E 
 319      70F82CFD 
 319      24E4
 320 08d5 03B3B951 		.ascii	"\003\263\271Q^\332\347\033\001\364\006\031\255X\266"
 320      5EDAE71B 
 320      01F40619 
 320      AD58B6
ARM GAS  /tmp/ccW1kXgu.s 			page 25


 321 08e4 A9E5D7F9 		.ascii	"\251\345\327\371$\004\326\315\024\263\355\201\0342@"
 321      2404D6CD 
 321      14B3ED81 
 321      1C3240
 322 08f3 DA272101 		.ascii	"\332'!\001\364&E\354l\031\300'!\272\317L\366\020\363"
 322      F42645EC 
 322      6C19C027 
 322      21BACF4C 
 322      F610F3
 323 0906 13CC7227 		.ascii	"\023\314r'\210\303\254\003RsL\000-\027Fqy\001\3644\011"
 323      88C3AC03 
 323      52734C00 
 323      2D174671 
 323      7901F434 
 324 091b BC15A45E 		.ascii	"\274\025\244^I\352Ul\020\036\242A\330\373\220\271\303"
 324      49EA556C 
 324      101EA241 
 324      D8FB90B9 
 324      C3
 325 092c CD4785CE 		.ascii	"\315G\205\316T\271-]\326\012\330\012\307h\020\302\222"
 325      54B92D5D 
 325      D60AD80A 
 325      C76810C2 
 325      92
 326 093d F6DF035E 		.ascii	"\366\337\003^\272\234\244\372\\\332\262\356\023\233"
 326      BA9CA4FA 
 326      5CDAB2EE 
 326      139B
 327 094b 2587E924 		.ascii	"%\207\351$\325\314\256\235\314@\357Bd\366\3615\031\350"
 327      D5CCAE9D 
 327      CC40EF42 
 327      64F6F135 
 327      19E8
 328 095d 4B8945D7 		.ascii	"K\211E\327\260\026\275@\025j\371\366UmX\353\337&c\320"
 328      B016BD40 
 328      156AF9F6 
 328      556D58EB 
 328      DF2663D0 
 329 0971 6705FA72 		.ascii	"g\005\372r\333\360&\005\277\251\266\276\205\256\023"
 329      DBF02605 
 329      BFA9B6BE 
 329      85AE13
 330 0980 0A2CE4F0 		.ascii	"\012,\344\360\260\266\226[\257\311\021_-\261\361U\000"
 330      B0B6965B 
 330      AFC9115F 
 330      2DB1F155 
 330      00
 331 0991 3D4E1E67 		.ascii	"=N\036gfcx\323\231\237\233\302=jp\375F\222\177:\250"
 331      666378D3 
 331      999F9BC2 
 331      3D6A70FD 
 331      46927F3A 
 332 09a6 A57E38BD 		.ascii	"\245~8\275\366\320=2\265,\2200\265\347LS\320sL\012\352"
 332      F6D03D32 
 332      B52C9030 
 332      B5E74C53 
 332      D0734C0A 
ARM GAS  /tmp/ccW1kXgu.s 			page 26


 333 09bb ED364B41 		.ascii	"\3556KA#p\304>\261DI\027\033H\010n\365\"\005\261\257"
 333      2370C43E 
 333      B1444917 
 333      1B48086E 
 333      F52205B1 
 334 09d0 DB6E22C5 		.ascii	"\333n\"\305\231\205\214\011\346v\212\331T\225c\0122"
 334      99858C09 
 334      E6768AD9 
 334      5495630A 
 334      32
 335 09e1 20EEA488 		.ascii	" \356\244\210-6\210\226\011\310\200\270\233\"\2669B"
 335      2D368896 
 335      09C880B8 
 335      9B22B639 
 335      42
 336 09f2 B4E6B897 		.ascii	"\264\346\270\227\"\266\333 Z\316\003\014\210\257S\304"
 336      22B6DB20 
 336      5ACE030C 
 336      88AF53C4 
 337 0a02 4E4788D6 		.ascii	"NG\210\326\034\017P\304\036\033D\313\007\343\006\304"
 337      1C0F50C4 
 337      1E1B44CB 
 337      07E306C4 
 338 0a12 B72862AF 		.ascii	"\267(b\257#Dk\216MZD\332 \026g\311\361\204\026\2171"
 338      23446B8E 
 338      4D5A44DA 
 338      201667C9 
 338      F184168F 
 339 0a27 2788D61C 		.ascii	"'\210\326\034Oi\361h\203h\371,\300\200\330\252\305\243"
 339      4F69F168 
 339      8368F92C 
 339      C080D8AA 
 339      C5A3
 340 0a39 23446B8E 		.ascii	"#Dk\216\037k\361h\203h\371t\341\211\307\311\374\352"
 340      1F6BF168 
 340      8368F974 
 340      E189C7C9 
 340      FCEA
 341 0a4b 066EB592 		.ascii	"\006n\265\222\226dl\232\232\220!\000\331\206\370\036"
 341      96646C9A 
 341      9A902100 
 341      D986F81E 
 342 0a5b 66D93080 		.ascii	"f\3310\200\016\0117\220=\335\363[\322\304:\211\037V"
 342      0E093790 
 342      3DDDF35B 
 342      D2C43A89 
 342      1F56
 343 0a6d 3EA9D6B2 		.ascii	">\251\326\262\207\272\307~<\255\265\303/b\264!\024\263"
 343      87BAC77E 
 343      3CADB5C3 
 343      2F62B421 
 343      14B3
 344 0a7f 60636E05 		.ascii	"`cn\005k\273^\320\306\220\215]\247g\211\370\2256\206"
 344      6BBB5ED0 
 344      C6908D5D 
 344      A76789F8 
 344      953686
ARM GAS  /tmp/ccW1kXgu.s 			page 27


 345 0a92 6C106765 		.ascii	"l\020ge\031M]\332\030r\204h\315\261[\033C\325\231\021"
 345      194D5DDA 
 345      18728468 
 345      CDB15B1B 
 345      43D59911 
 346 0aa6 1FCE92E3 		.ascii	"\037\316\222\343%m\0149B\264\346\330\253\215!\033\304"
 346      256D0C39 
 346      42B4E6D8 
 346      AB8D211B 
 346      C4
 347 0ab7 47B2E478 		.ascii	"G\262\344xU\033C\216\020\2139\213\215\275y\007\320\026"
 347      551B438E 
 347      108B398B 
 347      8DBD7907 
 347      D016
 348 0ac9 98A68E08 		.ascii	"\230\246\216\010\240\255d\"\365<\251\267\223z\007\251"
 348      A0AD6422 
 348      F53CA9B7 
 348      937A07A9 
 349 0ad9 77927A17 		.ascii	"w\222z\027\251_&\365?I\275\207\324{I\375\032\251\367"
 349      A95F26F5 
 349      3F49BD87 
 349      D47B49FD 
 349      1AA9F7
 350 0aec 917A3FA9 		.ascii	"\221z?\251\017\222\372-R\037%\3651R7\221\3728\251\233"
 350      0F92FA2D 
 350      521F25F5 
 350      31523791 
 350      FA38A99B 
 351 0b00 497D529B 		.ascii	"I}R\233\272\031&S\0333N\246Z,'a\3473~M}J\223\303_3\236"
 351      BA192653 
 351      1B334EA6 
 351      5A2C2761 
 351      E7337E4D 
 352 0b1b 39B33A55 		.ascii	"9\263:UWT\207\277fT\023\307z\300x\211I\034\217P\014"
 352      575487BF 
 352      665413C7 
 352      7AC07889 
 352      491C8F50 
 353 0b30 59926DB7 		.ascii	"Y\222m\267;C\273\000:\223C~i\265\314/\203t.l\325\362"
 353      3B43BB00 
 353      3A93437E 
 353      69B5CC2F 
 353      83742E6C 
 354 0b46 CB2F5EF5 		.ascii	"\313/^\365\013\337m\2337\274/X\361\341\271\277\017B"
 354      0BDF6D9B 
 354      37BC2F58 
 354      F1E1B9BF 
 354      0F42
 355 0b58 8A34DE31 		.ascii	"\2124\3361\230\255!\243\331\332\034\233\255\222b\014"
 355      98AD21A3 
 355      D9DA1C9B 
 355      AD92620C 
 356 0b68 C9683663 		.ascii	"\311h6c\273\000:\227\203\331>\2654\333`\235\331\324"
 356      BB003A97 
 356      83D93EB5 
 356      34DB609D 
ARM GAS  /tmp/ccW1kXgu.s 			page 28


 356      D9D4
 357 0b7a 76B07B56 		.ascii	"v\260{VP\277\030n\277\333\212\014\317=\243\263\031\347"
 357      50BF186E 
 357      BFDB8A0C 
 357      CF3DA3B3 
 357      19E7
 358 0b8c 4D2E4E4A 		.ascii	"M.NJ\321X$(\271\357\177\360\317\305e\334\250\261c}\362"
 358      D1582428 
 358      B9EF7FF0 
 358      CFC565DC 
 358      A8B1637D 
 359 0ba1 2F9EF489 		.ascii	"/\236\364\211\222/\021\027\245\244o\206\277\274\254"
 359      922F1117 
 359      A5A46F86 
 359      BFBCAC
 360 0bb0 7C912F5C 		.ascii	"|\221/\\\031\216\213\221\261\225\\~M\264Z*\231\024\224"
 360      198E8B91 
 360      B1955C7E 
 360      4DB45A2A 
 360      991494
 361 0bc3 245F3C21 		.ascii	"$_<!\341\313\276\005\341\360\230\220\030\033S\035\257"
 361      E1CBBE05 
 361      E1F09890 
 361      181B531D 
 361      AF
 362 0bd4 8E8C8984 		.ascii	"\216\214\211\204\346E\307L\010N\0363~\\I\351c\245\276"
 362      E645C74C 
 362      084E1E33 
 362      7E5C49E9 
 362      63A5BE
 363 0be7 79D16A0C 		.ascii	"y\321j\014Y\025\235\207\333\371t\355|\023\306N\036;"
 363      59159D87 
 363      DBF974ED 
 363      7C13C64E 
 363      1E3B
 364 0bf9 C147FB85 		.ascii	"\301G\373\205\237\376z\264:\\US\021\361%\245\012\350"
 364      9FFE7AB4 
 364      3A5C5553 
 364      11F125A5 
 364      0AE8
 365 0c0b 15F71EAC 		.ascii	"\025\367\036\254\225\202\321\352\250t\263\201lR\014"
 365      9582D1EA 
 365      A874B381 
 365      6C520C
 366 0c1a 03C75A69 		.ascii	"\003\307Zil\230\033Z\033\025\245\232PU\020k'\006\245"
 366      6C981B5A 
 366      1B15A59A 
 366      5055106B 
 366      2706A5
 367 0c2d 62435315 		.ascii	"bCS\0254\\\231\014WV\000\350\020\235\200\007z\250\216"
 367      345C990C 
 367      575600E8 
 367      109D8007 
 367      7AA88E
 368 0c40 2C92F07F 		.ascii	",\222\360\177B\214\324\346\303\177E\244J\012\301\316"
 368      428CD4E6 
 368      C37F45A4 
ARM GAS  /tmp/ccW1kXgu.s 			page 29


 368      4A0AC1CE 
 369 0c50 FC9AEA70 		.ascii	"\374\232\352p\220\\\301{n\334\"$\016\012W\376e\356\314"
 369      905CC17B 
 369      6EDC2224 
 369      0E0A57FE 
 369      65EECC
 370 0c63 F89C8834 		.ascii	"\370\234\2104[\250\225\022.h\034Z\354\226\033\013p}"
 370      5BA89512 
 370      2E681C5A 
 370      EC961B0B 
 370      707D
 371 0c75 B07CDD1F 		.ascii	"\260|\335\037IB\213AI\011\032\316\250\002=oeyU\206\252"
 371      49428B41 
 371      49091ACE 
 371      A8023D6F 
 371      65795586 
 372 0c8a 186D81D4 		.ascii	"\030m\201\324`h(\205D\271i\001>\210'\344\375pe\020\273"
 372      60682885 
 372      44B96901 
 372      3E8827E4 
 372      FD706510 
 373 0c9f 2E120B4A 		.ascii	".\022\013J^\272?X\214\204*\026\007\253\242I)(\015\225"
 373      5EBA3F58 
 373      8C842A16 
 373      07ABA249 
 373      29280D95 
 374 0cb3 2AF16132 		.ascii	"*\361a2\370XM\244\006;X>v'\210b\360\207\365\362H\011"
 374      F8584DA4 
 374      063B583E 
 374      76278862 
 374      F087F5F2 
 375 0cc9 311A0F4A 		.ascii	"1\032\017J\0232\272=\036KD\253\"b\322w\177Y\031XLZ\234"
 375      1332BA3D 
 375      1E4B44AB 
 375      2262D277 
 375      7F591958 
 376 0ce0 8824D528 		.ascii	"\210$\325((\035\037\224\301\242qO8^-\001v\001\226\006"
 376      281D1F94 
 376      C1A2714F 
 376      385E2D01 
 376      76019606 
 377 0cf4 07496169 		.ascii	"\007Iai\321\235\366\361\024\254\235\034\303hbd\001h"
 377      D19DF6F1 
 377      14AC9D1C 
 377      C3686264 
 377      0168
 378 0d06 16947871 		.ascii	"\026\224xq\002/N\344\305I\2748\231\027\247\360\342T"
 378      022F4EE4 
 378      C549BC38 
 378      9917A7F0 
 378      E254
 379 0d18 412C1907 		.ascii	"A,\031\007\245\204\257\022\341\257\324\225\010\002\262"
 379      A584AF12 
 379      E1AFD495 
 379      0802B2
 380 0d27 072BB210 		.ascii	"\007+\262\020\\\225\010\306\253*\"b^\2702$b\355B\261"
 380      5C9508C6 
ARM GAS  /tmp/ccW1kXgu.s 			page 30


 380      AB2A2262 
 380      5EB83224 
 380      62ED42B1 
 381 0d3b 48BE9494 		.ascii	"H\276\224\224B\022(\355\301\024\247\300\177\"H\316x"
 381      421228ED 
 381      C114A7C0 
 381      7F2248CE 
 381      78
 382 0d4c A458BC22 		.ascii	"\244X\274\"B\216\347W\205\026$=\222\030\231\237$\032"
 382      428EE757 
 382      8516243D 
 382      9218999F 
 382      241A
 383 0d5e E01D572C 		.ascii	"\340\035W,\271\000.\252j\211\025\213\341D~dQT\012\203"
 383      B9002EAA 
 383      6A89158B 
 383      E1447E64 
 383      51540A83 
 384 0d72 987BA114 		.ascii	"\230{\241\024\237\367\327DA\2446R-\305B\311\277A\223"
 384      9FF7D744 
 384      41A43652 
 384      2DC542C9 
 384      BF4193
 385 0d85 C842BC23 		.ascii	"\310B\274#$\2025\205\252\275e\363{\023\301\205\241\250"
 385      24823585 
 385      AABD65F3 
 385      7B13C185 
 385      A1A8
 386 0d97 14AD5E30 		.ascii	"\024\255^0(\021\004\024\342\005\027\331\205\023\221"
 386      28110414 
 386      E20517D9 
 386      851391
 387 0da6 44A41AA2 		.ascii	"D\244\032\242y\201+V\003\026\033i\031\2341i\021\230"
 387      79812B56 
 387      03161B69 
 387      199C3169 
 387      1198
 388 0db8 C613939D 		.ascii	"\306\023\223\235\010\377\361\205\325\2402\221\202\336"
 388      08FFF185 
 388      D5A03291 
 388      82DE
 389 0dc6 63C497D0 		.ascii	"c\304\227\320\025\264\303\335\016\302j\204\252\2103"
 389      15B4C3DD 
 389      0EC26A84 
 389      AA8833
 390 0dd5 E064221E 		.ascii	"\340d\"\036\257\362\210\262\254[$>r\211\304v\242b;Q"
 390      AFF288B2 
 390      AC5B243E 
 390      7289C476 
 390      A2623B51 
 391 0de9 B69D17CE 		.ascii	"\266\235\027\316\326\210\"\250\345\0221\316\010\335"
 391      D68822A8 
 391      E51231CE 
 391      08DD
 392 0df7 6050552A 		.ascii	"`PU*\200P\257\012%%|\022B\033\237\364\210R\270\032."
 392      8050AF0A 
 392      25257C12 
ARM GAS  /tmp/ccW1kXgu.s 			page 31


 392      421B9FF4 
 392      8852B81A 
 393 0e0c 0D8F4542 		.ascii	"\015\217EB\311\0321\022\003\210`|\376|\210r>\\\011\021"
 393      C91A3112 
 393      0388607C 
 393      FE7C8872 
 393      3E5C0911 
 394 0e20 1BC3868C 		.ascii	"\033\303\206\214\202W\307\033\003]\216\2049s\313K\307"
 394      8257C71B 
 394      035D8E84 
 394      3973CB4B 
 394      C7
 395 0e31 FB1E7860 		.ascii	"\373\036x`\246o\356\354\362\332\022\037\225\000\265"
 395      A66FEEEC 
 395      F2DA121F 
 395      9500B5
 396 0e40 85327F09 		.ascii	"\2052\177\011\224\361ys\312\313\374y3g\337\347\347\347"
 396      94F17973 
 396      CACBFC79 
 396      3367DFE7 
 396      E7E7
 397 0e52 F885FBEE 		.ascii	"\370\205\373\356\367\273\312\312\312\375%\244\036\237"
 397      F7BBCACA 
 397      CAFD25A4 
 397      1E9F
 398 0e60 5756769F 		.ascii	"WVv\237_({p\256\360\360\2342a\206\337/\370\313\340\030"
 398      5F287B70 
 398      AEF0F09C 
 398      326186DF 
 398      2FF8CBE0 
 399 0e75 04FE3873 		.ascii	"\004\3768s\256_\230\211%\313g\370\371\207d\251Rh\357"
 399      AE5F9889 
 399      25CB67F8 
 399      F98764A9 
 399      5268EF
 400 0e88 9F88AB49 		.ascii	"\237\210\253I\371A2\200\203\301!\352\316\330I%\343&"
 400      F9413280 
 400      83C121EA 
 400      CED84925 
 400      E326
 401 0e9a B24725A5 		.ascii	"\262G%\245\377\007\307#\031\265"
 401      FF07C723 
 401      19B5
 402              		.text
 403              		.section	.gnu.lto_.symtab.9de4c9003f0a5b60,"",%progbits
 404 0000 5F76745F 		.ascii	"_vt_init\000\000\000\000\000\000\000\000\000\000\000"
 404      696E6974 
 404      00000000 
 404      00000000 
 404      000000
 405 0013 00A70000 		.ascii	"\000\247\000\000\000chVTDoSetI\000\000\000\000\000\000"
 405      00636856 
 405      54446F53 
 405      65744900 
 405      00000000 
 406 0028 00000000 		.ascii	"\000\000\000\000\000\000\253\000\000\000chVTDoReset"
 406      0000AB00 
ARM GAS  /tmp/ccW1kXgu.s 			page 32


 406      00006368 
 406      5654446F 
 406      52657365 
 407 003d 49000000 		.ascii	"I\000\000\000\000\000\000\000\000\000\000\000\000\322"
 407      00000000 
 407      00000000 
 407      00D2
 408 004b 00000073 		.ascii	"\000\000\000stSetAlarm\000\000\002\000\000\000\000\000"
 408      74536574 
 408      416C6172 
 408      6D000002 
 408      00000000 
 409 0060 00000000 		.ascii	"\000\000\000\000\330\000\000\000stStartAlarm\000\000"
 409      D8000000 
 409      73745374 
 409      61727441 
 409      6C61726D 
 410 0076 02000000 		.ascii	"\002\000\000\000\000\000\000\000\000\000\334\000\000"
 410      00000000 
 410      0000DC00 
 410      00
 411 0083 00737453 		.ascii	"\000stStopAlarm\000\000\002\000\000\000\000\000\000"
 411      746F7041 
 411      6C61726D 
 411      00000200 
 411      00000000 
 412 0098 000000DE 		.ascii	"\000\000\000\336\000\000\000ch\000\000\002\000\000\000"
 412      00000063 
 412      68000002 
 412      000000
 413 00a7 00000000 		.ascii	"\000\000\000\000\000\000\340\000\000\000"
 413      0000E000 
 413      0000
 414              		.text
 415              		.section	.gnu.lto_.opts,"",%progbits
 416 0000 272D6D63 		.ascii	"'-mcpu=cortex-m3''-mno-thumb-interwork''-mthumb''-g"
 416      70753D63 
 416      6F727465 
 416      782D6D33 
 416      27272D6D 
 417 0033 67646227 		.ascii	"gdb''-O2''-fomit-frame-pointer''-falign-functions=1"
 417      272D4F32 
 417      27272D66 
 417      6F6D6974 
 417      2D667261 
 418 0066 3627272D 		.ascii	"6''-ffunction-sections''-fdata-sections''-fno-commo"
 418      6666756E 
 418      6374696F 
 418      6E2D7365 
 418      6374696F 
 419 0099 6E27272D 		.ascii	"n''-flto'\000"
 419      666C746F 
 419      2700
 420              		.text
 421              		.cfi_sections	.debug_frame
 422              		.section	.text._vt_init,"ax",%progbits
 423              		.align	2
ARM GAS  /tmp/ccW1kXgu.s 			page 33


 424              		.p2align 4,,15
 425              		.global	_vt_init
 426              		.thumb
 427              		.thumb_func
 428              		.type	_vt_init, %function
 429              	_vt_init:
 430              	.LFB165:
 431              		.file 1 "../../../os/rt/src/chvt.c"
 432              		.loc 1 62 0
 433              		.cfi_startproc
 434              		@ args = 0, pretend = 0, frame = 0
 435              		@ frame_needed = 0, uses_anonymous_args = 0
 436              		@ link register save eliminated.
 437              		.loc 1 64 0
 438 0000 40F20003 		movw	r3, #:lower16:ch
 439 0004 C0F20003 		movt	r3, #:upper16:ch
 440 0008 03F11C02 		add	r2, r3, #28
 441              		.loc 1 65 0
 442 000c 4FF6FF70 		movw	r0, #65535
 443              		.loc 1 69 0
 444 0010 0021     		movs	r1, #0
 445              		.loc 1 64 0
 446 0012 1A62     		str	r2, [r3, #32]
 447 0014 DA61     		str	r2, [r3, #28]
 448              		.loc 1 65 0
 449 0016 9884     		strh	r0, [r3, #36]	@ movhi
 450              		.loc 1 69 0
 451 0018 D984     		strh	r1, [r3, #38]	@ movhi
 452 001a 7047     		bx	lr
 453              		.cfi_endproc
 454              	.LFE165:
 455              		.size	_vt_init, .-_vt_init
 456 001c AFF30080 		.section	.text.chVTDoSetI,"ax",%progbits
 457              		.align	2
 458              		.p2align 4,,15
 459              		.global	chVTDoSetI
 460              		.thumb
 461              		.thumb_func
 462              		.type	chVTDoSetI, %function
 463              	chVTDoSetI:
 464              	.LFB166:
 465              		.loc 1 96 0
 466              		.cfi_startproc
 467              		@ args = 0, pretend = 0, frame = 0
 468              		@ frame_needed = 0, uses_anonymous_args = 0
 469              	.LVL0:
 470 0000 2DE9F041 		push	{r4, r5, r6, r7, r8, lr}
 471              	.LCFI0:
 472              		.cfi_def_cfa_offset 24
 473              		.cfi_offset 4, -24
 474              		.cfi_offset 5, -20
 475              		.cfi_offset 6, -16
 476              		.cfi_offset 7, -12
 477              		.cfi_offset 8, -8
 478              		.cfi_offset 14, -4
 479              		.loc 1 104 0
 480 0004 1F4F     		ldr	r7, .L17
ARM GAS  /tmp/ccW1kXgu.s 			page 34


 481              	.LBB17:
 482              	.LBB18:
 483              	.LBB19:
 484              	.LBB20:
 485              		.file 2 "../../../os/hal/ports/STM32/LLD/TIMv1/st_lld.h"
 486              		.loc 2 128 0
 487 0006 4FF08044 		mov	r4, #1073741824
 488              	.LBE20:
 489              	.LBE19:
 490              	.LBE18:
 491              	.LBE17:
 492              		.loc 1 104 0
 493 000a BC46     		mov	ip, r7
 494              	.LBB33:
 495              	.LBB25:
 496              	.LBB23:
 497              	.LBB21:
 498              		.loc 2 128 0
 499 000c 656A     		ldr	r5, [r4, #36]
 500              	.LBE21:
 501              	.LBE23:
 502              	.LBE25:
 503              	.LBE33:
 504              		.loc 1 104 0
 505 000e 5CF81C4F 		ldr	r4, [ip, #28]!
 506              	.LVL1:
 507              	.LBB34:
 508              	.LBB26:
 509              	.LBB24:
 510              	.LBB22:
 511              		.loc 2 128 0
 512 0012 1FFA85F8 		uxth	r8, r5
 513              	.LBE22:
 514              	.LBE24:
 515              	.LBE26:
 516              		.loc 1 113 0
 517 0016 0129     		cmp	r1, #1
 518 0018 8CBF     		ite	hi
 519 001a 0D46     		movhi	r5, r1
 520 001c 0225     		movls	r5, #2
 521              		.loc 1 115 0
 522 001e 6445     		cmp	r4, ip
 523              	.LBE34:
 524              		.loc 1 96 0
 525 0020 0646     		mov	r6, r0
 526              		.loc 1 102 0
 527 0022 0361     		str	r3, [r0, #16]
 528              		.loc 1 103 0
 529 0024 C260     		str	r2, [r0, #12]
 530              	.LBB35:
 531              		.loc 1 115 0
 532 0026 23D0     		beq	.L14
 533              		.loc 1 124 0
 534 0028 FA8C     		ldrh	r2, [r7, #38]
 535              	.LVL2:
 536              		.loc 1 128 0
 537 002a 2389     		ldrh	r3, [r4, #8]
ARM GAS  /tmp/ccW1kXgu.s 			page 35


 538              	.LVL3:
 539              		.loc 1 124 0
 540 002c C2EB0808 		rsb	r8, r2, r8
 541 0030 05EB0800 		add	r0, r5, r8
 542              	.LVL4:
 543 0034 85B2     		uxth	r5, r0
 544              	.LVL5:
 545              		.loc 1 128 0
 546 0036 9D42     		cmp	r5, r3
 547 0038 04D2     		bcs	.L12
 548 003a 13E0     		b	.L16
 549              	.LVL6:
 550              	.L10:
 551              	.LBE35:
 552              		.loc 1 138 0
 553 003c 2468     		ldr	r4, [r4, #0]
 554              	.LVL7:
 555              		.loc 1 137 0
 556 003e ED1A     		subs	r5, r5, r3
 557              		.loc 1 136 0
 558 0040 2389     		ldrh	r3, [r4, #8]
 559              		.loc 1 137 0
 560 0042 ADB2     		uxth	r5, r5
 561              	.L12:
 562              	.LVL8:
 563              		.loc 1 136 0
 564 0044 AB42     		cmp	r3, r5
 565 0046 F9D3     		bcc	.L10
 566              		.loc 1 144 0
 567 0048 3581     		strh	r5, [r6, #8]	@ movhi
 568              		.loc 1 148 0
 569 004a 2289     		ldrh	r2, [r4, #8]
 570              		.loc 1 142 0
 571 004c 6068     		ldr	r0, [r4, #4]
 572              		.loc 1 148 0
 573 004e 551B     		subs	r5, r2, r5
 574              		.loc 1 149 0
 575 0050 4FF6FF71 		movw	r1, #65535
 576              		.loc 1 142 0
 577 0054 3460     		str	r4, [r6, #0]
 578 0056 7060     		str	r0, [r6, #4]
 579              		.loc 1 143 0
 580 0058 0660     		str	r6, [r0, #0]
 581 005a 6660     		str	r6, [r4, #4]
 582              		.loc 1 148 0
 583 005c 2581     		strh	r5, [r4, #8]	@ movhi
 584              		.loc 1 149 0
 585 005e B984     		strh	r1, [r7, #36]	@ movhi
 586 0060 BDE8F081 		pop	{r4, r5, r6, r7, r8, pc}
 587              	.LVL9:
 588              	.L16:
 589              	.LBB36:
 590              		.loc 1 129 0
 591 0064 A918     		adds	r1, r5, r2
 592              	.LBB27:
 593              	.LBB28:
 594              		.file 3 "../../../os/rt/ports/ARMCMx/chcore_timer.h"
ARM GAS  /tmp/ccW1kXgu.s 			page 36


 595              		.loc 3 96 0
 596 0066 88B2     		uxth	r0, r1
 597 0068 FFF7FEFF 		bl	stSetAlarm
 598              	.LVL10:
 599 006c 2389     		ldrh	r3, [r4, #8]
 600 006e E9E7     		b	.L12
 601              	.LVL11:
 602              	.L14:
 603              	.LBE28:
 604              	.LBE27:
 605              		.loc 1 119 0
 606 0070 05EB0803 		add	r3, r5, r8
 607              	.LVL12:
 608              	.LBB29:
 609              	.LBB30:
 610              		.loc 3 74 0
 611 0074 98B2     		uxth	r0, r3
 612              	.LVL13:
 613              	.LBE30:
 614              	.LBE29:
 615              		.loc 1 118 0
 616 0076 A7F82680 		strh	r8, [r7, #38]	@ movhi
 617              	.LBB32:
 618              	.LBB31:
 619              		.loc 3 74 0
 620 007a FFF7FEFF 		bl	stStartAlarm
 621              	.LVL14:
 622 007e BB8C     		ldrh	r3, [r7, #36]
 623 0080 E0E7     		b	.L12
 624              	.L18:
 625 0082 00BF     		.align	2
 626              	.L17:
 627 0084 00000000 		.word	ch
 628              	.LBE31:
 629              	.LBE32:
 630              	.LBE36:
 631              		.cfi_endproc
 632              	.LFE166:
 633              		.size	chVTDoSetI, .-chVTDoSetI
 634 0088 AFF30080 		.section	.text.chVTDoResetI,"ax",%progbits
 634      AFF30080 
 635              		.align	2
 636              		.p2align 4,,15
 637              		.global	chVTDoResetI
 638              		.thumb
 639              		.thumb_func
 640              		.type	chVTDoResetI, %function
 641              	chVTDoResetI:
 642              	.LFB167:
 643              		.loc 1 160 0
 644              		.cfi_startproc
 645              		@ args = 0, pretend = 0, frame = 0
 646              		@ frame_needed = 0, uses_anonymous_args = 0
 647              		@ link register save eliminated.
 648              	.LVL15:
 649              		.loc 1 174 0
 650 0000 0F49     		ldr	r1, .L22
ARM GAS  /tmp/ccW1kXgu.s 			page 37


 651              		.loc 1 160 0
 652 0002 F0B4     		push	{r4, r5, r6, r7}
 653              	.LCFI1:
 654              		.cfi_def_cfa_offset 16
 655              		.cfi_offset 4, -16
 656              		.cfi_offset 5, -12
 657              		.cfi_offset 6, -8
 658              		.cfi_offset 7, -4
 659              		.loc 1 168 0
 660 0004 90E81400 		ldmia	r0, {r2, r4}
 661              		.loc 1 167 0
 662 0008 B0F808C0 		ldrh	ip, [r0, #8]
 663 000c 1789     		ldrh	r7, [r2, #8]
 664              		.loc 1 178 0
 665 000e 0B46     		mov	r3, r1
 666 0010 53F81C5F 		ldr	r5, [r3, #28]!
 667              		.loc 1 168 0
 668 0014 2260     		str	r2, [r4, #0]
 669              		.loc 1 167 0
 670 0016 6744     		add	r7, ip, r7
 671              		.loc 1 169 0
 672 0018 0668     		ldr	r6, [r0, #0]
 673              		.loc 1 167 0
 674 001a 1781     		strh	r7, [r2, #8]	@ movhi
 675              		.loc 1 170 0
 676 001c 0022     		movs	r2, #0
 677 001e C260     		str	r2, [r0, #12]
 678              		.loc 1 178 0
 679 0020 9D42     		cmp	r5, r3
 680              		.loc 1 174 0
 681 0022 4FF6FF70 		movw	r0, #65535
 682              	.LVL16:
 683              		.loc 1 169 0
 684 0026 7460     		str	r4, [r6, #4]
 685              		.loc 1 174 0
 686 0028 8884     		strh	r0, [r1, #36]	@ movhi
 687              		.loc 1 178 0
 688 002a 06D0     		beq	.L21
 689              	.LVL17:
 690              		.loc 1 184 0
 691 002c 2A89     		ldrh	r2, [r5, #8]
 692 002e C98C     		ldrh	r1, [r1, #38]
 693 0030 5318     		adds	r3, r2, r1
 694              	.LBB37:
 695              	.LBB38:
 696              		.loc 3 96 0
 697 0032 98B2     		uxth	r0, r3
 698              	.LBE38:
 699              	.LBE37:
 700              		.loc 1 189 0
 701 0034 F0BC     		pop	{r4, r5, r6, r7}
 702              	.LBB40:
 703              	.LBB39:
 704              		.loc 3 96 0
 705 0036 FFF7FEBF 		b	stSetAlarm
 706              	.LVL18:
 707              	.L21:
ARM GAS  /tmp/ccW1kXgu.s 			page 38


 708              	.LBE39:
 709              	.LBE40:
 710              		.loc 1 189 0
 711 003a F0BC     		pop	{r4, r5, r6, r7}
 712              	.LBB41:
 713              	.LBB42:
 714              		.loc 3 84 0
 715 003c FFF7FEBF 		b	stStopAlarm
 716              	.LVL19:
 717              	.L23:
 718              		.align	2
 719              	.L22:
 720 0040 00000000 		.word	ch
 721              	.LBE42:
 722              	.LBE41:
 723              		.cfi_endproc
 724              	.LFE167:
 725              		.size	chVTDoResetI, .-chVTDoResetI
 726 0044 AFF30080 		.text
 726      AFF30080 
 726      AFF30080 
 727              	.Letext0:
 728              		.file 4 "../../../os/rt/include/chschd.h"
 729              		.file 5 "/opt/ARM/gcc-arm-none-eabi-4_7-2013q3/bin/../lib/gcc/arm-none-eabi/4.7.4/../../../../arm-
 730              		.file 6 "../../../os/rt/ports/ARMCMx/compilers/GCC/chtypes.h"
 731              		.file 7 "../../../os/rt/ports/ARMCMx/chcore.h"
 732              		.file 8 "../../../os/rt/ports/ARMCMx/chcore_v7m.h"
 733              		.file 9 "../../../os/hal/ports/STM32/LLD/TIMv1/stm32_tim.h"
 734              		.file 10 "../../../os/rt/include/chmtx.h"
 735              		.file 11 "../../../os/hal/include/st.h"
 736              		.file 12 "../../../os/ext/CMSIS/include/core_cm3.h"
 737              		.section	.debug_info,"",%progbits
 738              	.Ldebug_info0:
 739 0000 E4080000 		.4byte	0x8e4
 740 0004 0200     		.2byte	0x2
 741 0006 00000000 		.4byte	.Ldebug_abbrev0
 742 000a 04       		.byte	0x4
 743 000b 01       		.uleb128 0x1
 744 000c C9000000 		.4byte	.LASF102
 745 0010 01       		.byte	0x1
 746 0011 5B010000 		.4byte	.LASF103
 747 0015 8F030000 		.4byte	.LASF104
 748 0019 A0000000 		.4byte	.Ldebug_ranges0+0xa0
 749 001d 00000000 		.4byte	0
 750 0021 00000000 		.4byte	0
 751 0025 00000000 		.4byte	.Ldebug_line0
 752 0029 02       		.uleb128 0x2
 753 002a 2E010000 		.4byte	.LASF40
 754 002e 44       		.byte	0x44
 755 002f 04       		.byte	0x4
 756 0030 79       		.byte	0x79
 757 0031 32010000 		.4byte	0x132
 758 0035 03       		.uleb128 0x3
 759 0036 F6020000 		.4byte	.LASF0
 760 003a 04       		.byte	0x4
 761 003b 7A       		.byte	0x7a
 762 003c 51040000 		.4byte	0x451
ARM GAS  /tmp/ccW1kXgu.s 			page 39


 763 0040 02       		.byte	0x2
 764 0041 23       		.byte	0x23
 765 0042 00       		.uleb128 0
 766 0043 03       		.uleb128 0x3
 767 0044 9B020000 		.4byte	.LASF1
 768 0048 04       		.byte	0x4
 769 0049 7C       		.byte	0x7c
 770 004a 51040000 		.4byte	0x451
 771 004e 02       		.byte	0x2
 772 004f 23       		.byte	0x23
 773 0050 04       		.uleb128 0x4
 774 0051 03       		.uleb128 0x3
 775 0052 99000000 		.4byte	.LASF2
 776 0056 04       		.byte	0x4
 777 0057 7E       		.byte	0x7e
 778 0058 DA010000 		.4byte	0x1da
 779 005c 02       		.byte	0x2
 780 005d 23       		.byte	0x23
 781 005e 08       		.uleb128 0x8
 782 005f 03       		.uleb128 0x3
 783 0060 66020000 		.4byte	.LASF3
 784 0064 04       		.byte	0x4
 785 0065 7F       		.byte	0x7f
 786 0066 2A020000 		.4byte	0x22a
 787 006a 02       		.byte	0x2
 788 006b 23       		.byte	0x23
 789 006c 0C       		.uleb128 0xc
 790 006d 03       		.uleb128 0x3
 791 006e 53010000 		.4byte	.LASF4
 792 0072 04       		.byte	0x4
 793 0073 81       		.byte	0x81
 794 0074 51040000 		.4byte	0x451
 795 0078 02       		.byte	0x2
 796 0079 23       		.byte	0x23
 797 007a 10       		.uleb128 0x10
 798 007b 03       		.uleb128 0x3
 799 007c 58020000 		.4byte	.LASF5
 800 0080 04       		.byte	0x4
 801 0081 82       		.byte	0x82
 802 0082 51040000 		.4byte	0x451
 803 0086 02       		.byte	0x2
 804 0087 23       		.byte	0x23
 805 0088 14       		.uleb128 0x14
 806 0089 03       		.uleb128 0x3
 807 008a 92040000 		.4byte	.LASF6
 808 008e 04       		.byte	0x4
 809 008f 89       		.byte	0x89
 810 0090 21050000 		.4byte	0x521
 811 0094 02       		.byte	0x2
 812 0095 23       		.byte	0x23
 813 0096 18       		.uleb128 0x18
 814 0097 03       		.uleb128 0x3
 815 0098 E0020000 		.4byte	.LASF7
 816 009c 04       		.byte	0x4
 817 009d 94       		.byte	0x94
 818 009e C4010000 		.4byte	0x1c4
 819 00a2 02       		.byte	0x2
ARM GAS  /tmp/ccW1kXgu.s 			page 40


 820 00a3 23       		.byte	0x23
 821 00a4 1C       		.uleb128 0x1c
 822 00a5 03       		.uleb128 0x3
 823 00a6 B1010000 		.4byte	.LASF8
 824 00aa 04       		.byte	0x4
 825 00ab 98       		.byte	0x98
 826 00ac B9010000 		.4byte	0x1b9
 827 00b0 02       		.byte	0x2
 828 00b1 23       		.byte	0x23
 829 00b2 1D       		.uleb128 0x1d
 830 00b3 03       		.uleb128 0x3
 831 00b4 35010000 		.4byte	.LASF9
 832 00b8 04       		.byte	0x4
 833 00b9 9D       		.byte	0x9d
 834 00ba CF010000 		.4byte	0x1cf
 835 00be 02       		.byte	0x2
 836 00bf 23       		.byte	0x23
 837 00c0 1E       		.uleb128 0x1e
 838 00c1 04       		.uleb128 0x4
 839 00c2 705F7500 		.ascii	"p_u\000"
 840 00c6 04       		.byte	0x4
 841 00c7 CF       		.byte	0xcf
 842 00c8 EC040000 		.4byte	0x4ec
 843 00cc 02       		.byte	0x2
 844 00cd 23       		.byte	0x23
 845 00ce 20       		.uleb128 0x20
 846 00cf 03       		.uleb128 0x3
 847 00d0 26020000 		.4byte	.LASF10
 848 00d4 04       		.byte	0x4
 849 00d5 D4       		.byte	0xd4
 850 00d6 79040000 		.4byte	0x479
 851 00da 02       		.byte	0x2
 852 00db 23       		.byte	0x23
 853 00dc 24       		.uleb128 0x24
 854 00dd 03       		.uleb128 0x3
 855 00de CE010000 		.4byte	.LASF11
 856 00e2 04       		.byte	0x4
 857 00e3 DA       		.byte	0xda
 858 00e4 57040000 		.4byte	0x457
 859 00e8 02       		.byte	0x2
 860 00e9 23       		.byte	0x23
 861 00ea 28       		.uleb128 0x28
 862 00eb 03       		.uleb128 0x3
 863 00ec BE040000 		.4byte	.LASF12
 864 00f0 04       		.byte	0x4
 865 00f1 DE       		.byte	0xde
 866 00f2 E5010000 		.4byte	0x1e5
 867 00f6 02       		.byte	0x2
 868 00f7 23       		.byte	0x23
 869 00f8 30       		.uleb128 0x30
 870 00f9 03       		.uleb128 0x3
 871 00fa 05030000 		.4byte	.LASF13
 872 00fe 04       		.byte	0x4
 873 00ff E4       		.byte	0xe4
 874 0100 F0010000 		.4byte	0x1f0
 875 0104 02       		.byte	0x2
 876 0105 23       		.byte	0x23
ARM GAS  /tmp/ccW1kXgu.s 			page 41


 877 0106 34       		.uleb128 0x34
 878 0107 03       		.uleb128 0x3
 879 0108 CC020000 		.4byte	.LASF14
 880 010c 04       		.byte	0x4
 881 010d EB       		.byte	0xeb
 882 010e 6A050000 		.4byte	0x56a
 883 0112 02       		.byte	0x2
 884 0113 23       		.byte	0x23
 885 0114 38       		.uleb128 0x38
 886 0115 03       		.uleb128 0x3
 887 0116 7B030000 		.4byte	.LASF15
 888 011a 04       		.byte	0x4
 889 011b EF       		.byte	0xef
 890 011c DA010000 		.4byte	0x1da
 891 0120 02       		.byte	0x2
 892 0121 23       		.byte	0x23
 893 0122 3C       		.uleb128 0x3c
 894 0123 03       		.uleb128 0x3
 895 0124 90010000 		.4byte	.LASF16
 896 0128 04       		.byte	0x4
 897 0129 F5       		.byte	0xf5
 898 012a 28020000 		.4byte	0x228
 899 012e 02       		.byte	0x2
 900 012f 23       		.byte	0x23
 901 0130 40       		.uleb128 0x40
 902 0131 00       		.byte	0
 903 0132 05       		.uleb128 0x5
 904 0133 04       		.byte	0x4
 905 0134 05       		.byte	0x5
 906 0135 696E7400 		.ascii	"int\000"
 907 0139 06       		.uleb128 0x6
 908 013a 04       		.byte	0x4
 909 013b 07       		.byte	0x7
 910 013c B9010000 		.4byte	.LASF17
 911 0140 06       		.uleb128 0x6
 912 0141 01       		.byte	0x1
 913 0142 06       		.byte	0x6
 914 0143 B5000000 		.4byte	.LASF18
 915 0147 07       		.uleb128 0x7
 916 0148 FD020000 		.4byte	.LASF21
 917 014c 05       		.byte	0x5
 918 014d 2A       		.byte	0x2a
 919 014e 52010000 		.4byte	0x152
 920 0152 06       		.uleb128 0x6
 921 0153 01       		.byte	0x1
 922 0154 08       		.byte	0x8
 923 0155 B8020000 		.4byte	.LASF19
 924 0159 06       		.uleb128 0x6
 925 015a 02       		.byte	0x2
 926 015b 05       		.byte	0x5
 927 015c D6020000 		.4byte	.LASF20
 928 0160 07       		.uleb128 0x7
 929 0161 4A010000 		.4byte	.LASF22
 930 0165 05       		.byte	0x5
 931 0166 36       		.byte	0x36
 932 0167 6B010000 		.4byte	0x16b
 933 016b 06       		.uleb128 0x6
ARM GAS  /tmp/ccW1kXgu.s 			page 42


 934 016c 02       		.byte	0x2
 935 016d 07       		.byte	0x7
 936 016e 75010000 		.4byte	.LASF23
 937 0172 07       		.uleb128 0x7
 938 0173 B0020000 		.4byte	.LASF24
 939 0177 05       		.byte	0x5
 940 0178 4F       		.byte	0x4f
 941 0179 7D010000 		.4byte	0x17d
 942 017d 06       		.uleb128 0x6
 943 017e 04       		.byte	0x4
 944 017f 05       		.byte	0x5
 945 0180 1C010000 		.4byte	.LASF25
 946 0184 07       		.uleb128 0x7
 947 0185 23030000 		.4byte	.LASF26
 948 0189 05       		.byte	0x5
 949 018a 50       		.byte	0x50
 950 018b 8F010000 		.4byte	0x18f
 951 018f 06       		.uleb128 0x6
 952 0190 04       		.byte	0x4
 953 0191 07       		.byte	0x7
 954 0192 3D030000 		.4byte	.LASF27
 955 0196 06       		.uleb128 0x6
 956 0197 08       		.byte	0x8
 957 0198 05       		.byte	0x5
 958 0199 3C010000 		.4byte	.LASF28
 959 019d 06       		.uleb128 0x6
 960 019e 08       		.byte	0x8
 961 019f 07       		.byte	0x7
 962 01a0 44000000 		.4byte	.LASF29
 963 01a4 08       		.uleb128 0x8
 964 01a5 72010000 		.4byte	0x172
 965 01a9 08       		.uleb128 0x8
 966 01aa 84010000 		.4byte	0x184
 967 01ae 07       		.uleb128 0x7
 968 01af 11040000 		.4byte	.LASF30
 969 01b3 06       		.byte	0x6
 970 01b4 46       		.byte	0x46
 971 01b5 84010000 		.4byte	0x184
 972 01b9 07       		.uleb128 0x7
 973 01ba B6040000 		.4byte	.LASF31
 974 01be 06       		.byte	0x6
 975 01bf 49       		.byte	0x49
 976 01c0 47010000 		.4byte	0x147
 977 01c4 07       		.uleb128 0x7
 978 01c5 25010000 		.4byte	.LASF32
 979 01c9 06       		.byte	0x6
 980 01ca 4A       		.byte	0x4a
 981 01cb 47010000 		.4byte	0x147
 982 01cf 07       		.uleb128 0x7
 983 01d0 83020000 		.4byte	.LASF33
 984 01d4 06       		.byte	0x6
 985 01d5 4B       		.byte	0x4b
 986 01d6 47010000 		.4byte	0x147
 987 01da 07       		.uleb128 0x7
 988 01db A2020000 		.4byte	.LASF34
 989 01df 06       		.byte	0x6
 990 01e0 4D       		.byte	0x4d
ARM GAS  /tmp/ccW1kXgu.s 			page 43


 991 01e1 84010000 		.4byte	0x184
 992 01e5 07       		.uleb128 0x7
 993 01e6 25000000 		.4byte	.LASF35
 994 01ea 06       		.byte	0x6
 995 01eb 4E       		.byte	0x4e
 996 01ec 72010000 		.4byte	0x172
 997 01f0 07       		.uleb128 0x7
 998 01f1 19000000 		.4byte	.LASF36
 999 01f5 06       		.byte	0x6
 1000 01f6 50       		.byte	0x50
 1001 01f7 84010000 		.4byte	0x184
 1002 01fb 06       		.uleb128 0x6
 1003 01fc 04       		.byte	0x4
 1004 01fd 07       		.byte	0x7
 1005 01fe 30020000 		.4byte	.LASF37
 1006 0202 09       		.uleb128 0x9
 1007 0203 84010000 		.4byte	0x184
 1008 0207 12020000 		.4byte	0x212
 1009 020b 0A       		.uleb128 0xa
 1010 020c FB010000 		.4byte	0x1fb
 1011 0210 03       		.byte	0x3
 1012 0211 00       		.byte	0
 1013 0212 07       		.uleb128 0x7
 1014 0213 71030000 		.4byte	.LASF38
 1015 0217 07       		.byte	0x7
 1016 0218 89       		.byte	0x89
 1017 0219 60010000 		.4byte	0x160
 1018 021d 07       		.uleb128 0x7
 1019 021e 98010000 		.4byte	.LASF39
 1020 0222 07       		.byte	0x7
 1021 0223 8F       		.byte	0x8f
 1022 0224 28020000 		.4byte	0x228
 1023 0228 0B       		.uleb128 0xb
 1024 0229 04       		.byte	0x4
 1025 022a 02       		.uleb128 0x2
 1026 022b F5030000 		.4byte	.LASF41
 1027 022f 04       		.byte	0x4
 1028 0230 07       		.byte	0x7
 1029 0231 B3       		.byte	0xb3
 1030 0232 45020000 		.4byte	0x245
 1031 0236 04       		.uleb128 0x4
 1032 0237 72313300 		.ascii	"r13\000"
 1033 023b 07       		.byte	0x7
 1034 023c B4       		.byte	0xb4
 1035 023d D2020000 		.4byte	0x2d2
 1036 0241 02       		.byte	0x2
 1037 0242 23       		.byte	0x23
 1038 0243 00       		.uleb128 0
 1039 0244 00       		.byte	0
 1040 0245 02       		.uleb128 0x2
 1041 0246 2B000000 		.4byte	.LASF42
 1042 024a 24       		.byte	0x24
 1043 024b 08       		.byte	0x8
 1044 024c F5       		.byte	0xf5
 1045 024d D2020000 		.4byte	0x2d2
 1046 0251 0C       		.uleb128 0xc
 1047 0252 723400   		.ascii	"r4\000"
ARM GAS  /tmp/ccW1kXgu.s 			page 44


 1048 0255 08       		.byte	0x8
 1049 0256 0801     		.2byte	0x108
 1050 0258 1D020000 		.4byte	0x21d
 1051 025c 02       		.byte	0x2
 1052 025d 23       		.byte	0x23
 1053 025e 00       		.uleb128 0
 1054 025f 0C       		.uleb128 0xc
 1055 0260 723500   		.ascii	"r5\000"
 1056 0263 08       		.byte	0x8
 1057 0264 0901     		.2byte	0x109
 1058 0266 1D020000 		.4byte	0x21d
 1059 026a 02       		.byte	0x2
 1060 026b 23       		.byte	0x23
 1061 026c 04       		.uleb128 0x4
 1062 026d 0C       		.uleb128 0xc
 1063 026e 723600   		.ascii	"r6\000"
 1064 0271 08       		.byte	0x8
 1065 0272 0A01     		.2byte	0x10a
 1066 0274 1D020000 		.4byte	0x21d
 1067 0278 02       		.byte	0x2
 1068 0279 23       		.byte	0x23
 1069 027a 08       		.uleb128 0x8
 1070 027b 0C       		.uleb128 0xc
 1071 027c 723700   		.ascii	"r7\000"
 1072 027f 08       		.byte	0x8
 1073 0280 0B01     		.2byte	0x10b
 1074 0282 1D020000 		.4byte	0x21d
 1075 0286 02       		.byte	0x2
 1076 0287 23       		.byte	0x23
 1077 0288 0C       		.uleb128 0xc
 1078 0289 0C       		.uleb128 0xc
 1079 028a 723800   		.ascii	"r8\000"
 1080 028d 08       		.byte	0x8
 1081 028e 0C01     		.2byte	0x10c
 1082 0290 1D020000 		.4byte	0x21d
 1083 0294 02       		.byte	0x2
 1084 0295 23       		.byte	0x23
 1085 0296 10       		.uleb128 0x10
 1086 0297 0C       		.uleb128 0xc
 1087 0298 723900   		.ascii	"r9\000"
 1088 029b 08       		.byte	0x8
 1089 029c 0D01     		.2byte	0x10d
 1090 029e 1D020000 		.4byte	0x21d
 1091 02a2 02       		.byte	0x2
 1092 02a3 23       		.byte	0x23
 1093 02a4 14       		.uleb128 0x14
 1094 02a5 0C       		.uleb128 0xc
 1095 02a6 72313000 		.ascii	"r10\000"
 1096 02aa 08       		.byte	0x8
 1097 02ab 0E01     		.2byte	0x10e
 1098 02ad 1D020000 		.4byte	0x21d
 1099 02b1 02       		.byte	0x2
 1100 02b2 23       		.byte	0x23
 1101 02b3 18       		.uleb128 0x18
 1102 02b4 0C       		.uleb128 0xc
 1103 02b5 72313100 		.ascii	"r11\000"
 1104 02b9 08       		.byte	0x8
ARM GAS  /tmp/ccW1kXgu.s 			page 45


 1105 02ba 0F01     		.2byte	0x10f
 1106 02bc 1D020000 		.4byte	0x21d
 1107 02c0 02       		.byte	0x2
 1108 02c1 23       		.byte	0x23
 1109 02c2 1C       		.uleb128 0x1c
 1110 02c3 0C       		.uleb128 0xc
 1111 02c4 6C7200   		.ascii	"lr\000"
 1112 02c7 08       		.byte	0x8
 1113 02c8 1001     		.2byte	0x110
 1114 02ca 1D020000 		.4byte	0x21d
 1115 02ce 02       		.byte	0x2
 1116 02cf 23       		.byte	0x23
 1117 02d0 20       		.uleb128 0x20
 1118 02d1 00       		.byte	0
 1119 02d2 0D       		.uleb128 0xd
 1120 02d3 04       		.byte	0x4
 1121 02d4 45020000 		.4byte	0x245
 1122 02d8 0E       		.uleb128 0xe
 1123 02d9 60       		.byte	0x60
 1124 02da 09       		.byte	0x9
 1125 02db 9E01     		.2byte	0x19e
 1126 02dd 1B040000 		.4byte	0x41b
 1127 02e1 0C       		.uleb128 0xc
 1128 02e2 43523100 		.ascii	"CR1\000"
 1129 02e6 09       		.byte	0x9
 1130 02e7 9F01     		.2byte	0x19f
 1131 02e9 A9010000 		.4byte	0x1a9
 1132 02ed 02       		.byte	0x2
 1133 02ee 23       		.byte	0x23
 1134 02ef 00       		.uleb128 0
 1135 02f0 0C       		.uleb128 0xc
 1136 02f1 43523200 		.ascii	"CR2\000"
 1137 02f5 09       		.byte	0x9
 1138 02f6 A001     		.2byte	0x1a0
 1139 02f8 A9010000 		.4byte	0x1a9
 1140 02fc 02       		.byte	0x2
 1141 02fd 23       		.byte	0x23
 1142 02fe 04       		.uleb128 0x4
 1143 02ff 0F       		.uleb128 0xf
 1144 0300 E7010000 		.4byte	.LASF43
 1145 0304 09       		.byte	0x9
 1146 0305 A101     		.2byte	0x1a1
 1147 0307 A9010000 		.4byte	0x1a9
 1148 030b 02       		.byte	0x2
 1149 030c 23       		.byte	0x23
 1150 030d 08       		.uleb128 0x8
 1151 030e 0F       		.uleb128 0xf
 1152 030f 0D000000 		.4byte	.LASF44
 1153 0313 09       		.byte	0x9
 1154 0314 A201     		.2byte	0x1a2
 1155 0316 A9010000 		.4byte	0x1a9
 1156 031a 02       		.byte	0x2
 1157 031b 23       		.byte	0x23
 1158 031c 0C       		.uleb128 0xc
 1159 031d 0C       		.uleb128 0xc
 1160 031e 535200   		.ascii	"SR\000"
 1161 0321 09       		.byte	0x9
ARM GAS  /tmp/ccW1kXgu.s 			page 46


 1162 0322 A301     		.2byte	0x1a3
 1163 0324 A9010000 		.4byte	0x1a9
 1164 0328 02       		.byte	0x2
 1165 0329 23       		.byte	0x23
 1166 032a 10       		.uleb128 0x10
 1167 032b 0C       		.uleb128 0xc
 1168 032c 45475200 		.ascii	"EGR\000"
 1169 0330 09       		.byte	0x9
 1170 0331 A401     		.2byte	0x1a4
 1171 0333 A9010000 		.4byte	0x1a9
 1172 0337 02       		.byte	0x2
 1173 0338 23       		.byte	0x23
 1174 0339 14       		.uleb128 0x14
 1175 033a 0F       		.uleb128 0xf
 1176 033b A0000000 		.4byte	.LASF45
 1177 033f 09       		.byte	0x9
 1178 0340 A501     		.2byte	0x1a5
 1179 0342 A9010000 		.4byte	0x1a9
 1180 0346 02       		.byte	0x2
 1181 0347 23       		.byte	0x23
 1182 0348 18       		.uleb128 0x18
 1183 0349 0F       		.uleb128 0xf
 1184 034a 3E000000 		.4byte	.LASF46
 1185 034e 09       		.byte	0x9
 1186 034f A601     		.2byte	0x1a6
 1187 0351 A9010000 		.4byte	0x1a9
 1188 0355 02       		.byte	0x2
 1189 0356 23       		.byte	0x23
 1190 0357 1C       		.uleb128 0x1c
 1191 0358 0F       		.uleb128 0xf
 1192 0359 65030000 		.4byte	.LASF47
 1193 035d 09       		.byte	0x9
 1194 035e A701     		.2byte	0x1a7
 1195 0360 A9010000 		.4byte	0x1a9
 1196 0364 02       		.byte	0x2
 1197 0365 23       		.byte	0x23
 1198 0366 20       		.uleb128 0x20
 1199 0367 0C       		.uleb128 0xc
 1200 0368 434E5400 		.ascii	"CNT\000"
 1201 036c 09       		.byte	0x9
 1202 036d A801     		.2byte	0x1a8
 1203 036f A9010000 		.4byte	0x1a9
 1204 0373 02       		.byte	0x2
 1205 0374 23       		.byte	0x23
 1206 0375 24       		.uleb128 0x24
 1207 0376 0C       		.uleb128 0xc
 1208 0377 50534300 		.ascii	"PSC\000"
 1209 037b 09       		.byte	0x9
 1210 037c A901     		.2byte	0x1a9
 1211 037e A9010000 		.4byte	0x1a9
 1212 0382 02       		.byte	0x2
 1213 0383 23       		.byte	0x23
 1214 0384 28       		.uleb128 0x28
 1215 0385 0C       		.uleb128 0xc
 1216 0386 41525200 		.ascii	"ARR\000"
 1217 038a 09       		.byte	0x9
 1218 038b AA01     		.2byte	0x1aa
ARM GAS  /tmp/ccW1kXgu.s 			page 47


 1219 038d A9010000 		.4byte	0x1a9
 1220 0391 02       		.byte	0x2
 1221 0392 23       		.byte	0x23
 1222 0393 2C       		.uleb128 0x2c
 1223 0394 0C       		.uleb128 0xc
 1224 0395 52435200 		.ascii	"RCR\000"
 1225 0399 09       		.byte	0x9
 1226 039a AB01     		.2byte	0x1ab
 1227 039c A9010000 		.4byte	0x1a9
 1228 03a0 02       		.byte	0x2
 1229 03a1 23       		.byte	0x23
 1230 03a2 30       		.uleb128 0x30
 1231 03a3 0C       		.uleb128 0xc
 1232 03a4 43435200 		.ascii	"CCR\000"
 1233 03a8 09       		.byte	0x9
 1234 03a9 AC01     		.2byte	0x1ac
 1235 03ab 1B040000 		.4byte	0x41b
 1236 03af 02       		.byte	0x2
 1237 03b0 23       		.byte	0x23
 1238 03b1 34       		.uleb128 0x34
 1239 03b2 0F       		.uleb128 0xf
 1240 03b3 94000000 		.4byte	.LASF48
 1241 03b7 09       		.byte	0x9
 1242 03b8 AD01     		.2byte	0x1ad
 1243 03ba A9010000 		.4byte	0x1a9
 1244 03be 02       		.byte	0x2
 1245 03bf 23       		.byte	0x23
 1246 03c0 44       		.uleb128 0x44
 1247 03c1 0C       		.uleb128 0xc
 1248 03c2 44435200 		.ascii	"DCR\000"
 1249 03c6 09       		.byte	0x9
 1250 03c7 AE01     		.2byte	0x1ae
 1251 03c9 A9010000 		.4byte	0x1a9
 1252 03cd 02       		.byte	0x2
 1253 03ce 23       		.byte	0x23
 1254 03cf 48       		.uleb128 0x48
 1255 03d0 0F       		.uleb128 0xf
 1256 03d1 60030000 		.4byte	.LASF49
 1257 03d5 09       		.byte	0x9
 1258 03d6 AF01     		.2byte	0x1af
 1259 03d8 A9010000 		.4byte	0x1a9
 1260 03dc 02       		.byte	0x2
 1261 03dd 23       		.byte	0x23
 1262 03de 4C       		.uleb128 0x4c
 1263 03df 0C       		.uleb128 0xc
 1264 03e0 4F5200   		.ascii	"OR\000"
 1265 03e3 09       		.byte	0x9
 1266 03e4 B001     		.2byte	0x1b0
 1267 03e6 A9010000 		.4byte	0x1a9
 1268 03ea 02       		.byte	0x2
 1269 03eb 23       		.byte	0x23
 1270 03ec 50       		.uleb128 0x50
 1271 03ed 0F       		.uleb128 0xf
 1272 03ee AF000000 		.4byte	.LASF50
 1273 03f2 09       		.byte	0x9
 1274 03f3 B101     		.2byte	0x1b1
 1275 03f5 A9010000 		.4byte	0x1a9
ARM GAS  /tmp/ccW1kXgu.s 			page 48


 1276 03f9 02       		.byte	0x2
 1277 03fa 23       		.byte	0x23
 1278 03fb 54       		.uleb128 0x54
 1279 03fc 0F       		.uleb128 0xf
 1280 03fd 45040000 		.4byte	.LASF51
 1281 0401 09       		.byte	0x9
 1282 0402 B201     		.2byte	0x1b2
 1283 0404 A9010000 		.4byte	0x1a9
 1284 0408 02       		.byte	0x2
 1285 0409 23       		.byte	0x23
 1286 040a 58       		.uleb128 0x58
 1287 040b 0F       		.uleb128 0xf
 1288 040c 4A040000 		.4byte	.LASF52
 1289 0410 09       		.byte	0x9
 1290 0411 B301     		.2byte	0x1b3
 1291 0413 A9010000 		.4byte	0x1a9
 1292 0417 02       		.byte	0x2
 1293 0418 23       		.byte	0x23
 1294 0419 5C       		.uleb128 0x5c
 1295 041a 00       		.byte	0
 1296 041b 08       		.uleb128 0x8
 1297 041c 02020000 		.4byte	0x202
 1298 0420 10       		.uleb128 0x10
 1299 0421 0F020000 		.4byte	.LASF53
 1300 0425 09       		.byte	0x9
 1301 0426 B401     		.2byte	0x1b4
 1302 0428 D8020000 		.4byte	0x2d8
 1303 042c 11       		.uleb128 0x11
 1304 042d 08       		.byte	0x8
 1305 042e 04       		.byte	0x4
 1306 042f 53       		.byte	0x53
 1307 0430 51040000 		.4byte	0x451
 1308 0434 03       		.uleb128 0x3
 1309 0435 F6020000 		.4byte	.LASF0
 1310 0439 04       		.byte	0x4
 1311 043a 54       		.byte	0x54
 1312 043b 51040000 		.4byte	0x451
 1313 043f 02       		.byte	0x2
 1314 0440 23       		.byte	0x23
 1315 0441 00       		.uleb128 0
 1316 0442 03       		.uleb128 0x3
 1317 0443 9B020000 		.4byte	.LASF1
 1318 0447 04       		.byte	0x4
 1319 0448 55       		.byte	0x55
 1320 0449 51040000 		.4byte	0x451
 1321 044d 02       		.byte	0x2
 1322 044e 23       		.byte	0x23
 1323 044f 04       		.uleb128 0x4
 1324 0450 00       		.byte	0
 1325 0451 0D       		.uleb128 0xd
 1326 0452 04       		.byte	0x4
 1327 0453 29000000 		.4byte	0x29
 1328 0457 07       		.uleb128 0x7
 1329 0458 35040000 		.4byte	.LASF54
 1330 045c 04       		.byte	0x4
 1331 045d 56       		.byte	0x56
 1332 045e 2C040000 		.4byte	0x42c
ARM GAS  /tmp/ccW1kXgu.s 			page 49


 1333 0462 11       		.uleb128 0x11
 1334 0463 04       		.byte	0x4
 1335 0464 04       		.byte	0x4
 1336 0465 5B       		.byte	0x5b
 1337 0466 79040000 		.4byte	0x479
 1338 046a 03       		.uleb128 0x3
 1339 046b F6020000 		.4byte	.LASF0
 1340 046f 04       		.byte	0x4
 1341 0470 5C       		.byte	0x5c
 1342 0471 51040000 		.4byte	0x451
 1343 0475 02       		.byte	0x2
 1344 0476 23       		.byte	0x23
 1345 0477 00       		.uleb128 0
 1346 0478 00       		.byte	0
 1347 0479 07       		.uleb128 0x7
 1348 047a A7040000 		.4byte	.LASF55
 1349 047e 04       		.byte	0x4
 1350 047f 5D       		.byte	0x5d
 1351 0480 62040000 		.4byte	0x462
 1352 0484 11       		.uleb128 0x11
 1353 0485 1C       		.byte	0x1c
 1354 0486 04       		.byte	0x4
 1355 0487 64       		.byte	0x64
 1356 0488 E1040000 		.4byte	0x4e1
 1357 048c 03       		.uleb128 0x3
 1358 048d 2C030000 		.4byte	.LASF56
 1359 0491 04       		.byte	0x4
 1360 0492 65       		.byte	0x65
 1361 0493 57040000 		.4byte	0x457
 1362 0497 02       		.byte	0x2
 1363 0498 23       		.byte	0x23
 1364 0499 00       		.uleb128 0
 1365 049a 03       		.uleb128 0x3
 1366 049b E8020000 		.4byte	.LASF57
 1367 049f 04       		.byte	0x4
 1368 04a0 66       		.byte	0x66
 1369 04a1 DA010000 		.4byte	0x1da
 1370 04a5 02       		.byte	0x2
 1371 04a6 23       		.byte	0x23
 1372 04a7 08       		.uleb128 0x8
 1373 04a8 03       		.uleb128 0x3
 1374 04a9 60020000 		.4byte	.LASF58
 1375 04ad 04       		.byte	0x4
 1376 04ae 68       		.byte	0x68
 1377 04af 2A020000 		.4byte	0x22a
 1378 04b3 02       		.byte	0x2
 1379 04b4 23       		.byte	0x23
 1380 04b5 0C       		.uleb128 0xc
 1381 04b6 03       		.uleb128 0x3
 1382 04b7 88010000 		.4byte	.LASF59
 1383 04bb 04       		.byte	0x4
 1384 04bc 6B       		.byte	0x6b
 1385 04bd 51040000 		.4byte	0x451
 1386 04c1 02       		.byte	0x2
 1387 04c2 23       		.byte	0x23
 1388 04c3 10       		.uleb128 0x10
 1389 04c4 03       		.uleb128 0x3
ARM GAS  /tmp/ccW1kXgu.s 			page 50


 1390 04c5 7B020000 		.4byte	.LASF60
 1391 04c9 04       		.byte	0x4
 1392 04ca 6C       		.byte	0x6c
 1393 04cb 51040000 		.4byte	0x451
 1394 04cf 02       		.byte	0x2
 1395 04d0 23       		.byte	0x23
 1396 04d1 14       		.uleb128 0x14
 1397 04d2 03       		.uleb128 0x3
 1398 04d3 71020000 		.4byte	.LASF61
 1399 04d7 04       		.byte	0x4
 1400 04d8 6F       		.byte	0x6f
 1401 04d9 51040000 		.4byte	0x451
 1402 04dd 02       		.byte	0x2
 1403 04de 23       		.byte	0x23
 1404 04df 18       		.uleb128 0x18
 1405 04e0 00       		.byte	0
 1406 04e1 07       		.uleb128 0x7
 1407 04e2 00000000 		.4byte	.LASF62
 1408 04e6 04       		.byte	0x4
 1409 04e7 71       		.byte	0x71
 1410 04e8 84040000 		.4byte	0x484
 1411 04ec 12       		.uleb128 0x12
 1412 04ed 04       		.byte	0x4
 1413 04ee 04       		.byte	0x4
 1414 04ef B1       		.byte	0xb1
 1415 04f0 21050000 		.4byte	0x521
 1416 04f4 13       		.uleb128 0x13
 1417 04f5 12000000 		.4byte	.LASF63
 1418 04f9 04       		.byte	0x4
 1419 04fa B8       		.byte	0xb8
 1420 04fb E5010000 		.4byte	0x1e5
 1421 04ff 13       		.uleb128 0x13
 1422 0500 68000000 		.4byte	.LASF64
 1423 0504 04       		.byte	0x4
 1424 0505 BF       		.byte	0xbf
 1425 0506 E5010000 		.4byte	0x1e5
 1426 050a 13       		.uleb128 0x13
 1427 050b 8B040000 		.4byte	.LASF65
 1428 050f 04       		.byte	0x4
 1429 0510 C6       		.byte	0xc6
 1430 0511 28020000 		.4byte	0x228
 1431 0515 13       		.uleb128 0x13
 1432 0516 EF020000 		.4byte	.LASF66
 1433 051a 04       		.byte	0x4
 1434 051b CD       		.byte	0xcd
 1435 051c F0010000 		.4byte	0x1f0
 1436 0520 00       		.byte	0
 1437 0521 0D       		.uleb128 0xd
 1438 0522 04       		.byte	0x4
 1439 0523 27050000 		.4byte	0x527
 1440 0527 14       		.uleb128 0x14
 1441 0528 2C050000 		.4byte	0x52c
 1442 052c 06       		.uleb128 0x6
 1443 052d 01       		.byte	0x1
 1444 052e 08       		.byte	0x8
 1445 052f 5B030000 		.4byte	.LASF67
 1446 0533 02       		.uleb128 0x2
ARM GAS  /tmp/ccW1kXgu.s 			page 51


 1447 0534 AA020000 		.4byte	.LASF68
 1448 0538 10       		.byte	0x10
 1449 0539 0A       		.byte	0xa
 1450 053a 3A       		.byte	0x3a
 1451 053b 6A050000 		.4byte	0x56a
 1452 053f 03       		.uleb128 0x3
 1453 0540 C1000000 		.4byte	.LASF69
 1454 0544 0A       		.byte	0xa
 1455 0545 3B       		.byte	0x3b
 1456 0546 57040000 		.4byte	0x457
 1457 054a 02       		.byte	0x2
 1458 054b 23       		.byte	0x23
 1459 054c 00       		.uleb128 0
 1460 054d 03       		.uleb128 0x3
 1461 054e C4040000 		.4byte	.LASF70
 1462 0552 0A       		.byte	0xa
 1463 0553 3D       		.byte	0x3d
 1464 0554 51040000 		.4byte	0x451
 1465 0558 02       		.byte	0x2
 1466 0559 23       		.byte	0x23
 1467 055a 08       		.uleb128 0x8
 1468 055b 03       		.uleb128 0x3
 1469 055c 6A030000 		.4byte	.LASF71
 1470 0560 0A       		.byte	0xa
 1471 0561 3F       		.byte	0x3f
 1472 0562 9D060000 		.4byte	0x69d
 1473 0566 02       		.byte	0x2
 1474 0567 23       		.byte	0x23
 1475 0568 0C       		.uleb128 0xc
 1476 0569 00       		.byte	0
 1477 056a 0D       		.uleb128 0xd
 1478 056b 04       		.byte	0x4
 1479 056c 33050000 		.4byte	0x533
 1480 0570 10       		.uleb128 0x10
 1481 0571 86030000 		.4byte	.LASF72
 1482 0575 04       		.byte	0x4
 1483 0576 0301     		.2byte	0x103
 1484 0578 7C050000 		.4byte	0x57c
 1485 057c 0D       		.uleb128 0xd
 1486 057d 04       		.byte	0x4
 1487 057e 82050000 		.4byte	0x582
 1488 0582 15       		.uleb128 0x15
 1489 0583 01       		.byte	0x1
 1490 0584 8E050000 		.4byte	0x58e
 1491 0588 16       		.uleb128 0x16
 1492 0589 28020000 		.4byte	0x228
 1493 058d 00       		.byte	0
 1494 058e 10       		.uleb128 0x10
 1495 058f 8B020000 		.4byte	.LASF73
 1496 0593 04       		.byte	0x4
 1497 0594 0801     		.2byte	0x108
 1498 0596 9A050000 		.4byte	0x59a
 1499 059a 17       		.uleb128 0x17
 1500 059b 19040000 		.4byte	.LASF74
 1501 059f 14       		.byte	0x14
 1502 05a0 04       		.byte	0x4
 1503 05a1 0F01     		.2byte	0x10f
ARM GAS  /tmp/ccW1kXgu.s 			page 52


 1504 05a3 F3050000 		.4byte	0x5f3
 1505 05a7 0F       		.uleb128 0xf
 1506 05a8 C6010000 		.4byte	.LASF75
 1507 05ac 04       		.byte	0x4
 1508 05ad 1001     		.2byte	0x110
 1509 05af F3050000 		.4byte	0x5f3
 1510 05b3 02       		.byte	0x2
 1511 05b4 23       		.byte	0x23
 1512 05b5 00       		.uleb128 0
 1513 05b6 0F       		.uleb128 0xf
 1514 05b7 A1010000 		.4byte	.LASF76
 1515 05bb 04       		.byte	0x4
 1516 05bc 1101     		.2byte	0x111
 1517 05be F3050000 		.4byte	0x5f3
 1518 05c2 02       		.byte	0x2
 1519 05c3 23       		.byte	0x23
 1520 05c4 04       		.uleb128 0x4
 1521 05c5 0F       		.uleb128 0xf
 1522 05c6 34030000 		.4byte	.LASF77
 1523 05ca 04       		.byte	0x4
 1524 05cb 1201     		.2byte	0x112
 1525 05cd 12020000 		.4byte	0x212
 1526 05d1 02       		.byte	0x2
 1527 05d2 23       		.byte	0x23
 1528 05d3 08       		.uleb128 0x8
 1529 05d4 0F       		.uleb128 0xf
 1530 05d5 CC040000 		.4byte	.LASF78
 1531 05d9 04       		.byte	0x4
 1532 05da 1301     		.2byte	0x113
 1533 05dc 70050000 		.4byte	0x570
 1534 05e0 02       		.byte	0x2
 1535 05e1 23       		.byte	0x23
 1536 05e2 0C       		.uleb128 0xc
 1537 05e3 0F       		.uleb128 0xf
 1538 05e4 27040000 		.4byte	.LASF79
 1539 05e8 04       		.byte	0x4
 1540 05e9 1501     		.2byte	0x115
 1541 05eb 28020000 		.4byte	0x228
 1542 05ef 02       		.byte	0x2
 1543 05f0 23       		.byte	0x23
 1544 05f1 10       		.uleb128 0x10
 1545 05f2 00       		.byte	0
 1546 05f3 0D       		.uleb128 0xd
 1547 05f4 04       		.byte	0x4
 1548 05f5 8E050000 		.4byte	0x58e
 1549 05f9 0E       		.uleb128 0xe
 1550 05fa 0C       		.byte	0xc
 1551 05fb 04       		.byte	0x4
 1552 05fc 1F01     		.2byte	0x11f
 1553 05fe 3F060000 		.4byte	0x63f
 1554 0602 0F       		.uleb128 0xf
 1555 0603 C6010000 		.4byte	.LASF75
 1556 0607 04       		.byte	0x4
 1557 0608 2001     		.2byte	0x120
 1558 060a F3050000 		.4byte	0x5f3
 1559 060e 02       		.byte	0x2
 1560 060f 23       		.byte	0x23
ARM GAS  /tmp/ccW1kXgu.s 			page 53


 1561 0610 00       		.uleb128 0
 1562 0611 0F       		.uleb128 0xf
 1563 0612 A1010000 		.4byte	.LASF76
 1564 0616 04       		.byte	0x4
 1565 0617 2201     		.2byte	0x122
 1566 0619 F3050000 		.4byte	0x5f3
 1567 061d 02       		.byte	0x2
 1568 061e 23       		.byte	0x23
 1569 061f 04       		.uleb128 0x4
 1570 0620 0F       		.uleb128 0xf
 1571 0621 34030000 		.4byte	.LASF77
 1572 0625 04       		.byte	0x4
 1573 0626 2401     		.2byte	0x124
 1574 0628 12020000 		.4byte	0x212
 1575 062c 02       		.byte	0x2
 1576 062d 23       		.byte	0x23
 1577 062e 08       		.uleb128 0x8
 1578 062f 0F       		.uleb128 0xf
 1579 0630 4C020000 		.4byte	.LASF80
 1580 0634 04       		.byte	0x4
 1581 0635 2C01     		.2byte	0x12c
 1582 0637 12020000 		.4byte	0x212
 1583 063b 02       		.byte	0x2
 1584 063c 23       		.byte	0x23
 1585 063d 0A       		.uleb128 0xa
 1586 063e 00       		.byte	0
 1587 063f 10       		.uleb128 0x10
 1588 0640 71000000 		.4byte	.LASF81
 1589 0644 04       		.byte	0x4
 1590 0645 2F01     		.2byte	0x12f
 1591 0647 F9050000 		.4byte	0x5f9
 1592 064b 17       		.uleb128 0x17
 1593 064c 12010000 		.4byte	.LASF82
 1594 0650 2C       		.byte	0x2c
 1595 0651 04       		.byte	0x4
 1596 0652 3601     		.2byte	0x136
 1597 0654 86060000 		.4byte	0x686
 1598 0658 0F       		.uleb128 0xf
 1599 0659 4F040000 		.4byte	.LASF83
 1600 065d 04       		.byte	0x4
 1601 065e 3A01     		.2byte	0x13a
 1602 0660 E1040000 		.4byte	0x4e1
 1603 0664 02       		.byte	0x2
 1604 0665 23       		.byte	0x23
 1605 0666 00       		.uleb128 0
 1606 0667 0F       		.uleb128 0xf
 1607 0668 37000000 		.4byte	.LASF84
 1608 066c 04       		.byte	0x4
 1609 066d 3E01     		.2byte	0x13e
 1610 066f 3F060000 		.4byte	0x63f
 1611 0673 02       		.byte	0x2
 1612 0674 23       		.byte	0x23
 1613 0675 1C       		.uleb128 0x1c
 1614 0676 0F       		.uleb128 0xf
 1615 0677 39020000 		.4byte	.LASF85
 1616 067b 04       		.byte	0x4
 1617 067c 4301     		.2byte	0x143
ARM GAS  /tmp/ccW1kXgu.s 			page 54


 1618 067e AE010000 		.4byte	0x1ae
 1619 0682 02       		.byte	0x2
 1620 0683 23       		.byte	0x23
 1621 0684 28       		.uleb128 0x28
 1622 0685 00       		.byte	0
 1623 0686 10       		.uleb128 0x10
 1624 0687 03020000 		.4byte	.LASF86
 1625 068b 04       		.byte	0x4
 1626 068c 6501     		.2byte	0x165
 1627 068e 4B060000 		.4byte	0x64b
 1628 0692 07       		.uleb128 0x7
 1629 0693 A9010000 		.4byte	.LASF87
 1630 0697 0A       		.byte	0xa
 1631 0698 35       		.byte	0x35
 1632 0699 33050000 		.4byte	0x533
 1633 069d 0D       		.uleb128 0xd
 1634 069e 04       		.byte	0x4
 1635 069f 92060000 		.4byte	0x692
 1636 06a3 18       		.uleb128 0x18
 1637 06a4 10030000 		.4byte	.LASF88
 1638 06a8 02       		.byte	0x2
 1639 06a9 7E       		.byte	0x7e
 1640 06aa 01       		.byte	0x1
 1641 06ab 12020000 		.4byte	0x212
 1642 06af 03       		.byte	0x3
 1643 06b0 18       		.uleb128 0x18
 1644 06b1 FD030000 		.4byte	.LASF89
 1645 06b5 03       		.byte	0x3
 1646 06b6 6A       		.byte	0x6a
 1647 06b7 01       		.byte	0x1
 1648 06b8 12020000 		.4byte	0x212
 1649 06bc 03       		.byte	0x3
 1650 06bd 19       		.uleb128 0x19
 1651 06be EC010000 		.4byte	.LASF90
 1652 06c2 03       		.byte	0x3
 1653 06c3 48       		.byte	0x48
 1654 06c4 01       		.byte	0x1
 1655 06c5 03       		.byte	0x3
 1656 06c6 D6060000 		.4byte	0x6d6
 1657 06ca 1A       		.uleb128 0x1a
 1658 06cb 6C020000 		.4byte	.LASF92
 1659 06cf 03       		.byte	0x3
 1660 06d0 48       		.byte	0x48
 1661 06d1 12020000 		.4byte	0x212
 1662 06d5 00       		.byte	0
 1663 06d6 19       		.uleb128 0x19
 1664 06d7 76040000 		.4byte	.LASF91
 1665 06db 03       		.byte	0x3
 1666 06dc 5E       		.byte	0x5e
 1667 06dd 01       		.byte	0x1
 1668 06de 03       		.byte	0x3
 1669 06df EF060000 		.4byte	0x6ef
 1670 06e3 1A       		.uleb128 0x1a
 1671 06e4 6C020000 		.4byte	.LASF92
 1672 06e8 03       		.byte	0x3
 1673 06e9 5E       		.byte	0x5e
 1674 06ea 12020000 		.4byte	0x212
ARM GAS  /tmp/ccW1kXgu.s 			page 55


 1675 06ee 00       		.byte	0
 1676 06ef 1B       		.uleb128 0x1b
 1677 06f0 60040000 		.4byte	.LASF105
 1678 06f4 03       		.byte	0x3
 1679 06f5 52       		.byte	0x52
 1680 06f6 01       		.byte	0x1
 1681 06f7 03       		.byte	0x3
 1682 06f8 1C       		.uleb128 0x1c
 1683 06f9 01       		.byte	0x1
 1684 06fa A6000000 		.4byte	.LASF106
 1685 06fe 01       		.byte	0x1
 1686 06ff 3E       		.byte	0x3e
 1687 0700 01       		.byte	0x1
 1688 0701 00000000 		.4byte	.LFB165
 1689 0705 1C000000 		.4byte	.LFE165
 1690 0709 02       		.byte	0x2
 1691 070a 7D       		.byte	0x7d
 1692 070b 00       		.sleb128 0
 1693 070c 01       		.byte	0x1
 1694 070d 1D       		.uleb128 0x1d
 1695 070e 01       		.byte	0x1
 1696 070f 1B020000 		.4byte	.LASF95
 1697 0713 01       		.byte	0x1
 1698 0714 5F       		.byte	0x5f
 1699 0715 01       		.byte	0x1
 1700 0716 00000000 		.4byte	.LFB166
 1701 071a 88000000 		.4byte	.LFE166
 1702 071e 00000000 		.4byte	.LLST0
 1703 0722 01       		.byte	0x1
 1704 0723 FB070000 		.4byte	0x7fb
 1705 0727 1E       		.uleb128 0x1e
 1706 0728 76747000 		.ascii	"vtp\000"
 1707 072c 01       		.byte	0x1
 1708 072d 5F       		.byte	0x5f
 1709 072e F3050000 		.4byte	0x5f3
 1710 0732 20000000 		.4byte	.LLST1
 1711 0736 1F       		.uleb128 0x1f
 1712 0737 C6020000 		.4byte	.LASF93
 1713 073b 01       		.byte	0x1
 1714 073c 5F       		.byte	0x5f
 1715 073d 12020000 		.4byte	0x212
 1716 0741 54000000 		.4byte	.LLST2
 1717 0745 1F       		.uleb128 0x1f
 1718 0746 2E040000 		.4byte	.LASF94
 1719 074a 01       		.byte	0x1
 1720 074b 60       		.byte	0x60
 1721 074c 70050000 		.4byte	0x570
 1722 0750 72000000 		.4byte	.LLST3
 1723 0754 1E       		.uleb128 0x1e
 1724 0755 70617200 		.ascii	"par\000"
 1725 0759 01       		.byte	0x1
 1726 075a 60       		.byte	0x60
 1727 075b 28020000 		.4byte	0x228
 1728 075f DE000000 		.4byte	.LLST4
 1729 0763 20       		.uleb128 0x20
 1730 0764 7000     		.ascii	"p\000"
 1731 0766 01       		.byte	0x1
ARM GAS  /tmp/ccW1kXgu.s 			page 56


 1732 0767 61       		.byte	0x61
 1733 0768 F3050000 		.4byte	0x5f3
 1734 076c 62010000 		.4byte	.LLST5
 1735 0770 21       		.uleb128 0x21
 1736 0771 D9010000 		.4byte	.LASF97
 1737 0775 0B080000 		.4byte	0x80b
 1738 0779 01       		.byte	0x1
 1739 077a 22       		.uleb128 0x22
 1740 077b 00000000 		.4byte	.Ldebug_ranges0+0
 1741 077f 23       		.uleb128 0x23
 1742 0780 6E6F7700 		.ascii	"now\000"
 1743 0784 01       		.byte	0x1
 1744 0785 6C       		.byte	0x6c
 1745 0786 12020000 		.4byte	0x212
 1746 078a 01       		.byte	0x1
 1747 078b 58       		.byte	0x58
 1748 078c 24       		.uleb128 0x24
 1749 078d B0060000 		.4byte	0x6b0
 1750 0791 06000000 		.4byte	.LBB18
 1751 0795 30000000 		.4byte	.Ldebug_ranges0+0x30
 1752 0799 01       		.byte	0x1
 1753 079a 6C       		.byte	0x6c
 1754 079b AF070000 		.4byte	0x7af
 1755 079f 25       		.uleb128 0x25
 1756 07a0 A3060000 		.4byte	0x6a3
 1757 07a4 06000000 		.4byte	.LBB19
 1758 07a8 50000000 		.4byte	.Ldebug_ranges0+0x50
 1759 07ac 03       		.byte	0x3
 1760 07ad 6C       		.byte	0x6c
 1761 07ae 00       		.byte	0
 1762 07af 26       		.uleb128 0x26
 1763 07b0 D6060000 		.4byte	0x6d6
 1764 07b4 66000000 		.4byte	.LBB27
 1765 07b8 70000000 		.4byte	.LBE27
 1766 07bc 01       		.byte	0x1
 1767 07bd 81       		.byte	0x81
 1768 07be D1070000 		.4byte	0x7d1
 1769 07c2 27       		.uleb128 0x27
 1770 07c3 E3060000 		.4byte	0x6e3
 1771 07c7 28       		.uleb128 0x28
 1772 07c8 6C000000 		.4byte	.LVL10
 1773 07cc B5080000 		.4byte	0x8b5
 1774 07d0 00       		.byte	0
 1775 07d1 29       		.uleb128 0x29
 1776 07d2 BD060000 		.4byte	0x6bd
 1777 07d6 74000000 		.4byte	.LBB29
 1778 07da 70000000 		.4byte	.Ldebug_ranges0+0x70
 1779 07de 01       		.byte	0x1
 1780 07df 77       		.byte	0x77
 1781 07e0 27       		.uleb128 0x27
 1782 07e1 CA060000 		.4byte	0x6ca
 1783 07e5 2A       		.uleb128 0x2a
 1784 07e6 7E000000 		.4byte	.LVL14
 1785 07ea C9080000 		.4byte	0x8c9
 1786 07ee 2B       		.uleb128 0x2b
 1787 07ef 01       		.byte	0x1
 1788 07f0 50       		.byte	0x50
ARM GAS  /tmp/ccW1kXgu.s 			page 57


 1789 07f1 05       		.byte	0x5
 1790 07f2 75       		.byte	0x75
 1791 07f3 00       		.sleb128 0
 1792 07f4 78       		.byte	0x78
 1793 07f5 00       		.sleb128 0
 1794 07f6 22       		.byte	0x22
 1795 07f7 00       		.byte	0
 1796 07f8 00       		.byte	0
 1797 07f9 00       		.byte	0
 1798 07fa 00       		.byte	0
 1799 07fb 09       		.uleb128 0x9
 1800 07fc 2C050000 		.4byte	0x52c
 1801 0800 0B080000 		.4byte	0x80b
 1802 0804 0A       		.uleb128 0xa
 1803 0805 FB010000 		.4byte	0x1fb
 1804 0809 0A       		.byte	0xa
 1805 080a 00       		.byte	0
 1806 080b 14       		.uleb128 0x14
 1807 080c FB070000 		.4byte	0x7fb
 1808 0810 1D       		.uleb128 0x1d
 1809 0811 01       		.byte	0x1
 1810 0812 5B000000 		.4byte	.LASF96
 1811 0816 01       		.byte	0x1
 1812 0817 A0       		.byte	0xa0
 1813 0818 01       		.byte	0x1
 1814 0819 00000000 		.4byte	.LFB167
 1815 081d 44000000 		.4byte	.LFE167
 1816 0821 80010000 		.4byte	.LLST6
 1817 0825 01       		.byte	0x1
 1818 0826 85080000 		.4byte	0x885
 1819 082a 1E       		.uleb128 0x1e
 1820 082b 76747000 		.ascii	"vtp\000"
 1821 082f 01       		.byte	0x1
 1822 0830 A0       		.byte	0xa0
 1823 0831 F3050000 		.4byte	0x5f3
 1824 0835 A0010000 		.4byte	.LLST7
 1825 0839 21       		.uleb128 0x21
 1826 083a 99040000 		.4byte	.LASF98
 1827 083e 95080000 		.4byte	0x895
 1828 0842 01       		.byte	0x1
 1829 0843 24       		.uleb128 0x24
 1830 0844 D6060000 		.4byte	0x6d6
 1831 0848 32000000 		.4byte	.LBB37
 1832 084c 88000000 		.4byte	.Ldebug_ranges0+0x88
 1833 0850 01       		.byte	0x1
 1834 0851 B8       		.byte	0xb8
 1835 0852 6A080000 		.4byte	0x86a
 1836 0856 2C       		.uleb128 0x2c
 1837 0857 E3060000 		.4byte	0x6e3
 1838 085b C1010000 		.4byte	.LLST8
 1839 085f 2D       		.uleb128 0x2d
 1840 0860 3A000000 		.4byte	.LVL18
 1841 0864 01       		.byte	0x1
 1842 0865 B5080000 		.4byte	0x8b5
 1843 0869 00       		.byte	0
 1844 086a 2E       		.uleb128 0x2e
 1845 086b EF060000 		.4byte	0x6ef
ARM GAS  /tmp/ccW1kXgu.s 			page 58


 1846 086f 3C000000 		.4byte	.LBB41
 1847 0873 44000000 		.4byte	.LBE41
 1848 0877 01       		.byte	0x1
 1849 0878 B4       		.byte	0xb4
 1850 0879 2D       		.uleb128 0x2d
 1851 087a 40000000 		.4byte	.LVL19
 1852 087e 01       		.byte	0x1
 1853 087f DD080000 		.4byte	0x8dd
 1854 0883 00       		.byte	0
 1855 0884 00       		.byte	0
 1856 0885 09       		.uleb128 0x9
 1857 0886 2C050000 		.4byte	0x52c
 1858 088a 95080000 		.4byte	0x895
 1859 088e 0A       		.uleb128 0xa
 1860 088f FB010000 		.4byte	0x1fb
 1861 0893 0C       		.byte	0xc
 1862 0894 00       		.byte	0
 1863 0895 14       		.uleb128 0x14
 1864 0896 85080000 		.4byte	0x885
 1865 089a 2F       		.uleb128 0x2f
 1866 089b 87000000 		.4byte	.LASF99
 1867 089f 0C       		.byte	0xc
 1868 08a0 1606     		.2byte	0x616
 1869 08a2 A4010000 		.4byte	0x1a4
 1870 08a6 01       		.byte	0x1
 1871 08a7 01       		.byte	0x1
 1872 08a8 30       		.uleb128 0x30
 1873 08a9 636800   		.ascii	"ch\000"
 1874 08ac 04       		.byte	0x4
 1875 08ad 8901     		.2byte	0x189
 1876 08af 86060000 		.4byte	0x686
 1877 08b3 01       		.byte	0x1
 1878 08b4 01       		.byte	0x1
 1879 08b5 31       		.uleb128 0x31
 1880 08b6 01       		.byte	0x1
 1881 08b7 55040000 		.4byte	.LASF100
 1882 08bb 0B       		.byte	0xb
 1883 08bc 5D       		.byte	0x5d
 1884 08bd 01       		.byte	0x1
 1885 08be 01       		.byte	0x1
 1886 08bf C9080000 		.4byte	0x8c9
 1887 08c3 16       		.uleb128 0x16
 1888 08c4 12020000 		.4byte	0x212
 1889 08c8 00       		.byte	0
 1890 08c9 31       		.uleb128 0x31
 1891 08ca 01       		.byte	0x1
 1892 08cb E8030000 		.4byte	.LASF101
 1893 08cf 0B       		.byte	0xb
 1894 08d0 5B       		.byte	0x5b
 1895 08d1 01       		.byte	0x1
 1896 08d2 01       		.byte	0x1
 1897 08d3 DD080000 		.4byte	0x8dd
 1898 08d7 16       		.uleb128 0x16
 1899 08d8 12020000 		.4byte	0x212
 1900 08dc 00       		.byte	0
 1901 08dd 32       		.uleb128 0x32
 1902 08de 01       		.byte	0x1
ARM GAS  /tmp/ccW1kXgu.s 			page 59


 1903 08df 4F030000 		.4byte	.LASF107
 1904 08e3 0B       		.byte	0xb
 1905 08e4 5C       		.byte	0x5c
 1906 08e5 01       		.byte	0x1
 1907 08e6 01       		.byte	0x1
 1908 08e7 00       		.byte	0
 1909              		.section	.debug_abbrev,"",%progbits
 1910              	.Ldebug_abbrev0:
 1911 0000 01       		.uleb128 0x1
 1912 0001 11       		.uleb128 0x11
 1913 0002 01       		.byte	0x1
 1914 0003 25       		.uleb128 0x25
 1915 0004 0E       		.uleb128 0xe
 1916 0005 13       		.uleb128 0x13
 1917 0006 0B       		.uleb128 0xb
 1918 0007 03       		.uleb128 0x3
 1919 0008 0E       		.uleb128 0xe
 1920 0009 1B       		.uleb128 0x1b
 1921 000a 0E       		.uleb128 0xe
 1922 000b 55       		.uleb128 0x55
 1923 000c 06       		.uleb128 0x6
 1924 000d 11       		.uleb128 0x11
 1925 000e 01       		.uleb128 0x1
 1926 000f 52       		.uleb128 0x52
 1927 0010 01       		.uleb128 0x1
 1928 0011 10       		.uleb128 0x10
 1929 0012 06       		.uleb128 0x6
 1930 0013 00       		.byte	0
 1931 0014 00       		.byte	0
 1932 0015 02       		.uleb128 0x2
 1933 0016 13       		.uleb128 0x13
 1934 0017 01       		.byte	0x1
 1935 0018 03       		.uleb128 0x3
 1936 0019 0E       		.uleb128 0xe
 1937 001a 0B       		.uleb128 0xb
 1938 001b 0B       		.uleb128 0xb
 1939 001c 3A       		.uleb128 0x3a
 1940 001d 0B       		.uleb128 0xb
 1941 001e 3B       		.uleb128 0x3b
 1942 001f 0B       		.uleb128 0xb
 1943 0020 01       		.uleb128 0x1
 1944 0021 13       		.uleb128 0x13
 1945 0022 00       		.byte	0
 1946 0023 00       		.byte	0
 1947 0024 03       		.uleb128 0x3
 1948 0025 0D       		.uleb128 0xd
 1949 0026 00       		.byte	0
 1950 0027 03       		.uleb128 0x3
 1951 0028 0E       		.uleb128 0xe
 1952 0029 3A       		.uleb128 0x3a
 1953 002a 0B       		.uleb128 0xb
 1954 002b 3B       		.uleb128 0x3b
 1955 002c 0B       		.uleb128 0xb
 1956 002d 49       		.uleb128 0x49
 1957 002e 13       		.uleb128 0x13
 1958 002f 38       		.uleb128 0x38
 1959 0030 0A       		.uleb128 0xa
ARM GAS  /tmp/ccW1kXgu.s 			page 60


 1960 0031 00       		.byte	0
 1961 0032 00       		.byte	0
 1962 0033 04       		.uleb128 0x4
 1963 0034 0D       		.uleb128 0xd
 1964 0035 00       		.byte	0
 1965 0036 03       		.uleb128 0x3
 1966 0037 08       		.uleb128 0x8
 1967 0038 3A       		.uleb128 0x3a
 1968 0039 0B       		.uleb128 0xb
 1969 003a 3B       		.uleb128 0x3b
 1970 003b 0B       		.uleb128 0xb
 1971 003c 49       		.uleb128 0x49
 1972 003d 13       		.uleb128 0x13
 1973 003e 38       		.uleb128 0x38
 1974 003f 0A       		.uleb128 0xa
 1975 0040 00       		.byte	0
 1976 0041 00       		.byte	0
 1977 0042 05       		.uleb128 0x5
 1978 0043 24       		.uleb128 0x24
 1979 0044 00       		.byte	0
 1980 0045 0B       		.uleb128 0xb
 1981 0046 0B       		.uleb128 0xb
 1982 0047 3E       		.uleb128 0x3e
 1983 0048 0B       		.uleb128 0xb
 1984 0049 03       		.uleb128 0x3
 1985 004a 08       		.uleb128 0x8
 1986 004b 00       		.byte	0
 1987 004c 00       		.byte	0
 1988 004d 06       		.uleb128 0x6
 1989 004e 24       		.uleb128 0x24
 1990 004f 00       		.byte	0
 1991 0050 0B       		.uleb128 0xb
 1992 0051 0B       		.uleb128 0xb
 1993 0052 3E       		.uleb128 0x3e
 1994 0053 0B       		.uleb128 0xb
 1995 0054 03       		.uleb128 0x3
 1996 0055 0E       		.uleb128 0xe
 1997 0056 00       		.byte	0
 1998 0057 00       		.byte	0
 1999 0058 07       		.uleb128 0x7
 2000 0059 16       		.uleb128 0x16
 2001 005a 00       		.byte	0
 2002 005b 03       		.uleb128 0x3
 2003 005c 0E       		.uleb128 0xe
 2004 005d 3A       		.uleb128 0x3a
 2005 005e 0B       		.uleb128 0xb
 2006 005f 3B       		.uleb128 0x3b
 2007 0060 0B       		.uleb128 0xb
 2008 0061 49       		.uleb128 0x49
 2009 0062 13       		.uleb128 0x13
 2010 0063 00       		.byte	0
 2011 0064 00       		.byte	0
 2012 0065 08       		.uleb128 0x8
 2013 0066 35       		.uleb128 0x35
 2014 0067 00       		.byte	0
 2015 0068 49       		.uleb128 0x49
 2016 0069 13       		.uleb128 0x13
ARM GAS  /tmp/ccW1kXgu.s 			page 61


 2017 006a 00       		.byte	0
 2018 006b 00       		.byte	0
 2019 006c 09       		.uleb128 0x9
 2020 006d 01       		.uleb128 0x1
 2021 006e 01       		.byte	0x1
 2022 006f 49       		.uleb128 0x49
 2023 0070 13       		.uleb128 0x13
 2024 0071 01       		.uleb128 0x1
 2025 0072 13       		.uleb128 0x13
 2026 0073 00       		.byte	0
 2027 0074 00       		.byte	0
 2028 0075 0A       		.uleb128 0xa
 2029 0076 21       		.uleb128 0x21
 2030 0077 00       		.byte	0
 2031 0078 49       		.uleb128 0x49
 2032 0079 13       		.uleb128 0x13
 2033 007a 2F       		.uleb128 0x2f
 2034 007b 0B       		.uleb128 0xb
 2035 007c 00       		.byte	0
 2036 007d 00       		.byte	0
 2037 007e 0B       		.uleb128 0xb
 2038 007f 0F       		.uleb128 0xf
 2039 0080 00       		.byte	0
 2040 0081 0B       		.uleb128 0xb
 2041 0082 0B       		.uleb128 0xb
 2042 0083 00       		.byte	0
 2043 0084 00       		.byte	0
 2044 0085 0C       		.uleb128 0xc
 2045 0086 0D       		.uleb128 0xd
 2046 0087 00       		.byte	0
 2047 0088 03       		.uleb128 0x3
 2048 0089 08       		.uleb128 0x8
 2049 008a 3A       		.uleb128 0x3a
 2050 008b 0B       		.uleb128 0xb
 2051 008c 3B       		.uleb128 0x3b
 2052 008d 05       		.uleb128 0x5
 2053 008e 49       		.uleb128 0x49
 2054 008f 13       		.uleb128 0x13
 2055 0090 38       		.uleb128 0x38
 2056 0091 0A       		.uleb128 0xa
 2057 0092 00       		.byte	0
 2058 0093 00       		.byte	0
 2059 0094 0D       		.uleb128 0xd
 2060 0095 0F       		.uleb128 0xf
 2061 0096 00       		.byte	0
 2062 0097 0B       		.uleb128 0xb
 2063 0098 0B       		.uleb128 0xb
 2064 0099 49       		.uleb128 0x49
 2065 009a 13       		.uleb128 0x13
 2066 009b 00       		.byte	0
 2067 009c 00       		.byte	0
 2068 009d 0E       		.uleb128 0xe
 2069 009e 13       		.uleb128 0x13
 2070 009f 01       		.byte	0x1
 2071 00a0 0B       		.uleb128 0xb
 2072 00a1 0B       		.uleb128 0xb
 2073 00a2 3A       		.uleb128 0x3a
ARM GAS  /tmp/ccW1kXgu.s 			page 62


 2074 00a3 0B       		.uleb128 0xb
 2075 00a4 3B       		.uleb128 0x3b
 2076 00a5 05       		.uleb128 0x5
 2077 00a6 01       		.uleb128 0x1
 2078 00a7 13       		.uleb128 0x13
 2079 00a8 00       		.byte	0
 2080 00a9 00       		.byte	0
 2081 00aa 0F       		.uleb128 0xf
 2082 00ab 0D       		.uleb128 0xd
 2083 00ac 00       		.byte	0
 2084 00ad 03       		.uleb128 0x3
 2085 00ae 0E       		.uleb128 0xe
 2086 00af 3A       		.uleb128 0x3a
 2087 00b0 0B       		.uleb128 0xb
 2088 00b1 3B       		.uleb128 0x3b
 2089 00b2 05       		.uleb128 0x5
 2090 00b3 49       		.uleb128 0x49
 2091 00b4 13       		.uleb128 0x13
 2092 00b5 38       		.uleb128 0x38
 2093 00b6 0A       		.uleb128 0xa
 2094 00b7 00       		.byte	0
 2095 00b8 00       		.byte	0
 2096 00b9 10       		.uleb128 0x10
 2097 00ba 16       		.uleb128 0x16
 2098 00bb 00       		.byte	0
 2099 00bc 03       		.uleb128 0x3
 2100 00bd 0E       		.uleb128 0xe
 2101 00be 3A       		.uleb128 0x3a
 2102 00bf 0B       		.uleb128 0xb
 2103 00c0 3B       		.uleb128 0x3b
 2104 00c1 05       		.uleb128 0x5
 2105 00c2 49       		.uleb128 0x49
 2106 00c3 13       		.uleb128 0x13
 2107 00c4 00       		.byte	0
 2108 00c5 00       		.byte	0
 2109 00c6 11       		.uleb128 0x11
 2110 00c7 13       		.uleb128 0x13
 2111 00c8 01       		.byte	0x1
 2112 00c9 0B       		.uleb128 0xb
 2113 00ca 0B       		.uleb128 0xb
 2114 00cb 3A       		.uleb128 0x3a
 2115 00cc 0B       		.uleb128 0xb
 2116 00cd 3B       		.uleb128 0x3b
 2117 00ce 0B       		.uleb128 0xb
 2118 00cf 01       		.uleb128 0x1
 2119 00d0 13       		.uleb128 0x13
 2120 00d1 00       		.byte	0
 2121 00d2 00       		.byte	0
 2122 00d3 12       		.uleb128 0x12
 2123 00d4 17       		.uleb128 0x17
 2124 00d5 01       		.byte	0x1
 2125 00d6 0B       		.uleb128 0xb
 2126 00d7 0B       		.uleb128 0xb
 2127 00d8 3A       		.uleb128 0x3a
 2128 00d9 0B       		.uleb128 0xb
 2129 00da 3B       		.uleb128 0x3b
 2130 00db 0B       		.uleb128 0xb
ARM GAS  /tmp/ccW1kXgu.s 			page 63


 2131 00dc 01       		.uleb128 0x1
 2132 00dd 13       		.uleb128 0x13
 2133 00de 00       		.byte	0
 2134 00df 00       		.byte	0
 2135 00e0 13       		.uleb128 0x13
 2136 00e1 0D       		.uleb128 0xd
 2137 00e2 00       		.byte	0
 2138 00e3 03       		.uleb128 0x3
 2139 00e4 0E       		.uleb128 0xe
 2140 00e5 3A       		.uleb128 0x3a
 2141 00e6 0B       		.uleb128 0xb
 2142 00e7 3B       		.uleb128 0x3b
 2143 00e8 0B       		.uleb128 0xb
 2144 00e9 49       		.uleb128 0x49
 2145 00ea 13       		.uleb128 0x13
 2146 00eb 00       		.byte	0
 2147 00ec 00       		.byte	0
 2148 00ed 14       		.uleb128 0x14
 2149 00ee 26       		.uleb128 0x26
 2150 00ef 00       		.byte	0
 2151 00f0 49       		.uleb128 0x49
 2152 00f1 13       		.uleb128 0x13
 2153 00f2 00       		.byte	0
 2154 00f3 00       		.byte	0
 2155 00f4 15       		.uleb128 0x15
 2156 00f5 15       		.uleb128 0x15
 2157 00f6 01       		.byte	0x1
 2158 00f7 27       		.uleb128 0x27
 2159 00f8 0C       		.uleb128 0xc
 2160 00f9 01       		.uleb128 0x1
 2161 00fa 13       		.uleb128 0x13
 2162 00fb 00       		.byte	0
 2163 00fc 00       		.byte	0
 2164 00fd 16       		.uleb128 0x16
 2165 00fe 05       		.uleb128 0x5
 2166 00ff 00       		.byte	0
 2167 0100 49       		.uleb128 0x49
 2168 0101 13       		.uleb128 0x13
 2169 0102 00       		.byte	0
 2170 0103 00       		.byte	0
 2171 0104 17       		.uleb128 0x17
 2172 0105 13       		.uleb128 0x13
 2173 0106 01       		.byte	0x1
 2174 0107 03       		.uleb128 0x3
 2175 0108 0E       		.uleb128 0xe
 2176 0109 0B       		.uleb128 0xb
 2177 010a 0B       		.uleb128 0xb
 2178 010b 3A       		.uleb128 0x3a
 2179 010c 0B       		.uleb128 0xb
 2180 010d 3B       		.uleb128 0x3b
 2181 010e 05       		.uleb128 0x5
 2182 010f 01       		.uleb128 0x1
 2183 0110 13       		.uleb128 0x13
 2184 0111 00       		.byte	0
 2185 0112 00       		.byte	0
 2186 0113 18       		.uleb128 0x18
 2187 0114 2E       		.uleb128 0x2e
ARM GAS  /tmp/ccW1kXgu.s 			page 64


 2188 0115 00       		.byte	0
 2189 0116 03       		.uleb128 0x3
 2190 0117 0E       		.uleb128 0xe
 2191 0118 3A       		.uleb128 0x3a
 2192 0119 0B       		.uleb128 0xb
 2193 011a 3B       		.uleb128 0x3b
 2194 011b 0B       		.uleb128 0xb
 2195 011c 27       		.uleb128 0x27
 2196 011d 0C       		.uleb128 0xc
 2197 011e 49       		.uleb128 0x49
 2198 011f 13       		.uleb128 0x13
 2199 0120 20       		.uleb128 0x20
 2200 0121 0B       		.uleb128 0xb
 2201 0122 00       		.byte	0
 2202 0123 00       		.byte	0
 2203 0124 19       		.uleb128 0x19
 2204 0125 2E       		.uleb128 0x2e
 2205 0126 01       		.byte	0x1
 2206 0127 03       		.uleb128 0x3
 2207 0128 0E       		.uleb128 0xe
 2208 0129 3A       		.uleb128 0x3a
 2209 012a 0B       		.uleb128 0xb
 2210 012b 3B       		.uleb128 0x3b
 2211 012c 0B       		.uleb128 0xb
 2212 012d 27       		.uleb128 0x27
 2213 012e 0C       		.uleb128 0xc
 2214 012f 20       		.uleb128 0x20
 2215 0130 0B       		.uleb128 0xb
 2216 0131 01       		.uleb128 0x1
 2217 0132 13       		.uleb128 0x13
 2218 0133 00       		.byte	0
 2219 0134 00       		.byte	0
 2220 0135 1A       		.uleb128 0x1a
 2221 0136 05       		.uleb128 0x5
 2222 0137 00       		.byte	0
 2223 0138 03       		.uleb128 0x3
 2224 0139 0E       		.uleb128 0xe
 2225 013a 3A       		.uleb128 0x3a
 2226 013b 0B       		.uleb128 0xb
 2227 013c 3B       		.uleb128 0x3b
 2228 013d 0B       		.uleb128 0xb
 2229 013e 49       		.uleb128 0x49
 2230 013f 13       		.uleb128 0x13
 2231 0140 00       		.byte	0
 2232 0141 00       		.byte	0
 2233 0142 1B       		.uleb128 0x1b
 2234 0143 2E       		.uleb128 0x2e
 2235 0144 00       		.byte	0
 2236 0145 03       		.uleb128 0x3
 2237 0146 0E       		.uleb128 0xe
 2238 0147 3A       		.uleb128 0x3a
 2239 0148 0B       		.uleb128 0xb
 2240 0149 3B       		.uleb128 0x3b
 2241 014a 0B       		.uleb128 0xb
 2242 014b 27       		.uleb128 0x27
 2243 014c 0C       		.uleb128 0xc
 2244 014d 20       		.uleb128 0x20
ARM GAS  /tmp/ccW1kXgu.s 			page 65


 2245 014e 0B       		.uleb128 0xb
 2246 014f 00       		.byte	0
 2247 0150 00       		.byte	0
 2248 0151 1C       		.uleb128 0x1c
 2249 0152 2E       		.uleb128 0x2e
 2250 0153 00       		.byte	0
 2251 0154 3F       		.uleb128 0x3f
 2252 0155 0C       		.uleb128 0xc
 2253 0156 03       		.uleb128 0x3
 2254 0157 0E       		.uleb128 0xe
 2255 0158 3A       		.uleb128 0x3a
 2256 0159 0B       		.uleb128 0xb
 2257 015a 3B       		.uleb128 0x3b
 2258 015b 0B       		.uleb128 0xb
 2259 015c 27       		.uleb128 0x27
 2260 015d 0C       		.uleb128 0xc
 2261 015e 11       		.uleb128 0x11
 2262 015f 01       		.uleb128 0x1
 2263 0160 12       		.uleb128 0x12
 2264 0161 01       		.uleb128 0x1
 2265 0162 40       		.uleb128 0x40
 2266 0163 0A       		.uleb128 0xa
 2267 0164 9742     		.uleb128 0x2117
 2268 0166 0C       		.uleb128 0xc
 2269 0167 00       		.byte	0
 2270 0168 00       		.byte	0
 2271 0169 1D       		.uleb128 0x1d
 2272 016a 2E       		.uleb128 0x2e
 2273 016b 01       		.byte	0x1
 2274 016c 3F       		.uleb128 0x3f
 2275 016d 0C       		.uleb128 0xc
 2276 016e 03       		.uleb128 0x3
 2277 016f 0E       		.uleb128 0xe
 2278 0170 3A       		.uleb128 0x3a
 2279 0171 0B       		.uleb128 0xb
 2280 0172 3B       		.uleb128 0x3b
 2281 0173 0B       		.uleb128 0xb
 2282 0174 27       		.uleb128 0x27
 2283 0175 0C       		.uleb128 0xc
 2284 0176 11       		.uleb128 0x11
 2285 0177 01       		.uleb128 0x1
 2286 0178 12       		.uleb128 0x12
 2287 0179 01       		.uleb128 0x1
 2288 017a 40       		.uleb128 0x40
 2289 017b 06       		.uleb128 0x6
 2290 017c 9742     		.uleb128 0x2117
 2291 017e 0C       		.uleb128 0xc
 2292 017f 01       		.uleb128 0x1
 2293 0180 13       		.uleb128 0x13
 2294 0181 00       		.byte	0
 2295 0182 00       		.byte	0
 2296 0183 1E       		.uleb128 0x1e
 2297 0184 05       		.uleb128 0x5
 2298 0185 00       		.byte	0
 2299 0186 03       		.uleb128 0x3
 2300 0187 08       		.uleb128 0x8
 2301 0188 3A       		.uleb128 0x3a
ARM GAS  /tmp/ccW1kXgu.s 			page 66


 2302 0189 0B       		.uleb128 0xb
 2303 018a 3B       		.uleb128 0x3b
 2304 018b 0B       		.uleb128 0xb
 2305 018c 49       		.uleb128 0x49
 2306 018d 13       		.uleb128 0x13
 2307 018e 02       		.uleb128 0x2
 2308 018f 06       		.uleb128 0x6
 2309 0190 00       		.byte	0
 2310 0191 00       		.byte	0
 2311 0192 1F       		.uleb128 0x1f
 2312 0193 05       		.uleb128 0x5
 2313 0194 00       		.byte	0
 2314 0195 03       		.uleb128 0x3
 2315 0196 0E       		.uleb128 0xe
 2316 0197 3A       		.uleb128 0x3a
 2317 0198 0B       		.uleb128 0xb
 2318 0199 3B       		.uleb128 0x3b
 2319 019a 0B       		.uleb128 0xb
 2320 019b 49       		.uleb128 0x49
 2321 019c 13       		.uleb128 0x13
 2322 019d 02       		.uleb128 0x2
 2323 019e 06       		.uleb128 0x6
 2324 019f 00       		.byte	0
 2325 01a0 00       		.byte	0
 2326 01a1 20       		.uleb128 0x20
 2327 01a2 34       		.uleb128 0x34
 2328 01a3 00       		.byte	0
 2329 01a4 03       		.uleb128 0x3
 2330 01a5 08       		.uleb128 0x8
 2331 01a6 3A       		.uleb128 0x3a
 2332 01a7 0B       		.uleb128 0xb
 2333 01a8 3B       		.uleb128 0x3b
 2334 01a9 0B       		.uleb128 0xb
 2335 01aa 49       		.uleb128 0x49
 2336 01ab 13       		.uleb128 0x13
 2337 01ac 02       		.uleb128 0x2
 2338 01ad 06       		.uleb128 0x6
 2339 01ae 00       		.byte	0
 2340 01af 00       		.byte	0
 2341 01b0 21       		.uleb128 0x21
 2342 01b1 34       		.uleb128 0x34
 2343 01b2 00       		.byte	0
 2344 01b3 03       		.uleb128 0x3
 2345 01b4 0E       		.uleb128 0xe
 2346 01b5 49       		.uleb128 0x49
 2347 01b6 13       		.uleb128 0x13
 2348 01b7 34       		.uleb128 0x34
 2349 01b8 0C       		.uleb128 0xc
 2350 01b9 00       		.byte	0
 2351 01ba 00       		.byte	0
 2352 01bb 22       		.uleb128 0x22
 2353 01bc 0B       		.uleb128 0xb
 2354 01bd 01       		.byte	0x1
 2355 01be 55       		.uleb128 0x55
 2356 01bf 06       		.uleb128 0x6
 2357 01c0 00       		.byte	0
 2358 01c1 00       		.byte	0
ARM GAS  /tmp/ccW1kXgu.s 			page 67


 2359 01c2 23       		.uleb128 0x23
 2360 01c3 34       		.uleb128 0x34
 2361 01c4 00       		.byte	0
 2362 01c5 03       		.uleb128 0x3
 2363 01c6 08       		.uleb128 0x8
 2364 01c7 3A       		.uleb128 0x3a
 2365 01c8 0B       		.uleb128 0xb
 2366 01c9 3B       		.uleb128 0x3b
 2367 01ca 0B       		.uleb128 0xb
 2368 01cb 49       		.uleb128 0x49
 2369 01cc 13       		.uleb128 0x13
 2370 01cd 02       		.uleb128 0x2
 2371 01ce 0A       		.uleb128 0xa
 2372 01cf 00       		.byte	0
 2373 01d0 00       		.byte	0
 2374 01d1 24       		.uleb128 0x24
 2375 01d2 1D       		.uleb128 0x1d
 2376 01d3 01       		.byte	0x1
 2377 01d4 31       		.uleb128 0x31
 2378 01d5 13       		.uleb128 0x13
 2379 01d6 52       		.uleb128 0x52
 2380 01d7 01       		.uleb128 0x1
 2381 01d8 55       		.uleb128 0x55
 2382 01d9 06       		.uleb128 0x6
 2383 01da 58       		.uleb128 0x58
 2384 01db 0B       		.uleb128 0xb
 2385 01dc 59       		.uleb128 0x59
 2386 01dd 0B       		.uleb128 0xb
 2387 01de 01       		.uleb128 0x1
 2388 01df 13       		.uleb128 0x13
 2389 01e0 00       		.byte	0
 2390 01e1 00       		.byte	0
 2391 01e2 25       		.uleb128 0x25
 2392 01e3 1D       		.uleb128 0x1d
 2393 01e4 00       		.byte	0
 2394 01e5 31       		.uleb128 0x31
 2395 01e6 13       		.uleb128 0x13
 2396 01e7 52       		.uleb128 0x52
 2397 01e8 01       		.uleb128 0x1
 2398 01e9 55       		.uleb128 0x55
 2399 01ea 06       		.uleb128 0x6
 2400 01eb 58       		.uleb128 0x58
 2401 01ec 0B       		.uleb128 0xb
 2402 01ed 59       		.uleb128 0x59
 2403 01ee 0B       		.uleb128 0xb
 2404 01ef 00       		.byte	0
 2405 01f0 00       		.byte	0
 2406 01f1 26       		.uleb128 0x26
 2407 01f2 1D       		.uleb128 0x1d
 2408 01f3 01       		.byte	0x1
 2409 01f4 31       		.uleb128 0x31
 2410 01f5 13       		.uleb128 0x13
 2411 01f6 11       		.uleb128 0x11
 2412 01f7 01       		.uleb128 0x1
 2413 01f8 12       		.uleb128 0x12
 2414 01f9 01       		.uleb128 0x1
 2415 01fa 58       		.uleb128 0x58
ARM GAS  /tmp/ccW1kXgu.s 			page 68


 2416 01fb 0B       		.uleb128 0xb
 2417 01fc 59       		.uleb128 0x59
 2418 01fd 0B       		.uleb128 0xb
 2419 01fe 01       		.uleb128 0x1
 2420 01ff 13       		.uleb128 0x13
 2421 0200 00       		.byte	0
 2422 0201 00       		.byte	0
 2423 0202 27       		.uleb128 0x27
 2424 0203 05       		.uleb128 0x5
 2425 0204 00       		.byte	0
 2426 0205 31       		.uleb128 0x31
 2427 0206 13       		.uleb128 0x13
 2428 0207 00       		.byte	0
 2429 0208 00       		.byte	0
 2430 0209 28       		.uleb128 0x28
 2431 020a 898201   		.uleb128 0x4109
 2432 020d 00       		.byte	0
 2433 020e 11       		.uleb128 0x11
 2434 020f 01       		.uleb128 0x1
 2435 0210 31       		.uleb128 0x31
 2436 0211 13       		.uleb128 0x13
 2437 0212 00       		.byte	0
 2438 0213 00       		.byte	0
 2439 0214 29       		.uleb128 0x29
 2440 0215 1D       		.uleb128 0x1d
 2441 0216 01       		.byte	0x1
 2442 0217 31       		.uleb128 0x31
 2443 0218 13       		.uleb128 0x13
 2444 0219 52       		.uleb128 0x52
 2445 021a 01       		.uleb128 0x1
 2446 021b 55       		.uleb128 0x55
 2447 021c 06       		.uleb128 0x6
 2448 021d 58       		.uleb128 0x58
 2449 021e 0B       		.uleb128 0xb
 2450 021f 59       		.uleb128 0x59
 2451 0220 0B       		.uleb128 0xb
 2452 0221 00       		.byte	0
 2453 0222 00       		.byte	0
 2454 0223 2A       		.uleb128 0x2a
 2455 0224 898201   		.uleb128 0x4109
 2456 0227 01       		.byte	0x1
 2457 0228 11       		.uleb128 0x11
 2458 0229 01       		.uleb128 0x1
 2459 022a 31       		.uleb128 0x31
 2460 022b 13       		.uleb128 0x13
 2461 022c 00       		.byte	0
 2462 022d 00       		.byte	0
 2463 022e 2B       		.uleb128 0x2b
 2464 022f 8A8201   		.uleb128 0x410a
 2465 0232 00       		.byte	0
 2466 0233 02       		.uleb128 0x2
 2467 0234 0A       		.uleb128 0xa
 2468 0235 9142     		.uleb128 0x2111
 2469 0237 0A       		.uleb128 0xa
 2470 0238 00       		.byte	0
 2471 0239 00       		.byte	0
 2472 023a 2C       		.uleb128 0x2c
ARM GAS  /tmp/ccW1kXgu.s 			page 69


 2473 023b 05       		.uleb128 0x5
 2474 023c 00       		.byte	0
 2475 023d 31       		.uleb128 0x31
 2476 023e 13       		.uleb128 0x13
 2477 023f 02       		.uleb128 0x2
 2478 0240 06       		.uleb128 0x6
 2479 0241 00       		.byte	0
 2480 0242 00       		.byte	0
 2481 0243 2D       		.uleb128 0x2d
 2482 0244 898201   		.uleb128 0x4109
 2483 0247 00       		.byte	0
 2484 0248 11       		.uleb128 0x11
 2485 0249 01       		.uleb128 0x1
 2486 024a 9542     		.uleb128 0x2115
 2487 024c 0C       		.uleb128 0xc
 2488 024d 31       		.uleb128 0x31
 2489 024e 13       		.uleb128 0x13
 2490 024f 00       		.byte	0
 2491 0250 00       		.byte	0
 2492 0251 2E       		.uleb128 0x2e
 2493 0252 1D       		.uleb128 0x1d
 2494 0253 01       		.byte	0x1
 2495 0254 31       		.uleb128 0x31
 2496 0255 13       		.uleb128 0x13
 2497 0256 11       		.uleb128 0x11
 2498 0257 01       		.uleb128 0x1
 2499 0258 12       		.uleb128 0x12
 2500 0259 01       		.uleb128 0x1
 2501 025a 58       		.uleb128 0x58
 2502 025b 0B       		.uleb128 0xb
 2503 025c 59       		.uleb128 0x59
 2504 025d 0B       		.uleb128 0xb
 2505 025e 00       		.byte	0
 2506 025f 00       		.byte	0
 2507 0260 2F       		.uleb128 0x2f
 2508 0261 34       		.uleb128 0x34
 2509 0262 00       		.byte	0
 2510 0263 03       		.uleb128 0x3
 2511 0264 0E       		.uleb128 0xe
 2512 0265 3A       		.uleb128 0x3a
 2513 0266 0B       		.uleb128 0xb
 2514 0267 3B       		.uleb128 0x3b
 2515 0268 05       		.uleb128 0x5
 2516 0269 49       		.uleb128 0x49
 2517 026a 13       		.uleb128 0x13
 2518 026b 3F       		.uleb128 0x3f
 2519 026c 0C       		.uleb128 0xc
 2520 026d 3C       		.uleb128 0x3c
 2521 026e 0C       		.uleb128 0xc
 2522 026f 00       		.byte	0
 2523 0270 00       		.byte	0
 2524 0271 30       		.uleb128 0x30
 2525 0272 34       		.uleb128 0x34
 2526 0273 00       		.byte	0
 2527 0274 03       		.uleb128 0x3
 2528 0275 08       		.uleb128 0x8
 2529 0276 3A       		.uleb128 0x3a
ARM GAS  /tmp/ccW1kXgu.s 			page 70


 2530 0277 0B       		.uleb128 0xb
 2531 0278 3B       		.uleb128 0x3b
 2532 0279 05       		.uleb128 0x5
 2533 027a 49       		.uleb128 0x49
 2534 027b 13       		.uleb128 0x13
 2535 027c 3F       		.uleb128 0x3f
 2536 027d 0C       		.uleb128 0xc
 2537 027e 3C       		.uleb128 0x3c
 2538 027f 0C       		.uleb128 0xc
 2539 0280 00       		.byte	0
 2540 0281 00       		.byte	0
 2541 0282 31       		.uleb128 0x31
 2542 0283 2E       		.uleb128 0x2e
 2543 0284 01       		.byte	0x1
 2544 0285 3F       		.uleb128 0x3f
 2545 0286 0C       		.uleb128 0xc
 2546 0287 03       		.uleb128 0x3
 2547 0288 0E       		.uleb128 0xe
 2548 0289 3A       		.uleb128 0x3a
 2549 028a 0B       		.uleb128 0xb
 2550 028b 3B       		.uleb128 0x3b
 2551 028c 0B       		.uleb128 0xb
 2552 028d 27       		.uleb128 0x27
 2553 028e 0C       		.uleb128 0xc
 2554 028f 3C       		.uleb128 0x3c
 2555 0290 0C       		.uleb128 0xc
 2556 0291 01       		.uleb128 0x1
 2557 0292 13       		.uleb128 0x13
 2558 0293 00       		.byte	0
 2559 0294 00       		.byte	0
 2560 0295 32       		.uleb128 0x32
 2561 0296 2E       		.uleb128 0x2e
 2562 0297 00       		.byte	0
 2563 0298 3F       		.uleb128 0x3f
 2564 0299 0C       		.uleb128 0xc
 2565 029a 03       		.uleb128 0x3
 2566 029b 0E       		.uleb128 0xe
 2567 029c 3A       		.uleb128 0x3a
 2568 029d 0B       		.uleb128 0xb
 2569 029e 3B       		.uleb128 0x3b
 2570 029f 0B       		.uleb128 0xb
 2571 02a0 27       		.uleb128 0x27
 2572 02a1 0C       		.uleb128 0xc
 2573 02a2 3C       		.uleb128 0x3c
 2574 02a3 0C       		.uleb128 0xc
 2575 02a4 00       		.byte	0
 2576 02a5 00       		.byte	0
 2577 02a6 00       		.byte	0
 2578              		.section	.debug_loc,"",%progbits
 2579              	.Ldebug_loc0:
 2580              	.LLST0:
 2581 0000 00000000 		.4byte	.LFB166
 2582 0004 04000000 		.4byte	.LCFI0
 2583 0008 0200     		.2byte	0x2
 2584 000a 7D       		.byte	0x7d
 2585 000b 00       		.sleb128 0
 2586 000c 04000000 		.4byte	.LCFI0
ARM GAS  /tmp/ccW1kXgu.s 			page 71


 2587 0010 88000000 		.4byte	.LFE166
 2588 0014 0200     		.2byte	0x2
 2589 0016 7D       		.byte	0x7d
 2590 0017 18       		.sleb128 24
 2591 0018 00000000 		.4byte	0
 2592 001c 00000000 		.4byte	0
 2593              	.LLST1:
 2594 0020 00000000 		.4byte	.LVL0
 2595 0024 34000000 		.4byte	.LVL4
 2596 0028 0100     		.2byte	0x1
 2597 002a 50       		.byte	0x50
 2598 002b 34000000 		.4byte	.LVL4
 2599 002f 70000000 		.4byte	.LVL11
 2600 0033 0100     		.2byte	0x1
 2601 0035 56       		.byte	0x56
 2602 0036 70000000 		.4byte	.LVL11
 2603 003a 76000000 		.4byte	.LVL13
 2604 003e 0100     		.2byte	0x1
 2605 0040 50       		.byte	0x50
 2606 0041 76000000 		.4byte	.LVL13
 2607 0045 88000000 		.4byte	.LFE166
 2608 0049 0100     		.2byte	0x1
 2609 004b 56       		.byte	0x56
 2610 004c 00000000 		.4byte	0
 2611 0050 00000000 		.4byte	0
 2612              	.LLST2:
 2613 0054 00000000 		.4byte	.LVL0
 2614 0058 36000000 		.4byte	.LVL5
 2615 005c 0100     		.2byte	0x1
 2616 005e 51       		.byte	0x51
 2617 005f 70000000 		.4byte	.LVL11
 2618 0063 7D000000 		.4byte	.LVL14-1
 2619 0067 0100     		.2byte	0x1
 2620 0069 51       		.byte	0x51
 2621 006a 00000000 		.4byte	0
 2622 006e 00000000 		.4byte	0
 2623              	.LLST3:
 2624 0072 00000000 		.4byte	.LVL0
 2625 0076 2A000000 		.4byte	.LVL2
 2626 007a 0100     		.2byte	0x1
 2627 007c 52       		.byte	0x52
 2628 007d 2A000000 		.4byte	.LVL2
 2629 0081 34000000 		.4byte	.LVL4
 2630 0085 0200     		.2byte	0x2
 2631 0087 70       		.byte	0x70
 2632 0088 0C       		.sleb128 12
 2633 0089 34000000 		.4byte	.LVL4
 2634 008d 3C000000 		.4byte	.LVL6
 2635 0091 0200     		.2byte	0x2
 2636 0093 76       		.byte	0x76
 2637 0094 0C       		.sleb128 12
 2638 0095 3C000000 		.4byte	.LVL6
 2639 0099 64000000 		.4byte	.LVL9
 2640 009d 0400     		.2byte	0x4
 2641 009f F3       		.byte	0xf3
 2642 00a0 01       		.uleb128 0x1
 2643 00a1 52       		.byte	0x52
ARM GAS  /tmp/ccW1kXgu.s 			page 72


 2644 00a2 9F       		.byte	0x9f
 2645 00a3 64000000 		.4byte	.LVL9
 2646 00a7 6B000000 		.4byte	.LVL10-1
 2647 00ab 0200     		.2byte	0x2
 2648 00ad 76       		.byte	0x76
 2649 00ae 0C       		.sleb128 12
 2650 00af 6B000000 		.4byte	.LVL10-1
 2651 00b3 70000000 		.4byte	.LVL11
 2652 00b7 0400     		.2byte	0x4
 2653 00b9 F3       		.byte	0xf3
 2654 00ba 01       		.uleb128 0x1
 2655 00bb 52       		.byte	0x52
 2656 00bc 9F       		.byte	0x9f
 2657 00bd 70000000 		.4byte	.LVL11
 2658 00c1 7D000000 		.4byte	.LVL14-1
 2659 00c5 0100     		.2byte	0x1
 2660 00c7 52       		.byte	0x52
 2661 00c8 7D000000 		.4byte	.LVL14-1
 2662 00cc 88000000 		.4byte	.LFE166
 2663 00d0 0400     		.2byte	0x4
 2664 00d2 F3       		.byte	0xf3
 2665 00d3 01       		.uleb128 0x1
 2666 00d4 52       		.byte	0x52
 2667 00d5 9F       		.byte	0x9f
 2668 00d6 00000000 		.4byte	0
 2669 00da 00000000 		.4byte	0
 2670              	.LLST4:
 2671 00de 00000000 		.4byte	.LVL0
 2672 00e2 2C000000 		.4byte	.LVL3
 2673 00e6 0100     		.2byte	0x1
 2674 00e8 53       		.byte	0x53
 2675 00e9 2C000000 		.4byte	.LVL3
 2676 00ed 34000000 		.4byte	.LVL4
 2677 00f1 0200     		.2byte	0x2
 2678 00f3 70       		.byte	0x70
 2679 00f4 10       		.sleb128 16
 2680 00f5 34000000 		.4byte	.LVL4
 2681 00f9 3C000000 		.4byte	.LVL6
 2682 00fd 0200     		.2byte	0x2
 2683 00ff 76       		.byte	0x76
 2684 0100 10       		.sleb128 16
 2685 0101 3C000000 		.4byte	.LVL6
 2686 0105 64000000 		.4byte	.LVL9
 2687 0109 0400     		.2byte	0x4
 2688 010b F3       		.byte	0xf3
 2689 010c 01       		.uleb128 0x1
 2690 010d 53       		.byte	0x53
 2691 010e 9F       		.byte	0x9f
 2692 010f 64000000 		.4byte	.LVL9
 2693 0113 6B000000 		.4byte	.LVL10-1
 2694 0117 0200     		.2byte	0x2
 2695 0119 76       		.byte	0x76
 2696 011a 10       		.sleb128 16
 2697 011b 6B000000 		.4byte	.LVL10-1
 2698 011f 70000000 		.4byte	.LVL11
 2699 0123 0400     		.2byte	0x4
 2700 0125 F3       		.byte	0xf3
ARM GAS  /tmp/ccW1kXgu.s 			page 73


 2701 0126 01       		.uleb128 0x1
 2702 0127 53       		.byte	0x53
 2703 0128 9F       		.byte	0x9f
 2704 0129 70000000 		.4byte	.LVL11
 2705 012d 74000000 		.4byte	.LVL12
 2706 0131 0100     		.2byte	0x1
 2707 0133 53       		.byte	0x53
 2708 0134 74000000 		.4byte	.LVL12
 2709 0138 76000000 		.4byte	.LVL13
 2710 013c 0200     		.2byte	0x2
 2711 013e 70       		.byte	0x70
 2712 013f 10       		.sleb128 16
 2713 0140 76000000 		.4byte	.LVL13
 2714 0144 7D000000 		.4byte	.LVL14-1
 2715 0148 0200     		.2byte	0x2
 2716 014a 76       		.byte	0x76
 2717 014b 10       		.sleb128 16
 2718 014c 7D000000 		.4byte	.LVL14-1
 2719 0150 88000000 		.4byte	.LFE166
 2720 0154 0400     		.2byte	0x4
 2721 0156 F3       		.byte	0xf3
 2722 0157 01       		.uleb128 0x1
 2723 0158 53       		.byte	0x53
 2724 0159 9F       		.byte	0x9f
 2725 015a 00000000 		.4byte	0
 2726 015e 00000000 		.4byte	0
 2727              	.LLST5:
 2728 0162 12000000 		.4byte	.LVL1
 2729 0166 3E000000 		.4byte	.LVL7
 2730 016a 0100     		.2byte	0x1
 2731 016c 54       		.byte	0x54
 2732 016d 44000000 		.4byte	.LVL8
 2733 0171 88000000 		.4byte	.LFE166
 2734 0175 0100     		.2byte	0x1
 2735 0177 54       		.byte	0x54
 2736 0178 00000000 		.4byte	0
 2737 017c 00000000 		.4byte	0
 2738              	.LLST6:
 2739 0180 00000000 		.4byte	.LFB167
 2740 0184 04000000 		.4byte	.LCFI1
 2741 0188 0200     		.2byte	0x2
 2742 018a 7D       		.byte	0x7d
 2743 018b 00       		.sleb128 0
 2744 018c 04000000 		.4byte	.LCFI1
 2745 0190 44000000 		.4byte	.LFE167
 2746 0194 0200     		.2byte	0x2
 2747 0196 7D       		.byte	0x7d
 2748 0197 10       		.sleb128 16
 2749 0198 00000000 		.4byte	0
 2750 019c 00000000 		.4byte	0
 2751              	.LLST7:
 2752 01a0 00000000 		.4byte	.LVL15
 2753 01a4 26000000 		.4byte	.LVL16
 2754 01a8 0100     		.2byte	0x1
 2755 01aa 50       		.byte	0x50
 2756 01ab 26000000 		.4byte	.LVL16
 2757 01af 44000000 		.4byte	.LFE167
ARM GAS  /tmp/ccW1kXgu.s 			page 74


 2758 01b3 0400     		.2byte	0x4
 2759 01b5 F3       		.byte	0xf3
 2760 01b6 01       		.uleb128 0x1
 2761 01b7 50       		.byte	0x50
 2762 01b8 9F       		.byte	0x9f
 2763 01b9 00000000 		.4byte	0
 2764 01bd 00000000 		.4byte	0
 2765              	.LLST8:
 2766 01c1 2C000000 		.4byte	.LVL17
 2767 01c5 39000000 		.4byte	.LVL18-1
 2768 01c9 0500     		.2byte	0x5
 2769 01cb 75       		.byte	0x75
 2770 01cc 08       		.sleb128 8
 2771 01cd 94       		.byte	0x94
 2772 01ce 02       		.byte	0x2
 2773 01cf 9F       		.byte	0x9f
 2774 01d0 00000000 		.4byte	0
 2775 01d4 00000000 		.4byte	0
 2776              		.section	.debug_aranges,"",%progbits
 2777 0000 2C000000 		.4byte	0x2c
 2778 0004 0200     		.2byte	0x2
 2779 0006 00000000 		.4byte	.Ldebug_info0
 2780 000a 04       		.byte	0x4
 2781 000b 00       		.byte	0
 2782 000c 0000     		.2byte	0
 2783 000e 0000     		.2byte	0
 2784 0010 00000000 		.4byte	.LFB165
 2785 0014 1C000000 		.4byte	.LFE165-.LFB165
 2786 0018 00000000 		.4byte	.LFB166
 2787 001c 88000000 		.4byte	.LFE166-.LFB166
 2788 0020 00000000 		.4byte	.LFB167
 2789 0024 44000000 		.4byte	.LFE167-.LFB167
 2790 0028 00000000 		.4byte	0
 2791 002c 00000000 		.4byte	0
 2792              		.section	.debug_ranges,"",%progbits
 2793              	.Ldebug_ranges0:
 2794 0000 06000000 		.4byte	.LBB17
 2795 0004 0A000000 		.4byte	.LBE17
 2796 0008 0C000000 		.4byte	.LBB33
 2797 000c 0E000000 		.4byte	.LBE33
 2798 0010 12000000 		.4byte	.LBB34
 2799 0014 20000000 		.4byte	.LBE34
 2800 0018 26000000 		.4byte	.LBB35
 2801 001c 3C000000 		.4byte	.LBE35
 2802 0020 64000000 		.4byte	.LBB36
 2803 0024 88000000 		.4byte	.LBE36
 2804 0028 00000000 		.4byte	0
 2805 002c 00000000 		.4byte	0
 2806 0030 06000000 		.4byte	.LBB18
 2807 0034 0A000000 		.4byte	.LBE18
 2808 0038 0C000000 		.4byte	.LBB25
 2809 003c 0E000000 		.4byte	.LBE25
 2810 0040 12000000 		.4byte	.LBB26
 2811 0044 16000000 		.4byte	.LBE26
 2812 0048 00000000 		.4byte	0
 2813 004c 00000000 		.4byte	0
 2814 0050 06000000 		.4byte	.LBB19
ARM GAS  /tmp/ccW1kXgu.s 			page 75


 2815 0054 0A000000 		.4byte	.LBE19
 2816 0058 0C000000 		.4byte	.LBB23
 2817 005c 0E000000 		.4byte	.LBE23
 2818 0060 12000000 		.4byte	.LBB24
 2819 0064 16000000 		.4byte	.LBE24
 2820 0068 00000000 		.4byte	0
 2821 006c 00000000 		.4byte	0
 2822 0070 74000000 		.4byte	.LBB29
 2823 0074 76000000 		.4byte	.LBE29
 2824 0078 7A000000 		.4byte	.LBB32
 2825 007c 88000000 		.4byte	.LBE32
 2826 0080 00000000 		.4byte	0
 2827 0084 00000000 		.4byte	0
 2828 0088 32000000 		.4byte	.LBB37
 2829 008c 34000000 		.4byte	.LBE37
 2830 0090 36000000 		.4byte	.LBB40
 2831 0094 3A000000 		.4byte	.LBE40
 2832 0098 00000000 		.4byte	0
 2833 009c 00000000 		.4byte	0
 2834 00a0 00000000 		.4byte	.LFB165
 2835 00a4 1C000000 		.4byte	.LFE165
 2836 00a8 00000000 		.4byte	.LFB166
 2837 00ac 88000000 		.4byte	.LFE166
 2838 00b0 00000000 		.4byte	.LFB167
 2839 00b4 44000000 		.4byte	.LFE167
 2840 00b8 00000000 		.4byte	0
 2841 00bc 00000000 		.4byte	0
 2842              		.section	.debug_line,"",%progbits
 2843              	.Ldebug_line0:
 2844 0000 B2020000 		.section	.debug_str,"MS",%progbits,1
 2844      0200E301 
 2844      00000201 
 2844      FB0E0D00 
 2844      01010101 
 2845              	.LASF62:
 2846 0000 72656164 		.ascii	"ready_list_t\000"
 2846      795F6C69 
 2846      73745F74 
 2846      00
 2847              	.LASF44:
 2848 000d 44494552 		.ascii	"DIER\000"
 2848      00
 2849              	.LASF63:
 2850 0012 7264796D 		.ascii	"rdymsg\000"
 2850      736700
 2851              	.LASF36:
 2852 0019 6576656E 		.ascii	"eventmask_t\000"
 2852      746D6173 
 2852      6B5F7400 
 2853              	.LASF35:
 2854 0025 6D73675F 		.ascii	"msg_t\000"
 2854      7400
 2855              	.LASF42:
 2856 002b 706F7274 		.ascii	"port_intctx\000"
 2856      5F696E74 
 2856      63747800 
 2857              	.LASF84:
ARM GAS  /tmp/ccW1kXgu.s 			page 76


 2858 0037 76746C69 		.ascii	"vtlist\000"
 2858      737400
 2859              	.LASF46:
 2860 003e 43434D52 		.ascii	"CCMR2\000"
 2860      3200
 2861              	.LASF29:
 2862 0044 6C6F6E67 		.ascii	"long long unsigned int\000"
 2862      206C6F6E 
 2862      6720756E 
 2862      7369676E 
 2862      65642069 
 2863              	.LASF96:
 2864 005b 63685654 		.ascii	"chVTDoResetI\000"
 2864      446F5265 
 2864      73657449 
 2864      00
 2865              	.LASF64:
 2866 0068 65786974 		.ascii	"exitcode\000"
 2866      636F6465 
 2866      00
 2867              	.LASF81:
 2868 0071 76697274 		.ascii	"virtual_timers_list_t\000"
 2868      75616C5F 
 2868      74696D65 
 2868      72735F6C 
 2868      6973745F 
 2869              	.LASF99:
 2870 0087 49544D5F 		.ascii	"ITM_RxBuffer\000"
 2870      52784275 
 2870      66666572 
 2870      00
 2871              	.LASF48:
 2872 0094 42445452 		.ascii	"BDTR\000"
 2872      00
 2873              	.LASF2:
 2874 0099 705F7072 		.ascii	"p_prio\000"
 2874      696F00
 2875              	.LASF45:
 2876 00a0 43434D52 		.ascii	"CCMR1\000"
 2876      3100
 2877              	.LASF106:
 2878 00a6 5F76745F 		.ascii	"_vt_init\000"
 2878      696E6974 
 2878      00
 2879              	.LASF50:
 2880 00af 43434D52 		.ascii	"CCMR3\000"
 2880      3300
 2881              	.LASF18:
 2882 00b5 7369676E 		.ascii	"signed char\000"
 2882      65642063 
 2882      68617200 
 2883              	.LASF69:
 2884 00c1 6D5F7175 		.ascii	"m_queue\000"
 2884      65756500 
 2885              	.LASF102:
 2886 00c9 474E5520 		.ascii	"GNU C 4.7.4 20130913 (release) [ARM/embedded-4_7-br"
 2886      4320342E 
ARM GAS  /tmp/ccW1kXgu.s 			page 77


 2886      372E3420 
 2886      32303133 
 2886      30393133 
 2887 00fc 616E6368 		.ascii	"anch revision 202601]\000"
 2887      20726576 
 2887      6973696F 
 2887      6E203230 
 2887      32363031 
 2888              	.LASF82:
 2889 0112 63685F73 		.ascii	"ch_system\000"
 2889      79737465 
 2889      6D00
 2890              	.LASF25:
 2891 011c 6C6F6E67 		.ascii	"long int\000"
 2891      20696E74 
 2891      00
 2892              	.LASF32:
 2893 0125 74737461 		.ascii	"tstate_t\000"
 2893      74655F74 
 2893      00
 2894              	.LASF40:
 2895 012e 74687265 		.ascii	"thread\000"
 2895      616400
 2896              	.LASF9:
 2897 0135 705F7265 		.ascii	"p_refs\000"
 2897      667300
 2898              	.LASF28:
 2899 013c 6C6F6E67 		.ascii	"long long int\000"
 2899      206C6F6E 
 2899      6720696E 
 2899      7400
 2900              	.LASF22:
 2901 014a 75696E74 		.ascii	"uint16_t\000"
 2901      31365F74 
 2901      00
 2902              	.LASF4:
 2903 0153 705F6E65 		.ascii	"p_newer\000"
 2903      77657200 
 2904              	.LASF103:
 2905 015b 2E2E2F2E 		.ascii	"../../../os/rt/src/chvt.c\000"
 2905      2E2F2E2E 
 2905      2F6F732F 
 2905      72742F73 
 2905      72632F63 
 2906              	.LASF23:
 2907 0175 73686F72 		.ascii	"short unsigned int\000"
 2907      7420756E 
 2907      7369676E 
 2907      65642069 
 2907      6E7400
 2908              	.LASF59:
 2909 0188 725F6E65 		.ascii	"r_newer\000"
 2909      77657200 
 2910              	.LASF16:
 2911 0190 705F6D70 		.ascii	"p_mpool\000"
 2911      6F6F6C00 
 2912              	.LASF39:
ARM GAS  /tmp/ccW1kXgu.s 			page 78


 2913 0198 72656761 		.ascii	"regarm_t\000"
 2913      726D5F74 
 2913      00
 2914              	.LASF76:
 2915 01a1 76745F70 		.ascii	"vt_prev\000"
 2915      72657600 
 2916              	.LASF87:
 2917 01a9 6D757465 		.ascii	"mutex_t\000"
 2917      785F7400 
 2918              	.LASF8:
 2919 01b1 705F666C 		.ascii	"p_flags\000"
 2919      61677300 
 2920              	.LASF17:
 2921 01b9 756E7369 		.ascii	"unsigned int\000"
 2921      676E6564 
 2921      20696E74 
 2921      00
 2922              	.LASF75:
 2923 01c6 76745F6E 		.ascii	"vt_next\000"
 2923      65787400 
 2924              	.LASF11:
 2925 01ce 705F6D73 		.ascii	"p_msgqueue\000"
 2925      67717565 
 2925      756500
 2926              	.LASF97:
 2927 01d9 5F5F6675 		.ascii	"__func__.6105\000"
 2927      6E635F5F 
 2927      2E363130 
 2927      3500
 2928              	.LASF43:
 2929 01e7 534D4352 		.ascii	"SMCR\000"
 2929      00
 2930              	.LASF90:
 2931 01ec 706F7274 		.ascii	"port_timer_start_alarm\000"
 2931      5F74696D 
 2931      65725F73 
 2931      74617274 
 2931      5F616C61 
 2932              	.LASF86:
 2933 0203 63685F73 		.ascii	"ch_system_t\000"
 2933      79737465 
 2933      6D5F7400 
 2934              	.LASF53:
 2935 020f 73746D33 		.ascii	"stm32_tim_t\000"
 2935      325F7469 
 2935      6D5F7400 
 2936              	.LASF95:
 2937 021b 63685654 		.ascii	"chVTDoSetI\000"
 2937      446F5365 
 2937      744900
 2938              	.LASF10:
 2939 0226 705F7761 		.ascii	"p_waiting\000"
 2939      6974696E 
 2939      6700
 2940              	.LASF37:
 2941 0230 73697A65 		.ascii	"sizetype\000"
 2941      74797065 
ARM GAS  /tmp/ccW1kXgu.s 			page 79


 2941      00
 2942              	.LASF85:
 2943 0239 6D656173 		.ascii	"measurement_offset\000"
 2943      7572656D 
 2943      656E745F 
 2943      6F666673 
 2943      657400
 2944              	.LASF80:
 2945 024c 76745F6C 		.ascii	"vt_lasttime\000"
 2945      61737474 
 2945      696D6500 
 2946              	.LASF5:
 2947 0258 705F6F6C 		.ascii	"p_older\000"
 2947      64657200 
 2948              	.LASF58:
 2949 0260 725F6374 		.ascii	"r_ctx\000"
 2949      7800
 2950              	.LASF3:
 2951 0266 705F6374 		.ascii	"p_ctx\000"
 2951      7800
 2952              	.LASF92:
 2953 026c 74696D65 		.ascii	"time\000"
 2953      00
 2954              	.LASF61:
 2955 0271 725F6375 		.ascii	"r_current\000"
 2955      7272656E 
 2955      7400
 2956              	.LASF60:
 2957 027b 725F6F6C 		.ascii	"r_older\000"
 2957      64657200 
 2958              	.LASF33:
 2959 0283 74726566 		.ascii	"trefs_t\000"
 2959      735F7400 
 2960              	.LASF73:
 2961 028b 76697274 		.ascii	"virtual_timer_t\000"
 2961      75616C5F 
 2961      74696D65 
 2961      725F7400 
 2962              	.LASF1:
 2963 029b 705F7072 		.ascii	"p_prev\000"
 2963      657600
 2964              	.LASF34:
 2965 02a2 74707269 		.ascii	"tprio_t\000"
 2965      6F5F7400 
 2966              	.LASF68:
 2967 02aa 6D757465 		.ascii	"mutex\000"
 2967      7800
 2968              	.LASF24:
 2969 02b0 696E7433 		.ascii	"int32_t\000"
 2969      325F7400 
 2970              	.LASF19:
 2971 02b8 756E7369 		.ascii	"unsigned char\000"
 2971      676E6564 
 2971      20636861 
 2971      7200
 2972              	.LASF93:
 2973 02c6 64656C61 		.ascii	"delay\000"
ARM GAS  /tmp/ccW1kXgu.s 			page 80


 2973      7900
 2974              	.LASF14:
 2975 02cc 705F6D74 		.ascii	"p_mtxlist\000"
 2975      786C6973 
 2975      7400
 2976              	.LASF20:
 2977 02d6 73686F72 		.ascii	"short int\000"
 2977      7420696E 
 2977      7400
 2978              	.LASF7:
 2979 02e0 705F7374 		.ascii	"p_state\000"
 2979      61746500 
 2980              	.LASF57:
 2981 02e8 725F7072 		.ascii	"r_prio\000"
 2981      696F00
 2982              	.LASF66:
 2983 02ef 65776D61 		.ascii	"ewmask\000"
 2983      736B00
 2984              	.LASF0:
 2985 02f6 705F6E65 		.ascii	"p_next\000"
 2985      787400
 2986              	.LASF21:
 2987 02fd 75696E74 		.ascii	"uint8_t\000"
 2987      385F7400 
 2988              	.LASF13:
 2989 0305 705F6570 		.ascii	"p_epending\000"
 2989      656E6469 
 2989      6E6700
 2990              	.LASF88:
 2991 0310 73745F6C 		.ascii	"st_lld_get_counter\000"
 2991      6C645F67 
 2991      65745F63 
 2991      6F756E74 
 2991      657200
 2992              	.LASF26:
 2993 0323 75696E74 		.ascii	"uint32_t\000"
 2993      33325F74 
 2993      00
 2994              	.LASF56:
 2995 032c 725F7175 		.ascii	"r_queue\000"
 2995      65756500 
 2996              	.LASF77:
 2997 0334 76745F64 		.ascii	"vt_delta\000"
 2997      656C7461 
 2997      00
 2998              	.LASF27:
 2999 033d 6C6F6E67 		.ascii	"long unsigned int\000"
 2999      20756E73 
 2999      69676E65 
 2999      6420696E 
 2999      7400
 3000              	.LASF107:
 3001 034f 73745374 		.ascii	"stStopAlarm\000"
 3001      6F70416C 
 3001      61726D00 
 3002              	.LASF67:
 3003 035b 63686172 		.ascii	"char\000"
ARM GAS  /tmp/ccW1kXgu.s 			page 81


 3003      00
 3004              	.LASF49:
 3005 0360 444D4152 		.ascii	"DMAR\000"
 3005      00
 3006              	.LASF47:
 3007 0365 43434552 		.ascii	"CCER\000"
 3007      00
 3008              	.LASF71:
 3009 036a 6D5F6E65 		.ascii	"m_next\000"
 3009      787400
 3010              	.LASF38:
 3011 0371 73797374 		.ascii	"systime_t\000"
 3011      696D655F 
 3011      7400
 3012              	.LASF15:
 3013 037b 705F7265 		.ascii	"p_realprio\000"
 3013      616C7072 
 3013      696F00
 3014              	.LASF72:
 3015 0386 76746675 		.ascii	"vtfunc_t\000"
 3015      6E635F74 
 3015      00
 3016              	.LASF104:
 3017 038f 2F686F6D 		.ascii	"/home/joerg/repos/chibios-projects/ChibiOS-RT/demos"
 3017      652F6A6F 
 3017      6572672F 
 3017      7265706F 
 3017      732F6368 
 3018 03c2 2F53544D 		.ascii	"/STM32/RT-STM32F103-OLIMEX_STM32_P103\000"
 3018      33322F52 
 3018      542D5354 
 3018      4D333246 
 3018      3130332D 
 3019              	.LASF101:
 3020 03e8 73745374 		.ascii	"stStartAlarm\000"
 3020      61727441 
 3020      6C61726D 
 3020      00
 3021              	.LASF41:
 3022 03f5 636F6E74 		.ascii	"context\000"
 3022      65787400 
 3023              	.LASF89:
 3024 03fd 706F7274 		.ascii	"port_timer_get_time\000"
 3024      5F74696D 
 3024      65725F67 
 3024      65745F74 
 3024      696D6500 
 3025              	.LASF30:
 3026 0411 7274636E 		.ascii	"rtcnt_t\000"
 3026      745F7400 
 3027              	.LASF74:
 3028 0419 76697274 		.ascii	"virtual_timer\000"
 3028      75616C5F 
 3028      74696D65 
 3028      7200
 3029              	.LASF79:
 3030 0427 76745F70 		.ascii	"vt_par\000"
ARM GAS  /tmp/ccW1kXgu.s 			page 82


 3030      617200
 3031              	.LASF94:
 3032 042e 76746675 		.ascii	"vtfunc\000"
 3032      6E6300
 3033              	.LASF54:
 3034 0435 74687265 		.ascii	"threads_queue_t\000"
 3034      6164735F 
 3034      71756575 
 3034      655F7400 
 3035              	.LASF51:
 3036 0445 43435235 		.ascii	"CCR5\000"
 3036      00
 3037              	.LASF52:
 3038 044a 43435236 		.ascii	"CCR6\000"
 3038      00
 3039              	.LASF83:
 3040 044f 726C6973 		.ascii	"rlist\000"
 3040      7400
 3041              	.LASF100:
 3042 0455 73745365 		.ascii	"stSetAlarm\000"
 3042      74416C61 
 3042      726D00
 3043              	.LASF105:
 3044 0460 706F7274 		.ascii	"port_timer_stop_alarm\000"
 3044      5F74696D 
 3044      65725F73 
 3044      746F705F 
 3044      616C6172 
 3045              	.LASF91:
 3046 0476 706F7274 		.ascii	"port_timer_set_alarm\000"
 3046      5F74696D 
 3046      65725F73 
 3046      65745F61 
 3046      6C61726D 
 3047              	.LASF65:
 3048 048b 77746F62 		.ascii	"wtobjp\000"
 3048      6A7000
 3049              	.LASF6:
 3050 0492 705F6E61 		.ascii	"p_name\000"
 3050      6D6500
 3051              	.LASF98:
 3052 0499 5F5F6675 		.ascii	"__func__.6113\000"
 3052      6E635F5F 
 3052      2E363131 
 3052      3300
 3053              	.LASF55:
 3054 04a7 74687265 		.ascii	"threads_list_t\000"
 3054      6164735F 
 3054      6C697374 
 3054      5F7400
 3055              	.LASF31:
 3056 04b6 746D6F64 		.ascii	"tmode_t\000"
 3056      655F7400 
 3057              	.LASF12:
 3058 04be 705F6D73 		.ascii	"p_msg\000"
 3058      6700
 3059              	.LASF70:
ARM GAS  /tmp/ccW1kXgu.s 			page 83


 3060 04c4 6D5F6F77 		.ascii	"m_owner\000"
 3060      6E657200 
 3061              	.LASF78:
 3062 04cc 76745F66 		.ascii	"vt_func\000"
 3062      756E6300 
 3063              		.comm	__gnu_lto_v1,1,1
 3064              		.ident	"GCC: (GNU Tools for ARM Embedded Processors) 4.7.4 20130913 (release) [ARM/embedded-4_7-br
ARM GAS  /tmp/ccW1kXgu.s 			page 84


DEFINED SYMBOLS
                            *ABS*:00000000 chvt.c
     /tmp/ccW1kXgu.s:423    .text._vt_init:00000000 $t
     /tmp/ccW1kXgu.s:429    .text._vt_init:00000000 _vt_init
     /tmp/ccW1kXgu.s:457    .text.chVTDoSetI:00000000 $t
     /tmp/ccW1kXgu.s:463    .text.chVTDoSetI:00000000 chVTDoSetI
     /tmp/ccW1kXgu.s:627    .text.chVTDoSetI:00000084 $d
     /tmp/ccW1kXgu.s:635    .text.chVTDoResetI:00000000 $t
     /tmp/ccW1kXgu.s:641    .text.chVTDoResetI:00000000 chVTDoResetI
     /tmp/ccW1kXgu.s:720    .text.chVTDoResetI:00000040 $d
                            *COM*:00000001 __gnu_lto_v1
                     .debug_frame:00000010 $d
     /tmp/ccW1kXgu.s:634    .text.chVTDoSetI:00000088 $t
     /tmp/ccW1kXgu.s:726    .text.chVTDoResetI:00000044 $t

UNDEFINED SYMBOLS
ch
stSetAlarm
stStartAlarm
stStopAlarm
