ARM GAS  /tmp/ccW1kXgu.s 			page 1


   1              		.syntax unified
   2              		.cpu cortex-m3
   3              		.fpu softvfp
   4              		.eabi_attribute 20, 1
   5              		.eabi_attribute 21, 1
   6              		.eabi_attribute 23, 3
   7              		.eabi_attribute 24, 1
   8              		.eabi_attribute 25, 1
   9              		.eabi_attribute 26, 1
  10              		.eabi_attribute 30, 2
  11              		.eabi_attribute 34, 1
  12              		.eabi_attribute 18, 4
  13              		.thumb
  14              		.file	"chvt.c"
  15              		.text
  16              	.Ltext0:
  17              		.section	.gnu.lto_.jmpfuncs.9de4c9003f0a5b60,"",%progbits
  18 0000 789C6362 		.ascii	"x\234cb`d`g\300\016\370\24143\003\003#?#P!\023##\220"
  18      60646067 
  18      C00EF8A1 
  18      34330303 
  18      233F2350 
  19 0019 0B000471 		.ascii	"\013\000\004q\0003"
  19      0033
  20              		.text
  21              		.section	.gnu.lto_.inline.9de4c9003f0a5b60,"",%progbits
  22 0000 789C6362 		.ascii	"x\234cb`d\340e\300\016r\24043\003\003;\033#\003\023"
  22      6064E065 
  22      C00E72A0 
  22      34330303 
  22      3B1B2303 
  23 0015 C7013B06 		.ascii	"\307\001;\006\266\005\362L@-\352\227\031\030\231\031"
  23      B605F24C 
  23      402DEA97 
  23      19189919 
  24 0025 93241952 		.ascii	"\223$\031R\031\031\200\\\306d8\013H2\233\357\373\312"
  24      1919805C 
  24      C664380B 
  24      48329BEF 
  24      FBCA
  25 0037 C1C0BDC2 		.ascii	"\301\300\275\302\215\211\201e\201\274\000\003\0237P"
  25      8D898165 
  25      81BC0003 
  25      133750
  26 0046 66821F8C 		.ascii	"f\202\037\214b\020\227\003\032&\373\344.#D\015T\234"
  26      62109703 
  26      1A26FBE4 
  26      2E23440D 
  26      549C
  27 0058 910B6417 		.ascii	"\221\013d\027\000$\350\016\313"
  27      0024E80E 
  27      CB
  28              		.text
  29              		.section	.gnu.lto_.pureconst.9de4c9003f0a5b60,"",%progbits
  30 0000 789C6362 		.ascii	"x\234cb`d`f```g\200\000f\006\011F)&)\000\001\371\000"
  30      60646066 
  30      60606067 
ARM GAS  /tmp/ccW1kXgu.s 			page 2


  30      80006606 
  30      09462926 
  31 0019 60       		.ascii	"`"
  32              		.text
  33              		.section	.gnu.lto__vt_init.9de4c9003f0a5b60,"",%progbits
  34 0000 789C6362 		.ascii	"x\234cb`\004BL \011\304\326L\014\0142@\232\221\231\201"
  34      6004424C 
  34      2009C4D6 
  34      4C0C0C32 
  34      409A9199 
  35 0015 9169C239 		.ascii	"\221i\3029\006\206F\005&FF\020\003\250\245\236\211\261"
  35      06864605 
  35      26464610 
  35      03A8A59E 
  35      89B1
  36 0027 3E14AC93 		.ascii	">\024\254\223Q\211aaC\303\244\011\207\233<\232\036\374"
  36      51896161 
  36      43C3A409 
  36      879B3C9A 
  36      1EFC
  37 0039 FF2F9F0A 		.ascii	"\377/\237\012\022\215gd8\325\361XG\222!\225\221\221"
  37      128D6764 
  37      38D5F158 
  37      47922195 
  37      9191
  38 004b 41810144 		.ascii	"A\201\001D31\260\240\332\361e;\367\237\031l\373\231"
  38      3331B0A0 
  38      DAF1653B 
  38      F79F196C 
  38      FB99
  39 005d 0E3CF85F 		.ascii	"\016<\370_\317\300\300\016\024aehih\020\000i\006\203"
  39      CFC0C00E 
  39      14616568 
  39      69681000 
  39      690683
  40 0070 40100DB2 		.ascii	"@\020\015\262/\010\250\031\304`>\305\320\364\223\371"
  40      2F08A819 
  40      C4603EC5 
  40      D0F493F9 
  41 0080 C88C674C 		.ascii	"\310\214gL\261\214\013\031Y\031\264\031\264\200\266"
  41      B18C0B19 
  41      5919B419 
  41      B480B6
  42 008f 31832966 		.ascii	"1\203)f\346Y\0143\031S\031Y\230\252\030~6p\2442\262"
  42      E6590C33 
  42      19531959 
  42      98AA187E 
  42      3670A432 
  43 00a4 326642FC 		.ascii	"2fB\374\006\262\234\025\354h\006\2068\0201\203\035\314"
  43      06B29C15 
  43      EC680686 
  43      38103183 
  43      1DCC
  44 00b6 02323B38 		.ascii	"\0022;8\201,\250z6F\2509@m`e/x\201\304\016^\260S\200"
  44      812CA87A 
  44      3646A839 
  44      406D6065 
ARM GAS  /tmp/ccW1kXgu.s 			page 3


  44      2F7881C4 
  45 00cf 167BDE60 		.ascii	"\026{\336`\245\310\326\0100\003\350\221\023\314\304"
  45      A5C8D608 
  45      3003E891 
  45      13CCC4
  46 00de 5B6A7166 		.ascii	"[jqf\306.F$k\331\311\264\226\031j-H\232\203\341\377"
  46      C62E4624 
  46      6BD9C9B4 
  46      96196A2D 
  46      489A83E1 
  47 00f3 7F66A8F1 		.ascii	"\177f\250\361of<\243\206\361,H\306\263\203\335~\216"
  47      6F663CA3 
  47      86F12C48 
  47      C6B383DD 
  47      7E8E
  48 0105 811118B9 		.ascii	"\201\021\030\271\020\243a \020\024\344\300h\004\206"
  48      10A36120 
  48      1014E4C0 
  48      680486
  49 0114 0183949E 		.ascii	"\001\203\224\236\236>\004\345\027\353\027\225\350\027"
  49      9E3E04E5 
  49      17EB1795 
  49      E817
  50 0122 1725EB27 		.ascii	"\027%\353'g\224\225\350%3\000\000\030\353mT"
  50      679495E8 
  50      25330000 
  50      18EB6D54 
  51              		.text
  52              		.section	.gnu.lto_chVTDoSetI.9de4c9003f0a5b60,"",%progbits
  53 0000 789C9D56 		.ascii	"x\234\235VKh\234U\024>\347\336\3771\223\311cL\310\253"
  53      4B689C55 
  53      143EE7DE 
  53      FF3193C9 
  53      634CC8AB 
  54 0014 0F134AC1 		.ascii	"\017\023J\301`\332\214\325\205\025\334\210.\014m\026"
  54      60DA8CD5 
  54      8515DC88 
  54      2E0C6D16 
  55 0024 4D2B96C0 		.ascii	"M+\226\3004\304?#\023\210IH\306\261\272h\246I\026A\212"
  55      34C43F23 
  55      13884948 
  55      C6B1BA68 
  55      A6491641 
  56 0039 545751D3 		.ascii	"TWQ\323\330\244Z\222\021\025[\334\224B\304\246\3518"
  56      D8A45A92 
  56      11155BDC 
  56      9442C4A6 
  56      E938
  57 004b 04412CA1 		.ascii	"\004A,\241\213.\012IE\244\240`(\025\002\361\334\327"
  57      8B2E0A49 
  57      45A4A060 
  57      281502F1 
  57      DCD7
  58 005d 3CD29934 		.ascii	"<\322\2314\346\317\343\374\367\336\363\235\363\235\307"
  58      E6CFE3FC 
  58      F7DEF39D 
  58      F39DC7
ARM GAS  /tmp/ccW1kXgu.s 			page 4


  59 006c BDF76780 		.ascii	"\275\367g\200\364\363\3703N\177\361R\200\011\222X\012"
  59      F4F3F833 
  59      4E7FF152 
  59      80099258 
  59      0A
  60 007d C8CEFF02 		.ascii	"\310\316\377\002p\266\2211~\256\032\022M\326\330K\220"
  60      70B69131 
  60      7EAE1A12 
  60      4DD6D84B 
  60      90
  61 008e 788EA3A5 		.ascii	"x\216\243\245\246-f_\264i\332\371;\0054o\243O\315;\314"
  61      A62D665F 
  61      B469DAF9 
  61      3B05346F 
  61      A34FCD3B 
  62 00a3 BD5D43F3 		.ascii	"\275]C\363\276\353/\322\264k\246}X\"^\320\257\344tc"
  62      BEEB2FD2 
  62      B46BA67D 
  62      58225ED0 
  62      AFE47463 
  63 00b7 09F39FBB 		.ascii	"\011\363\237\273E\310\246\300\230K\212\001D1O\304\206"
  63      45C8A6C0 
  63      984B8A01 
  63      44314FC4 
  63      86
  64 00c8 19B76CC7 		.ascii	"\031\267l\307\365\371K\0028\374\206$\352\337\007\323"
  64      F5F94B02 
  64      38FC8624 
  64      EADF07D3 
  65 00d8 89C42789 		.ascii	"\211\304'\211\033#M#\36766\032\"b\266\023!\375\327\312"
  65      1B234D23 
  65      F736361A 
  65      2262B613 
  65      21FDD7CA 
  66 00ec 33F51041 		.ascii	"3\365\020A\204 \010\311\200\345\207T\004w\307\335\011"
  66      842008C9 
  66      80E58754 
  66      0477C7DD 
  66      09
  67 00fd 6AF58BF8 		.ascii	"j\365\213\370N`\013\263Wp\033\270\3637F^\3278.qksW\230"
  67      4E600BB3 
  67      57701BB8 
  67      F337465E 
  67      D7382E71 
  68 0115 C2356A9C 		.ascii	"\3025j\234\265=\232\3113\333q7\232\310\270c\260\027"
  68      B53D9AC9 
  68      33DB7137 
  68      9AC8B863 
  68      B017
  69 0127 057269D2 		.ascii	"\005ri\3220\335\332\343h\302x\264\0304H\350\352\205"
  69      30DDDAE3 
  69      68C278B4 
  69      183448E8 
  69      EA85
  70 0139 6D39CDC6 		.ascii	"m9\315\306hK\256\337~\370\353\222\265\245\313tj\245"
  70      684BAEDF 
  70      7EF8EB92 
ARM GAS  /tmp/ccW1kXgu.s 			page 5


  70      B5A5CB74 
  70      6AA5
  71 014b 652DE9CC 		.ascii	"e-\351\314\263\037\357m\014\357\207K\232\272d}\\\272"
  71      B31FEF6D 
  71      0CEF874B 
  71      9ABA647D 
  71      5CBA
  72 015d 5EFF3C59 		.ascii	"^\377<Y O\\\351\012\256\222\346\233Rw\242\254\000KZ"
  72      204F5CE9 
  72      0AAE92E6 
  72      9B5277A2 
  72      AC004B5A 
  73 0171 875CCB0E 		.ascii	"\207\\\313\016\203\260\324^\230\374\263P>H#O\337e\320"
  73      83B0D45E 
  73      98FCB350 
  73      3E48234F 
  73      DF65D0
  74 0184 2DF5C703 		.ascii	"-\365\307\003\005\265]\020%=\204d\365\033\334\017LK"
  74      05B55D10 
  74      253D8464 
  74      F51BDC0F 
  74      4C4B
  75 0196 4EF232EE 		.ascii	"N\3622\356\003\013\303\3705\215m\222\337\223tH~G\322"
  75      030BC3F8 
  75      358D6D92 
  75      DF937448 
  75      7E47D2
  76 01a9 D5EB7E54 		.ascii	"\325\353~T\372\2454\236\246q\031\311\213$\313I\316\220"
  76      FAA5349E 
  76      A67119C9 
  76      8B24CB49 
  76      CE90
  77 01bb ACD0F682 		.ascii	"\254\320\366\202$/\321\270R\353U\351q\265^\257\321\366"
  77      242FD1B8 
  77      52EB55E9 
  77      71B55EAF 
  77      D1F6
  78 01cd 6AF5B88E 		.ascii	"j\365\270\216\344\2274\256\327\363\273\265\376\036\222"
  78      E49734AE 
  78      D7F3BBB5 
  78      FE1E92
  79 01dc 5F913C40 		.ascii	"_\221<@2I\362 \311Y\222\364\3300\226H\004\231\322\357"
  79      3249F220 
  79      C95992F4 
  79      D8309648 
  79      0499D2EF 
  80 01f0 9131CBE7 		.ascii	"\2211\313\347\230\220\264\215\333)h\222<\015#G\326&"
  80      9890B48D 
  80      DB296892 
  80      3C0D2347 
  80      D626
  81 0202 CF84F12A 		.ascii	"\317\204\361*\325\271\031\236\245\034\360\317\340S\214"
  81      D5B9199E 
  81      A51CF0CF 
  81      E0538C
  82 0211 A08F7928 		.ascii	"\240\217y(\013N=\016Q\372;eN\"O\264\204\000\256O\316"
  82      0B4E3D0E 
ARM GAS  /tmp/ccW1kXgu.s 			page 6


  82      51FA3B65 
  82      4E224FB4 
  82      8400AE4F 
  83 0226 600ED229 		.ascii	"`\016\322)\216D\203t$\262c\341B\215\002z\350J,\347R"
  83      8E448374 
  83      24B263E1 
  83      428D027A 
  83      E84A2CE7 
  84 023b F8B58912 		.ascii	"\370\265\211\022\366\001\374\233\360E0\200=(\321\302"
  84      F601FC9B 
  84      F0453080 
  84      3D28D1C2 
  85 024b 5E00401E 		.ascii	"^\000@\036\207\247\004\371\011.\337\350\377\270-\215"
  85      87A704F9 
  85      092EDFE8 
  85      FFB82D8D 
  86 025b 2F023BA9 		.ascii	"/\002;\251\214\252\250\311\264p\366S\207l]\225\020("
  86      8CAAA8C9 
  86      B470F653 
  86      876C5D95 
  86      1028
  87 026d 2450654D 		.ascii	"$PeMa\013=\036\036h\206db\214\210\225\012\202g\203\021"
  87      610B3D1E 
  87      1E688664 
  87      628C8895 
  87      0A826783 
  88 0282 2C939D5C 		.ascii	",\223\235\\\016\011z,P\357\206]fcP\250\017\370\3410"
  88      0E097A2C 
  88      50EF865D 
  88      666350A8 
  88      0FF8E130 
  89 0296 5E97911E 		.ascii	"^\227\221\036$;\222f\372\356JE\030\347%S]/\270\011c"
  89      243B9266 
  89      FAEE4A45 
  89      18E72553 
  89      5D2FB809 
  90 02ab F77161EA 		.ascii	"\367qa\352-5\357\241\277^v{\356\351\337.\202\375\007"
  90      2D35EFA1 
  90      BF5E767B 
  90      EEE9DF2E 
  90      82FD07
  91 02be 3959589A 		.ascii	"9YX\232\212\033\003\242A\224.\313\350Y\262\266\244G"
  91      8A1B03A2 
  91      41942ECB 
  91      E859B2B6 
  91      A447
  92 02d0 70A5E189 		.ascii	"p\245\341\211$\336\204\205\337\361n\326\207\253\223"
  92      24DE8485 
  92      DFF16ED6 
  92      87AB93
  93 02df 5C813AF9 		.ascii	"\\\201:\371\224k\231\333\224\310\255L\260y\226\001\211"
  93      946B99DB 
  93      94C8AD4C 
  93      B0799601 
  93      89
  94 02f0 1343E389 		.ascii	"\023C\343\211\023\003\341\211\022\366\262h\242\326\265"
  94      1303E189 
ARM GAS  /tmp/ccW1kXgu.s 			page 7


  94      12F6B268 
  94      A2D6B5
  95 02ff A987A8EC 		.ascii	"\251\207\250\354J[\326N\353i\353zR\272D\376F\207\327"
  95      4A5BD64E 
  95      EB69EB7A 
  95      52BA44FE 
  95      4687D7
  96 0312 33863D2C 		.ascii	"3\206=,\2450\344\302\242\334\233b\262\320A\027\325\247"
  96      A530E4C2 
  96      A2DC9B62 
  96      B2D04117 
  96      D5A7
  97 0324 CDAE2D0F 		.ascii	"\315\256-\017:2\007\260\004\326\303\217~Xl\330\334\020"
  97      3A3207B0 
  97      04D6C38F 
  97      7E586CD8 
  97      DC10
  98 0336 29D910F3 		.ascii	")\331\020\363\233\032B\007\021\304N\324-MF\"\370\224"
  98      9B1A4207 
  98      11C44ED4 
  98      2D4D4622 
  98      F894
  99 0348 C93B7577 		.ascii	"\311;uw\312\021\351\350H\257\2574\030\326e;\314\310"
  99      CA11E9E8 
  99      48AFAF34 
  99      18D6653B 
  99      CCC8
 100 035a B86B32F2 		.ascii	"\270k2\362\310\325\3554:\316\357pc\267\\\266T\231J\023"
 100      C8D5ED34 
 100      3ACEEF70 
 100      63B75CB6 
 100      54994A13 
 101 036e 98D90AB9 		.ascii	"\230\331\012\271\200\27192-P\2417\037]sF;\250\271ew"
 101      80B93932 
 101      2D50A137 
 101      1F5D7346 
 101      3BA8B965 
 102 0383 AE6B762E 		.ascii	"\256kv.H\357\216\211\235\232\347>\316f\234\007\245\271"
 102      48EF8E89 
 102      9D9AE73E 
 102      CE669C07 
 102      A5B9
 103 0395 6C6BBAB2 		.ascii	"lk\272\2625\005\223\245\331l\301*\211\237T\334\252`"
 103      350593A5 
 103      D96CC12A 
 103      899F54DC 
 103      AA60
 104 03a7 61FC99C2 		.ascii	"a\374\231\302\335V\305*u\305>\276\265ws\305~{R\305\230"
 104      DD56C52A 
 104      75C53EBE 
 104      B57773C5 
 104      7E7B52C5 
 105 03bc A958654E 		.ascii	"\251XeN\305|r\247\210\376\256%\236Nz\235\223p\305v\261"
 105      C57C72A7 
 105      88FEAE25 
 105      9E4E7A9D 
 105      9370C576 
ARM GAS  /tmp/ccW1kXgu.s 			page 8


 106 03d1 7119EA29 		.ascii	"q\031\352)\035\016\235U$\304\234kK\214\037\220\276\207"
 106      1D0E9D55 
 106      24C49C6B 
 106      4B8C1F90 
 106      BE87
 107 03e3 B8ACC6D2 		.ascii	"\270\254\306\322\\\2379\310\252=\244\364U\231X\257\346"
 107      5C9F39C8 
 107      AA3DA4F4 
 107      559958AF 
 107      E6
 108 03f4 24BE5A25 		.ascii	"$\276Z%\376\366\334\323F\271F\237z\331\274s\223\367"
 108      FEF6DCD3 
 108      46B9469F 
 108      7AD9BC73 
 108      93F7
 109 0406 59B5115C 		.ascii	"Y\265\021\\\023\002\231;\235\177\256\325\030\366% >"
 109      1302993B 
 109      9D7FAED5 
 109      18F62520 
 109      3E
 110 0417 C5D06C74 		.ascii	"\305\320lt\265\312%$g\3473]\366,\325\252\307\252\316"
 110      B5CA2524 
 110      67E7335D 
 110      F62CD5AA 
 110      C7AACE
 111 042a 8B577D15 		.ascii	"\213W}\025'x\006(\255\231#\201p\265>\332\220\325~J\303"
 111      27780628 
 111      AD992381 
 111      70B53EDA 
 111      90D57E4A 
 112 043f 3250EAEA 		.ascii	"2P\352\352\305\260\306O\201\012z\001s\305\264\256\315"
 112      C5B0C64F 
 112      810A7A01 
 112      73C5B4AE 
 112      CD
 113 0450 CDB09C9B 		.ascii	"\315\260\234\233\202\027\272)\376\260s\343\226q\010"
 113      8217BA29 
 113      FEB073E3 
 113      967108
 114 045f DA29BF71 		.ascii	"\332)\277q^W<g\212\265\317P\023.\307\355'9\214\346\202"
 114      5E573C67 
 114      8AB5CF50 
 114      132EC7ED 
 114      27398CE6 
 115 0474 C8BCBED4 		.ascii	"\310\274\276\324\346\256\025\243\232q\227r\363\241\226"
 115      E6AE15A3 
 115      9A719772 
 115      F3A196
 116 0483 7239E116 		.ascii	"r9\341\026\001\326\031\340#\236\037\243\002\036YH^\316"
 116      01D619E0 
 116      239E1FA3 
 116      021E5948 
 116      5ECE
 117 0495 BD48ADE2 		.ascii	"\275H\255\342l\035\203\324E\245OH\223\236\335\333(*"
 117      6C1D83D4 
 117      45A54F48 
 117      939EDDDB 
ARM GAS  /tmp/ccW1kXgu.s 			page 9


 117      282A
 118 04a7 66CF1130 		.ascii	"f\317\0210\270=\0045\366Z\241\010\215\302\246\010,a"
 118      B83D0435 
 118      F65AA108 
 118      8DC2A608 
 118      2C61
 119 04b9 871F24AF 		.ascii	"\207\037$\257\345\007\360\177\317\272\223\362\305\257"
 119      E507F07F 
 119      CFBA93F2 
 119      C5AF
 120 04c7 AF1EB10C 		.ascii	"\257\036\261\014\260\261!\336\251\277\351\2532\377r"
 120      B0B121DE 
 120      A9BFE9AB 
 120      32FF72
 121 04d6 3E268C8C 		.ascii	">&\214\214\271\242\025w\265\264\204\324o\377Ph0\026"
 121      B9A21577 
 121      B5B484D4 
 121      6FFF5068 
 121      3016
 122 04e8 1A1AF442 		.ascii	"\032\032\364B^4\036k\361\000\007x_\377{\241\\\205hW"
 122      5E341E6B 
 122      F1000778 
 122      5FFF7BA1 
 122      5C856857 
 123 04fc 6F68A07F 		.ascii	"oh\240\17706\024:~\242\355\205\347CG\217\276\026:\321"
 123      3036143A 
 123      7EA2ED85 
 123      E743478F 
 123      BE163AD1 
 124 0510 DA163F14 		.ascii	"\332\026?\024\032\212u\366\366v\267D\201\307c\003vw"
 124      1A8A75F6 
 124      F676B744 
 124      81C76303 
 124      7677
 125 0522 A4B7EB7D 		.ascii	"\244\267\353}'\036{\373\335>\217\017t\015Z\261\236w"
 125      271E7BFB 
 125      DD3E8F0F 
 125      740D5AB1 
 125      9E77
 126 0534 22CD9B5C 		.ascii	"\"\315\233\\)C\257\264\267\275\332v\232|z\375\203\221"
 126      2943AFB4 
 126      B7BDDA76 
 126      9A7C7AFD 
 126      8391
 127 0546 4EA13748 		.ascii	"N\2417HV\376\003\254\262\201!"
 127      56FE03AC 
 127      B28121
 128              		.text
 129              		.section	.gnu.lto_chVTDoResetI.9de4c9003f0a5b60,"",%progbits
 130 0000 789C9D95 		.ascii	"x\234\235\225?H[A\034\307\177\277\273\367\362|F\215"
 130      3F485B41 
 130      1CC77FBF 
 130      BBF7F27C 
 130      468D
 131 0012 6B534A45 		.ascii	"kSJE\244H\205\244\243K\207\322E\007\007\003\205R\210"
 131      A44885A4 
 131      A34B87D2 
ARM GAS  /tmp/ccW1kXgu.s 			page 10


 131      45070703 
 131      855288
 132 0025 0E8F073A 		.ascii	"\016\217\007:\024%\006)]\362\232t\010\235\244S\352T"
 132      14250629 
 132      5DF29A74 
 132      089DA453 
 132      EA54
 133 0037 B5DA9446 		.ascii	"\265\332\224F\003\205\026\332\241-\230J\011\301Rp\350"
 133      038516DA 
 133      A12D984A 
 133      09C15270 
 133      E8
 134 0048 E852E920 		.ascii	"\350R\351 \235D,\264\244\277\273w\327$Fm\314\323\370"
 134      9D442CB4 
 134      A4BFBB77 
 134      D724466D 
 134      CCD3F8
 135 005b 3DEEF2F9 		.ascii	"=\356\362\371\375{\367\373\311\000\351\247\371\271N"
 135      FD7BF7FB 
 135      C900E9A7 
 135      F9B94E
 136 006a 1FCF0218 		.ascii	"\037\317\002\030'\305\000 [\330\006x\320\307\030?\264"
 136      27C50020 
 136      5BD80678 
 136      D0C7183F 
 136      B4
 137 007b C01B3416 		.ascii	"\300\0334\026\267\350\374\032G\323\3377\364\302D\024"
 137      B7E8FC1A 
 137      47D3DF37 
 137      F4C24414 
 138 008b 0BB29962 		.ascii	"\013\262\231b\33401uKZ\267\373a\311\363\036/l\246G\322"
 138      DC303175 
 138      4B5AB7FB 
 138      61C9F31E 
 138      2F6CA647 
 139 00a0 BBD5EA65 		.ascii	"\273\325\352eW\354N\"\224\277\254\362\013\340\"B\037"
 139      57EC4E22 
 139      94BFACF2 
 139      0BE02242 
 139      1F
 140 00b1 08656034 		.ascii	"\010e`4\306\341s\336fzPq\\ry\313\247z\025\305Z\242\262"
 140      C6E173DE 
 140      667A5071 
 140      5C7279CB 
 140      A77A15C5 
 141 00c8 763B544B 		.ascii	"v;TK\276\2322+\255\207[H\254\011\333\331x\217\355\024"
 141      BE9A322B 
 141      AD875B48 
 141      AC09DBD9 
 141      788FED14 
 142 00dc A4547CC3 		.ascii	"\244T|\303\332I\256R<l\213+\025\177\342\231\\\251\260"
 142      DA49AE52 
 142      3C6C8B2B 
 142      157FE299 
 142      5CA9B0
 143 00ef C7F68B81 		.ascii	"\307\366\213\201\017\354\343n55\000+\"\331\2147By2\270"
 143      0FECE36E 
ARM GAS  /tmp/ccW1kXgu.s 			page 11


 143      3535002B 
 143      22D98C37 
 143      427932B8 
 144 0103 84D244E1 		.ascii	"\204\322D\341\025;!UQ\211\213\210q|\201\003\300!\216"
 144      153B2155 
 144      51898B88 
 144      717C8103 
 144      C0218E
 145 0116 4FB19F4E 		.ascii	"O\261\237N\342\270Dj\222.\223\006HWH-\322g\244\266\372"
 145      E2B8446A 
 145      922E9306 
 145      4857482D 
 145      D267A4B6 
 146 012b 5E907495 		.ascii	"^\220t\225\264\213t\215\264\207\3649i\2104OJ\217\011"
 146      B48B748D 
 146      B487F439 
 146      6988344F 
 146      4A8F09
 147 013e 0F3DAF17 		.ascii	"\017=\257\027\247e\014\362\031\027*nm\214b\020\013^"
 147      A7650CF2 
 147      19172A6E 
 147      6D8C6210 
 147      0B5E
 148 0150 86F49DDF 		.ascii	"\206\364\235\337\205p\034_\242\011\016\362!\270Ja\361"
 148      85701C5F 
 148      A2090EF2 
 148      21B84A61 
 148      F1
 149 0161 4578822E 		.ascii	"Ex\202.\032\314A\231\273Nu\242\326@\002\314[\2323$g"
 149      1ACC4199 
 149      BB4E75A2 
 149      D64002CC 
 149      5B9A3324 
 150 0176 D671BC91 		.ascii	"\326q\274\221CP\315'\270\254\2559\263\211\303&N\373"
 150      4350CD27 
 150      B8ACAD39 
 150      B389C326 
 150      4EFB
 151 0188 CBA46AFE 		.ascii	"\313\244j\376\002\344\222hin\024\374\335\026C \330\217"
 151      02E49268 
 151      696E14FC 
 151      DD164320 
 151      D88F
 152 019a 82EEAD36 		.ascii	"\202\356\2556g\375/mV\013#=\232\263\352\034\326C\226"
 152      67FD2F6D 
 152      560B233D 
 152      9AB3EA1C 
 152      D64396
 153 01ad 868E787D 		.ascii	"\206\216x}\261\034q\223\204\307J\315\243}\236B\237\356"
 153      B11C7193 
 153      84C74ACD 
 153      A37D9E42 
 153      9FEE
 154 01bf D13EE691 		.ascii	"\321>\346\221i\217\226\004\207w\326\227\261\016\015"
 154      698F9604 
 154      8777D697 
 154      B10E0D
ARM GAS  /tmp/ccW1kXgu.s 			page 12


 155 01ce 9CE46F4A 		.ascii	"\234\344oJ\222\334'\305\246\245\375\016\037\254\277"
 155      92DC27C5 
 155      A6A5FD0E 
 155      1FACBF
 156 01dd C386E24A 		.ascii	"\303\206\342J\351PVlv\037~y\035.v\322\035\223oJ\320"
 156      E950566C 
 156      761F7E79 
 156      1D2E76D2 
 156      1D936F4A 
 157 01f2 9DE0D779 		.ascii	"\235\340\327y\002\351\222\337\226\013zO\237\271:\346"
 157      02E992DF 
 157      960B7A4F 
 157      9FB93AE6 
 158 0202 50AD7275 		.ascii	"P\255ru\017v6\366\270.HP\345v^\017\371n\271\242w\232"
 158      0F7636F6 
 158      B82E4850 
 158      E5765E0F 
 158      F96EB9A2 
 159 0218 0BC9B83F 		.ascii	"\013\311\270?Ai\017\2635\273\312B\020\225e2$A\031Q\216"
 159      41690FB3 
 159      35BBCA42 
 159      10956532 
 159      24411951 
 160 022d 37B4724C 		.ascii	"7\264rL\224\341\320\342\025\340k\345\327\007\350w\220"
 160      94E1D0E2 
 160      15E06BE5 
 160      D707E877 
 160      90
 161 023e 6A2475CD 		.ascii	"j$u\315\352\037e\273\013'Q\335T\027\273\265)\362A\377"
 161      EA1F65BB 
 161      0B2751DD 
 161      5417BBB5 
 161      29F241FF 
 162 0252 3B648795 		.ascii	";d\207\225\217\276_\321\001u\265Y\312\037\226\\\321"
 162      8FBE5FD1 
 162      0175B559 
 162      CA1F965C 
 162      D1
 163 0263 DF6FF6BF 		.ascii	"\337o\366\277N\022CM\033\356ij\200\340\031\275$\306"
 163      4E12434D 
 163      1BEE696A 
 163      80E019BD 
 163      24C6
 164 0275 9A264314 		.ascii	"\232&C\024\025\361\000[4\262\374M5\0143\236\036\206"
 164      15F1005B 
 164      34B2FC4D 
 164      350C339E 
 164      1E86
 165 0287 26833135 		.ascii	"&\20315\314\302g\216C2\007P\001c\355\321\333\375\306"
 165      CCC2678E 
 165      43320750 
 165      0163EDD1 
 165      DBFDC6
 166 029a 0292BFAF 		.ascii	"\002\222\277\2574\231N-c\017\225\221\2416\342bHW\322"
 166      34994E2D 
 166      630F9591 
 166      A136E262 
ARM GAS  /tmp/ccW1kXgu.s 			page 13


 166      4857D2
 167 02ad F467D536 		.ascii	"\364g\3256`\371\217\333\210\217\213\254\350P\004\021"
 167      60F98FDB 
 167      888F8BAC 
 167      E8500411 
 168 02bd 8E44A2FE 		.ascii	"\216D\242\376\357\314\\4\221\214\316%\234\25035\237"
 168      EFCC5C34 
 168      918CCE25 
 168      9CA83335 
 168      9F
 169 02ce 8C38C0E7 		.ascii	"\2148\300\347\223\263C\307\216gg\022\311\271\350\215"
 169      93B343C7 
 169      8E676712 
 169      C9B9E88D 
 170 02de D8D8CDB1 		.ascii	"\330\330\315\261{\364=g&\341N&\247\357\272\211\310\024"
 170      7BF43D67 
 170      26E14E26 
 170      A7EFBA89 
 170      C814
 171 02f0 1862F117 		.ascii	"\030b\361\027\234\342t\371"
 171      9CE274F9 
 172              		.text
 173              		.section	.gnu.lto_.cgraph.9de4c9003f0a5b60,"",%progbits
 174 0000 789C45C7 		.ascii	"x\234E\307\301\015@@\024E\321\367\376\237iC\223\012"
 174      C10D4040 
 174      1445D1F7 
 174      FE9F6943 
 174      930A
 175 0012 F8B3236C 		.ascii	"\370\263#lT`#H\210*D\354(B\242\016\"\214\273\2719\002"
 175      54602348 
 175      882A44EC 
 175      2842A20E 
 175      228CBBB9 
 176 0028 4201A478 		.ascii	"B\001\244x\223\226\006T\033\314\352\234\322\321\370"
 176      93960654 
 176      1BCCEA9C 
 176      D2D1F8
 177 0037 ABA74914 		.ascii	"\253\247I\024G\232>\012\201\234h.b\240\371\017J\207"
 177      479A3E0A 
 177      819C682E 
 177      62A0F90F 
 177      4A87
 178 0049 395BEE2B 		.ascii	"9[\356+\216rw*\036\315zRE1\027K\202\013[\263#\234"
 178      8E72772A 
 178      1ECD7A52 
 178      4531174B 
 178      820B5BB3 
 179              		.text
 180              		.section	.gnu.lto_.vars.9de4c9003f0a5b60,"",%progbits
 181 0000 789C6362 		.ascii	"x\234cb`d`f```g\200\000\306\025\214\014\014\365\014"
 181      60646066 
 181      60606067 
 181      8000C615 
 181      8C0C0CF5 
 182 0015 0005F601 		.ascii	"\000\005\366\0017"
 182      37
 183              		.text
ARM GAS  /tmp/ccW1kXgu.s 			page 14


 184              		.section	.gnu.lto_.refs.9de4c9003f0a5b60,"",%progbits
 185 0000 789C6362 		.ascii	"x\234cb`d`f``Pc\200\0006 \217\025\212\201$##\230\005"
 185      60646066 
 185      60605063 
 185      80003620 
 185      8F158A81 
 186 0019 52C3C204 		.ascii	"R\303\302\004\242Y\201\230\201\001\000\015\331\000l"
 186      A2598198 
 186      8101000D 
 186      D9006C
 187              		.text
 188              		.section	.gnu.lto_.statics.9de4c9003f0a5b60,"",%progbits
 189 0000 789C6362 		.ascii	"x\234cb`d`b\300\016@\342\214\020&\000\000\375\000\011"
 189      60646062 
 189      C00E40E2 
 189      8C102600 
 189      00FD0009 
 190              		.text
 191              		.section	.gnu.lto_.decls.9de4c9003f0a5b60,"",%progbits
 192 0000 789CAD5A 		.ascii	"x\234\255Zmp\024E\032\236\236\311\356f\011\004\304\303"
 192      6D701445 
 192      1A9E9EC9 
 192      EE660904 
 192      C4C3
 193 0012 CA795A44 		.ascii	"\312yZDK\256\320\022\226\020>\313\223\202\013\226pe"
 193      4BAED012 
 193      96103ECB 
 193      93820B96 
 193      7065
 194 0024 D45AB82B 		.ascii	"\324Z\270+\377l\255\313f!{\227\315\256\263\223\000\377"
 194      FF6CADCB 
 194      66217B97 
 194      CDAEB393 
 194      00FF
 195 0036 D6209C22 		.ascii	"\326 \234\"P\300\225\362)D\020\011\312\005Q\021\020"
 195      50C095F2 
 195      29441009 
 195      CA055111 
 195      10
 196 0047 50C48801 		.ascii	"P\304\210\001\003\022\214\"\032\274\350\345\242\222"
 196      03128C22 
 196      1ABCE8E5 
 196      A292
 197 0055 C889C63A 		.ascii	"\310\211\306:\220`\356\355\236\231\236\236\331\231\235"
 197      9060EEED 
 197      9E999E9E 
 197      D9999D
 198 0064 9D8D53DB 		.ascii	"\235\215S\333\275\363\321\357\323\317\373\321\357t\317"
 198      BDF3D1EF 
 198      D3CFFBD1 
 198      EF74CF
 199 0073 0CCF210E 		.ascii	"\014\317!\016o\355\360\327\017\333\265R\216\273\335"
 199      6FEDF0D7 
 199      0FDBB552 
 199      8EBBDD
 200 0082 C5717970 		.ascii	"\305qyp\356^(\370j='on(;\241\274\014\345,\224O\261\034"
 200      EE5E28F8 
ARM GAS  /tmp/ccW1kXgu.s 			page 15


 200      6A3D276F 
 200      6E283BA1 
 200      BC0CE52C 
 201 009a 942F9476 		.ascii	"\224/\224v\035\234~\303m\275P\032\241\024B\031\014e"
 201      1D9C7EC3 
 201      6DBD501A 
 201      A1144219 
 201      0C65
 202 00ac 1934FC12 		.ascii	"\0314\374\022\376\327\301\377z$c\013P\240Kn)\034\257"
 202      FED7C1FF 
 202      7A24630B 
 202      50A04B6E 
 202      291CAF
 203 00bf 80F23494 		.ascii	"\200\3624\224\225PV!\031w\247\005>\3461\\\221W\361\033"
 203      95505621 
 203      1977A705 
 203      3EE6315C 
 203      9157F11B 
 204 00d3 15BE1E28 		.ascii	"\025\276\036(\207\241L\203\262\307\320\357\006(\033"
 204      87A14C83 
 204      B2C7D0EF 
 204      06281B
 205 00e2 A1B4281C 		.ascii	"\241\264(\034NA9\017\327\006Ay\027\312!\205\013\346"
 205      4E41390F 
 205      D7064179 
 205      17CA2185 
 205      0BE6
 206 00f4 B157E171 		.ascii	"\261W\341q\020\316\355\203\262\237\223\271\011J\377"
 206      10CEED83 
 206      B29F93B9 
 206      094AFF
 207 0103 ED8A1D78 		.ascii	"\355\212\035x(\247Q:Gl\247a\006\033\010\012\247z\205"
 207      28A7513A 
 207      476CA761 
 207      061B080A 
 207      A77A85
 208 0116 E33B2676 		.ascii	"\343;&vi\203\322\300i\334\362\225\376\017*\034T\216"
 208      6983D2C0 
 208      69DCF295 
 208      FE0F2A1C 
 208      548E
 209 0128 2B159EAB 		.ascii	"+\025\236\253\024Ng\025\177\250\234>6\341\344\345\236"
 209      144E6715 
 209      7FA89C3E 
 209      36E1E4E5 
 209      9E
 210 0139 4CA5EA52 		.ascii	"L\245\352R\251e\251\321\015\300\351\267\\\000\025z1"
 210      A965A9D1 
 210      0DC0E9B7 
 210      5C00157A 
 210      31
 211 014a 4DBC37D8 		.ascii	"M\2747\330+\013\216\342^H\245V\247R)\024@\365\310\013"
 211      2B0B8EE2 
 211      5E48A556 
 211      A7522914 
 211      40F5C80B 
 212 015e E778C4DD 		.ascii	"\347x\304\335\305\355J\221M\016\032%v@\251\306\015\037"
ARM GAS  /tmp/ccW1kXgu.s 			page 16


 212      C5ED4A91 
 212      4D0E1A25 
 212      7640A9C6 
 212      0D1F
 213 0170 B5F139A2 		.ascii	"\265\3619\242\277@\320\247\"\270\274\035\335\305\275"
 213      BF40D0A7 
 213      22B8BC1D 
 213      DDC5BD
 214 017f B4E2C27B 		.ascii	"\264\342\302{\202\014\025@\202\227%N\216\345V2\260|"
 214      820C1540 
 214      8297254E 
 214      8EE55632 
 214      B07C
 215 0191 59DDEBEF 		.ascii	"Y\335\353\357\0278\247\315Gr[R\365\035\253\227\244f"
 215      1738A7CD 
 215      47725B52 
 215      F51DAB97 
 215      A466
 216 01a3 5DE9EFF7 		.ascii	"]\351\357\367\334\304=\203\265\253_\006\304\244\000"
 216      DCC43D83 
 216      B5AB5F06 
 216      C4A400
 217 01b2 BA7704A5 		.ascii	"\272w\004\245_L\351\347)\330\015\350&eo\256\322-\317"
 217      5F4CE9E7 
 217      29D80DE8 
 217      26656FAE 
 217      D22DCF
 218 01c5 ED47AA16 		.ascii	"\355G\252\026\3336_\237\250\362\370=\267\003\243\036"
 218      DB365F9F 
 218      A8F2F83D 
 218      B703A31E 
 219 01d5 AD2B2290 		.ascii	"\255+\"\220Xd'\032i\240\272\013\361\354\011\314\253"
 219      5864271A 
 219      69A0BA0B 
 219      F1EC09CC 
 219      AB
 220 01e6 E3FB5C78 		.ascii	"\343\373\\x\355Vx\011\304\320\\\001\267\034\273\003"
 220      ED567809 
 220      C4D05C01 
 220      B71CBB03 
 221 01f6 44673517 		.ascii	"Dg5\027\016\347\326`\234\342f\3061\365\210B\374\306"
 221      0EE7D660 
 221      9CE266C6 
 221      31F58842 
 221      FCC6
 222 0208 E0993D68 		.ascii	"\340\231=h8\200|N\225\272\264e\357\331i2\277,\220xn"
 222      38807C4E 
 222      95BAB465 
 222      EFD96932 
 222      BF2C9078 
 223 021d 058F255F 		.ascii	"\005\217%_\005\024Y\236`\247dl|\226S\316\367\235\230"
 223      0514599E 
 223      60A7646C 
 223      7C9653CE 
 223      F79D98
 224 0230 C7A56FAE 		.ascii	"\307\245o\256\333\270z\240\216m\340\016\240FT\000\210"
 224      DBB87AA0 
ARM GAS  /tmp/ccW1kXgu.s 			page 17


 224      8E6DE00E 
 224      A0465400 
 224      88
 225 0241 1B2962D3 		.ascii	"\033)b\323\311\213\310\334\010\352\276\274\251m\224"
 225      C98BC8DC 
 225      08EABEBC 
 225      A96D94
 226 0250 CD04731B 		.ascii	"\315\004s\033\305l\371\223\023\304b\0261\265$5\332\255"
 226      C56CF993 
 226      13C46216 
 226      31B52435 
 226      DAAD
 227 0262 8E949728 		.ascii	"\216\224\227(b\333\311.d>\002\324\375|\033\226:\377"
 227      62DBC92E 
 227      643E02D4 
 227      FD7C1B96 
 227      3AFF
 228 0274 39898323 		.ascii	"9\211\203#\3728\010\240i\005\034\322\202\325B\222u\377"
 228      FA3808A0 
 228      69051CD2 
 228      82D54292 
 228      75FF
 229 0286 61629ED7 		.ascii	"ab\236\327x\325\375\355\315\333\224\001\257#%weM\344"
 229      78D5FDED 
 229      CDDB9401 
 229      AF232577 
 229      654DE4
 230 0299 1D805147 		.ascii	"\035\200QG\241~K\273\306s\207\251\351\332\031\323\231"
 230      A17E4BBB 
 230      C67387A9 
 230      E9DA19D3 
 230      99
 231 02aa BB23DFA0 		.ascii	"\273#\337\240G\272\203\247a\005\232(d\217m\314\0143"
 231      47BA83A7 
 231      61059A28 
 231      648F6DCC 
 231      0C33
 232 02bc F346FAC6 		.ascii	"\363F\372\306\006u\000\275\216Fq\256\000\332\207n\203"
 232      067500BD 
 232      8E4671AE 
 232      00DA876E 
 232      83
 233 02cd 83FDA43E 		.ascii	"\203\375\244>H\352C\244~\027\352\2146\307x8\024\225"
 233      48EA43A4 
 233      7E17EA8C 
 233      36C77838 
 233      1495
 234 02df 2D8F7A0C 		.ascii	"-\217z\014G\023\343\300\303\244\015\353O6\373\300\351"
 234      4713E3C0 
 234      C3A40DEB 
 234      4F36FBC0 
 234      E9
 235 02f0 0F782DFD 		.ascii	"\017x-\375\364\037w\313\247\357\340\266\247Rk\261A\324"
 235      F41F77CB 
 235      A7EFE0B6 
 235      A7526BB1 
 235      41D4
ARM GAS  /tmp/ccW1kXgu.s 			page 18


 236 0302 80FF8434 		.ascii	"\200\377\2044{\031RP\203\327\234\221 \013\341\240Vc"
 236      7B195250 
 236      83D79C91 
 236      200BE1A0 
 236      5663
 237 0314 FA332AB4 		.ascii	"\3723*\264~\210yD\253\204\331\016\345\020\352\240\262"
 237      7E887944 
 237      AB84D90E 
 237      E510EAA0 
 237      B2
 238 0325 4D9BAD3C 		.ascii	"M\233\255<\240\352\307J\023\367}M\205\237,\260\024\305"
 238      A0EAC74A 
 238      13F77D4D 
 238      859F2CB0 
 238      14C5
 239 0337 B6508C68 		.ascii	"\266P\214h\222m\261p\337\246\233u\016l\376\265\362\355"
 239      926DB170 
 239      DFA69B75 
 239      0E6CFEB5 
 239      F2ED
 240 0349 47C67186 		.ascii	"G\306q\206Y \235_\272\251_\232\3566wJ\000\235\004>\001"
 240      59209D5F 
 240      BAA95F9A 
 240      EE36774A 
 240      009D043E 
 241 035e 74169836 		.ascii	"t\026\2306[8%\203\202X\254R\247\336\307&\352\255^\275"
 241      5B382583 
 241      8258AC52 
 241      A7DEC726 
 241      EAAD5EBD 
 242 0372 A4DEB17A 		.ascii	"\244\336\261z\347\215\352a\037\353\325\273B\325k|\375"
 242      E78DEA61 
 242      1FEBD5BB 
 242      42D56B7C 
 242      FD
 243 0383 DAF122FD 		.ascii	"\332\361\"\375@\371<\023\021\031\236\347\236\027h\216"
 243      40F93C13 
 243      11199EE7 
 243      9E17688E 
 244 0393 F99D5EFC 		.ascii	"\371\235^\374Bf\361\006\"\336H\305;\015\342\377\322"
 244      4266F106 
 244      22DE48C5 
 244      3B0DE2FF 
 244      D2
 245 03a4 8BDFCE3D 		.ascii	"\213\337\316=\217\305S\365\263R\035\375\375#\315nb\035"
 245      8FC553F5 
 245      B3521DFD 
 245      FD23CD6E 
 245      621D
 246 03b6 3C3501F6 		.ascii	"<5\001\366\025\233\017\277$\267\3037\005\355v\270\351"
 246      159B0FBF 
 246      24B7C337 
 246      05ED76B8 
 246      E9
 247 03c7 9C62852C 		.ascii	"\234b\205,\220x\3568\221\3544\275\035v2\267\303\336"
 247      9078EE38 
 247      91EC34BD 
ARM GAS  /tmp/ccW1kXgu.s 			page 19


 247      1D7632B7 
 247      C3DE
 248 03d9 D36A9ED5 		.ascii	"\323j\236\325m\002Im\230\314,\267i\177\332\355\367\026"
 248      6D02496D 
 248      98CC2CB7 
 248      697FDAED 
 248      F716
 249 03eb 03F36F08 		.ascii	"\003\363o\010\3633\224y\313\226\302\014\274\3658\230"
 249      F3339479 
 249      CB96C20C 
 249      BCF53898 
 250 03fb 55B729E7 		.ascii	"U\267)\347n\206s\347\346\371&\224\335\351\224\353\247"
 250      6E8673E7 
 250      E6F92694 
 250      DDE994EB 
 250      A7
 251 040c B37D4DD7 		.ascii	"\263}M\327%s\226\362%B\371\002\245\334\273QO9\023\016"
 251      257396F2 
 251      2542F902 
 251      A5DCBB51 
 251      4F39130E 
 252 0420 2675D994 		.ascii	"&u\331\224\362e\206r\373F3\312\274\325\275\327t\306"
 252      F2658672 
 252      FB4633CA 
 252      BCD5BDD7 
 252      74C6
 253 0432 9347FB9D 		.ascii	"\223G\373\235I\\\374\035\341\373\223i\337?1}\267l5\233"
 253      495CFC1D 
 253      E1FB9369 
 253      DF3F317D 
 253      B76C359B 
 254 0446 F10CD7DD 		.ascii	"\361\014\327\335\274zI\356\354\245\210m[\007>\343\221"
 254      BC7A49EE 
 254      ECA5886D 
 254      5B073EE3 
 254      91
 255 0457 31AF51CC 		.ascii	"1\257Q\314\316\2219\317x\010\2422\331\227-\224\315\234"
 255      CE9139CF 
 255      7808A232 
 255      D9972D94 
 255      CD9C
 256 0469 E23AB999 		.ascii	"\342:\271\231\324\345\251n\275\330\264\367\353O=2\256"
 256      D4E5A96E 
 256      BDD8B4F7 
 256      EB4F3D32 
 256      AE
 257 047a 63B0148F 		.ascii	"c\260\024\217\301\336\316\323\226\016\255\307}\234\022"
 257      C1DECED3 
 257      960EADC7 
 257      7D9C12
 258 0489 001EC3D2 		.ascii	"\000\036\303\322\301\243_\013x\350Z\300\343\225\227"
 258      C1A35F0B 
 258      78E85AC0 
 258      E39597
 259 0498 BE4339E7 		.ascii	"\276C9\347\002<\327\234\247\332\362\322\226\353\357"
 259      023CD79C 
 259      A7DAF2D2 
ARM GAS  /tmp/ccW1kXgu.s 			page 20


 259      96EBEF
 260 04a7 4F753263 		.ascii	"Ou2ca\035\224\"\346Tc\333m\255?\317}Hz\\\312\233\305"
 260      611D9422 
 260      E65463DB 
 260      6DAD3FCF 
 260      7D487A5C 
 261 04be 183EABC6 		.ascii	"\030>\253\306X\343\301\013Mfy\0049\212p-\211\335Az?"
 261      58E3C10B 
 261      4D667904 
 261      398A702D 
 261      89DD417A 
 262 04d3 477A5F6E 		.ascii	"Gz_n\332\373r\266\367\323{\257\231\365\356\265\352="
 262      DAFB72B6 
 262      F7D37BAF 
 262      99F5EEB5 
 262      EA3D
 263 04e5 C37D88F5 		.ascii	"\303}\210\365\371*\036G\360J\027\275\345\\\375\250\017"
 263      F92A1E47 
 263      F04A17BD 
 263      E55CFDA8 
 263      0F
 264 04f6 A92E9B56 		.ascii	"\251.\233V\300vE\216u\263\313g]*\371\306\323k^\334\350"
 264      C076458E 
 264      75B3CB67 
 264      5D2AF9C6 
 264      D36B5EDC 
 265 050b 1AE87092 		.ascii	"\032\350p\222\311l\240\250-\263\0076\234T\304\315\024"
 265      C96CA0A8 
 265      2DB30736 
 265      9C54C4CD 
 265      14
 266 051c B1CD06D1 		.ascii	"\261\315\006\321n\371\240\"n\245\210\355\216\020\255"
 266      6EF9A022 
 266      6EA588ED 
 266      8E10AD
 267 052b 396EA388 		.ascii	"9n\243\210\2356\210\246\223j\023\304\035\024\261\307"
 267      9D3688A6 
 267      936A13C4 
 267      1D14B1C7 
 268 053b 11A235C7 		.ascii	"\021\2425\307\006\212\330k\203X\224%\307\335\024\261"
 268      068AD86B 
 268      83589425 
 268      C7DD14B1 
 269 054b CF11A235 		.ascii	"\317\021\2425\307W(b\223\315\362\263\330\214cZL\031"
 269      C7572862 
 269      93CDF2B3 
 269      D88C635A 
 269      4C19
 270 055d 27704FF1 		.ascii	"'pO\361tP\300b\316\245\346\216\306\023\027\372\370\034"
 270      7450C062 
 270      CEA5E68E 
 270      C61317FA 
 270      F81C
 271 056f E29F42ED 		.ascii	"\342\237B\355wi\211\257\337Y\34233\206|g:BA[\032rZ\253"
 271      776989AF 
 271      DF59E233 
 271      33867C67 
ARM GAS  /tmp/ccW1kXgu.s 			page 21


 271      3A42415B 
 272 0587 9960BE47 		.ascii	"\231`\276G1\333F\017,\254t\371J\271[u\3548Z\264\236"
 272      31DB460F 
 272      2CAC74F9 
 272      4AB95B75 
 272      EC385AB4 
 273 059c 4998F914 		.ascii	"I\230\371\024\015g%-;\322\346\251\242\"\253\326\260"
 273      0D67252D 
 273      3BD2E6A9 
 273      A222ABD6 
 273      B0
 274 05ad 52E14741 		.ascii	"R\341GA\275\233\367R&\312>\335\355G\330\370\247\\\270"
 274      BD9BF752 
 274      26CA3EDD 
 274      ED47D8F8 
 274      A75CB8
 275 05c0 BD597EB5 		.ascii	"\275Y~\265\227\266\016\225]l\250\234\325\\qg\316c\347"
 275      97B60E95 
 275      5D6CA89C 
 275      D55C7167 
 275      CE63E7
 276 05d3 FBBA5491 		.ascii	"\373\272T\221\233Q\335\306RJ\216\177\205\334\327\317"
 276      9B51DDC6 
 276      524A8E7F 
 276      85DCD7CF 
 277 05e3 BBB44942 		.ascii	"\273\264IBk\227a\222\220=\330k\004\354+\2276I\330w\235"
 277      6B976192 
 277      903DD86B 
 277      04EC2B97 
 277      3649D877 
 278 05f8 576D850C 		.ascii	"Wm\205\014\223\004\244\277\347#j=\244\030\317Yk\236"
 278      9304A4BF 
 278      E7236A3D 
 278      A418CF59 
 278      6B9E
 279 060a BBC88C92 		.ascii	"\273\310\214\222\363'\247\232\323\315\"e\344f\310\003"
 279      F327A79A 
 279      D3CD2265 
 279      E466C803 
 280 061a 44F71F18 		.ascii	"D\367\037\030C\356\245\206\224-\343T\237\237\031}.;"
 280      43EEA586 
 280      942DE354 
 280      9F9F197D 
 280      2E3B
 281 062c D367F4C0 		.ascii	"\323g\364\300\3659B\364\251sk\372\\\036\240>\313\335"
 281      F53942F4 
 281      A9736BFA 
 281      5C1EA03E 
 281      CBDD
 282 063e 9A3ED79C 		.ascii	"\232>\327\234\3513\216\321G\236\276\335\310\255\265"
 282      E9338ED1 
 282      479EBEDD 
 282      C8ADB5
 283 064d 9BBE615A 		.ascii	"\233\276aZ\307\370\033\271\364\311\023>K\227\007\215"
 283      C7F81BB9 
 283      F4C9133E 
 283      4B97078D 
ARM GAS  /tmp/ccW1kXgu.s 			page 22


 284 065d 855CFA96 		.ascii	"\205\\\372\226\307tEL\227r0W~\217\230n\015c\272V\375"
 284      C774454C 
 284      97723057 
 284      7E8F986E 
 284      0D63BA56 
 285 0672 C4DB0958 		.ascii	"\304\333\011X3\001[\347\326\306\324\333\307\307\250"
 285      33015BE7 
 285      D6C6D4DB 
 285      C7C7A8
 286 0681 56771BBC 		.ascii	"Vw\033\274\340\326{\001_\306\275]\301Sh\324\257nH\275"
 286      E0D67B01 
 286      5FC6BD5D 
 286      C15368D4 
 286      AF6E48BD 
 287 0695 860F3CDC 		.ascii	"\206\017<\334\257\001\001\263\036\302\020[\026\242\365"
 287      AF0101B3 
 287      1EC2105B 
 287      16A2F5
 288 06a4 039B7B14 		.ascii	"\003\233{\024\247\363.\227\346]\325\206/R\320>\337@"
 288      A7F32E97 
 288      E65DD586 
 288      2F52D03E 
 288      DF40
 289 06b6 2790E409 		.ascii	"'\220\344\011\327\036\012\330{`\240K<\307k\250V\242"
 289      D71E0AD8 
 289      7B60A04B 
 289      3CC76BA8 
 289      56A2
 290 06c8 D31B4C5C 		.ascii	"\323\033L\\\254\271\250\015\251\224qHe\267(:\306\330"
 290      ACB9A80D 
 290      A9947148 
 290      65B7283A 
 290      C6D8
 291 06da FDD0E95C 		.ascii	"\375\320\351\\\354\256l<w\202\016\320>\033\234b\033"
 291      ECAE6C3C 
 291      77820ED0 
 291      3E1B9C62 
 291      1B
 292 06eb FF65B1B8 		.ascii	"\377e\261\270b\015s\216\307\017 NQ\303\364l2<\200\260"
 292      620D738E 
 292      C70F204E 
 292      51C3F46C 
 292      323C80B0 
 293 06ff 19E59F99 		.ascii	"\031\345\237\231.\221>c\226H\355\233\314\036@\240\264"
 293      2E913E63 
 293      9648ED9B 
 293      CC1E40A0 
 293      B4
 294 0710 294C005D 		.ascii	")L\000]%\017\007\261l\347\246\234\"$}c\011\006\320\347"
 294      250F07B1 
 294      6CE7A69C 
 294      22247D63 
 294      0906D0E7 
 295 0724 30EF0076 		.ascii	"0\357\000v\355<}T\315s\355\324\362\235o\332=\212\327"
 295      ED3C7D54 
 295      CD73EDD4 
 295      F29D6FDA 
ARM GAS  /tmp/ccW1kXgu.s 			page 23


 295      3D8AD7
 296 0737 DBBE5867 		.ascii	"\333\276Xg\373\024QD~\236\323E1\333\356Q[O\327\315\022"
 296      FB145144 
 296      7E9ED345 
 296      31DBEE51 
 296      5B4FD7CD 
 297 074c D5FDD136 		.ascii	"\325\375\3216\336TG\343e\212\330{Of\216\343,\021Uc\313"
 297      DE5447E3 
 297      658AD87B 
 297      4F668EE3 
 297      2C115563 
 298 0761 63E17F9A 		.ascii	"c\341\177\232\336\177p\202X\234\206h\273\272Ni\217\332"
 298      DE7F7082 
 298      589C8668 
 298      BBBA4E69 
 298      8FDA
 299 0773 86119BD7 		.ascii	"\206\021\233\327yp\337]\246\241\323\305\204\316W\275"
 299      7970DF5D 
 299      A6A1D3C5 
 299      84CE57BD 
 300 0783 AD5FE81E 		.ascii	"\255_\350\036\264*\233`b\363\006\212\331\276\2770\263"
 300      B42A9B60 
 300      62F3068A 
 300      D9BEBF30 
 300      B3
 301 0794 D14D63C7 		.ascii	"\321Mc\307dJ\375\012\205\3549W\230\331F\216\336oea#"
 301      644AFD0A 
 301      85EC3957 
 301      98D9468E 
 301      DE6F6561 
 302 07a9 7688FE97 		.ascii	"v\210\376\227\014\321\003\036:D?)P\203[6\026\023\355"
 302      0CD1031E 
 302      3A443F29 
 302      50835B36 
 302      1613ED
 303 07bc 5D4CB47F 		.ascii	"]L\264\177\003\321.\004\320\267<~=\323M\352\357\264"
 303      03D12E04 
 303      D0B73C7E 
 303      3DD34DEA 
 303      EFB4
 304 07ce C8B7     		.ascii	"\310\267"
 305 07d0 1ED297D8 		.ascii	"\036\322\227\330\371\361Qj\203>g6(\326y\314\272\267"
 305      F9F1516A 
 305      833E6736 
 305      28D679CC 
 305      BAB7
 306 07e2 FFB0BDBD 		.ascii	"\377\260\275\275\357\321\346)\373\207f\356n\212\255"
 306      EFD1E629 
 306      FB8766EE 
 306      6E8AAD
 307 07f1 17E5A770 		.ascii	"\027\345\247p\255\024\263\357\210\335\000\237b \233"
 307      AD14B3EF 
 307      88DD009F 
 307      62209B
 308 0800 8E496E65 		.ascii	"\216Ine\355\024\262\347-\273D5\335\214\246\255Uz\365"
 308      ED14B2E7 
 308      2DBB4435 
ARM GAS  /tmp/ccW1kXgu.s 			page 24


 308      DD8CA6AD 
 308      557AF5
 309 0813 6F0CD5DC 		.ascii	"o\014\325\334\210\037\354v\336<\320\333\261\014~\215"
 309      881FEC76 
 309      DE3CD0DB 
 309      B10C7E8D 
 310 0823 22F63842 		.ascii	"\"\3668B\324;\226\331\330\247\321\001\364\003\032\305"
 310      D43B96D9 
 310      D8A7D101 
 310      F4031AC5 
 311 0833 F101F423 		.ascii	"\361\001\364#y9x\205\315\270\235\304z\370\261z\317f"
 311      79397885 
 311      CDB89DC4 
 311      7AF8B17A 
 311      CF66
 312 0845 CD21B90E 		.ascii	"\315!\271\016U\331\311=\024\263\367\226\\G\252\232q"
 312      55D9C93D 
 312      14B3F796 
 312      5C47AA9A 
 312      71
 313 0856 9792F1F6 		.ascii	"\227\222\361\366#El\2725\207\2707I'W)b\373s\277\326"
 313      23456CBA 
 313      3587B837 
 313      49275729 
 313      62FB73BF 
 314 086b AAFFF17C 		.ascii	"\252\377\361|\025\263\323\206\245\375\303$\031\361)"
 314      15B3D386 
 314      A5FDC324 
 314      19F129
 315 087a 8AD86783 		.ascii	"\212\330g\203h\272 6\013\213n&,z ,\240\257\357HX\374"
 315      68BA2036 
 315      0B8B6E26 
 315      2C7A202C 
 315      A0AFEF48 
 316 0890 4C92521F 		.ascii	"L\222R\037\251\177!uJ\300u\235\300\204\313?\362\325"
 316      A97F2175 
 316      4AC0759D 
 316      C084CB3F 
 316      F2D5
 317 08a2 F7496D1F 		.ascii	"\367Im\037j\341bx}\223\315\354\326\352\215\322\243T"
 317      6AE16278 
 317      7D93CDEC 
 317      D6EA8DD2 
 317      A354
 318 08b4 1A7FB6C4 		.ascii	"\032\177\266\304f\336e\002\216\204\015\371j\346\355"
 318      66DE6502 
 318      8E840DF9 
 318      6AE6ED
 319 08c3 3B95E185 		.ascii	";\225\341\205\222\036\206<\223\022\314np\370,\375$\344"
 319      921E863C 
 319      9312CC6E 
 319      70F82CFD 
 319      24E4
 320 08d5 03B3B951 		.ascii	"\003\263\271Q^\332\347\033\001\364\006\031\255X\266"
 320      5EDAE71B 
 320      01F40619 
 320      AD58B6
ARM GAS  /tmp/ccW1kXgu.s 			page 25


 321 08e4 A9E5D7F9 		.ascii	"\251\345\327\371$\004\326\315\024\263\355\201\0342@"
 321      2404D6CD 
 321      14B3ED81 
 321      1C3240
 322 08f3 DA272101 		.ascii	"\332'!\001\364&E\354l\031\300'!\272\317L\366\020\363"
 322      F42645EC 
 322      6C19C027 
 322      21BACF4C 
 322      F610F3
 323 0906 13CC7227 		.ascii	"\023\314r'\210\303\254\003RsL\000-\027Fqy\001\3644\011"
 323      88C3AC03 
 323      52734C00 
 323      2D174671 
 323      7901F434 
 324 091b BC15A45E 		.ascii	"\274\025\244^I\352Ul\020\036\242A\330\373\220\271\303"
 324      49EA556C 
 324      101EA241 
 324      D8FB90B9 
 324      C3
 325 092c CD4785CE 		.ascii	"\315G\205\316T\271-]\326\012\330\012\307h\020\302\222"
 325      54B92D5D 
 325      D60AD80A 
 325      C76810C2 
 325      92
 326 093d F6DF035E 		.ascii	"\366\337\003^\272\234\244\372\\\332\262\356\023\233"
 326      BA9CA4FA 
 326      5CDAB2EE 
 326      139B
 327 094b 2587E924 		.ascii	"%\207\351$\325\314\256\235\314@\357Bd\366\3615\031\350"
 327      D5CCAE9D 
 327      CC40EF42 
 327      64F6F135 
 327      19E8
 328 095d 4B8945D7 		.ascii	"K\211E\327\260\026\275@\025j\371\366UmX\353\337&c\320"
 328      B016BD40 
 328      156AF9F6 
 328      556D58EB 
 328      DF2663D0 
 329 0971 6705FA72 		.ascii	"g\005\372r\333\360&\005\277\251\266\276\205\256\023"
 329      DBF02605 
 329      BFA9B6BE 
 329      85AE13
 330 0980 0A2CE4F0 		.ascii	"\012,\344\360\260\266\226[\257\311\021_-\261\361U\000"
 330      B0B6965B 
 330      AFC9115F 
 330      2DB1F155 
 330      00
 331 0991 3D4E1E67 		.ascii	"=N\036gfcx\323\231\237\233\302=jp\375F\222\177:\250"
 331      666378D3 
 331      999F9BC2 
 331      3D6A70FD 
 331      46927F3A 
 332 09a6 A57E38BD 		.ascii	"\245~8\275\366\320=2\265,\2200\265\347LS\320sL\012\352"
 332      F6D03D32 
 332      B52C9030 
 332      B5E74C53 
 332      D0734C0A 
ARM GAS  /tmp/ccW1kXgu.s 			page 26


 333 09bb ED364B41 		.ascii	"\3556KA#p\304>\261DI\027\033H\010n\365\"\005\261\257"
 333      2370C43E 
 333      B1444917 
 333      1B48086E 
 333      F52205B1 
 334 09d0 DB6E22C5 		.ascii	"\333n\"\305\231\205\214\011\346v\212\331T\225c\0122"
 334      99858C09 
 334      E6768AD9 
 334      5495630A 
 334      32
 335 09e1 20EEA488 		.ascii	" \356\244\210-6\210\226\011\310\200\270\233\"\2669B"
 335      2D368896 
 335      09C880B8 
 335      9B22B639 
 335      42
 336 09f2 B4E6B897 		.ascii	"\264\346\270\227\"\266\333 Z\316\003\014\210\257S\304"
 336      22B6DB20 
 336      5ACE030C 
 336      88AF53C4 
 337 0a02 4E4788D6 		.ascii	"NG\210\326\034\017P\304\036\033D\313\007\343\006\304"
 337      1C0F50C4 
 337      1E1B44CB 
 337      07E306C4 
 338 0a12 B72862AF 		.ascii	"\267(b\257#Dk\216MZD\332 \026g\311\361\204\026\2171"
 338      23446B8E 
 338      4D5A44DA 
 338      201667C9 
 338      F184168F 
 339 0a27 2788D61C 		.ascii	"'\210\326\034Oi\361h\203h\371,\300\200\330\252\305\243"
 339      4F69F168 
 339      8368F92C 
 339      C080D8AA 
 339      C5A3
 340 0a39 23446B8E 		.ascii	"#Dk\216\037k\361h\203h\371t\341\211\307\311\374\352"
 340      1F6BF168 
 340      8368F974 
 340      E189C7C9 
 340      FCEA
 341 0a4b 066EB592 		.ascii	"\006n\265\222\226dl\232\232\220!\000\331\206\370\036"
 341      96646C9A 
 341      9A902100 
 341      D986F81E 
 342 0a5b 66D93080 		.ascii	"f\3310\200\016\0117\220=\335\363[\322\304:\211\037V"
 342      0E093790 
 342      3DDDF35B 
 342      D2C43A89 
 342      1F56
 343 0a6d 3EA9D6B2 		.ascii	">\251\326\262\207\272\307~<\255\265\303/b\264!\024\263"
 343      87BAC77E 
 343      3CADB5C3 
 343      2F62B421 
 343      14B3
 344 0a7f 60636E05 		.ascii	"`cn\005k\273^\320\306\220\215]\247g\211\370\2256\206"
 344      6BBB5ED0 
 344      C6908D5D 
 344      A76789F8 
 344      953686
ARM GAS  /tmp/ccW1kXgu.s 			page 27


 345 0a92 6C106765 		.ascii	"l\020ge\031M]\332\030r\204h\315\261[\033C\325\231\021"
 345      194D5DDA 
 345      18728468 
 345      CDB15B1B 
 345      43D59911 
 346 0aa6 1FCE92E3 		.ascii	"\037\316\222\343%m\0149B\264\346\330\253\215!\033\304"
 346      256D0C39 
 346      42B4E6D8 
 346      AB8D211B 
 346      C4
 347 0ab7 47B2E478 		.ascii	"G\262\344xU\033C\216\020\2139\213\215\275y\007\320\026"
 347      551B438E 
 347      108B398B 
 347      8DBD7907 
 347      D016
 348 0ac9 98A68E08 		.ascii	"\230\246\216\010\240\255d\"\365<\251\267\223z\007\251"
 348      A0AD6422 
 348      F53CA9B7 
 348      937A07A9 
 349 0ad9 77927A17 		.ascii	"w\222z\027\251_&\365?I\275\207\324{I\375\032\251\367"
 349      A95F26F5 
 349      3F49BD87 
 349      D47B49FD 
 349      1AA9F7
 350 0aec 917A3FA9 		.ascii	"\221z?\251\017\222\372-R\037%\3651R7\221\3728\251\233"
 350      0F92FA2D 
 350      521F25F5 
 350      31523791 
 350      FA38A99B 
 351 0b00 497D529B 		.ascii	"I}R\233\272\031&S\0333N\246Z,'a\3473~M}J\223\303_3\236"
 351      BA192653 
 351      1B334EA6 
 351      5A2C2761 
 351      E7337E4D 
 352 0b1b 39B33A55 		.ascii	"9\263:UWT\207\277fT\023\307z\300x\211I\034\217P\014"
 352      575487BF 
 352      665413C7 
 352      7AC07889 
 352      491C8F50 
 353 0b30 59926DB7 		.ascii	"Y\222m\267;C\273\000:\223C~i\265\314/\203t.l\325\362"
 353      3B43BB00 
 353      3A93437E 
 353      69B5CC2F 
 353      83742E6C 
 354 0b46 CB2F5EF5 		.ascii	"\313/^\365\013\337m\2337\274/X\361\341\271\277\017B"
 354      0BDF6D9B 
 354      37BC2F58 
 354      F1E1B9BF 
 354      0F42
 355 0b58 8A34DE31 		.ascii	"\2124\3361\230\255!\243\331\332\034\233\255\222b\014"
 355      98AD21A3 
 355      D9DA1C9B 
 355      AD92620C 
 356 0b68 C9683663 		.ascii	"\311h6c\273\000:\227\203\331>\2654\333`\235\331\324"
 356      BB003A97 
 356      83D93EB5 
 356      34DB609D 
ARM GAS  /tmp/ccW1kXgu.s 			page 28


 356      D9D4
 357 0b7a 76B07B56 		.ascii	"v\260{VP\277\030n\277\333\212\014\317=\243\263\031\347"
 357      50BF186E 
 357      BFDB8A0C 
 357      CF3DA3B3 
 357      19E7
 358 0b8c 4D2E4E4A 		.ascii	"M.NJ\321X$(\271\357\177\360\317\305e\334\250\261c}\362"
 358      D1582428 
 358      B9EF7FF0 
 358      CFC565DC 
 358      A8B1637D 
 359 0ba1 2F9EF489 		.ascii	"/\236\364\211\222/\021\027\245\244o\206\277\274\254"
 359      922F1117 
 359      A5A46F86 
 359      BFBCAC
 360 0bb0 7C912F5C 		.ascii	"|\221/\\\031\216\213\221\261\225\\~M\264Z*\231\024\224"
 360      198E8B91 
 360      B1955C7E 
 360      4DB45A2A 
 360      991494
 361 0bc3 245F3C21 		.ascii	"$_<!\341\313\276\005\341\360\230\220\030\033S\035\257"
 361      E1CBBE05 
 361      E1F09890 
 361      181B531D 
 361      AF
 362 0bd4 8E8C8984 		.ascii	"\216\214\211\204\346E\307L\010N\0363~\\I\351c\245\276"
 362      E645C74C 
 362      084E1E33 
 362      7E5C49E9 
 362      63A5BE
 363 0be7 79D16A0C 		.ascii	"y\321j\014Y\025\235\207\333\371t\355|\023\306N\036;"
 363      59159D87 
 363      DBF974ED 
 363      7C13C64E 
 363      1E3B
 364 0bf9 C147FB85 		.ascii	"\301G\373\205\237\376z\264:\\US\021\361%\245\012\350"
 364      9FFE7AB4 
 364      3A5C5553 
 364      11F125A5 
 364      0AE8
 365 0c0b 15F71EAC 		.ascii	"\025\367\036\254\225\202\321\352\250t\263\201lR\014"
 365      9582D1EA 
 365      A874B381 
 365      6C520C
 366 0c1a 03C75A69 		.ascii	"\003\307Zil\230\033Z\033\025\245\232PU\020k'\006\245"
 366      6C981B5A 
 366      1B15A59A 
 366      5055106B 
 366      2706A5
 367 0c2d 62435315 		.ascii	"bCS\0254\\\231\014WV\000\350\020\235\200\007z\250\216"
 367      345C990C 
 367      575600E8 
 367      109D8007 
 367      7AA88E
 368 0c40 2C92F07F 		.ascii	",\222\360\177B\214\324\346\303\177E\244J\012\301\316"
 368      428CD4E6 
 368      C37F45A4 
ARM GAS  /tmp/ccW1kXgu.s 			page 29


 368      4A0AC1CE 
 369 0c50 FC9AEA70 		.ascii	"\374\232\352p\220\\\301{n\334\"$\016\012W\376e\356\314"
 369      905CC17B 
 369      6EDC2224 
 369      0E0A57FE 
 369      65EECC
 370 0c63 F89C8834 		.ascii	"\370\234\2104[\250\225\022.h\034Z\354\226\033\013p}"
 370      5BA89512 
 370      2E681C5A 
 370      EC961B0B 
 370      707D
 371 0c75 B07CDD1F 		.ascii	"\260|\335\037IB\213AI\011\032\316\250\002=oeyU\206\252"
 371      49428B41 
 371      49091ACE 
 371      A8023D6F 
 371      65795586 
 372 0c8a 186D81D4 		.ascii	"\030m\201\324`h(\205D\271i\001>\210'\344\375pe\020\273"
 372      60682885 
 372      44B96901 
 372      3E8827E4 
 372      FD706510 
 373 0c9f 2E120B4A 		.ascii	".\022\013J^\272?X\214\204*\026\007\253\242I)(\015\225"
 373      5EBA3F58 
 373      8C842A16 
 373      07ABA249 
 373      29280D95 
 374 0cb3 2AF16132 		.ascii	"*\361a2\370XM\244\006;X>v'\210b\360\207\365\362H\011"
 374      F8584DA4 
 374      063B583E 
 374      76278862 
 374      F087F5F2 
 375 0cc9 311A0F4A 		.ascii	"1\032\017J\0232\272=\036KD\253\"b\322w\177Y\031XLZ\234"
 375      1332BA3D 
 375      1E4B44AB 
 375      2262D277 
 375      7F591958 
 376 0ce0 8824D528 		.ascii	"\210$\325((\035\037\224\301\242qO8^-\001v\001\226\006"
 376      281D1F94 
 376      C1A2714F 
 376      385E2D01 
 376      76019606 
 377 0cf4 07496169 		.ascii	"\007Iai\321\235\366\361\024\254\235\034\303hbd\001h"
 377      D19DF6F1 
 377      14AC9D1C 
 377      C3686264 
 377      0168
 378 0d06 16947871 		.ascii	"\026\224xq\002/N\344\305I\2748\231\027\247\360\342T"
 378      022F4EE4 
 378      C549BC38 
 378      9917A7F0 
 378      E254
 379 0d18 412C1907 		.ascii	"A,\031\007\245\204\257\022\341\257\324\225\010\002\262"
 379      A584AF12 
 379      E1AFD495 
 379      0802B2
 380 0d27 072BB210 		.ascii	"\007+\262\020\\\225\010\306\253*\"b^\2702$b\355B\261"
 380      5C9508C6 
ARM GAS  /tmp/ccW1kXgu.s 			page 30


 380      AB2A2262 
 380      5EB83224 
 380      62ED42B1 
 381 0d3b 48BE9494 		.ascii	"H\276\224\224B\022(\355\301\024\247\300\177\"H\316x"
 381      421228ED 
 381      C114A7C0 
 381      7F2248CE 
 381      78
 382 0d4c A458BC22 		.ascii	"\244X\274\"B\216\347W\205\026$=\222\030\231\237$\032"
 382      428EE757 
 382      8516243D 
 382      9218999F 
 382      241A
 383 0d5e E01D572C 		.ascii	"\340\035W,\271\000.\252j\211\025\213\341D~dQT\012\203"
 383      B9002EAA 
 383      6A89158B 
 383      E1447E64 
 383      51540A83 
 384 0d72 987BA114 		.ascii	"\230{\241\024\237\367\327DA\2446R-\305B\311\277A\223"
 384      9FF7D744 
 384      41A43652 
 384      2DC542C9 
 384      BF4193
 385 0d85 C842BC23 		.ascii	"\310B\274#$\2025\205\252\275e\363{\023\301\205\241\250"
 385      24823585 
 385      AABD65F3 
 385      7B13C185 
 385      A1A8
 386 0d97 14AD5E30 		.ascii	"\024\255^0(\021\004\024\342\005\027\331\205\023\221"
 386      28110414 
 386      E20517D9 
 386      851391
 387 0da6 44A41AA2 		.ascii	"D\244\032\242y\201+V\003\026\033i\031\2341i\021\230"
 387      79812B56 
 387      03161B69 
 387      199C3169 
 387      1198
 388 0db8 C613939D 		.ascii	"\306\023\223\235\010\377\361\205\325\2402\221\202\336"
 388      08FFF185 
 388      D5A03291 
 388      82DE
 389 0dc6 63C497D0 		.ascii	"c\304\227\320\025\264\303\335\016\302j\204\252\2103"
 389      15B4C3DD 
 389      0EC26A84 
 389      AA8833
 390 0dd5 E064221E 		.ascii	"\340d\"\036\257\362\210\262\254[$>r\211\304v\242b;Q"
 390      AFF288B2 
 390      AC5B243E 
 390      7289C476 
 390      A2623B51 
 391 0de9 B69D17CE 		.ascii	"\266\235\027\316\326\210\"\250\345\0221\316\010\335"
 391      D68822A8 
 391      E51231CE 
 391      08DD
 392 0df7 6050552A 		.ascii	"`PU*\200P\257\012%%|\022B\033\237\364\210R\270\032."
 392      8050AF0A 
 392      25257C12 
ARM GAS  /tmp/ccW1kXgu.s 			page 31


 392      421B9FF4 
 392      8852B81A 
 393 0e0c 0D8F4542 		.ascii	"\015\217EB\311\0321\022\003\210`|\376|\210r>\\\011\021"
 393      C91A3112 
 393      0388607C 
 393      FE7C8872 
 393      3E5C0911 
 394 0e20 1BC3868C 		.ascii	"\033\303\206\214\202W\307\033\003]\216\2049s\313K\307"
 394      8257C71B 
 394      035D8E84 
 394      3973CB4B 
 394      C7
 395 0e31 FB1E7860 		.ascii	"\373\036x`\246o\356\354\362\332\022\037\225\000\265"
 395      A66FEEEC 
 395      F2DA121F 
 395      9500B5
 396 0e40 85327F09 		.ascii	"\2052\177\011\224\361ys\312\313\374y3g\337\347\347\347"
 396      94F17973 
 396      CACBFC79 
 396      3367DFE7 
 396      E7E7
 397 0e52 F885FBEE 		.ascii	"\370\205\373\356\367\273\312\312\312\375%\244\036\237"
 397      F7BBCACA 
 397      CAFD25A4 
 397      1E9F
 398 0e60 5756769F 		.ascii	"WVv\237_({p\256\360\360\2342a\206\337/\370\313\340\030"
 398      5F287B70 
 398      AEF0F09C 
 398      326186DF 
 398      2FF8CBE0 
 399 0e75 04FE3873 		.ascii	"\004\3768s\256_\230\211%\313g\370\371\207d\251Rh\357"
 399      AE5F9889 
 399      25CB67F8 
 399      F98764A9 
 399      5268EF
 400 0e88 9F88AB49 		.ascii	"\237\210\253I\371A2\200\203\301!\352\316\330I%\343&"
 400      F9413280 
 400      83C121EA 
 400      CED84925 
 400      E326
 401 0e9a B24725A5 		.ascii	"\262G%\245\377\007\307#\031\265"
 401      FF07C723 
 401      19B5
 402              		.text
 403              		.section	.gnu.lto_.symtab.9de4c9003f0a5b60,"",%progbits
 404 0000 5F76745F 		.ascii	"_vt_init\000\000\000\000\000\000\000\000\000\000\000"
 404      696E6974 
 404      00000000 
 404      00000000 
 404      000000
 405 0013 00A70000 		.ascii	"\000\247\000\000\000chVTDoSetI\000\000\000\000\000\000"
 405      00636856 
 405      54446F53 
 405      65744900 
 405      00000000 
 406 0028 00000000 		.ascii	"\000\000\000\000\000\000\253\000\000\000chVTDoReset"
 406      0000AB00 
ARM GAS  /tmp/ccW1kXgu.s 			page 32


 406      00006368 
 406      5654446F 
 406      52657365 
 407 003d 49000000 		.ascii	"I\000\000\000\000\000\000\000\000\000\000\000\000\322"
 407      00000000 
 407      00000000 
 407      00D2
 408 004b 00000073 		.ascii	"\000\000\000stSetAlarm\000\000\002\000\000\000\000\000"
 408      74536574 
 408      416C6172 
 408      6D000002 
 408      00000000 
 409 0060 00000000 		.ascii	"\000\000\000\000\330\000\000\000stStartAlarm\000\000"
 409      D8000000 
 409      73745374 
 409      61727441 
 409      6C61726D 
 410 0076 02000000 		.ascii	"\002\000\000\000\000\000\000\000\000\000\334\000\000"
 410      00000000 
 410      0000DC00 
 410      00
 411 0083 00737453 		.ascii	"\000stStopAlarm\000\000\002\000\000\000\000\000\000"
 411      746F7041 
 411      6C61726D 
 411      00000200 
 411      00000000 
 412 0098 000000DE 		.ascii	"\000\000\000\336\000\000\000ch\000\000\002\000\000\000"
 412      00000063 
 412      68000002 
 412      000000
 413 00a7 00000000 		.ascii	"\000\000\000\000\000\000\340\000\000\000"
 413      0000E000 
 413      0000
 414              		.text
 415              		.section	.gnu.lto_.opts,"",%progbits
 416 0000 272D6D63 		.ascii	"'-mcpu=cortex-m3''-mno-thumb-interwork''-mthumb''-g"
 416      70753D63 
 416      6F727465 
 416      782D6D33 
 416      27272D6D 
 417 0033 67646227 		.ascii	"gdb''-O2''-fomit-frame-pointer''-falign-functions=1"
 417      272D4F32 
 417      27272D66 
 417      6F6D6974 
 417      2D667261 
 418 0066 3627272D 		.ascii	"6''-ffunction-sections''-fdata-sections''-fno-commo"
 418      6666756E 
 418      6374696F 
 418      6E2D7365 
 418      6374696F 
 419 0099 6E27272D 		.ascii	"n''-flto'\000"
 419      666C746F 
 419      2700
 420              		.text
 421              		.cfi_sections	.debug_frame
 422              		.section	.text._vt_init,"ax",%progbits
 423              		.align	2
ARM GAS  /tmp/ccW1kXgu.s 			page 33


 424              		.p2align 4,,15
 425              		.global	_vt_init
 426              		.thumb
 427              		.thumb_func
 428              		.type	_vt_init, %function
 429              	_vt_init:
 430              	.LFB165:
 431              		.file 1 "../../../os/rt/src/chvt.c"
 432              		.loc 1 62 0
 433              		.cfi_startproc
 434              		@ args = 0, pretend = 0, frame = 0
 435              		@ frame_needed = 0, uses_anonymous_args = 0
 436              		@ link register save eliminated.
 437              		.loc 1 64 0
 438 0000 40F20003 		movw	r3, #:lower16:ch
 439 0004 C0F20003 		movt	r3, #:upper16:ch
 440 0008 03F11C02 		add	r2, r3, #28
 441              		.loc 1 65 0
 442 000c 4FF6FF70 		movw	r0, #65535
 443              		.loc 1 69 0
 444 0010 0021     		movs	r1, #0
 445              		.loc 1 64 0
 446 0012 1A62     		str	r2, [r3, #32]
 447 0014 DA61     		str	r2, [r3, #28]
 448              		.loc 1 65 0
 449 0016 9884     		strh	r0, [r3, #36]	@ movhi
 450              		.loc 1 69 0
 451 0018 D984     		strh	r1, [r3, #38]	@ movhi
 452 001a 7047     		bx	lr
 453              		.cfi_endproc
 454              	.LFE165:
 455              		.size	_vt_init, .-_vt_init
 456 001c AFF30080 		.section	.text.chVTDoSetI,"ax",%progbits
 457              		.align	2
 458              		.p2align 4,,15
 459              		.global	chVTDoSetI
 460              		.thumb
 461              		.thumb_func
 462              		.type	chVTDoSetI, %function
 463              	chVTDoSetI:
 464              	.LFB166:
 465              		.loc 1 96 0
 466              		.cfi_startproc
 467              		@ args = 0, pretend = 0, frame = 0
 468              		@ frame_needed = 0, uses_anonymous_args = 0
 469              	.LVL0:
 470 0000 2DE9F041 		push	{r4, r5, r6, r7, r8, lr}
 471              	.LCFI0:
 472              		.cfi_def_cfa_offset 24
 473              		.cfi_offset 4, -24
 474              		.cfi_offset 5, -20
 475              		.cfi_offset 6, -16
 476              		.cfi_offset 7, -12
 477              		.cfi_offset 8, -8
 478              		.cfi_offset 14, -4
 479              		.loc 1 104 0
 480 0004 1F4F     		ldr	r7, .L17
ARM GAS  /tmp/ccW1kXgu.s 			page 34


 481              	.LBB17:
 482              	.LBB18:
 483              	.LBB19:
 484              	.LBB20:
 485              		.file 2 "../../../os/hal/ports/STM32/LLD/TIMv1/st_lld.h"
 486              		.loc 2 128 0
 487 0006 4FF08044 		mov	r4, #1073741824
 488              	.LBE20:
 489              	.LBE19:
 490              	.LBE18:
 491              	.LBE17:
 492              		.loc 1 104 0
 493 000a BC46     		mov	ip, r7
 494              	.LBB33:
 495              	.LBB25:
 496              	.LBB23:
 497              	.LBB21:
 498              		.loc 2 128 0
 499 000c 656A     		ldr	r5, [r4, #36]
 500              	.LBE21:
 501              	.LBE23:
 502              	.LBE25:
 503              	.LBE33:
 504              		.loc 1 104 0
 505 000e 5CF81C4F 		ldr	r4, [ip, #28]!
 506              	.LVL1:
 507              	.LBB34:
 508              	.LBB26:
 509              	.LBB24:
 510              	.LBB22:
 511              		.loc 2 128 0
 512 0012 1FFA85F8 		uxth	r8, r5
 513              	.LBE22:
 514              	.LBE24:
 515              	.LBE26:
 516              		.loc 1 113 0
 517 0016 0129     		cmp	r1, #1
 518 0018 8CBF     		ite	hi
 519 001a 0D46     		movhi	r5, r1
 520 001c 0225     		movls	r5, #2
 521              		.loc 1 115 0
 522 001e 6445     		cmp	r4, ip
 523              	.LBE34:
 524              		.loc 1 96 0
 525 0020 0646     		mov	r6, r0
 526              		.loc 1 102 0
 527 0022 0361     		str	r3, [r0, #16]
 528              		.loc 1 103 0
 529 0024 C260     		str	r2, [r0, #12]
 530              	.LBB35:
 531              		.loc 1 115 0
 532 0026 23D0     		beq	.L14
 533              		.loc 1 124 0
 534 0028 FA8C     		ldrh	r2, [r7, #38]
 535              	.LVL2:
 536              		.loc 1 128 0
 537 002a 2389     		ldrh	r3, [r4, #8]
ARM GAS  /tmp/ccW1kXgu.s 			page 35


 538              	.LVL3:
 539              		.loc 1 124 0
 540 002c C2EB0808 		rsb	r8, r2, r8
 541 0030 05EB0800 		add	r0, r5, r8
 542              	.LVL4:
 543 0034 85B2     		uxth	r5, r0
 544              	.LVL5:
 545              		.loc 1 128 0
 546 0036 9D42     		cmp	r5, r3
 547 0038 04D2     		bcs	.L12
 548 003a 13E0     		b	.L16
 549              	.LVL6:
 550              	.L10:
 551              	.LBE35:
 552              		.loc 1 138 0
 553 003c 2468     		ldr	r4, [r4, #0]
 554              	.LVL7:
 555              		.loc 1 137 0
 556 003e ED1A     		subs	r5, r5, r3
 557              		.loc 1 136 0
 558 0040 2389     		ldrh	r3, [r4, #8]
 559              		.loc 1 137 0
 560 0042 ADB2     		uxth	r5, r5
 561              	.L12:
 562              	.LVL8:
 563              		.loc 1 136 0
 564 0044 AB42     		cmp	r3, r5
 565 0046 F9D3     		bcc	.L10
 566              		.loc 1 144 0
 567 0048 3581     		strh	r5, [r6, #8]	@ movhi
 568              		.loc 1 148 0
 569 004a 2289     		ldrh	r2, [r4, #8]
 570              		.loc 1 142 0
 571 004c 6068     		ldr	r0, [r4, #4]
 572              		.loc 1 148 0
 573 004e 551B     		subs	r5, r2, r5
 574              		.loc 1 149 0
 575 0050 4FF6FF71 		movw	r1, #65535
 576              		.loc 1 142 0
 577 0054 3460     		str	r4, [r6, #0]
 578 0056 7060     		str	r0, [r6, #4]
 579              		.loc 1 143 0
 580 0058 0660     		str	r6, [r0, #0]
 581 005a 6660     		str	r6, [r4, #4]
 582              		.loc 1 148 0
 583 005c 2581     		strh	r5, [r4, #8]	@ movhi
 584              		.loc 1 149 0
 585 005e B984     		strh	r1, [r7, #36]	@ movhi
 586 0060 BDE8F081 		pop	{r4, r5, r6, r7, r8, pc}
 587              	.LVL9:
 588              	.L16:
 589              	.LBB36:
 590              		.loc 1 129 0
 591 0064 A918     		adds	r1, r5, r2
 592              	.LBB27:
 593              	.LBB28:
 594              		.file 3 "../../../os/rt/ports/ARMCMx/chcore_timer.h"
ARM GAS  /tmp/ccW1kXgu.s 			page 36


 595              		.loc 3 96 0
 596 0066 88B2     		uxth	r0, r1
 597 0068 FFF7FEFF 		bl	stSetAlarm
 598              	.LVL10:
 599 006c 2389     		ldrh	r3, [r4, #8]
 600 006e E9E7     		b	.L12
 601              	.LVL11:
 602              	.L14:
 603              	.LBE28:
 604              	.LBE27:
 605              		.loc 1 119 0
 606 0070 05EB0803 		add	r3, r5, r8
 607              	.LVL12:
 608              	.LBB29:
 609              	.LBB30:
 610              		.loc 3 74 0
 611 0074 98B2     		uxth	r0, r3
 612              	.LVL13:
 613              	.LBE30:
 614              	.LBE29:
 615              		.loc 1 118 0
 616 0076 A7F82680 		strh	r8, [r7, #38]	@ movhi
 617              	.LBB32:
 618              	.LBB31:
 619              		.loc 3 74 0
 620 007a FFF7FEFF 		bl	stStartAlarm
 621              	.LVL14:
 622 007e BB8C     		ldrh	r3, [r7, #36]
 623 0080 E0E7     		b	.L12
 624              	.L18:
 625 0082 00BF     		.align	2
 626              	.L17:
 627 0084 00000000 		.word	ch
 628              	.LBE31:
 629              	.LBE32:
 630              	.LBE36:
 631              		.cfi_endproc
 632              	.LFE166:
 633              		.size	chVTDoSetI, .-chVTDoSetI
 634 0088 AFF30080 		.section	.text.chVTDoResetI,"ax",%progbits
 634      AFF30080 
 635              		.align	2
 636              		.p2align 4,,15
 637              		.global	chVTDoResetI
 638              		.thumb
 639              		.thumb_func
 640              		.type	chVTDoResetI, %function
 641              	chVTDoResetI:
 642              	.LFB167:
 643              		.loc 1 160 0
 644              		.cfi_startproc
 645              		@ args = 0, pretend = 0, frame = 0
 646              		@ frame_needed = 0, uses_anonymous_args = 0
 647              		@ link register save eliminated.
 648              	.LVL15:
 649              		.loc 1 174 0
 650 0000 0F49     		ldr	r1, .L22
ARM GAS  /tmp/ccW1kXgu.s 			page 37


 651              		.loc 1 160 0
 652 0002 F0B4     		push	{r4, r5, r6, r7}
 653              	.LCFI1:
 654              		.cfi_def_cfa_offset 16
 655              		.cfi_offset 4, -16
 656              		.cfi_offset 5, -12
 657              		.cfi_offset 6, -8
 658              		.cfi_offset 7, -4
 659              		.loc 1 168 0
 660 0004 90E81400 		ldmia	r0, {r2, r4}
 661              		.loc 1 167 0
 662 0008 B0F808C0 		ldrh	ip, [r0, #8]
 663 000c 1789     		ldrh	r7, [r2, #8]
 664              		.loc 1 178 0
 665 000e 0B46     		mov	r3, r1
 666 0010 53F81C5F 		ldr	r5, [r3, #28]!
 667              		.loc 1 168 0
 668 0014 2260     		str	r2, [r4, #0]
 669              		.loc 1 167 0
 670 0016 6744     		add	r7, ip, r7
 671              		.loc 1 169 0
 672 0018 0668     		ldr	r6, [r0, #0]
 673              		.loc 1 167 0
 674 001a 1781     		strh	r7, [r2, #8]	@ movhi
 675              		.loc 1 170 0
 676 001c 0022     		movs	r2, #0
 677 001e C260     		str	r2, [r0, #12]
 678              		.loc 1 178 0
 679 0020 9D42     		cmp	r5, r3
 680              		.loc 1 174 0
 681 0022 4FF6FF70 		movw	r0, #65535
 682              	.LVL16:
 683              		.loc 1 169 0
 684 0026 7460     		str	r4, [r6, #4]
 685              		.loc 1 174 0
 686 0028 8884     		strh	r0, [r1, #36]	@ movhi
 687              		.loc 1 178 0
 688 002a 06D0     		beq	.L21
 689              	.LVL17:
 690              		.loc 1 184 0
 691 002c 2A89     		ldrh	r2, [r5, #8]
 692 002e C98C     		ldrh	r1, [r1, #38]
 693 0030 5318     		adds	r3, r2, r1
 694              	.LBB37:
 695              	.LBB38:
 696              		.loc 3 96 0
 697 0032 98B2     		uxth	r0, r3
 698              	.LBE38:
 699              	.LBE37:
 700              		.loc 1 189 0
 701 0034 F0BC     		pop	{r4, r5, r6, r7}
 702              	.LBB40:
 703              	.LBB39:
 704              		.loc 3 96 0
 705 0036 FFF7FEBF 		b	stSetAlarm
 706              	.LVL18:
 707              	.L21:
ARM GAS  /tmp/ccW1kXgu.s 			page 38


 708              	.LBE39:
 709              	.LBE40:
 710              		.loc 1 189 0
 711 003a F0BC     		pop	{r4, r5, r6, r7}
 712              	.LBB41:
 713              	.LBB42:
 714              		.loc 3 84 0
 715 003c FFF7FEBF 		b	stStopAlarm
 716              	.LVL19:
 717              	.L23:
 718              		.align	2
 719              	.L22:
 720 0040 00000000 		.word	ch
 721              	.LBE42:
 722              	.LBE41:
 723              		.cfi_endproc
 724              	.LFE167:
 725              		.size	chVTDoResetI, .-chVTDoResetI
 726 0044 AFF30080 		.text
 726      AFF30080 
 726      AFF30080 
 727              	.Letext0:
 728              		.file 4 "../../../os/rt/include/chschd.h"
 729              		.file 5 "/opt/ARM/gcc-arm-none-eabi-4_7-2013q3/bin/../lib/gcc/arm-none-eabi/4.7.4/../../../../arm-
 730              		.file 6 "../../../os/rt/ports/ARMCMx/compilers/GCC/chtypes.h"
 731              		.file 7 "../../../os/rt/ports/ARMCMx/chcore.h"
 732              		.file 8 "../../../os/rt/ports/ARMCMx/chcore_v7m.h"
 733              		.file 9 "../../../os/hal/ports/STM32/LLD/TIMv1/stm32_tim.h"
 734              		.file 10 "../../../os/rt/include/chmtx.h"
 735              		.file 11 "../../../os/hal/include/st.h"
 736              		.file 12 "../../../os/ext/CMSIS/include/core_cm3.h"