ARM GAS  /tmp/cc1m2DC5.s 			page 1


   1              		.syntax unified
   2              		.cpu cortex-m3
   3              		.fpu softvfp
   4              		.eabi_attribute 20, 1
   5              		.eabi_attribute 21, 1
   6              		.eabi_attribute 23, 3
   7              		.eabi_attribute 24, 1
   8              		.eabi_attribute 25, 1
   9              		.eabi_attribute 26, 1
  10              		.eabi_attribute 30, 2
  11              		.eabi_attribute 34, 1
  12              		.eabi_attribute 18, 4
  13              		.thumb
  14              		.file	"crt0.c"
  15              		.text
  16              	.Ltext0:
  17              		.section	.gnu.lto_.jmpfuncs.fd40c7f3c5f37237,"",%progbits
  18 0000 789C6362 		.ascii	"x\234cb`d`g\300\016\304\2404\013\003P\021\023\0033\204"
  18      60646067 
  18      C00EC4A0 
  18      340B0350 
  18      11130333 
  19 0015 570FC500 		.ascii	"W\017\305\000\013\242\001)"
  19      0BA20129 
  20              		.text
  21              		.section	.gnu.lto_.inline.fd40c7f3c5f37237,"",%progbits
  22 0000 789C6362 		.ascii	"x\234cb`d\340e\300\016b\2414\013\003\0033\023#\003\023"
  22      6064E065 
  22      C00E62A1 
  22      340B0303 
  22      33132303 
  23 0015 90C9B640 		.ascii	"\220\311\266@\236\011\250\003\205\013\202\020.\013\220"
  23      9E09A803 
  23      850B8210 
  23      2E0B90
  24 0024 6466D07A 		.ascii	"df\320z\007\324\300ds\246U\011,\300\310\005\224A#\230"
  24      07D4C064 
  24      73A65509 
  24      2CC0C805 
  24      94412398 
  25 0038 F919A104 		.ascii	"\371\031\241\004\003\000\"\252\005F"
  25      030022AA 
  25      0546
  26              		.text
  27              		.section	.gnu.lto_.pureconst.fd40c7f3c5f37237,"",%progbits
  28 0000 789C6362 		.ascii	"x\234cb`d`f``\340d\200\000\026\006\011F\011&\023f3\000"
  28      60646066 
  28      6060E064 
  28      80001606 
  28      09460926 
  29 0018 036400B4 		.ascii	"\003d\000\264"
  30              		.text
  31              		.section	.gnu.lto___early_init.fd40c7f3c5f37237,"",%progbits
  32 0000 789C6362 		.ascii	"x\234cb`\004BL \011\304a@l\016\304\214\314\014\214L"
  32      6004424C 
  32      2009C461 
  32      406C0EC4 
ARM GAS  /tmp/cc1m2DC5.s 			page 2


  32      8CCC0C8C 
  33 0015 13CE3130 		.ascii	"\023\316104*012\202\030@-\365L\214\365\241\020\235\247"
  33      342A3031 
  33      32821840 
  33      2DF54C8C 
  33      F5A1109D 
  34 002a 4E3F9791 		.ascii	"N?\227\221\330\317t\340\301\377z\006\006&\240\000+C"
  34      D8CF74E0 
  34      C1FF7A06 
  34      0626A000 
  34      2B43
  35 003c 4B438300 		.ascii	"KC\203\000C<\324\340@\020\015\322\026\304\310\004f0"
  35      433CD4E0 
  35      40100DD2 
  35      16C4C804 
  35      6630
  36 004e 9F031A10 		.ascii	"\237\003\032\020\313\270\200\221\025n_ ##X\012\244\335"
  36      CBB88091 
  36      156E5F20 
  36      2323580A 
  36      A4DD
  37 0060 544F4F1F 		.ascii	"TOO\037\202\362\213\365\223\363ss\363\363\364\013\362"
  37      82F28BF5 
  37      93F37373 
  37      F3F3F40B 
  37      F2
  38 0071 8B4A8AF5 		.ascii	"\213J\212\365\035\203|\235}+@b\005\2319\251E\305\372"
  38      1D837C9D 
  38      7D2B4062 
  38      059939A9 
  38      45C5FA
  39 0084 EECECEFA 		.ascii	"\356\316\316\372\311E%\006z\311\014\000v\015&\001"
  39      C9452506 
  39      7AC90C00 
  39      760D2601 
  40              		.text
  41              		.section	.gnu.lto___late_init.fd40c7f3c5f37237,"",%progbits
  42 0000 789C6362 		.ascii	"x\234cb`\004BL \011\304a@l\016\304\214\314\014\214L"
  42      6004424C 
  42      2009C461 
  42      406C0EC4 
  42      8CCC0C8C 
  43 0015 13CE3130 		.ascii	"\023\316104*012\202\030@-\365L\214\365\241\020\235\247"
  43      342A3031 
  43      32821840 
  43      2DF54C8C 
  43      F5A1109D 
  44 002a EE2F9791 		.ascii	"\356/\227\221\330\317t\340\301\377z\006\006&\240\000"
  44      D8CF74E0 
  44      C1FF7A06 
  44      0626A000 
  45 003a 2B434B43 		.ascii	"+CKC\203\000C<\324\340@\020\015\322\026\304\310\004"
  45      8300433C 
  45      D4E04010 
  45      0DD216C4 
  45      C804
  46 004c 66309F03 		.ascii	"f0\237\003\032\020\313\270\200\221\025n_ ##X\012\244"
ARM GAS  /tmp/cc1m2DC5.s 			page 3


  46      1A10CBB8 
  46      8091156E 
  46      5F202323 
  46      580AA4
  47 005f DD544F4F 		.ascii	"\335TOO\037\202\362\213\365\223\363ss\363\363\364\013"
  47      1F82F28B 
  47      F593F373 
  47      73F3F3F4 
  47      0B
  48 0070 F28B4A8A 		.ascii	"\362\213J\212\365\035\203|\235}+@b\005\2319\251E\305"
  48      F51D837C 
  48      9D7D2B40 
  48      62059939 
  48      A945C5
  49 0083 FAEECECE 		.ascii	"\372\356\316\316\372\311E%\006z\311\014\000_q%\325"
  49      FAC94525 
  49      067AC90C 
  49      005F7125 
  49      D5
  50              		.text
  51              		.section	.gnu.lto__default_exit.fd40c7f3c5f37237,"",%progbits
  52 0000 789C6362 		.ascii	"x\234cb`\004BL\240\003\304A@l\016\304\214\254\014\214"
  52      6004424C 
  52      A003C441 
  52      406C0EC4 
  52      8CAC0C8C 
  53 0014 4C13CE31 		.ascii	"L\023\316104*012\203\030\214\314\214,\020\001\026\210"
  53      30342A30 
  53      31328318 
  53      8CCC8C2C 
  53      10011688 
  54 0028 80222343 		.ascii	"\200\"#C=\0233\013c}(\304\260S\277\226\313\276\331\317"
  54      3D13330B 
  54      637D28C4 
  54      B053BF96 
  54      CBBED9CF 
  55 003c B69FE9C0 		.ascii	"\266\237\351\300\203\377\365\014`\033X\031Z\032\032"
  55      83FFF50C 
  55      601B5819 
  55      5A1A1A
  56 004b 0418E2A1 		.ascii	"\004\030\342\241\266\005\202hF \305\0042.\220\221\231"
  56      B6058268 
  56      4620C504 
  56      322E9091 
  56      99
  57 005c 81116810 		.ascii	"\201\021h\020c #\013\214\001s\226\251\236\236>\004\345"
  57      6320230B 
  57      8C017396 
  57      A99E9E3E 
  57      04E5
  58 006e 17EB27E7 		.ascii	"\027\353'\347\347\346\346\347\351\027\344\027\225\024"
  58      E7E6E6E7 
  58      E917E417 
  58      9514
  59 007c EB3B06F9 		.ascii	"\353;\006\371:\373V\200\304\0122sR\213\212\365\335\235"
  59      3AFB5680 
  59      C40A3273 
ARM GAS  /tmp/cc1m2DC5.s 			page 4


  59      528B8AF5 
  59      DD9D
  60 008e 9DF5938B 		.ascii	"\235\365\223\213J\014\364\222\031\000\212X(\257"
  60      4A0CF492 
  60      19008A58 
  60      28AF
  61              		.text
  62              		.section	.gnu.lto_Reset_Handler.fd40c7f3c5f37237,"",%progbits
  63 0000 789CAD56 		.ascii	"x\234\255VKH\\g\024>\347\377\357\275\363tFgF\202&\332"
  63      4B485C67 
  63      143EE7FF 
  63      EFBDF374 
  63      46674682 
  64 0016 4BA0D045 		.ascii	"K\240\320EQ[(dQ\350CJ\033\210Mb[\350\203!\340\304\026"
  64      515B2864 
  64      51E8434A 
  64      1B884D62 
  64      5BE88321 
  65 002d 25EA3093 		.ascii	"%\3520\223Ep\021'\017J(]\204\256l\241\320I1\212$\265"
  65      45701127 
  65      0F4A285D 
  65      84AE6CA1 
  65      D049318A 
  66 0043 EDAE0FA8 		.ascii	"\355\256\017\250\220Ij\222\251\022H$\232Yd\221E\323"
  66      90496A92 
  66      A9124824 
  66      9A596491 
  66      45D3
  67 0055 BA741310 		.ascii	"\272t\023\020\354\371_s\357\325i\032C'\217s\375\317"
  67      ECF95F73 
  67      EFD5691A 
  67      43278F73 
  67      FDCF
  68 0067 F79DC7F7 		.ascii	"\367\235\307\367\237sG\006H\177\266\177\036\322\277"
  68      9F734706 
  68      487FB67F 
  68      1ED2BF
  69 0076 BFE300E7 		.ascii	"\277\343\000\347\310b+ ;\277\010p\312eh\251\007\256"
  69      C8622B20 
  69      3BBF0870 
  69      CA6568A9 
  69      07AE
  70 0088 1ECAAEC5 		.ascii	"\036\312\256\305\370\347\277\003\224\236\263\317\206"
  70      F8E7BF03 
  70      949EB3CF 
  70      86
  71 0095 A0D46363 		.ascii	"\240\324ccH\234\243\243l\331\0151G\371\303\322\037\306"
  71      489CA3A3 
  71      6CD90D31 
  71      47F9C3D2 
  71      1FC6
  72 00a7 A80A1051 		.ascii	"\250\012\020Q\017e7\312\"\012\020\223\200\0306\311\000"
  72      0F6537CA 
  72      220A1093 
  72      801836C9 
  72      00
  73 00b8 7165CB6E 		.ascii	"qe\313n\023\213+\177B\372\023\330\254\002$\325C\331"
ARM GAS  /tmp/cc1m2DC5.s 			page 5


  73      138B2B7F 
  73      42FA13D8 
  73      AC0224D5 
  73      43D9
  74 00ca 6D664905 		.ascii	"mfI\005h\221\200\026L+@J=\224\3354K)@F\0022\324\360"
  74      68918016 
  74      4C2B404A 
  74      3D94DD34 
  74      4B294046 
  75 00e2 04E396ED 		.ascii	"\004\343\226\355\204\302\221h,\336\224H6\267\244\322"
  75      84C29168 
  75      2CDE9448 
  75      36B7A4D2 
  76 00f2 199C784F 		.ascii	"\031\234xO*\021\333\013\345R\351\213\363WN\277u\372"
  76      2A11DB0B 
  76      E552E98B 
  76      F3574EBF 
  76      75FA
  77 0104 FEE6E633 		.ascii	"\376\346\3463\203\342\364\010\302\215G\017\223m0\210"
  77      83E2F408 
  77      C28D470F 
  77      936D3088 
  78 0114 082E08CB 		.ascii	"\010.\010\313\300\012j\266\215\307%\357\366\312\300"
  78      C00A6AB6 
  78      8DC725EF 
  78      F6CAC0
  79 0123 D3D02A1F 		.ascii	"\323\320*\037=\011\353L\311\260,\006\373P\020\327\027"
  79      3D09EB4C 
  79      C9B02C06 
  79      FB5010D7 
  79      17
  80 0134 0A3B63DA 		.ascii	"\012;c\332\014^V\314jb\207\314,^$\030Q\253};\316\371"
  80      0C5E56CC 
  80      6A6287CC 
  80      2C5E2418 
  80      51AB7D3B 
  81 014a 8ACCF960 		.ascii	"\212\314\371`\361\344\216\231\257K\346\202\375\264\305"
  81      F1E48E99 
  81      AF4BE682 
  81      FDB4C5
  82 0159 6E2CEDB0 		.ascii	"n,\355\260O\207\301\0332gee|\207\314,~\247\222\256\177"
  82      4F87C11B 
  82      32676565 
  82      7C87CC2C 
  82      7EA792AE 
  83 016e F858E6DA 		.ascii	"\370X\346\332\302_X\2519\277\261\371\373\233\023\000"
  83      C25F58A9 
  83      39BFB1F9 
  83      FB9B1300 
  84 017e 5D08599C 		.ascii	"]\010Y\234\302\275\300\310N\223\345dg\310Zdg\311\332"
  84      C2BDC0C8 
  84      4E93E564 
  84      67C85A64 
  84      67C9DA
  85 0191 642F9175 		.ascii	"d/\221u\310^&\033\";G6L\366[\262q\315Oj~\212\3547d\323"
  85      C85E261B 
  85      223B4736 
ARM GAS  /tmp/cc1m2DC5.s 			page 6


  85      4CF65BB2 
  85      71CD4F6A 
  86 01ab 9A9FD1F1 		.ascii	"\232\237\321\361Z\265\177\227\216\327F\266L\266]\307"
  86      5AB57F97 
  86      8ED746B6 
  86      4CB65DC7 
  87 01bb DDADCFF7 		.ascii	"\335\255\317\367\220\275@\266C\347\241\217\015gK\245"
  87      90BD40B6 
  87      43E7A18F 
  87      0D674BA5 
  88 01cb 66A6F235 		.ascii	"f\246\3625\232\307\375z\036/\342c[?\242_@\207\205\245"
  88      9AC7FD7A 
  88      1E2FE263 
  88      5B3FA25F 
  88      408785A5 
  89 01df 15ED2708 		.ascii	"\025\355'\010Y~\023\346\261v=\221\305\357\321\226\200"
  89      597E13E6 
  89      B1763D91 
  89      C5EFD196 
  89      80
  90 01f0 3E801B70 		.ascii	">\200\033pz\215?\270\336\251\016s\030\036\207G\2450"
  90      7A8D3FB8 
  90      DEA90E73 
  90      181E8747 
  90      A530
  91 0202 5D2E0E21 		.ascii	"].\016!Lr\011\273\006\354\204\362\253\322\010\005p\023"
  91      4C7209BB 
  91      06EC84F2 
  91      ABD20805 
  91      7013
  92 0214 4EE19A09 		.ascii	"N\341\232\011&\022\275\317I[\220\377\001t\302\320\327"
  92      2612BDCF 
  92      495B90FF 
  92      0174C2D0 
  92      D7
  93 0225 A5C95707 		.ascii	"\245\311W\0071D?H\274\014\263q\263\323\004\372AjCmI"
  93      31443F48 
  93      BC0CB371 
  93      B3D304FA 
  93      416A436D 
  94 023a 828856AD 		.ascii	"\202\210V\255\372\242\035\373\327h\036I\320\346\361"
  94      FAA21DFB 
  94      D7681E49 
  94      D0E6F1
  95 0249 F601AFA1 		.ascii	"\366\001\257\241S(\323\254\037\250K9\325HJ\032\371O"
  95      5328D3AC 
  95      1FA84B39 
  95      D5484A1A 
  95      F94F
  96 025b 516A098F 		.ascii	"Qj\011\217\025\322\013\254/\337'\216\326\370\232\034"
  96      15D20BAC 
  96      2FDF278E 
  96      D6F89A1C 
  97 026b A89F654B 		.ascii	"\250\237eK\277\004\021\314\013\324O\357 \244w&'\271"
  97      BF0411CC 
  97      0BD44FEF 
  97      20A47726 
ARM GAS  /tmp/cc1m2DC5.s 			page 7


  97      27B9
  98 027d F769FC57 		.ascii	"\367i\374W\360%\212[\315\241\274M\235G\267wg\366\316"
  98      F0258A5B 
  98      CDA1BC4D 
  98      9D47B777 
  98      67F6CE
  99 0290 AC38B901 		.ascii	"\2548\271\001g>\343\232\220\303\270\306\252B\375\251"
  99      673EE39A 
  99      90C3B8C6 
  99      AA42FDA9 
 100 02a0 A7E4B5C4 		.ascii	"\247\344\265\304M6\013\220^\325\234\020\010u/=^\205"
 100      4D360B90 
 100      5ED59C10 
 100      08752F3D 
 100      5E85
 101 02b2 CA03AC87 		.ascii	"\312\003\254\207\303\306\305\002,\003n\355\224\211\360"
 101      C3C6C502 
 101      2C036EED 
 101      9489F0
 102 02c1 5C06B7E5 		.ascii	"\\\006\267\3450\011T\253\017\305\2534M\262\256~t|\315"
 102      300954AB 
 102      0FC5AB34 
 102      4DB2AE7E 
 102      747CCD
 103 02d4 D66F62BA 		.ascii	"\326ob\272\341Md\361W\265\316O|\023\236n\354\277u\273"
 103      E14D64F1 
 103      57B5CE4F 
 103      7C139E6E 
 103      ECBF75BB 
 104 02e8 221B4D6A 		.ascii	"\"\033Mj\254_\267+R\267i\251L\322\350\026\222\272\241"
 104      AC5FB72B 
 104      52B769A9 
 104      4CD2E816 
 104      92BAA1
 105 02fb D14D7999 		.ascii	"\321My\231\247\233\012\307\374;\022\324\215\252j\265"
 105      A79B0AC7 
 105      FC3B12D4 
 105      8DAA6AB5 
 106 030b 91223A32 		.ascii	"\221\":2^XJU\005\276\361\307I\323\202&s<\202z\210\006"
 106      5E584A55 
 106      05BEF1C7 
 106      49D38226 
 106      733C827A 
 107 0321 054E8CED 		.ascii	"\005N\214\355\342@]-\361*Q/\226\300\020\316\004G\314"
 107      E2405D2D 
 107      F12A512F 
 107      96C010CE 
 107      0447CC
 108 0334 9AA96FE8 		.ascii	"\232\251o\350\306\342@\026\027dS\263A\220\255A\252\305"
 108      C6E24016 
 108      176453B3 
 108      4190AD41 
 108      AAC5
 109 0346 48FD6E7E 		.ascii	"H\375n~\262\253K'\025'\207)OV\356\227U\276!\366\337"
 109      B2AB4B27 
 109      15278729 
 109      4F56EE97 
ARM GAS  /tmp/cc1m2DC5.s 			page 8


 109      55BE21F6 
 110 035b E50AE781 		.ascii	"\345\012\347\201,\003:\001b\301SZ\362\031n\002\2465"
 110      2C033A01 
 110      62C1535A 
 110      F2196E02 
 110      A635
 111 036d C6AFB957 		.ascii	"\306\257\271W\036\371\015\3036\214\214N\275\2351#\031"
 111      1EF90DC3 
 111      368C8C4E 
 111      BD9D3123 
 111      19
 112 037e 19D34234 		.ascii	"\031\323B48\335*\236%)\010u8\327\327VY\0325\031,\237"
 112      38DD2A9E 
 112      25290875 
 112      38D7D756 
 112      591A3519 
 113 0394 2ACEA4D7 		.ascii	"*\316\244\327\242\2709\356\227u}q\230\016\303\3478e"
 113      A2B839EE 
 113      97757D71 
 113      980EC3E7 
 113      3865
 114 03a6 8D549766 		.ascii	"\215T\227fq\031\374\\{\303\363\247\311?,\252\212\325"
 114      7119FC5C 
 114      7BC3F3A7 
 114      C93F2CAA 
 114      8AD5
 115 03b8 D762B70F 		.ascii	"\327b\267\017\032\242\357F\202Fe\341\361F{q\351\177"
 115      1AA2EF46 
 115      824665E1 
 115      F1467B71 
 115      E97F
 116 03ca DF0B7BFB 		.ascii	"\337\013{\373^\200o'nI-vi\234_\355[h\276\005\311o\324"
 116      5E806F27 
 116      6E492D76 
 116      699C5FED 
 116      5B68BE05 
 117 03e1 6E0AEE84 		.ascii	"n\012\356\204\362\332\336N\250p\266\257\347pp'\354\034"
 117      F2DADE4E 
 117      A870B6AF 
 117      E7707027 
 117      EC1C
 118 03f3 EE8ED14E 		.ascii	"\356\216\321N\354\212\313x\011\263\023\265\273\343\015"
 118      EC8ACB78 
 118      09B313B5 
 118      BBE30D
 119 0402 76820577 		.ascii	"v\202\005w\242\362\201\022\012\325\267g`\031.{s\036"
 119      A2F28112 
 119      0AD5B767 
 119      60192E7B 
 119      731E
 120 0414 A1B49105 		.ascii	"\241\264\221\005\357F\373i\247\2759\247\337\030\263"
 120      EF46FB69 
 120      A7BD39A7 
 120      DF18B3
 121 0423 B82CEB6C 		.ascii	"\270,\353lS2EI&G\264\357\324)T\221\030\363e\031\237"
 121      53324549 
 121      2647B4EF 
ARM GAS  /tmp/cc1m2DC5.s 			page 9


 121      D4295491 
 121      18F36519 
 122 0438 80BA06A9 		.ascii	"\200\272\006\251Zme\330\004h\327D\277n\313R\267\313"
 122      5A6D65D8 
 122      0468D744 
 122      BF6ECB52 
 122      B7CB
 123 044a 52997653 		.ascii	"R\231vS@spJ\225\327\321\272UWFM@\307\327Bt&8\224~_\244"
 123      4073704A 
 123      95D7D1BA 
 123      5557464D 
 123      40C7D742 
 124 0465 B2F2A3D0 		.ascii	"\262\362\243\320&\361'M]{\222J\022YZ\214\232\325\325"
 124      26F1274D 
 124      5D7B924A 
 124      12595A8C 
 124      9AD5D5
 125 0478 CE066AF2 		.ascii	"\316\006j\362-o\230\325\361\272\234s[\345\234\013\312"
 125      2D6F98D5 
 125      F1BA9C73 
 125      5BE59C0B 
 125      CA
 126 0489 190BC899 		.ascii	"\031\013\310\231\362\311Y\271Gr\326d\361{<9C\015\345"
 126      F2C959B9 
 126      4772D664 
 126      F17B3C39 
 126      430DE5
 127 049c AC6939F7 		.ascii	"\254i9\367\370\345\254\336\0336\001:4\321/gM\3129'\005"
 127      F8E5ACDE 
 127      1B36013A 
 127      34D12F67 
 127      4DCA3927 
 128 04b1 EB3005A4 		.ascii	"\3530\005\244\203r*oH\313\271\261:j\002\206|-\304\267"
 128      83722A6F 
 128      48CBB9B1 
 128      3A6A0286 
 128      7C2DC4B7 
 129 04c5 C8E9F7C5 		.ascii	"\310\351\367\305\326W\245\234-B\316\216\024\225$\262"
 129      D657A59C 
 129      2D42CE8E 
 129      149524B2 
 130 04d5 64EA2FEC 		.ascii	"d\352/\354{\027\260\201\236\226\3213\246b\0366\277\007"
 130      7B17B081 
 130      9E96D133 
 130      A6621E36 
 130      BF07
 131 04e7 C04B5D5D 		.ascii	"\300K]]\335\352\357X\261;76226\332\235\037+\034/v\277"
 131      DDEAEF58 
 131      B13B3736 
 131      323236DA 
 131      9D1F2B1C 
 132 04fe D6DFD7DB 		.ascii	"\326\337\327\333wB\234\345\207\216\015\026\212\335o"
 132      77429CE5 
 132      878E0D16 
 132      8ADD6F
 133 050d F6F676E7 		.ascii	"\366\366v\347\012\307{\272r\300\363\305<\313\277\300"
 133      0AC77BBA 
ARM GAS  /tmp/cc1m2DC5.s 			page 10


 133      72C0F3C5 
 133      3CCBBFC0 
 134 051d 8EE7D9D1 		.ascii	"\216\347\331\321<\3778\237\347\205\301O\242\271|q\350"
 134      3CFF389F 
 134      E785C14F 
 134      A2B97C71 
 134      E8
 135 052e A8EBBA43 		.ascii	"\250\353\272C\320<R,\270\342s\350\235C\317\273\317\366"
 135      D03C522C 
 135      B8E273E8 
 135      9D43CFBB 
 135      CFF6
 136 0540 002B40C6 		.ascii	"\000+@\306\234\365\036|\373\335\376\203\007\344\271"
 136      9CF51E7C 
 136      FBDDFE83 
 136      07E4B9
 137 054f 35541C00 		.ascii	"5T\034\000\226\177\361\037\247\032\306\332"
 137      967FF11F 
 137      A71AC6DA 
 138              		.text
 139              		.section	.gnu.lto_.cgraph.fd40c7f3c5f37237,"",%progbits
 140 0000 789C6362 		.ascii	"x\234cb`d`f``(`\200\002&\206z\006\206\011\347\030\352"
 140      60646066 
 140      60602860 
 140      80022686 
 140      7A068609 
 141 0017 EBE77530 		.ascii	"\353\347u021\3263\"8L\365LP\216\007\023s=3\204=\315"
 141      3231D633 
 141      22384CF5 
 141      4C508E07 
 141      13733D33 
 142 002e 8391BF9E 		.ascii	"\203\221\277\236\005\314nh`d\006\232\365\250\353\215"
 142      05CC6E68 
 142      6064069A 
 142      F5A8EB8D 
 143 003e 3C333323 		.ascii	"<33#C\323d\020\315\302\320<\035D314\315~#\317\302\314"
 143      43D36410 
 143      CDC2D03C 
 143      1D443331 
 143      34CD7E23 
 144 0055 F0F9F2FF 		.ascii	"\360\371\362\377\275\254 \372:\220f\000\000\177\256"
 144      BDAC20FA 
 144      3A906600 
 144      007FAE
 145 0064 239D     		.ascii	"#\235"
 146              		.text
 147              		.section	.gnu.lto_.vars.fd40c7f3c5f37237,"",%progbits
 148 0000 789C25C4 		.ascii	"x\234%\304\331\015\000\020\000D\301u\337BK\032\323\272"
 148      D90D0010 
 148      0044C175 
 148      DF424B1A 
 148      D3BA
 149 0012 97988FB1 		.ascii	"\227\230\217\2612r\222\216\276\341\245\253h(XJ\216\252"
 149      3272928E 
 149      BEE1A5AB 
 149      6828584A 
 149      8EAA
ARM GAS  /tmp/cc1m2DC5.s 			page 11


 150 0024 A71CA844 		.ascii	"\247\034\250Dj\211z\246YhT\332\215V\247\007\3741\007"
 150      6A897AA6 
 150      596854DA 
 150      8D56A707 
 150      FC3107
 151 0037 9B       		.ascii	"\233"
 152              		.text
 153              		.section	.gnu.lto_.refs.fd40c7f3c5f37237,"",%progbits
 154 0000 789C25C5 		.ascii	"x\234%\305\267\015\000 \000\300\260PB\0277\360\377\225"
 154      B70D0020 
 154      00C0B050 
 154      421737F0 
 154      FF95
 155 0012 08E1C591 		.ascii	"\010\341\305\221@\002\016\337Nb0\372\316j\261\332\354"
 155      40020EDF 
 155      4E6230FA 
 155      CE6AB1DA 
 155      EC
 156 0023 0EA70B2E 		.ascii	"\016\247\013.\0207\000\314"
 156      103700CC 
 157              		.text
 158              		.section	.gnu.lto_.statics.fd40c7f3c5f37237,"",%progbits
 159 0000 789C6362 		.ascii	"x\234cb`d`b\300\016@\342\214\020&\000\000\375\000\011"
 159      60646062 
 159      C00E40E2 
 159      8C102600 
 159      00FD0009 
 160              		.text
 161              		.section	.gnu.lto_.decls.fd40c7f3c5f37237,"",%progbits
 162 0000 789C9D56 		.ascii	"x\234\235V]h\034U\024\276w\222tw\233M\372#\015\351S"
 162      5D681C55 
 162      14BE7792 
 162      74779B4D 
 162      FA230DE9 
 163 0015 82A068E8 		.ascii	"\202\240h\350\356\324$R\025\202J\036\272\017V\260\230"
 163      EED42452 
 163      15824A1E 
 163      BA0F56B0 
 163      98
 164 0026 C7E5323B 		.ascii	"\307\3452;{c\207lf\326\331\273\232\276\215)h\021\204"
 164      7B63876C 
 164      66D6D9BB 
 164      9ABE8D29 
 164      681184
 165 0039 5568D597 		.ascii	"Uh\325\227\262QC\254Q\244\276\271\026\214m\254\251\326"
 165      B25143AC 
 165      51A4BEB9 
 165      168C6DAC 
 165      A9D6
 166 004b B6C168AB 		.ascii	"\266\301h\253\246\260\221\332\027\013\202VP(\254\347"
 166      A6B091DA 
 166      170B8256 
 166      5028ACE7 
 167 005b CEEFCEEE 		.ascii	"\316\357\316\356\314\216x\231o\367\314\275\347|\337"
 167      CC8E7899 
 167      6FF7CCBD 
 167      E77CDF
ARM GAS  /tmp/cc1m2DC5.s 			page 12


 168 006a 3967EE9D 		.ascii	"9g\356\235]\001a\304G\021\276\0320F\023\010\375\011"
 168      5D0161C4 
 168      4711BE1A 
 168      30461308 
 168      FD09
 169 007c 760FCC4D 		.ascii	"v\017\314M o\360\373*`\011\260\0148\003\250\001\372"
 169      206FF0FB 
 169      2A6009B0 
 169      0C3803A8 
 169      01FA
 170 008e 009F0156 		.ascii	"\000\237\001V\000\347\000\253\200\013\2005\300\327\200"
 170      00E700AB 
 170      800B8035 
 170      C0D780
 171 009d 4B80CB80 		.ascii	"K\200\313\200\253\200\037\000\327\001?!\377\2506\331"
 171      AB801F00 
 171      D7013F21 
 171      FFA836D9 
 172 00ad B8E5DE19 		.ascii	"\270\345\336\031K->K\001>\313->\313\001><\357$ \006"
 172      4B2D3E4B 
 172      013ECB2D 
 172      3ECB013E 
 172      3CEF2420 
 173 00c2 E8B7ED0D 		.ascii	"\350\267\355\015\300Y\300&\340\006`\013\260\000\250"
 173      C059C026 
 173      E006600B 
 173      B000A8
 174 00d1 03D601B7 		.ascii	"\003\326\001\267\354\330\036;\276j\353\327l\015\247"
 174      ECD81E3B 
 174      BE6AEBD7 
 174      6C0DA7
 175 00e0 07BCFE15 		.ascii	"\007\274\376\025d\365\300\251\237\367\302\351\001\257"
 175      64F5C0A9 
 175      9FF7C2E9 
 175      01AF
 176 00ee 9FF781D7 		.ascii	"\237\367\201\327\177\275%\257!t\312\250_\255\0343\326"
 176      7FBD25AF 
 176      2174CAA8 
 176      5FAD1C33 
 176      D6
 177 00ff 86FF6E34 		.ascii	"\206\377n4b\003\350\204\001\243\372\262a`\226\305\023"
 177      6203E884 
 177      01A3FAB2 
 177      616096C5 
 177      13
 178 0110 7BD05E94 		.ascii	"{\320^\224\305\375\360p\206M+\011V\267\031\230\305\013"
 178      C5FDF070 
 178      864D2B09 
 178      56B71998 
 178      C50B
 179 0122 78C0B69E 		.ascii	"x\300\266\236\355\262\310\004$`4\202N\033\346\300^G"
 179      EDB2C804 
 179      24603482 
 179      4E1BE6C0 
 179      5E47
 180 0134 60EC40B5 		.ascii	"`\354@\265O\377\031\347V\027\370\301\365\224\275\200"
 180      4FFF19E7 
ARM GAS  /tmp/cc1m2DC5.s 			page 13


 180      5617F8C1 
 180      F594BD80 
 181 0144 EE478BDC 		.ascii	"\356G\213\334}e~\320\024\344\204U<\344\3132\213\337"
 181      7D657ED0 
 181      14E48455 
 181      3CE4CB32 
 181      8BDF
 182 0156 C14287B4 		.ascii	"\301B\207\264\255d\004\364\014\006\327w\361\010\272"
 182      AD6404F4 
 182      0C06D777 
 182      F108BA
 183 0165 3BE12A65 		.ascii	";\341*e\361\242\033\033 \265\324&\365~\200\324z\233"
 183      F1A21B1B 
 183      20B5D426 
 183      F57E80D4 
 183      7A9B
 184 0177 54D691DA 		.ascii	"T\326\221\332x\274M\012\333%\3168%\006\011/\267\011"
 184      78BC4D0A 
 184      DB25CE38 
 184      2506092F 
 184      B709
 185 0189 7FD82E5C 		.ascii	"\177\330.\\\335\002\341\014\350\276\022w\204\231#|;"
 185      DD02E10C 
 185      E8BE1277 
 185      8499237C 
 185      3B
 186 019a D3D4CD79 		.ascii	"\323\324\315y\314\265\004\373\3568\266\224\355\333\327"
 186      CCB504FB 
 186      EE38B694 
 186      EDDBD7
 187 01a9 71A744CE 		.ascii	"q\247D\316\264%\362I@\007*\225c\325\214\327\200,\236"
 187      B425F249 
 187      40072A95 
 187      63D58CD7 
 187      802C9E
 188 01bc 129C5ED7 		.ascii	"\022\234^\327^\360\207O\371\242\357E\013F\375\015\036"
 188      5EF0874F 
 188      F9A2EF45 
 188      0B46FD0D 
 188      1E
 189 01cd 6DD41B8D 		.ascii	"m\324\033\215\241\004:n\030\363|\207e\326\340 \004o"
 189      A1043A6E 
 189      18F37C87 
 189      65D6E020 
 189      046F
 190 01df AFFBD07B 		.ascii	"\257\373\320{\206Q\341{(\213\317\342\004\224\3606v\312"
 190      8651E17B 
 190      288BCFE2 
 190      0494F036 
 190      76CA
 191 01f1 FEE0E4FA 		.ascii	"\376\340\344\372\005\321\221\212%\374\322poyY\314\326"
 191      05D1918A 
 191      25FCD270 
 191      6F7959CC 
 191      D6
 192 0202 B263F1F7 		.ascii	"\262c\361\367\314\016\336\2177\005\207\254v\372\332"
 192      CC0EDE8F 
ARM GAS  /tmp/cc1m2DC5.s 			page 14


 192      370587AC 
 192      76FADA
 193 0211 25217C8B 		.ascii	"%!|\213\177\3565\242\245\014'\257\217\\\252\233\017"
 193      7FEE35A2 
 193      A50C27AF 
 193      8F5CAA9B 
 193      0F
 194 0222 86F37C11 		.ascii	"\206\363|\021\311\263\342\361<\020\316s>\222g\303\345"
 194      C9B3E2F1 
 194      3C10CE73 
 194      3E9267C3 
 194      E5
 195 0233 D91C09E7 		.ascii	"\331\034\011\347\3712\222\3477/\237T8\317W\221<\177"
 195      F93292E7 
 195      372F9F54 
 195      38CF5791 
 195      3C7F
 196 0245 B83CABFB 		.ascii	"\270<\253\373\302y.F\362\334uy\356t\340\371&\222g\276"
 196      C2792E46 
 196      F2DC7579 
 196      EE74E0F9 
 196      269267BE 
 197 0259 CB3DB7E9 		.ascii	"\313=\267\351p\236o#y^syV\305p\236+\241<\275\350U\357"
 197      709E6F23 
 197      795E7379 
 197      56C5709E 
 197      2BA13CBD 
 198 0270 1858472A 		.ascii	"\030XG*\372(\254\343^\220>\351J\337>\261\335\"\377\317"
 198      FA28ACE3 
 198      5E903EE9 
 198      4ADF3EB1 
 198      DD22FFCF 
 199 0284 6C3CA90D 		.ascii	"l<\251\015`q\016\211\177\264\255\011\350\224+v\363\221"
 199      60710E89 
 199      7FB4AD09 
 199      E8942B76 
 199      F391
 200 0296 70CAEF3B 		.ascii	"p\312\357;\364\313J\372c\227\347N\207~]\213\3449\347"
 200      F4CB4AFA 
 200      6397E74E 
 200      877E5D8B 
 200      E439E7
 201 02a9 F5FDB170 		.ascii	"\365\375\261p\236\037#y\276\363\366\301\243\341<?{<"
 201      9E1F2379 
 201      BEF3F6C1 
 201      A3E13C3F 
 201      7B3C
 202 02bb 2D2DE6BB 		.ascii	"--\346\273 <n\0234\202\343\270z\364\203\276a\346x\313"
 202      203C6E13 
 202      3482E3B8 
 202      7AF483BE 
 202      61E678CB 
 203 02cf EBD95FC1 		.ascii	"\353\331_\301\017:\234\215gQ\357\360\240[\326v\241\212"
 203      0F3A9C8D 
 203      6751EFF0 
 203      A05BD676 
 203      A18A
ARM GAS  /tmp/cc1m2DC5.s 			page 15


 204 02e1 F9BBFFC4 		.ascii	"\371\273\377\304[\375\366\013\272\276h\014\016z\357"
 204      5BFDF60B 
 204      BABE680C 
 204      0E7AEF
 205 02f0 E7B8CB8E 		.ascii	"\347\270\313\216\235\\\015+\327_\314\363\360{\027\237"
 205      9D5C0D2B 
 205      D75FCCF3 
 205      F07B179F 
 206 0300 C76D4A5C 		.ascii	"\307mJ\\\213{\360\261\327\263]\263\201=\215\235\256"
 206      8B7BF0B1 
 206      D7B35DB3 
 206      813D8D9D 
 206      AE
 207 0311 8660476E 		.ascii	"\206`Gn\341]\246e\346d\270e';\365\376\327&\265d\242"
 207      E15DA665 
 207      E664B865 
 207      273BF5FE 
 207      D726B564 
 208 0326 D972B233 		.ascii	"\331r\2623\377\344\274\364\177\377\344\240$!T\322\013"
 208      FFE4BCF4 
 208      7FFFE4A0 
 208      242154D2 
 208      0B
 209 0337 4789A22A 		.ascii	"G\211\242*l\333\301\247\247\206'\321\303\351\264h]Z"
 209      6CDBC1A7 
 209      A78627D1 
 209      C3E9B468 
 209      5D5A
 210 0349 4994B5D9 		.ascii	"I\224\265\331YM\025\213\232\316J\342\223\207\017M\036"
 210      594D158B 
 210      9ACE4AE2 
 210      93870F4D 
 210      1E
 211 035a 9AE37345 		.ascii	"\232\343sE\245@\365\222xprR\224u\266?-\243\356\027\251"
 211      A540F592 
 211      78707252 
 211      9475B63F 
 211      2DA3EE17 
 212 036f 34D34B48 		.ascii	"4\323KHAb\324d\353#y:-\225\013\214\3209\205\305UM\247"
 212      4162D464 
 212      EB23793A 
 212      2D950B8C 
 212      D03985C5 
 213 0386 ACACAB7D 		.ascii	"\254\254\253}\207i\2112\222\221\324<P\364\250\322\014"
 213      87698932 
 213      9291D43C 
 213      50F4A8D2 
 213      0C
 214 0397 CDC3A2A2 		.ascii	"\315\303\242\242\026\024\225\306TM.h*\215\227\025\225"
 214      161495C6 
 214      544D2E68 
 214      2A8D9715 
 214      95
 215 03a8 8D8D12C6 		.ascii	"\215\215\022\306D\255\310\270\256\370\234,\247$}6\245"
 215      44ADC8B8 
 215      AEF89C2C 
 215      A7247D36 
ARM GAS  /tmp/cc1m2DC5.s 			page 16


 215      A5
 216 03b9 C2728A4A 		.ascii	"\302r\212J9%5N\016\244F\367?4\366\374\230\230ST\236"
 216      3925354E 
 216      0EA446F7 
 216      3F34F6FC 
 216      98985354 
 217 03ce 6F41C971 		.ascii	"oA\311q?\321\347'\216\247\017\244\307E\267(\270\374"
 217      3FD1E727 
 217      8EA70FA4 
 217      C745B728 
 217      B8FC
 218 03e0 EB8A2A17 		.ascii	"\353\212*\027\312y*\226X\036T\323G\320\036B\212\272"
 218      CA792A96 
 218      581E54D3 
 218      47D01E42 
 218      8ABA
 219 03f2 26D35289 		.ascii	"&\323R\211\224\230$\317\020\252\346\011\331M\310\254"
 219      949824CF 
 219      10AAE609 
 219      D94DC8AC 
 220 0402 A4A8CD53 		.ascii	"\244\250\315S\367\370\246rR\211\0222\320\032lMo#4/1"
 220      F7F8A672 
 220      52891232 
 220      D01A6C4D 
 220      6F23342F 
 221 0417 2941189D 		.ascii	")A\030\235c\334\352!\374s;\311Y\216:\213\233&\360\306"
 221      63DCEA21 
 221      FC733BC9 
 221      598E3A8B 
 221      9B26F0C6 
 222 042b A6CBAA5C 		.ascii	"\246\313\252\\$l'1\373H$]\227\216\362\205\335\276\011"
 222      246C2731 
 222      FB48245D 
 222      978EF285 
 222      DDBE09
 223 043e 33087CA6 		.ascii	"3\010|\246a\316\347\3234a\021\233|@\330-\037\221\364"
 223      61CEE7D3 
 223      3461119B 
 223      7C40D82D 
 223      1F91F4
 224 0451 7F01B12F 		.ascii	"\177\001\261/\214."
 224      8C2E
 225              		.text
 226              		.section	.gnu.lto_.symtab.fd40c7f3c5f37237,"",%progbits
 227 0000 5F5F6561 		.ascii	"__early_init\000\000\001\000\000\000\000\000\000\000"
 227      726C795F 
 227      696E6974 
 227      00000100 
 227      00000000 
 228 0016 0000A000 		.ascii	"\000\000\240\000\000\000__late_init\000\000\001\000"
 228      00005F5F 
 228      6C617465 
 228      5F696E69 
 228      74000001 
 229 002b 00000000 		.ascii	"\000\000\000\000\000\000\000\000\247\000\000\000_de"
 229      00000000 
 229      A7000000 
ARM GAS  /tmp/cc1m2DC5.s 			page 17


 229      5F6465
 230 003a 6661756C 		.ascii	"fault_exit\000\000\001\000\000\000\000\000\000\000\000"
 230      745F6578 
 230      69740000 
 230      01000000 
 230      00000000 
 231 004f 00AB0000 		.ascii	"\000\253\000\000\000Reset_Handler\000\000\000\000\000"
 231      00526573 
 231      65745F48 
 231      616E646C 
 231      65720000 
 232 0066 00000000 		.ascii	"\000\000\000\000\000\000\000\261\000\000\000main\000"
 232      000000B1 
 232      0000006D 
 232      61696E00 
 233 0076 00020000 		.ascii	"\000\002\000\000\000\000\000\000\000\000\000\272\000"
 233      00000000 
 233      000000BA 
 233      00
 234 0083 00005F5F 		.ascii	"\000\000__process_stack_end__\000\000\002\000\000\000"
 234      70726F63 
 234      6573735F 
 234      73746163 
 234      6B5F656E 
 235 00a0 00000000 		.ascii	"\000\000\000\000\000\000\273\000\000\000__main_stac"
 235      0000BB00 
 235      00005F5F 
 235      6D61696E 
 235      5F737461 
 236 00b5 6B5F656E 		.ascii	"k_end__\000\000\002\000\000\000\000\000\000\000\000"
 236      645F5F00 
 236      00020000 
 236      00000000 
 236      0000
 237 00c7 00C00000 		.ascii	"\000\300\000\000\000__main_stack_base__\000\000\002"
 237      005F5F6D 
 237      61696E5F 
 237      73746163 
 237      6B5F6261 
 238 00e2 00000000 		.ascii	"\000\000\000\000\000\000\000\000\000\302\000\000\000"
 238      00000000 
 238      00C20000 
 238      00
 239 00ef 5F5F7072 		.ascii	"__process_stack_base__\000\000\002\000\000\000\000\000"
 239      6F636573 
 239      735F7374 
 239      61636B5F 
 239      62617365 
 240 010d 00000000 		.ascii	"\000\000\000\000\304\000\000\000_edata\000\000\002\000"
 240      C4000000 
 240      5F656461 
 240      74610000 
 240      0200
 241 011f 00000000 		.ascii	"\000\000\000\000\000\000\000\000\306\000\000\000_te"
 241      00000000 
 241      C6000000 
 241      5F7465
ARM GAS  /tmp/cc1m2DC5.s 			page 18


 242 012e 78746461 		.ascii	"xtdata\000\000\002\000\000\000\000\000\000\000\000\000"
 242      74610000 
 242      02000000 
 242      00000000 
 242      0000
 243 0140 C8000000 		.ascii	"\310\000\000\000_data\000\000\002\000\000\000\000\000"
 243      5F646174 
 243      61000002 
 243      00000000 
 243      00
 244 0151 00000000 		.ascii	"\000\000\000\000\312\000\000\000_bss_start\000\000\002"
 244      CA000000 
 244      5F627373 
 244      5F737461 
 244      72740000 
 245 0166 00000000 		.ascii	"\000\000\000\000\000\000\000\000\000\314\000\000\000"
 245      00000000 
 245      00CC0000 
 245      00
 246 0173 5F627373 		.ascii	"_bss_end\000\000\002\000\000\000\000\000\000\000\000"
 246      5F656E64 
 246      00000200 
 246      00000000 
 246      000000
 247 0186 00CE0000 		.ascii	"\000\316\000\000\000__init_array_end\000\000\002\000"
 247      005F5F69 
 247      6E69745F 
 247      61727261 
 247      795F656E 
 248 019f 00000000 		.ascii	"\000\000\000\000\000\000\000\000\320\000\000\000__i"
 248      00000000 
 248      D0000000 
 248      5F5F69
 249 01ae 6E69745F 		.ascii	"nit_array_start\000\000\002\000\000\000\000\000\000"
 249      61727261 
 249      795F7374 
 249      61727400 
 249      00020000 
 250 01c6 000000D6 		.ascii	"\000\000\000\326\000\000\000__fini_array_end\000\000"
 250      0000005F 
 250      5F66696E 
 250      695F6172 
 250      7261795F 
 251 01df 02000000 		.ascii	"\002\000\000\000\000\000\000\000\000\000\330\000\000"
 251      00000000 
 251      0000D800 
 251      00
 252 01ec 005F5F66 		.ascii	"\000__fini_array_start\000\000\002\000\000\000\000\000"
 252      696E695F 
 252      61727261 
 252      795F7374 
 252      61727400 
 253 0207 00000000 		.ascii	"\000\000\000\000\332\000\000\000"
 253      DA000000 
 254              		.text
 255              		.section	.gnu.lto_.opts,"",%progbits
 256 0000 272D6D63 		.ascii	"'-mcpu=cortex-m3''-mno-thumb-interwork''-mthumb''-g"
ARM GAS  /tmp/cc1m2DC5.s 			page 19


 256      70753D63 
 256      6F727465 
 256      782D6D33 
 256      27272D6D 
 257 0033 67646227 		.ascii	"gdb''-O2''-fomit-frame-pointer''-falign-functions=1"
 257      272D4F32 
 257      27272D66 
 257      6F6D6974 
 257      2D667261 
 258 0066 3627272D 		.ascii	"6''-ffunction-sections''-fdata-sections''-fno-commo"
 258      6666756E 
 258      6374696F 
 258      6E2D7365 
 258      6374696F 
 259 0099 6E27272D 		.ascii	"n''-flto'\000"
 259      666C746F 
 259      2700
 260              		.text
 261              		.cfi_sections	.debug_frame
 262              		.section	.text.__early_init,"ax",%progbits
 263              		.align	2
 264              		.p2align 4,,15
 265              		.weak	__early_init
 266              		.thumb
 267              		.thumb_func
 268              		.type	__early_init, %function
 269              	__early_init:
 270              	.LFB0:
 271              		.file 1 "../../../os/common/ports/ARMCMx/compilers/GCC/crt0.c"
 272              		.loc 1 227 0
 273              		.cfi_startproc
 274              		@ args = 0, pretend = 0, frame = 0
 275              		@ frame_needed = 0, uses_anonymous_args = 0
 276              		@ link register save eliminated.
 277 0000 7047     		bx	lr
 278              		.cfi_endproc
 279              	.LFE0:
 280              		.size	__early_init, .-__early_init
 281 0002 00BFAFF3 		.section	.text.__late_init,"ax",%progbits
 281      0080AFF3 
 281      0080AFF3 
 281      0080
 282              		.align	2
 283              		.p2align 4,,15
 284              		.weak	__late_init
 285              		.thumb
 286              		.thumb_func
 287              		.type	__late_init, %function
 288              	__late_init:
 289              	.LFB1:
 290              		.loc 1 239 0
 291              		.cfi_startproc
 292              		@ args = 0, pretend = 0, frame = 0
 293              		@ frame_needed = 0, uses_anonymous_args = 0
 294              		@ link register save eliminated.
 295 0000 7047     		bx	lr
 296              		.cfi_endproc
ARM GAS  /tmp/cc1m2DC5.s 			page 20


 297              	.LFE1:
 298              		.size	__late_init, .-__late_init
 299 0002 00BFAFF3 		.section	.text._default_exit,"ax",%progbits
 299      0080AFF3 
 299      0080AFF3 
 299      0080
 300              		.align	2
 301              		.p2align 4,,15
 302              		.weak	_default_exit
 303              		.thumb
 304              		.thumb_func
 305              		.type	_default_exit, %function
 306              	_default_exit:
 307              	.LFB2:
 308              		.loc 1 250 0
 309              		.cfi_startproc
 310              		@ Volatile: function does not return.
 311              		@ args = 0, pretend = 0, frame = 0
 312              		@ frame_needed = 0, uses_anonymous_args = 0
 313              		@ link register save eliminated.
 314              	.L4:
 315 0000 FEE7     		b	.L4
 316              		.cfi_endproc
 317              	.LFE2:
 318              		.size	_default_exit, .-_default_exit
 319 0002 00BFAFF3 		.section	.text.Reset_Handler,"ax",%progbits
 319      0080AFF3 
 319      0080AFF3 
 319      0080
 320              		.align	2
 321              		.p2align 4,,15
 322              		.global	Reset_Handler
 323              		.thumb
 324              		.thumb_func
 325              		.type	Reset_Handler, %function
 326              	Reset_Handler:
 327              	.LFB3:
 328              		.loc 1 261 0
 329              		.cfi_startproc
 330              		@ Naked Function: prologue and epilogue provided by programmer.
 331              		@ args = 0, pretend = 0, frame = 0
 332              		@ frame_needed = 0, uses_anonymous_args = 0
 333              		.loc 1 267 0
 334              	@ 267 "../../../os/common/ports/ARMCMx/compilers/GCC/crt0.c" 1
 335 0000 72B6     		cpsid   i
 336              	@ 0 "" 2
 337              		.loc 1 268 0
 338              		.thumb
 339 0002 634C     		ldr	r4, .L67
 340              	.LVL0:
 341              		.loc 1 269 0
 342              	@ 269 "../../../os/common/ports/ARMCMx/compilers/GCC/crt0.c" 1
 343 0004 84F30988 		msr     PSP, r4
 344              	@ 0 "" 2
 345              	.LVL1:
 346              		.loc 1 289 0
 347              		.thumb
ARM GAS  /tmp/cc1m2DC5.s 			page 21


 348 0008 0223     		movs	r3, #2
 349              	@ 289 "../../../os/common/ports/ARMCMx/compilers/GCC/crt0.c" 1
 350 000a 83F31488 		msr     CONTROL, r3
 351              	@ 0 "" 2
 352              		.loc 1 290 0
 353              	@ 290 "../../../os/common/ports/ARMCMx/compilers/GCC/crt0.c" 1
 354 000e BFF36F8F 		isb
 355              	@ 0 "" 2
 356              	.LVL2:
 357              		.thumb
 358              	.LBB2:
 359              		.loc 1 294 0
 360 0012 6048     		ldr	r0, .L67+4
 361 0014 6049     		ldr	r1, .L67+8
 362 0016 8842     		cmp	r0, r1
 363 0018 18D2     		bcs	.L10
 364              	.LBE2:
 365              	.LBB3:
 366              		.loc 1 261 0
 367 001a CA1C     		adds	r2, r1, #3
 368 001c 051D     		adds	r5, r0, #4
 369 001e 561B     		subs	r6, r2, r5
 370 0020 26F00307 		bic	r7, r6, #3
 371 0024 0346     		mov	r3, r0
 372 0026 3818     		adds	r0, r7, r0
 373              	.LBE3:
 374              	.LBB4:
 375              		.loc 1 294 0
 376 0028 4FF05531 		mov	r1, #1431655765
 377 002c 8342     		cmp	r3, r0
 378 002e 1960     		str	r1, [r3, #0]
 379              	.LVL3:
 380 0030 C7F38002 		ubfx	r2, r7, #2, #1
 381 0034 0AD0     		beq	.L10
 382 0036 1AB1     		cbz	r2, .L9
 383 0038 8542     		cmp	r5, r0
 384 003a 2B46     		mov	r3, r5
 385 003c 2960     		str	r1, [r5, #0]
 386 003e 05D0     		beq	.L10
 387              	.L9:
 388 0040 1D1D     		adds	r5, r3, #4
 389              		.loc 1 294 0 is_stmt 0 discriminator 2
 390 0042 5960     		str	r1, [r3, #4]
 391 0044 0833     		adds	r3, r3, #8
 392 0046 8342     		cmp	r3, r0
 393 0048 6960     		str	r1, [r5, #4]
 394 004a F9D1     		bne	.L9
 395              	.L10:
 396              	.LVL4:
 397              	.LBE4:
 398              	.LBB5:
 399              		.loc 1 297 0 is_stmt 1
 400 004c 534E     		ldr	r6, .L67+12
 401 004e A642     		cmp	r6, r4
 402 0050 18D2     		bcs	.L8
 403              	.LBE5:
 404              	.LBB6:
ARM GAS  /tmp/cc1m2DC5.s 			page 22


 405              		.loc 1 261 0
 406 0052 5349     		ldr	r1, .L67+16
 407 0054 371D     		adds	r7, r6, #4
 408 0056 C81B     		subs	r0, r1, r7
 409 0058 20F00302 		bic	r2, r0, #3
 410 005c 3346     		mov	r3, r6
 411 005e 9519     		adds	r5, r2, r6
 412              	.LBE6:
 413              	.LBB7:
 414              		.loc 1 297 0
 415 0060 4FF05534 		mov	r4, #1431655765
 416 0064 AB42     		cmp	r3, r5
 417 0066 3460     		str	r4, [r6, #0]
 418              	.LVL5:
 419 0068 C2F38006 		ubfx	r6, r2, #2, #1
 420 006c 0AD0     		beq	.L8
 421 006e 1EB1     		cbz	r6, .L13
 422 0070 AF42     		cmp	r7, r5
 423 0072 3B46     		mov	r3, r7
 424 0074 3C60     		str	r4, [r7, #0]
 425 0076 05D0     		beq	.L8
 426              	.L13:
 427 0078 1F1D     		adds	r7, r3, #4
 428              		.loc 1 297 0 is_stmt 0 discriminator 2
 429 007a 5C60     		str	r4, [r3, #4]
 430 007c 0833     		adds	r3, r3, #8
 431 007e AB42     		cmp	r3, r5
 432 0080 7C60     		str	r4, [r7, #4]
 433 0082 F9D1     		bne	.L13
 434              	.L8:
 435              	.LBE7:
 436              		.loc 1 303 0 is_stmt 1
 437 0084 FFF7FEFF 		bl	__early_init
 438              	.LVL6:
 439              	.LBB8:
 440              		.loc 1 312 0
 441 0088 4649     		ldr	r1, .L67+20
 442 008a 4748     		ldr	r0, .L67+24
 443 008c 8142     		cmp	r1, r0
 444 008e 1BD2     		bcs	.L12
 445              	.LBE8:
 446              	.LBB9:
 447              		.loc 1 261 0
 448 0090 C21C     		adds	r2, r0, #3
 449 0092 0C1D     		adds	r4, r1, #4
 450 0094 151B     		subs	r5, r2, r4
 451 0096 454F     		ldr	r7, .L67+28
 452 0098 25F00300 		bic	r0, r5, #3
 453              	.LBE9:
 454              	.LBB10:
 455              		.loc 1 313 0
 456 009c 3A68     		ldr	r2, [r7, #0]
 457 009e 061D     		adds	r6, r0, #4
 458 00a0 0423     		movs	r3, #4
 459              		.loc 1 312 0
 460 00a2 B342     		cmp	r3, r6
 461              		.loc 1 313 0
ARM GAS  /tmp/cc1m2DC5.s 			page 23


 462 00a4 0A60     		str	r2, [r1, #0]
 463              	.LVL7:
 464 00a6 C0F38005 		ubfx	r5, r0, #2, #1
 465              		.loc 1 312 0
 466 00aa 0DD0     		beq	.L12
 467 00ac 25B1     		cbz	r5, .L16
 468              		.loc 1 313 0
 469 00ae 7868     		ldr	r0, [r7, #4]
 470 00b0 0823     		movs	r3, #8
 471              		.loc 1 312 0
 472 00b2 B342     		cmp	r3, r6
 473              		.loc 1 313 0
 474 00b4 2060     		str	r0, [r4, #0]
 475              		.loc 1 312 0
 476 00b6 07D0     		beq	.L12
 477              	.L16:
 478              		.loc 1 313 0
 479 00b8 DD59     		ldr	r5, [r3, r7]
 480 00ba 1A1D     		adds	r2, r3, #4
 481 00bc 5D50     		str	r5, [r3, r1]
 482 00be BC58     		ldr	r4, [r7, r2]
 483 00c0 0833     		adds	r3, r3, #8
 484              		.loc 1 312 0
 485 00c2 B342     		cmp	r3, r6
 486              		.loc 1 313 0
 487 00c4 8C50     		str	r4, [r1, r2]
 488              		.loc 1 312 0
 489 00c6 F7D1     		bne	.L16
 490              	.L12:
 491              	.LVL8:
 492              	.LBE10:
 493              	.LBB11:
 494              		.loc 1 319 0
 495 00c8 394F     		ldr	r7, .L67+32
 496 00ca 3A49     		ldr	r1, .L67+36
 497 00cc 8F42     		cmp	r7, r1
 498 00ce 17D2     		bcs	.L15
 499              	.LBE11:
 500              	.LBB12:
 501              		.loc 1 261 0
 502 00d0 CE1C     		adds	r6, r1, #3
 503 00d2 3D1D     		adds	r5, r7, #4
 504 00d4 701B     		subs	r0, r6, r5
 505 00d6 20F00302 		bic	r2, r0, #3
 506 00da 3B46     		mov	r3, r7
 507 00dc D719     		adds	r7, r2, r7
 508              	.LBE12:
 509              	.LBB13:
 510              		.loc 1 319 0
 511 00de 0024     		movs	r4, #0
 512 00e0 BB42     		cmp	r3, r7
 513 00e2 1C60     		str	r4, [r3, #0]
 514              	.LVL9:
 515 00e4 C2F38001 		ubfx	r1, r2, #2, #1
 516 00e8 0AD0     		beq	.L15
 517 00ea 19B1     		cbz	r1, .L19
 518 00ec BD42     		cmp	r5, r7
ARM GAS  /tmp/cc1m2DC5.s 			page 24


 519 00ee 2B46     		mov	r3, r5
 520 00f0 2C60     		str	r4, [r5, #0]
 521 00f2 05D0     		beq	.L15
 522              	.L19:
 523 00f4 1E1D     		adds	r6, r3, #4
 524              		.loc 1 319 0 is_stmt 0 discriminator 2
 525 00f6 5C60     		str	r4, [r3, #4]
 526 00f8 0833     		adds	r3, r3, #8
 527 00fa BB42     		cmp	r3, r7
 528 00fc 7460     		str	r4, [r6, #4]
 529 00fe F9D1     		bne	.L19
 530              	.L15:
 531              	.LBE13:
 532              		.loc 1 323 0 is_stmt 1
 533 0100 FFF7FEFF 		bl	__late_init
 534              	.LVL10:
 535              	.LBB14:
 536              		.loc 1 329 0
 537 0104 2C4D     		ldr	r5, .L67+40
 538 0106 2D48     		ldr	r0, .L67+44
 539 0108 8542     		cmp	r5, r0
 540 010a 1CD2     		bcs	.L18
 541              	.LBE14:
 542              	.LBB15:
 543              		.loc 1 261 0
 544 010c C21C     		adds	r2, r0, #3
 545 010e 2E1D     		adds	r6, r5, #4
 546 0110 941B     		subs	r4, r2, r6
 547 0112 A108     		lsrs	r1, r4, #2
 548 0114 4F1C     		adds	r7, r1, #1
 549 0116 0124     		movs	r4, #1
 550              	.LBE15:
 551              	.LBB16:
 552              		.loc 1 330 0
 553 0118 2B68     		ldr	r3, [r5, #0]
 554 011a 01EA0408 		and	r8, r1, r4
 555 011e 9847     		blx	r3
 556              	.LVL11:
 557              		.loc 1 329 0
 558 0120 BC42     		cmp	r4, r7
 559 0122 10D0     		beq	.L18
 560 0124 B8F1000F 		cmp	r8, #0
 561 0128 05D0     		beq	.L22
 562              		.loc 1 330 0
 563 012a 3068     		ldr	r0, [r6, #0]
 564 012c 0224     		movs	r4, #2
 565 012e 8047     		blx	r0
 566              	.LVL12:
 567              		.loc 1 329 0
 568 0130 BC42     		cmp	r4, r7
 569 0132 3546     		mov	r5, r6
 570 0134 07D0     		beq	.L18
 571              	.L22:
 572              		.loc 1 330 0
 573 0136 6A68     		ldr	r2, [r5, #4]
 574 0138 9047     		blx	r2
 575              	.LVL13:
ARM GAS  /tmp/cc1m2DC5.s 			page 25


 576 013a 0234     		adds	r4, r4, #2
 577 013c AE68     		ldr	r6, [r5, #8]
 578 013e B047     		blx	r6
 579              	.LVL14:
 580 0140 0835     		adds	r5, r5, #8
 581              		.loc 1 329 0
 582 0142 BC42     		cmp	r4, r7
 583 0144 F7D1     		bne	.L22
 584              	.L18:
 585              	.LBE16:
 586              		.loc 1 337 0
 587 0146 FFF7FEFF 		bl	main
 588              	.LVL15:
 589              	.LBB17:
 590              		.loc 1 343 0
 591 014a 1D4D     		ldr	r5, .L67+48
 592 014c 1D49     		ldr	r1, .L67+52
 593 014e 8D42     		cmp	r5, r1
 594 0150 1CD2     		bcs	.L21
 595              	.LBE17:
 596              		.loc 1 261 0
 597 0152 CF1C     		adds	r7, r1, #3
 598 0154 2E1D     		adds	r6, r5, #4
 599 0156 BB1B     		subs	r3, r7, r6
 600 0158 9808     		lsrs	r0, r3, #2
 601 015a 471C     		adds	r7, r0, #1
 602 015c 0124     		movs	r4, #1
 603              	.LBB18:
 604              		.loc 1 344 0
 605 015e 2A68     		ldr	r2, [r5, #0]
 606 0160 00EA0408 		and	r8, r0, r4
 607 0164 9047     		blx	r2
 608              	.LVL16:
 609              		.loc 1 343 0
 610 0166 BC42     		cmp	r4, r7
 611 0168 10D0     		beq	.L21
 612 016a B8F1000F 		cmp	r8, #0
 613 016e 05D0     		beq	.L23
 614              		.loc 1 344 0
 615 0170 3168     		ldr	r1, [r6, #0]
 616 0172 0224     		movs	r4, #2
 617 0174 8847     		blx	r1
 618              	.LVL17:
 619              		.loc 1 343 0
 620 0176 BC42     		cmp	r4, r7
 621 0178 3546     		mov	r5, r6
 622 017a 07D0     		beq	.L21
 623              	.L23:
 624              		.loc 1 344 0
 625 017c 6E68     		ldr	r6, [r5, #4]
 626 017e B047     		blx	r6
 627              	.LVL18:
 628 0180 0234     		adds	r4, r4, #2
 629 0182 AB68     		ldr	r3, [r5, #8]
 630 0184 9847     		blx	r3
 631              	.LVL19:
 632 0186 0835     		adds	r5, r5, #8
ARM GAS  /tmp/cc1m2DC5.s 			page 26


 633              		.loc 1 343 0
 634 0188 BC42     		cmp	r4, r7
 635 018a F7D1     		bne	.L23
 636              	.L21:
 637              	.LBE18:
 638              		.loc 1 351 0
 639 018c FFF7FEFF 		bl	_default_exit
 640              	.LVL20:
 641              	.L68:
 642              		.align	2
 643              	.L67:
 644 0190 00000000 		.word	__process_stack_end__
 645 0194 00000000 		.word	__main_stack_base__
 646 0198 00000000 		.word	__main_stack_end__
 647 019c 00000000 		.word	__process_stack_base__
 648 01a0 03000000 		.word	__process_stack_end__+3
 649 01a4 00000000 		.word	_data
 650 01a8 00000000 		.word	_edata
 651 01ac 00000000 		.word	_textdata
 652 01b0 00000000 		.word	_bss_start
 653 01b4 00000000 		.word	_bss_end
 654 01b8 00000000 		.word	__init_array_start
 655 01bc 00000000 		.word	__init_array_end
 656 01c0 00000000 		.word	__fini_array_start
 657 01c4 00000000 		.word	__fini_array_end
 658              		.cfi_endproc
 659              	.LFE3:
 660              		.size	Reset_Handler, .-Reset_Handler
 661 01c8 AFF30080 		.text
 661      AFF30080 
 662              	.Letext0:
 663              		.file 2 "/opt/ARM/gcc-arm-none-eabi-4_7-2013q3/bin/../lib/gcc/arm-none-eabi/4.7.4/../../../../arm-
 664              		.section	.debug_info,"",%progbits
 665              	.Ldebug_info0:
 666 0000 B4020000 		.4byte	0x2b4
 667 0004 0200     		.2byte	0x2
 668 0006 00000000 		.4byte	.Ldebug_abbrev0
 669 000a 04       		.byte	0x4
 670 000b 01       		.uleb128 0x1
 671 000c D1000000 		.4byte	.LASF29
 672 0010 01       		.byte	0x1
 673 0011 8D010000 		.4byte	.LASF30
 674 0015 2C010000 		.4byte	.LASF31
 675 0019 B8000000 		.4byte	.Ldebug_ranges0+0xb8
 676 001d 00000000 		.4byte	0
 677 0021 00000000 		.4byte	0
 678 0025 00000000 		.4byte	.Ldebug_line0
 679 0029 02       		.uleb128 0x2
 680 002a 01       		.byte	0x1
 681 002b 06       		.byte	0x6
 682 002c 36020000 		.4byte	.LASF0
 683 0030 03       		.uleb128 0x3
 684 0031 85010000 		.4byte	.LASF5
 685 0035 02       		.byte	0x2
 686 0036 2A       		.byte	0x2a
 687 0037 3B000000 		.4byte	0x3b
 688 003b 02       		.uleb128 0x2
ARM GAS  /tmp/cc1m2DC5.s 			page 27


 689 003c 01       		.byte	0x1
 690 003d 08       		.byte	0x8
 691 003e 76000000 		.4byte	.LASF1
 692 0042 02       		.uleb128 0x2
 693 0043 02       		.byte	0x2
 694 0044 05       		.byte	0x5
 695 0045 0C020000 		.4byte	.LASF2
 696 0049 02       		.uleb128 0x2
 697 004a 02       		.byte	0x2
 698 004b 07       		.byte	0x7
 699 004c A2000000 		.4byte	.LASF3
 700 0050 02       		.uleb128 0x2
 701 0051 04       		.byte	0x4
 702 0052 05       		.byte	0x5
 703 0053 27020000 		.4byte	.LASF4
 704 0057 03       		.uleb128 0x3
 705 0058 1E020000 		.4byte	.LASF6
 706 005c 02       		.byte	0x2
 707 005d 50       		.byte	0x50
 708 005e 62000000 		.4byte	0x62
 709 0062 02       		.uleb128 0x2
 710 0063 04       		.byte	0x4
 711 0064 07       		.byte	0x7
 712 0065 90000000 		.4byte	.LASF7
 713 0069 02       		.uleb128 0x2
 714 006a 08       		.byte	0x8
 715 006b 05       		.byte	0x5
 716 006c D9010000 		.4byte	.LASF8
 717 0070 02       		.uleb128 0x2
 718 0071 08       		.byte	0x8
 719 0072 07       		.byte	0x7
 720 0073 5F000000 		.4byte	.LASF9
 721 0077 04       		.uleb128 0x4
 722 0078 04       		.byte	0x4
 723 0079 05       		.byte	0x5
 724 007a 696E7400 		.ascii	"int\000"
 725 007e 02       		.uleb128 0x2
 726 007f 04       		.byte	0x4
 727 0080 07       		.byte	0x7
 728 0081 1F010000 		.4byte	.LASF10
 729 0085 03       		.uleb128 0x3
 730 0086 16020000 		.4byte	.LASF11
 731 008a 01       		.byte	0x1
 732 008b 2D       		.byte	0x2d
 733 008c 90000000 		.4byte	0x90
 734 0090 05       		.uleb128 0x5
 735 0091 04       		.byte	0x4
 736 0092 96000000 		.4byte	0x96
 737 0096 06       		.uleb128 0x6
 738 0097 01       		.byte	0x1
 739 0098 03       		.uleb128 0x3
 740 0099 48000000 		.4byte	.LASF12
 741 009d 01       		.byte	0x1
 742 009e 2E       		.byte	0x2e
 743 009f A3000000 		.4byte	0xa3
 744 00a3 05       		.uleb128 0x5
 745 00a4 04       		.byte	0x4
ARM GAS  /tmp/cc1m2DC5.s 			page 28


 746 00a5 85000000 		.4byte	0x85
 747 00a9 07       		.uleb128 0x7
 748 00aa 01       		.byte	0x1
 749 00ab CC010000 		.4byte	.LASF13
 750 00af 01       		.byte	0x1
 751 00b0 E3       		.byte	0xe3
 752 00b1 01       		.byte	0x1
 753 00b2 00000000 		.4byte	.LFB0
 754 00b6 02000000 		.4byte	.LFE0
 755 00ba 02       		.byte	0x2
 756 00bb 7D       		.byte	0x7d
 757 00bc 00       		.sleb128 0
 758 00bd 01       		.byte	0x1
 759 00be 07       		.uleb128 0x7
 760 00bf 01       		.byte	0x1
 761 00c0 84000000 		.4byte	.LASF14
 762 00c4 01       		.byte	0x1
 763 00c5 EF       		.byte	0xef
 764 00c6 01       		.byte	0x1
 765 00c7 00000000 		.4byte	.LFB1
 766 00cb 02000000 		.4byte	.LFE1
 767 00cf 02       		.byte	0x2
 768 00d0 7D       		.byte	0x7d
 769 00d1 00       		.sleb128 0
 770 00d2 01       		.byte	0x1
 771 00d3 07       		.uleb128 0x7
 772 00d4 01       		.byte	0x1
 773 00d5 51000000 		.4byte	.LASF15
 774 00d9 01       		.byte	0x1
 775 00da FA       		.byte	0xfa
 776 00db 01       		.byte	0x1
 777 00dc 00000000 		.4byte	.LFB2
 778 00e0 02000000 		.4byte	.LFE2
 779 00e4 02       		.byte	0x2
 780 00e5 7D       		.byte	0x7d
 781 00e6 00       		.sleb128 0
 782 00e7 01       		.byte	0x1
 783 00e8 08       		.uleb128 0x8
 784 00e9 01       		.byte	0x1
 785 00ea 23000000 		.4byte	.LASF32
 786 00ee 01       		.byte	0x1
 787 00ef 0501     		.2byte	0x105
 788 00f1 01       		.byte	0x1
 789 00f2 00000000 		.4byte	.LFB3
 790 00f6 C8010000 		.4byte	.LFE3
 791 00fa 02       		.byte	0x2
 792 00fb 7D       		.byte	0x7d
 793 00fc 00       		.sleb128 0
 794 00fd 01       		.byte	0x1
 795 00fe FE010000 		.4byte	0x1fe
 796 0102 09       		.uleb128 0x9
 797 0103 70737000 		.ascii	"psp\000"
 798 0107 01       		.byte	0x1
 799 0108 0601     		.2byte	0x106
 800 010a 57000000 		.4byte	0x57
 801 010e 01       		.byte	0x1
 802 010f 54       		.byte	0x54
ARM GAS  /tmp/cc1m2DC5.s 			page 29


 803 0110 0A       		.uleb128 0xa
 804 0111 72656700 		.ascii	"reg\000"
 805 0115 01       		.byte	0x1
 806 0116 0601     		.2byte	0x106
 807 0118 57000000 		.4byte	0x57
 808 011c 02       		.byte	0x2
 809 011d 0B       		.uleb128 0xb
 810 011e 00000000 		.4byte	.Ldebug_ranges0+0
 811 0122 3D010000 		.4byte	0x13d
 812 0126 0C       		.uleb128 0xc
 813 0127 703100   		.ascii	"p1\000"
 814 012a 01       		.byte	0x1
 815 012b 2601     		.2byte	0x126
 816 012d FE010000 		.4byte	0x1fe
 817 0131 0C       		.uleb128 0xc
 818 0132 703200   		.ascii	"p2\000"
 819 0135 01       		.byte	0x1
 820 0136 2601     		.2byte	0x126
 821 0138 FE010000 		.4byte	0x1fe
 822 013c 00       		.byte	0
 823 013d 0B       		.uleb128 0xb
 824 013e 18000000 		.4byte	.Ldebug_ranges0+0x18
 825 0142 5D010000 		.4byte	0x15d
 826 0146 0C       		.uleb128 0xc
 827 0147 703100   		.ascii	"p1\000"
 828 014a 01       		.byte	0x1
 829 014b 2901     		.2byte	0x129
 830 014d FE010000 		.4byte	0x1fe
 831 0151 0C       		.uleb128 0xc
 832 0152 703200   		.ascii	"p2\000"
 833 0155 01       		.byte	0x1
 834 0156 2901     		.2byte	0x129
 835 0158 FE010000 		.4byte	0x1fe
 836 015c 00       		.byte	0
 837 015d 0B       		.uleb128 0xb
 838 015e 38000000 		.4byte	.Ldebug_ranges0+0x38
 839 0162 7D010000 		.4byte	0x17d
 840 0166 0C       		.uleb128 0xc
 841 0167 747000   		.ascii	"tp\000"
 842 016a 01       		.byte	0x1
 843 016b 3401     		.2byte	0x134
 844 016d FE010000 		.4byte	0x1fe
 845 0171 0C       		.uleb128 0xc
 846 0172 647000   		.ascii	"dp\000"
 847 0175 01       		.byte	0x1
 848 0176 3401     		.2byte	0x134
 849 0178 FE010000 		.4byte	0x1fe
 850 017c 00       		.byte	0
 851 017d 0B       		.uleb128 0xb
 852 017e 58000000 		.4byte	.Ldebug_ranges0+0x58
 853 0182 9D010000 		.4byte	0x19d
 854 0186 0C       		.uleb128 0xc
 855 0187 703100   		.ascii	"p1\000"
 856 018a 01       		.byte	0x1
 857 018b 3F01     		.2byte	0x13f
 858 018d FE010000 		.4byte	0x1fe
 859 0191 0C       		.uleb128 0xc
ARM GAS  /tmp/cc1m2DC5.s 			page 30


 860 0192 703200   		.ascii	"p2\000"
 861 0195 01       		.byte	0x1
 862 0196 3F01     		.2byte	0x13f
 863 0198 FE010000 		.4byte	0x1fe
 864 019c 00       		.byte	0
 865 019d 0B       		.uleb128 0xb
 866 019e 78000000 		.4byte	.Ldebug_ranges0+0x78
 867 01a2 BB010000 		.4byte	0x1bb
 868 01a6 0C       		.uleb128 0xc
 869 01a7 66707000 		.ascii	"fpp\000"
 870 01ab 01       		.byte	0x1
 871 01ac 4801     		.2byte	0x148
 872 01ae 98000000 		.4byte	0x98
 873 01b2 0D       		.uleb128 0xd
 874 01b3 40010000 		.4byte	.LVL14
 875 01b7 02       		.byte	0x2
 876 01b8 76       		.byte	0x76
 877 01b9 00       		.sleb128 0
 878 01ba 00       		.byte	0
 879 01bb 0B       		.uleb128 0xb
 880 01bc 98000000 		.4byte	.Ldebug_ranges0+0x98
 881 01c0 D9010000 		.4byte	0x1d9
 882 01c4 0C       		.uleb128 0xc
 883 01c5 66707000 		.ascii	"fpp\000"
 884 01c9 01       		.byte	0x1
 885 01ca 5601     		.2byte	0x156
 886 01cc 98000000 		.4byte	0x98
 887 01d0 0D       		.uleb128 0xd
 888 01d1 80010000 		.4byte	.LVL18
 889 01d5 02       		.byte	0x2
 890 01d6 76       		.byte	0x76
 891 01d7 00       		.sleb128 0
 892 01d8 00       		.byte	0
 893 01d9 0E       		.uleb128 0xe
 894 01da 88000000 		.4byte	.LVL6
 895 01de A9000000 		.4byte	0xa9
 896 01e2 0E       		.uleb128 0xe
 897 01e3 04010000 		.4byte	.LVL10
 898 01e7 BE000000 		.4byte	0xbe
 899 01eb 0E       		.uleb128 0xe
 900 01ec 4A010000 		.4byte	.LVL15
 901 01f0 AD020000 		.4byte	0x2ad
 902 01f4 0E       		.uleb128 0xe
 903 01f5 90010000 		.4byte	.LVL20
 904 01f9 D3000000 		.4byte	0xd3
 905 01fd 00       		.byte	0
 906 01fe 05       		.uleb128 0x5
 907 01ff 04       		.byte	0x4
 908 0200 57000000 		.4byte	0x57
 909 0204 0F       		.uleb128 0xf
 910 0205 F8010000 		.4byte	.LASF16
 911 0209 01       		.byte	0x1
 912 020a 84       		.byte	0x84
 913 020b 57000000 		.4byte	0x57
 914 020f 01       		.byte	0x1
 915 0210 01       		.byte	0x1
 916 0211 0F       		.uleb128 0xf
ARM GAS  /tmp/cc1m2DC5.s 			page 31


 917 0212 6B020000 		.4byte	.LASF17
 918 0216 01       		.byte	0x1
 919 0217 8C       		.byte	0x8c
 920 0218 57000000 		.4byte	0x57
 921 021c 01       		.byte	0x1
 922 021d 01       		.byte	0x1
 923 021e 0F       		.uleb128 0xf
 924 021f 31000000 		.4byte	.LASF18
 925 0223 01       		.byte	0x1
 926 0224 93       		.byte	0x93
 927 0225 57000000 		.4byte	0x57
 928 0229 01       		.byte	0x1
 929 022a 01       		.byte	0x1
 930 022b 0F       		.uleb128 0xf
 931 022c 42020000 		.4byte	.LASF19
 932 0230 01       		.byte	0x1
 933 0231 9A       		.byte	0x9a
 934 0232 57000000 		.4byte	0x57
 935 0236 01       		.byte	0x1
 936 0237 01       		.byte	0x1
 937 0238 0F       		.uleb128 0xf
 938 0239 C2010000 		.4byte	.LASF20
 939 023d 01       		.byte	0x1
 940 023e A0       		.byte	0xa0
 941 023f 57000000 		.4byte	0x57
 942 0243 01       		.byte	0x1
 943 0244 01       		.byte	0x1
 944 0245 0F       		.uleb128 0xf
 945 0246 30020000 		.4byte	.LASF21
 946 024a 01       		.byte	0x1
 947 024b A6       		.byte	0xa6
 948 024c 57000000 		.4byte	0x57
 949 0250 01       		.byte	0x1
 950 0251 01       		.byte	0x1
 951 0252 0F       		.uleb128 0xf
 952 0253 0B000000 		.4byte	.LASF22
 953 0257 01       		.byte	0x1
 954 0258 AC       		.byte	0xac
 955 0259 57000000 		.4byte	0x57
 956 025d 01       		.byte	0x1
 957 025e 01       		.byte	0x1
 958 025f 0F       		.uleb128 0xf
 959 0260 00000000 		.4byte	.LASF23
 960 0264 01       		.byte	0x1
 961 0265 B2       		.byte	0xb2
 962 0266 57000000 		.4byte	0x57
 963 026a 01       		.byte	0x1
 964 026b 01       		.byte	0x1
 965 026c 0F       		.uleb128 0xf
 966 026d C8000000 		.4byte	.LASF24
 967 0271 01       		.byte	0x1
 968 0272 B8       		.byte	0xb8
 969 0273 57000000 		.4byte	0x57
 970 0277 01       		.byte	0x1
 971 0278 01       		.byte	0x1
 972 0279 0F       		.uleb128 0xf
 973 027a 58020000 		.4byte	.LASF25
ARM GAS  /tmp/cc1m2DC5.s 			page 32


 974 027e 01       		.byte	0x1
 975 027f BE       		.byte	0xbe
 976 0280 85000000 		.4byte	0x85
 977 0284 01       		.byte	0x1
 978 0285 01       		.byte	0x1
 979 0286 0F       		.uleb128 0xf
 980 0287 E7010000 		.4byte	.LASF26
 981 028b 01       		.byte	0x1
 982 028c C4       		.byte	0xc4
 983 028d 85000000 		.4byte	0x85
 984 0291 01       		.byte	0x1
 985 0292 01       		.byte	0x1
 986 0293 0F       		.uleb128 0xf
 987 0294 B5000000 		.4byte	.LASF27
 988 0298 01       		.byte	0x1
 989 0299 CA       		.byte	0xca
 990 029a 85000000 		.4byte	0x85
 991 029e 01       		.byte	0x1
 992 029f 01       		.byte	0x1
 993 02a0 0F       		.uleb128 0xf
 994 02a1 12000000 		.4byte	.LASF28
 995 02a5 01       		.byte	0x1
 996 02a6 D0       		.byte	0xd0
 997 02a7 85000000 		.4byte	0x85
 998 02ab 01       		.byte	0x1
 999 02ac 01       		.byte	0x1
 1000 02ad 10       		.uleb128 0x10
 1001 02ae 01       		.byte	0x1
 1002 02af 1A010000 		.4byte	.LASF33
 1003 02b3 01       		.byte	0x1
 1004 02b4 D7       		.byte	0xd7
 1005 02b5 01       		.byte	0x1
 1006 02b6 01       		.byte	0x1
 1007 02b7 00       		.byte	0
 1008              		.section	.debug_abbrev,"",%progbits
 1009              	.Ldebug_abbrev0:
 1010 0000 01       		.uleb128 0x1
 1011 0001 11       		.uleb128 0x11
 1012 0002 01       		.byte	0x1
 1013 0003 25       		.uleb128 0x25
 1014 0004 0E       		.uleb128 0xe
 1015 0005 13       		.uleb128 0x13
 1016 0006 0B       		.uleb128 0xb
 1017 0007 03       		.uleb128 0x3
 1018 0008 0E       		.uleb128 0xe
 1019 0009 1B       		.uleb128 0x1b
 1020 000a 0E       		.uleb128 0xe
 1021 000b 55       		.uleb128 0x55
 1022 000c 06       		.uleb128 0x6
 1023 000d 11       		.uleb128 0x11
 1024 000e 01       		.uleb128 0x1
 1025 000f 52       		.uleb128 0x52
 1026 0010 01       		.uleb128 0x1
 1027 0011 10       		.uleb128 0x10
 1028 0012 06       		.uleb128 0x6
 1029 0013 00       		.byte	0
 1030 0014 00       		.byte	0
ARM GAS  /tmp/cc1m2DC5.s 			page 33


 1031 0015 02       		.uleb128 0x2
 1032 0016 24       		.uleb128 0x24
 1033 0017 00       		.byte	0
 1034 0018 0B       		.uleb128 0xb
 1035 0019 0B       		.uleb128 0xb
 1036 001a 3E       		.uleb128 0x3e
 1037 001b 0B       		.uleb128 0xb
 1038 001c 03       		.uleb128 0x3
 1039 001d 0E       		.uleb128 0xe
 1040 001e 00       		.byte	0
 1041 001f 00       		.byte	0
 1042 0020 03       		.uleb128 0x3
 1043 0021 16       		.uleb128 0x16
 1044 0022 00       		.byte	0
 1045 0023 03       		.uleb128 0x3
 1046 0024 0E       		.uleb128 0xe
 1047 0025 3A       		.uleb128 0x3a
 1048 0026 0B       		.uleb128 0xb
 1049 0027 3B       		.uleb128 0x3b
 1050 0028 0B       		.uleb128 0xb
 1051 0029 49       		.uleb128 0x49
 1052 002a 13       		.uleb128 0x13
 1053 002b 00       		.byte	0
 1054 002c 00       		.byte	0
 1055 002d 04       		.uleb128 0x4
 1056 002e 24       		.uleb128 0x24
 1057 002f 00       		.byte	0
 1058 0030 0B       		.uleb128 0xb
 1059 0031 0B       		.uleb128 0xb
 1060 0032 3E       		.uleb128 0x3e
 1061 0033 0B       		.uleb128 0xb
 1062 0034 03       		.uleb128 0x3
 1063 0035 08       		.uleb128 0x8
 1064 0036 00       		.byte	0
 1065 0037 00       		.byte	0
 1066 0038 05       		.uleb128 0x5
 1067 0039 0F       		.uleb128 0xf
 1068 003a 00       		.byte	0
 1069 003b 0B       		.uleb128 0xb
 1070 003c 0B       		.uleb128 0xb
 1071 003d 49       		.uleb128 0x49
 1072 003e 13       		.uleb128 0x13
 1073 003f 00       		.byte	0
 1074 0040 00       		.byte	0
 1075 0041 06       		.uleb128 0x6
 1076 0042 15       		.uleb128 0x15
 1077 0043 00       		.byte	0
 1078 0044 27       		.uleb128 0x27
 1079 0045 0C       		.uleb128 0xc
 1080 0046 00       		.byte	0
 1081 0047 00       		.byte	0
 1082 0048 07       		.uleb128 0x7
 1083 0049 2E       		.uleb128 0x2e
 1084 004a 00       		.byte	0
 1085 004b 3F       		.uleb128 0x3f
 1086 004c 0C       		.uleb128 0xc
 1087 004d 03       		.uleb128 0x3
ARM GAS  /tmp/cc1m2DC5.s 			page 34


 1088 004e 0E       		.uleb128 0xe
 1089 004f 3A       		.uleb128 0x3a
 1090 0050 0B       		.uleb128 0xb
 1091 0051 3B       		.uleb128 0x3b
 1092 0052 0B       		.uleb128 0xb
 1093 0053 27       		.uleb128 0x27
 1094 0054 0C       		.uleb128 0xc
 1095 0055 11       		.uleb128 0x11
 1096 0056 01       		.uleb128 0x1
 1097 0057 12       		.uleb128 0x12
 1098 0058 01       		.uleb128 0x1
 1099 0059 40       		.uleb128 0x40
 1100 005a 0A       		.uleb128 0xa
 1101 005b 9742     		.uleb128 0x2117
 1102 005d 0C       		.uleb128 0xc
 1103 005e 00       		.byte	0
 1104 005f 00       		.byte	0
 1105 0060 08       		.uleb128 0x8
 1106 0061 2E       		.uleb128 0x2e
 1107 0062 01       		.byte	0x1
 1108 0063 3F       		.uleb128 0x3f
 1109 0064 0C       		.uleb128 0xc
 1110 0065 03       		.uleb128 0x3
 1111 0066 0E       		.uleb128 0xe
 1112 0067 3A       		.uleb128 0x3a
 1113 0068 0B       		.uleb128 0xb
 1114 0069 3B       		.uleb128 0x3b
 1115 006a 05       		.uleb128 0x5
 1116 006b 27       		.uleb128 0x27
 1117 006c 0C       		.uleb128 0xc
 1118 006d 11       		.uleb128 0x11
 1119 006e 01       		.uleb128 0x1
 1120 006f 12       		.uleb128 0x12
 1121 0070 01       		.uleb128 0x1
 1122 0071 40       		.uleb128 0x40
 1123 0072 0A       		.uleb128 0xa
 1124 0073 9642     		.uleb128 0x2116
 1125 0075 0C       		.uleb128 0xc
 1126 0076 01       		.uleb128 0x1
 1127 0077 13       		.uleb128 0x13
 1128 0078 00       		.byte	0
 1129 0079 00       		.byte	0
 1130 007a 09       		.uleb128 0x9
 1131 007b 34       		.uleb128 0x34
 1132 007c 00       		.byte	0
 1133 007d 03       		.uleb128 0x3
 1134 007e 08       		.uleb128 0x8
 1135 007f 3A       		.uleb128 0x3a
 1136 0080 0B       		.uleb128 0xb
 1137 0081 3B       		.uleb128 0x3b
 1138 0082 05       		.uleb128 0x5
 1139 0083 49       		.uleb128 0x49
 1140 0084 13       		.uleb128 0x13
 1141 0085 02       		.uleb128 0x2
 1142 0086 0A       		.uleb128 0xa
 1143 0087 00       		.byte	0
 1144 0088 00       		.byte	0
ARM GAS  /tmp/cc1m2DC5.s 			page 35


 1145 0089 0A       		.uleb128 0xa
 1146 008a 34       		.uleb128 0x34
 1147 008b 00       		.byte	0
 1148 008c 03       		.uleb128 0x3
 1149 008d 08       		.uleb128 0x8
 1150 008e 3A       		.uleb128 0x3a
 1151 008f 0B       		.uleb128 0xb
 1152 0090 3B       		.uleb128 0x3b
 1153 0091 05       		.uleb128 0x5
 1154 0092 49       		.uleb128 0x49
 1155 0093 13       		.uleb128 0x13
 1156 0094 1C       		.uleb128 0x1c
 1157 0095 0B       		.uleb128 0xb
 1158 0096 00       		.byte	0
 1159 0097 00       		.byte	0
 1160 0098 0B       		.uleb128 0xb
 1161 0099 0B       		.uleb128 0xb
 1162 009a 01       		.byte	0x1
 1163 009b 55       		.uleb128 0x55
 1164 009c 06       		.uleb128 0x6
 1165 009d 01       		.uleb128 0x1
 1166 009e 13       		.uleb128 0x13
 1167 009f 00       		.byte	0
 1168 00a0 00       		.byte	0
 1169 00a1 0C       		.uleb128 0xc
 1170 00a2 34       		.uleb128 0x34
 1171 00a3 00       		.byte	0
 1172 00a4 03       		.uleb128 0x3
 1173 00a5 08       		.uleb128 0x8
 1174 00a6 3A       		.uleb128 0x3a
 1175 00a7 0B       		.uleb128 0xb
 1176 00a8 3B       		.uleb128 0x3b
 1177 00a9 05       		.uleb128 0x5
 1178 00aa 49       		.uleb128 0x49
 1179 00ab 13       		.uleb128 0x13
 1180 00ac 00       		.byte	0
 1181 00ad 00       		.byte	0
 1182 00ae 0D       		.uleb128 0xd
 1183 00af 898201   		.uleb128 0x4109
 1184 00b2 00       		.byte	0
 1185 00b3 11       		.uleb128 0x11
 1186 00b4 01       		.uleb128 0x1
 1187 00b5 9342     		.uleb128 0x2113
 1188 00b7 0A       		.uleb128 0xa
 1189 00b8 00       		.byte	0
 1190 00b9 00       		.byte	0
 1191 00ba 0E       		.uleb128 0xe
 1192 00bb 898201   		.uleb128 0x4109
 1193 00be 00       		.byte	0
 1194 00bf 11       		.uleb128 0x11
 1195 00c0 01       		.uleb128 0x1
 1196 00c1 31       		.uleb128 0x31
 1197 00c2 13       		.uleb128 0x13
 1198 00c3 00       		.byte	0
 1199 00c4 00       		.byte	0
 1200 00c5 0F       		.uleb128 0xf
 1201 00c6 34       		.uleb128 0x34
ARM GAS  /tmp/cc1m2DC5.s 			page 36


 1202 00c7 00       		.byte	0
 1203 00c8 03       		.uleb128 0x3
 1204 00c9 0E       		.uleb128 0xe
 1205 00ca 3A       		.uleb128 0x3a
 1206 00cb 0B       		.uleb128 0xb
 1207 00cc 3B       		.uleb128 0x3b
 1208 00cd 0B       		.uleb128 0xb
 1209 00ce 49       		.uleb128 0x49
 1210 00cf 13       		.uleb128 0x13
 1211 00d0 3F       		.uleb128 0x3f
 1212 00d1 0C       		.uleb128 0xc
 1213 00d2 3C       		.uleb128 0x3c
 1214 00d3 0C       		.uleb128 0xc
 1215 00d4 00       		.byte	0
 1216 00d5 00       		.byte	0
 1217 00d6 10       		.uleb128 0x10
 1218 00d7 2E       		.uleb128 0x2e
 1219 00d8 00       		.byte	0
 1220 00d9 3F       		.uleb128 0x3f
 1221 00da 0C       		.uleb128 0xc
 1222 00db 03       		.uleb128 0x3
 1223 00dc 0E       		.uleb128 0xe
 1224 00dd 3A       		.uleb128 0x3a
 1225 00de 0B       		.uleb128 0xb
 1226 00df 3B       		.uleb128 0x3b
 1227 00e0 0B       		.uleb128 0xb
 1228 00e1 27       		.uleb128 0x27
 1229 00e2 0C       		.uleb128 0xc
 1230 00e3 3C       		.uleb128 0x3c
 1231 00e4 0C       		.uleb128 0xc
 1232 00e5 00       		.byte	0
 1233 00e6 00       		.byte	0
 1234 00e7 00       		.byte	0
 1235              		.section	.debug_aranges,"",%progbits
 1236 0000 34000000 		.4byte	0x34
 1237 0004 0200     		.2byte	0x2
 1238 0006 00000000 		.4byte	.Ldebug_info0
 1239 000a 04       		.byte	0x4
 1240 000b 00       		.byte	0
 1241 000c 0000     		.2byte	0
 1242 000e 0000     		.2byte	0
 1243 0010 00000000 		.4byte	.LFB0
 1244 0014 02000000 		.4byte	.LFE0-.LFB0
 1245 0018 00000000 		.4byte	.LFB1
 1246 001c 02000000 		.4byte	.LFE1-.LFB1
 1247 0020 00000000 		.4byte	.LFB2
 1248 0024 02000000 		.4byte	.LFE2-.LFB2
 1249 0028 00000000 		.4byte	.LFB3
 1250 002c C8010000 		.4byte	.LFE3-.LFB3
 1251 0030 00000000 		.4byte	0
 1252 0034 00000000 		.4byte	0
 1253              		.section	.debug_ranges,"",%progbits
 1254              	.Ldebug_ranges0:
 1255 0000 12000000 		.4byte	.LBB2
 1256 0004 1A000000 		.4byte	.LBE2
 1257 0008 28000000 		.4byte	.LBB4
 1258 000c 4C000000 		.4byte	.LBE4
ARM GAS  /tmp/cc1m2DC5.s 			page 37


 1259 0010 00000000 		.4byte	0
 1260 0014 00000000 		.4byte	0
 1261 0018 1A000000 		.4byte	.LBB3
 1262 001c 28000000 		.4byte	.LBE3
 1263 0020 4C000000 		.4byte	.LBB5
 1264 0024 52000000 		.4byte	.LBE5
 1265 0028 60000000 		.4byte	.LBB7
 1266 002c 84000000 		.4byte	.LBE7
 1267 0030 00000000 		.4byte	0
 1268 0034 00000000 		.4byte	0
 1269 0038 52000000 		.4byte	.LBB6
 1270 003c 60000000 		.4byte	.LBE6
 1271 0040 88000000 		.4byte	.LBB8
 1272 0044 90000000 		.4byte	.LBE8
 1273 0048 9C000000 		.4byte	.LBB10
 1274 004c C8000000 		.4byte	.LBE10
 1275 0050 00000000 		.4byte	0
 1276 0054 00000000 		.4byte	0
 1277 0058 90000000 		.4byte	.LBB9
 1278 005c 9C000000 		.4byte	.LBE9
 1279 0060 C8000000 		.4byte	.LBB11
 1280 0064 D0000000 		.4byte	.LBE11
 1281 0068 DE000000 		.4byte	.LBB13
 1282 006c 00010000 		.4byte	.LBE13
 1283 0070 00000000 		.4byte	0
 1284 0074 00000000 		.4byte	0
 1285 0078 D0000000 		.4byte	.LBB12
 1286 007c DE000000 		.4byte	.LBE12
 1287 0080 04010000 		.4byte	.LBB14
 1288 0084 0C010000 		.4byte	.LBE14
 1289 0088 18010000 		.4byte	.LBB16
 1290 008c 46010000 		.4byte	.LBE16
 1291 0090 00000000 		.4byte	0
 1292 0094 00000000 		.4byte	0
 1293 0098 0C010000 		.4byte	.LBB15
 1294 009c 18010000 		.4byte	.LBE15
 1295 00a0 4A010000 		.4byte	.LBB17
 1296 00a4 52010000 		.4byte	.LBE17
 1297 00a8 5E010000 		.4byte	.LBB18
 1298 00ac 8C010000 		.4byte	.LBE18
 1299 00b0 00000000 		.4byte	0
 1300 00b4 00000000 		.4byte	0
 1301 00b8 00000000 		.4byte	.LFB0
 1302 00bc 02000000 		.4byte	.LFE0
 1303 00c0 00000000 		.4byte	.LFB1
 1304 00c4 02000000 		.4byte	.LFE1
 1305 00c8 00000000 		.4byte	.LFB2
 1306 00cc 02000000 		.4byte	.LFE2
 1307 00d0 00000000 		.4byte	.LFB3
 1308 00d4 C8010000 		.4byte	.LFE3
 1309 00d8 00000000 		.4byte	0
 1310 00dc 00000000 		.4byte	0
 1311              		.section	.debug_line,"",%progbits
 1312              	.Ldebug_line0:
 1313 0000 6D010000 		.section	.debug_str,"MS",%progbits,1
 1313      0200C200 
 1313      00000201 
ARM GAS  /tmp/cc1m2DC5.s 			page 38


 1313      FB0E0D00 
 1313      01010101 
 1314              	.LASF23:
 1315 0000 5F627373 		.ascii	"_bss_start\000"
 1315      5F737461 
 1315      727400
 1316              	.LASF22:
 1317 000b 5F656461 		.ascii	"_edata\000"
 1317      746100
 1318              	.LASF28:
 1319 0012 5F5F6669 		.ascii	"__fini_array_end\000"
 1319      6E695F61 
 1319      72726179 
 1319      5F656E64 
 1319      00
 1320              	.LASF32:
 1321 0023 52657365 		.ascii	"Reset_Handler\000"
 1321      745F4861 
 1321      6E646C65 
 1321      7200
 1322              	.LASF18:
 1323 0031 5F5F7072 		.ascii	"__process_stack_base__\000"
 1323      6F636573 
 1323      735F7374 
 1323      61636B5F 
 1323      62617365 
 1324              	.LASF12:
 1325 0048 66756E63 		.ascii	"funcpp_t\000"
 1325      70705F74 
 1325      00
 1326              	.LASF15:
 1327 0051 5F646566 		.ascii	"_default_exit\000"
 1327      61756C74 
 1327      5F657869 
 1327      7400
 1328              	.LASF9:
 1329 005f 6C6F6E67 		.ascii	"long long unsigned int\000"
 1329      206C6F6E 
 1329      6720756E 
 1329      7369676E 
 1329      65642069 
 1330              	.LASF1:
 1331 0076 756E7369 		.ascii	"unsigned char\000"
 1331      676E6564 
 1331      20636861 
 1331      7200
 1332              	.LASF14:
 1333 0084 5F5F6C61 		.ascii	"__late_init\000"
 1333      74655F69 
 1333      6E697400 
 1334              	.LASF7:
 1335 0090 6C6F6E67 		.ascii	"long unsigned int\000"
 1335      20756E73 
 1335      69676E65 
 1335      6420696E 
 1335      7400
 1336              	.LASF3:
ARM GAS  /tmp/cc1m2DC5.s 			page 39


 1337 00a2 73686F72 		.ascii	"short unsigned int\000"
 1337      7420756E 
 1337      7369676E 
 1337      65642069 
 1337      6E7400
 1338              	.LASF27:
 1339 00b5 5F5F6669 		.ascii	"__fini_array_start\000"
 1339      6E695F61 
 1339      72726179 
 1339      5F737461 
 1339      727400
 1340              	.LASF24:
 1341 00c8 5F627373 		.ascii	"_bss_end\000"
 1341      5F656E64 
 1341      00
 1342              	.LASF29:
 1343 00d1 474E5520 		.ascii	"GNU C 4.7.4 20130913 (release) [ARM/embedded-4_7-br"
 1343      4320342E 
 1343      372E3420 
 1343      32303133 
 1343      30393133 
 1344 0104 616E6368 		.ascii	"anch revision 202601]\000"
 1344      20726576 
 1344      6973696F 
 1344      6E203230 
 1344      32363031 
 1345              	.LASF33:
 1346 011a 6D61696E 		.ascii	"main\000"
 1346      00
 1347              	.LASF10:
 1348 011f 756E7369 		.ascii	"unsigned int\000"
 1348      676E6564 
 1348      20696E74 
 1348      00
 1349              	.LASF31:
 1350 012c 2F686F6D 		.ascii	"/home/joerg/repos/chibios-projects/ChibiOS-RT/demos"
 1350      652F6A6F 
 1350      6572672F 
 1350      7265706F 
 1350      732F6368 
 1351 015f 2F53544D 		.ascii	"/STM32/RT-STM32F103-OLIMEX_STM32_P103\000"
 1351      33322F52 
 1351      542D5354 
 1351      4D333246 
 1351      3130332D 
 1352              	.LASF5:
 1353 0185 75696E74 		.ascii	"uint8_t\000"
 1353      385F7400 
 1354              	.LASF30:
 1355 018d 2E2E2F2E 		.ascii	"../../../os/common/ports/ARMCMx/compilers/GCC/crt0."
 1355      2E2F2E2E 
 1355      2F6F732F 
 1355      636F6D6D 
 1355      6F6E2F70 
 1356 01c0 6300     		.ascii	"c\000"
 1357              	.LASF20:
 1358 01c2 5F746578 		.ascii	"_textdata\000"
ARM GAS  /tmp/cc1m2DC5.s 			page 40


 1358      74646174 
 1358      6100
 1359              	.LASF13:
 1360 01cc 5F5F6561 		.ascii	"__early_init\000"
 1360      726C795F 
 1360      696E6974 
 1360      00
 1361              	.LASF8:
 1362 01d9 6C6F6E67 		.ascii	"long long int\000"
 1362      206C6F6E 
 1362      6720696E 
 1362      7400
 1363              	.LASF26:
 1364 01e7 5F5F696E 		.ascii	"__init_array_end\000"
 1364      69745F61 
 1364      72726179 
 1364      5F656E64 
 1364      00
 1365              	.LASF16:
 1366 01f8 5F5F6D61 		.ascii	"__main_stack_base__\000"
 1366      696E5F73 
 1366      7461636B 
 1366      5F626173 
 1366      655F5F00 
 1367              	.LASF2:
 1368 020c 73686F72 		.ascii	"short int\000"
 1368      7420696E 
 1368      7400
 1369              	.LASF11:
 1370 0216 66756E63 		.ascii	"funcp_t\000"
 1370      705F7400 
 1371              	.LASF6:
 1372 021e 75696E74 		.ascii	"uint32_t\000"
 1372      33325F74 
 1372      00
 1373              	.LASF4:
 1374 0227 6C6F6E67 		.ascii	"long int\000"
 1374      20696E74 
 1374      00
 1375              	.LASF21:
 1376 0230 5F646174 		.ascii	"_data\000"
 1376      6100
 1377              	.LASF0:
 1378 0236 7369676E 		.ascii	"signed char\000"
 1378      65642063 
 1378      68617200 
 1379              	.LASF19:
 1380 0242 5F5F7072 		.ascii	"__process_stack_end__\000"
 1380      6F636573 
 1380      735F7374 
 1380      61636B5F 
 1380      656E645F 
 1381              	.LASF25:
 1382 0258 5F5F696E 		.ascii	"__init_array_start\000"
 1382      69745F61 
 1382      72726179 
 1382      5F737461 
ARM GAS  /tmp/cc1m2DC5.s 			page 41


 1382      727400
 1383              	.LASF17:
 1384 026b 5F5F6D61 		.ascii	"__main_stack_end__\000"
 1384      696E5F73 
 1384      7461636B 
 1384      5F656E64 
 1384      5F5F00
 1385              		.comm	__gnu_lto_v1,1,1
 1386              		.ident	"GCC: (GNU Tools for ARM Embedded Processors) 4.7.4 20130913 (release) [ARM/embedded-4_7-br
ARM GAS  /tmp/cc1m2DC5.s 			page 42


DEFINED SYMBOLS
                            *ABS*:00000000 crt0.c
     /tmp/cc1m2DC5.s:263    .text.__early_init:00000000 $t
     /tmp/cc1m2DC5.s:269    .text.__early_init:00000000 __early_init
     /tmp/cc1m2DC5.s:282    .text.__late_init:00000000 $t
     /tmp/cc1m2DC5.s:288    .text.__late_init:00000000 __late_init
     /tmp/cc1m2DC5.s:300    .text._default_exit:00000000 $t
     /tmp/cc1m2DC5.s:306    .text._default_exit:00000000 _default_exit
     /tmp/cc1m2DC5.s:320    .text.Reset_Handler:00000000 $t
     /tmp/cc1m2DC5.s:326    .text.Reset_Handler:00000000 Reset_Handler
     /tmp/cc1m2DC5.s:644    .text.Reset_Handler:00000190 $d
                            *COM*:00000001 __gnu_lto_v1
                     .debug_frame:00000010 $d
     /tmp/cc1m2DC5.s:661    .text.Reset_Handler:000001c8 $t

UNDEFINED SYMBOLS
main
__process_stack_end__
__main_stack_base__
__main_stack_end__
__process_stack_base__
_data
_edata
_textdata
_bss_start
_bss_end
__init_array_start
__init_array_end
__fini_array_start
__fini_array_end
