ARM GAS  /tmp/ccefUha0.s 			page 1


   1              		.syntax unified
   2              		.cpu cortex-m3
   3              		.fpu softvfp
   4              		.eabi_attribute 20, 1
   5              		.eabi_attribute 21, 1
   6              		.eabi_attribute 23, 3
   7              		.eabi_attribute 24, 1
   8              		.eabi_attribute 25, 1
   9              		.eabi_attribute 26, 1
  10              		.eabi_attribute 30, 2
  11              		.eabi_attribute 34, 1
  12              		.eabi_attribute 18, 4
  13              		.thumb
  14              		.file	"hal.c"
  15              		.text
  16              	.Ltext0:
  17              		.section	.gnu.lto_.jmpfuncs.b2f3d8a0932497ce,"",%progbits
  18 0000 789C6362 		.ascii	"x\234cb`d`g\300\016d\201X\032\210\031\301<F\246*\206"
  18      60646067 
  18      C00E6481 
  18      581A8819 
  18      C13C46A6 
  19 0016 9F0D12A9 		.ascii	"\237\015\022\251\214\014\214\231\214\014\307z\037C\204"
  19      8C0C8C99 
  19      8C0CC77A 
  19      1F4384
  20 0025 A5F4F4F4 		.ascii	"\245\364\364\364!(\277X?#1G\277\270(\031D\353%3\000"
  20      2128BF58 
  20      3F233147 
  20      BFB82819 
  20      44EB2533 
  21 003a 003D200C 		.ascii	"\000= \014\307"
  21      C7
  22              		.text
  23              		.section	.gnu.lto_.inline.b2f3d8a0932497ce,"",%progbits
  24 0000 789C6362 		.ascii	"x\234cb`d\340e\300\016\264\2414#\003\003\247)#\003\023"
  24      6064E065 
  24      C00EB4A1 
  24      34230303 
  24      A7292303 
  25 0015 90C9B640 		.ascii	"\220\311\266@\236\211\201\221\013$\010'\230\270AJ\300"
  25      9E898191 
  25      0B240827 
  25      98B8414A 
  25      C0
  26 0026 4C060033 		.ascii	"L\006\00033\001\177"
  26      33017F
  27              		.text
  28              		.section	.gnu.lto_.pureconst.b2f3d8a0932497ce,"",%progbits
  29 0000 789C6362 		.ascii	"x\234cb`d`f`\000c\020`d\220\000\000\000\263\000#"
  29      60646066 
  29      60006310 
  29      60649000 
  29      0000B300 
  30              		.text
  31              		.section	.gnu.lto_halInit.b2f3d8a0932497ce,"",%progbits
  32 0000 789C6362 		.ascii	"x\234cb`\004BL \011\304\312@\011\031 \315\310\314\300"
ARM GAS  /tmp/ccefUha0.s 			page 2


  32      6004424C 
  32      2009C4CA 
  32      40091920 
  32      CDC8CCC0 
  33 0014 C834E11C 		.ascii	"\3104\341\034\003C\243\002\023##\210\001\324R\317\304"
  33      0343A302 
  33      13232388 
  33      01D452CF 
  33      C4
  34 0025 581F0AD1 		.ascii	"X\037\012\321y\352\317&\306++\330\3663\035x\360\277"
  34      79EACF26 
  34      C62B2BD8 
  34      F6331D78 
  34      F0BF
  35 0037 9E81811D 		.ascii	"\236\201\201\035(\304\312\320\322\320 \300\020\0175"
  35      28C4CAD0 
  35      D2D020C0 
  35      100F35
  36 0046 3A104483 		.ascii	":\020D\2034\00612\201\031\314g\030\230\257\314\250\213"
  36      34063132 
  36      8119CC67 
  36      1898AFCC 
  36      A88B
  37 0058 655CC0C8 		.ascii	"e\\\300\310\012\224\252b\370\331\300\221\012tI<##DK"
  37      0A94AA62 
  37      F8D9C091 
  37      0A74493C 
  37      2323444B 
  38 006c 2A883EC3 		.ascii	"*\210>\303\300\362f\006\037\232\"&\240\"&\210\"\220"
  38      C0F26606 
  38      1F9A2226 
  38      A0222688 
  38      2290
  39 007e 88442A23 		.ascii	"\210D*#3c&L\023\013H\023\363\2359iXLfF1\231\371\311"
  39      3363264C 
  39      130B4813 
  39      F39D3969 
  39      584C6646 
  40 0096 FC222C8A 		.ascii	"\374\",\212XP\025\035Y\201\315$V$E\347\030@~\207)\202"
  40      5850151D 
  40      5981CD24 
  40      562445E7 
  40      18407E87 
  41 00ac 799711EC 		.ascii	"y\227\021\354K\240_\031\244\364\364\364!(\277X?#1G\277"
  41      4BA05F19 
  41      A4F4F4F4 
  41      2128BF58 
  41      3F233147 
  42 00c1 B8281944 		.ascii	"\270(\031D\353%3\000\000GEC\331"
  42      EB253300 
  42      00474543 
  42      D9
  43              		.text
  44              		.section	.gnu.lto_.cgraph.b2f3d8a0932497ce,"",%progbits
  45 0000 789C3DC7 		.ascii	"x\234=\307\261\015\2000\014D\321;;\031\232\312\221\322"
  45      B10D8030 
  45      0C44D13B 
ARM GAS  /tmp/ccefUha0.s 			page 3


  45      3B199ACA 
  45      91D2
  46 0012 5032010D 		.ascii	"P2\001\015\233\020\004T\314\000b\217\010dA~\363\365"
  46      9B100454 
  46      CC00628F 
  46      0864417E 
  46      F3F5
  47 0024 048402E8 		.ascii	"\004\204\002\350\360%3\015\030\016\230\215=\271\323"
  47      F025330D 
  47      180E988D 
  47      3DB9D3
  48 0033 E84A89DC 		.ascii	"\350J\211\334h\322\260\322\264a\241\205\206B\213?\024"
  48      68D2B0D2 
  48      B461A185 
  48      86428B3F 
  48      14
  49 0044 11F9ACEF 		.ascii	"\021\371\254\357\003&\277\242\370\005\267\237\310W%"
  49      0326BFA2 
  49      F805B79F 
  49      C85725
  50 0053 1E53A826 		.ascii	"\036S\250&\326"
  50      D6
  51              		.text
  52              		.section	.gnu.lto_.vars.b2f3d8a0932497ce,"",%progbits
  53 0000 789C6362 		.ascii	"x\234cb`d`f```g\200\000\306\243\214\014\014\365\014"
  53      60646066 
  53      60606067 
  53      8000C6A3 
  53      8C0C0CF5 
  54 0015 0006A401 		.ascii	"\000\006\244\001T"
  54      54
  55              		.text
  56              		.section	.gnu.lto_.refs.b2f3d8a0932497ce,"",%progbits
  57 0000 789C6362 		.ascii	"x\234cb`d`f```c\200\000F\006V \011\000\000\372\000\023"
  57      60646066 
  57      60606063 
  57      80004606 
  57      56200900 
  58              		.text
  59              		.section	.gnu.lto_.statics.b2f3d8a0932497ce,"",%progbits
  60 0000 789C6362 		.ascii	"x\234cb`d`b\300\016@\342\214\020&\000\000\375\000\011"
  60      60646062 
  60      C00E40E2 
  60      8C102600 
  60      00FD0009 
  61              		.text
  62              		.section	.gnu.lto_.decls.b2f3d8a0932497ce,"",%progbits
  63 0000 789C9595 		.ascii	"x\234\225\225Ml\033E\024\307\337x\211\023\323`P\201"
  63      4D6C1B45 
  63      14C7DF78 
  63      8913D360 
  63      5081
  64 0012 2AAD84E2 		.ascii	"*\255\204\342 \225C%{\3428\250\007\350!$\245\211\224"
  64      20954325 
  64      7BE238A8 
  64      07E82124 
  64      A58994
ARM GAS  /tmp/ccefUha0.s 			page 4


  65 0025 B4161489 		.ascii	"\264\026\024\211\313jql7^\311\265\215w\003=\256RQ\025"
  65      CB6A716C 
  65      375EC9B5 
  65      8D77033D 
  65      AE525115 
  66 0039 242423C1 		.ascii	"$$#\301\001!\201[\245%\250\024\211BU!\240JQ\032\002"
  66      0121815B 
  66      A525A814 
  66      89425521 
  66      A04A511A 
  67 004e 694BDBF4 		.ascii	"iK\333\364\320\003\210\034*\237@p\010\025\010T\363f"
  67      D003881C 
  67      2A9F4070 
  67      08150854 
  67      F366
  68 0060 663F1D7B 		.ascii	"f?\035{\355\216\366\315~\314\233\337\373\317{\263\273"
  68      ED8EF6CD 
  68      7ECC9BDF 
  68      FBCF7BB3 
  68      BB
  69 0071 0120C0DA 		.ascii	"\001 \300\332\273hulJ\017\300#\001\000<`\017\032\033"
  69      BB68756C 
  69      4A0FC023 
  69      01003C60 
  69      0F1A1B
  70 0084 AD826841 		.ascii	"\255\202hA\264E\264%\264e\264\025\264\037\321\256\231"
  70      B445B425 
  70      B465B415 
  70      B41FD1AE 
  70      99
  71 0095 7ED7C1DB 		.ascii	"~\327\301\333\230o\027\332M\264Khk&k\265\201w\315\344"
  71      986F17DA 
  71      4DB44B68 
  71      6B266BB5 
  71      8177CDE4 
  72 00a9 AC98DCA5 		.ascii	"\254\230\334\245\026\274-\360\226a\314\031\325c\306"
  72      16BC2DF0 
  72      9661CC19 
  72      D563C6
  73 00b8 F84A782B 		.ascii	"\370Jx+\274c`\253\032\006Y\011\003l\007\231\204C\000"
  73      BC6360AB 
  73      1A065909 
  73      036C0799 
  73      844300
  74 00cb EB12BFEC 		.ascii	"\353\022\277\354\305\313gq\312N\2307\214\012\372\021"
  74      C5CB6771 
  74      CA4E9837 
  74      8C0AFA11 
  75 00db D33FE2E3 		.ascii	"\323?\342\343,\223\223d't\340\310\\\347\221\270\013"
  75      2C939364 
  75      2774E0C8 
  75      5CE791B8 
  75      0B
  76 00ec 3E317813 		.ascii	">1x\02394S\211\271\343a\371\200pd\023N\221]P;\376\305"
  76      39345389 
  76      B9E361F9 
  76      80706413 
ARM GAS  /tmp/ccefUha0.s 			page 5


  76      4E915D50 
  77 0103 15029B5B 		.ascii	"\025\002\233[\327\000\340B\230\320\361`\263\370\257"
  77      D700E042 
  77      98D0F160 
  77      B3F8AF
  78 0112 D8E17B3D 		.ascii	"\330\341{=\213\222\311\002\322\003\360\0141\003\374"
  78      8B92C902 
  78      D203F00C 
  78      3103FC
  79 0121 F7BA00B6 		.ascii	"\367\272\000\266\2070Igp\262\230\347\026|\306%x\351"
  79      87304967 
  79      70B298E7 
  79      167CC625 
  79      78E9
  80 0133 42B0895C 		.ascii	"B\260\211\\\211\313\235\253\034E\271!8\356\024\305\011"
  80      89CB9DAB 
  80      1C45B921 
  80      38EE14C5 
  80      09
  81 0144 16B1833D 		.ascii	"\026\261\203=\320\240\3703\022B\305\373-\305\027\337"
  81      D0A0F833 
  81      1242C5FB 
  81      2DC517DF 
  82 0154 BEB14CC1 		.ascii	"\276\261L\301\024\324\035r\207\341\367\302K\200\305"
  82      14D41D72 
  82      87E1F7C2 
  82      4B80C5
  83 0163 B075C5B6 		.ascii	"\260u\305\266\353\303,\333W\0101\027S[\370\343\261\346"
  83      EBC32CDB 
  83      57083117 
  83      535BF8E3 
  83      B1E6
  84 0175 0AAC6BD1 		.ascii	"\012\254k\321,\037\263\271\226c\351\273n3\357t\337\017"
  84      2C1FB3B9 
  84      9663E9BB 
  84      6E33EF74 
  84      DF0F
  85 0187 31D29278 		.ascii	"1\322\222x\313&n\264!\3664\323\270\271\271\353'\223"
  85      CB266EB4 
  85      21F634D3 
  85      B8B9B9EB 
  85      2793
  86 0199 4F71EB4A 		.ascii	"Oq\353J29K\006\360\346\034\357\277\304\036\254-y\233"
  86      32394B06 
  86      F0E61CEF 
  86      BFC41EAC 
  86      2D799B
  87 01ac 87679BF1 		.ascii	"\207g\233\361\326\3735\322|O\264O\222\330\242\326\266"
  87      D6FB35D2 
  87      7C4FB44F 
  87      92D8A2D6 
  87      B6
  88 01bd FBD566DE 		.ascii	"\373\325f\336\331\356O\364.)\322\222X\263\211\033m\210"
  88      D9EE4FF4 
  88      2E29D292 
  88      58B3891B 
  88      6D88
ARM GAS  /tmp/ccefUha0.s 			page 6


  89 01cf 7D1D6AFC 		.ascii	"}\035j\374\335&.\355\360'F:\324\270a\023\177nC\034\364"
  89      DD262EED 
  89      F027463A 
  89      D4B86113 
  89      7F6E431C 
  90 01e4 29A455B7 		.ascii	")\244U\267\323X\267.\231|\314+v\201\367_\361\376k\336"
  90      D358B72E 
  90      997CCC2B 
  90      7681F75F 
  90      F1FE6BDE 
  91 01f8 7FEBAEE1 		.ascii	"\177\353\256\341\277\304zk~\373 la\304\367\305\305\235"
  91      BFC47A6B 
  91      7EFB206C 
  91      61C4F7C5 
  91      C59D
  92 020a B7770574 		.ascii	"\267w\005tHn\276\035\031\253J\266XN\375\360\241Q]g["
  92      486EBE1D 
  92      19AB4AB6 
  92      584EFDF0 
  92      A1515D67 
  93 021f FAEF7ABD 		.ascii	"\372\357z\275{\033\274\307?\277\307\360\235\326e\262"
  93      7B1BBCC7 
  93      3FBFC7F0 
  93      9DD665B2 
  94 022f E7711FC8 		.ascii	"\347q\037\310%\262\315\274:(YKy#`-\345\356\374?O[1\236"
  94      25B2CDBC 
  94      3A28594B 
  94      7923602D 
  94      E5EEFC3F 
  95 0247 82538CBA 		.ascii	"\202S\214\2728\327\307\221l\312\"\351o\310\333w$\340"
  95      38D7C791 
  95      6CCA22E9 
  95      6FC8DB77 
  95      24E0
  96 0259 7EC074AD 		.ascii	"~\300t\255W*G\253\\\227\210\026\200\005\233\177\357"
  96      572A47AB 
  96      5C978816 
  96      80059B7F 
  96      EF
  97 026a F45FCB7D 		.ascii	"\364_\313}^\302\345N\010Wm\302\305\263\277<\350\005"
  97      5EC2E54E 
  97      08576DC2 
  97      C5B3BF3C 
  97      E805
  98 027c 7CDF09E0 		.ascii	"|\337\011\340M\311\002\234<\177\376Q/\340\007?\300\375"
  98      4DC9029C 
  98      3C7FFE51 
  98      2FE0073F 
  98      C0FD
  99 028e E476D5CC 		.ascii	"\344v\325\314\255\304\377\330f\305\210\223i||\316\326"
  99      ADC4FFD8 
  99      66C58893 
  99      697C7CCE 
  99      D6
 100 029f 515BF8DC 		.ascii	"Q[\370\334\363\367\221\311\325N\026\262h\003\356~\263"
 100      F3F791C9 
 100      D54E16B2 
ARM GAS  /tmp/ccefUha0.s 			page 7


 100      6803EE7E 
 100      B3
 101 02b0 16F6027E 		.ascii	"\026\366\002~\362\002\236\204\023\306\237\225\212Q\035"
 101      F2029E84 
 101      13C69F95 
 101      8A511D
 102 02bf 37D6EBF5 		.ascii	"7\326\353\365~\231\234\340\257\314=G\302\355\217.K>"
 102      7E999CE0 
 102      AFCC3D47 
 102      C2ED8F2E 
 102      4B3E
 103 02d1 BFD51B0E 		.ascii	"\277\325\033\016\317\363\273\027ZZ\347\341\246\263Q"
 103      CFF3BB17 
 103      5A5AE7E1 
 103      A6B351
 104 02e0 1BE6ADFA 		.ascii	"\033\346\255\372\316[s\346Ap\337\376\227\"\243\020\217"
 104      CE5B73E6 
 104      4170DFFE 
 104      9722A310 
 104      8F
 105 02f1 C5A8388A 		.ascii	"\305\2508\212\032\315\245\362\264T,\353\032}\361\340"
 105      1ACDA5F2 
 105      B4542CEB 
 105      1A7DF1E0 
 106 0301 5462884E 		.ascii	"Tb\210NN\216\321}\311\211\003\257\305i)\225W\362\371"
 106      4E8ED17D 
 106      C98903AF 
 106      C5692995 
 106      57F2F9
 107 0314 4C2C075B 		.ascii	"L,\007[5\375pbH\231)\251EE\313\352\263%E\357\231U\013"
 107      35FD7062 
 107      489929A9 
 107      4545CBEA 
 107      B32545EF 
 108 032b 3A3ED375 		.ascii	":>\323uZ,\351t\344\205):\223NGS\345\303\321B\261\220"
 108      5A2CE974 
 108      E485293A 
 108      934E4753 
 108      E5C3D142 
 109 0341 8D6653D3 		.ascii	"\215fS\323jtX\331\035\035\032\214'^M\320i\265\300\""
 109      6A7458D9 
 109      1D1D1A8C 
 109      275E4DD0 
 109      69B5C022 
 110 0355 E6D569E6 		.ascii	"\346\325i\346G=~t8\266;6LmYxx\307\325B:?\233\311RM\317"
 110      473D7E74 
 110      38B63B36 
 110      4C6D5978 
 110      78C7D542 
 111 0370 60541424 		.ascii	"`T\024$\0253e)]\316\243\345\202\311\221\261\224\236"
 111      15336529 
 111      5DCEA3E5 
 111      82C991B1 
 111      949E
 112 0382 0A269F13 		.ascii	"\012&\237\023\247Qq\032\023\247\275\354\024J\216L\216"
 112      A751711A 
 112      13A7BDEC 
ARM GAS  /tmp/ccefUha0.s 			page 8


 112      144A8E4C 
 112      8E
 113 0393 160B87D4 		.ascii	"\026\013\207\324\231n\\\357DA\325w4\346@+\247\3319\226"
 113      996E5CEF 
 113      4441D577 
 113      34E6402B 
 113      A7D93996 
 114 03a7 86A0A633 		.ascii	"\206\240\2463\217'\032=\034\021( 4]L\2253\314oS6\371"
 114      8F271A3D 
 114      1C112820 
 114      345D4C95 
 114      33CC6F53 
 115 03bd 88460F4C 		.ascii	"\210F\017LNL\355}Y\341YU\222\361\301\204\030\300\271"
 115      4E4CED7D 
 115      59E15955 
 115      92F1C184 
 115      18C0B9
 116 03d0 418D4F1C 		.ascii	"A\215O\034h\031 [VQI\016\036R\314\022(*\372\367\346"
 116      6819205B 
 116      5651490E 
 116      1E52CC12 
 116      282AFAF7 
 117 03e5 5C37837E 		.ascii	"\\7\203~5\344\375\363\361#Gh\316)!Ce\262\207R\263y]"
 117      35E4FDF3 
 117      F1234768 
 117      CE292143 
 117      65B28752 
 118 03fc 49F35CFC 		.ascii	"I\363\\\374\017r\005 \320"
 118      0F720520 
 118      D0
 119              		.text
 120              		.section	.gnu.lto_.symtab.b2f3d8a0932497ce,"",%progbits
 121 0000 68616C49 		.ascii	"halInit\000\000\000\000\000\000\000\000\000\000\000"
 121      6E697400 
 121      00000000 
 121      00000000 
 121      0000
 122 0012 00C00000 		.ascii	"\000\300\000\000\000stInit\000\000\002\000\000\000\000"
 122      00737449 
 122      6E697400 
 122      00020000 
 122      0000
 123 0024 00000000 		.ascii	"\000\000\000\000\000\304\000\000\000boardInit\000\000"
 123      00C40000 
 123      00626F61 
 123      7264496E 
 123      69740000 
 124 0038 02000000 		.ascii	"\002\000\000\000\000\000\000\000\000\000\306\000\000"
 124      00000000 
 124      0000C600 
 124      00
 125 0045 00736449 		.ascii	"\000sdInit\000\000\002\000\000\000\000\000\000\000\000"
 125      6E697400 
 125      00020000 
 125      00000000 
 125      0000
 126 0057 00C80000 		.ascii	"\000\310\000\000\000_pal_lld_init\000\000\002\000\000"
ARM GAS  /tmp/ccefUha0.s 			page 9


 126      005F7061 
 126      6C5F6C6C 
 126      645F696E 
 126      69740000 
 127 006e 00000000 		.ascii	"\000\000\000\000\000\000\000\312\000\000\000hal_lld"
 127      000000CA 
 127      00000068 
 127      616C5F6C 
 127      6C64
 128 0080 5F696E69 		.ascii	"_init\000\000\002\000\000\000\000\000\000\000\000\000"
 128      74000002 
 128      00000000 
 128      00000000 
 128      00
 129 0091 CE000000 		.ascii	"\316\000\000\000pal_default_config\000\000\002\000\000"
 129      70616C5F 
 129      64656661 
 129      756C745F 
 129      636F6E66 
 130 00ac 00000000 		.ascii	"\000\000\000\000\000\000\000\320\000\000\000"
 130      000000D0 
 130      000000
 131              		.text
 132              		.section	.gnu.lto_.opts,"",%progbits
 133 0000 272D6D63 		.ascii	"'-mcpu=cortex-m3''-mno-thumb-interwork''-mthumb''-g"
 133      70753D63 
 133      6F727465 
 133      782D6D33 
 133      27272D6D 
 134 0033 67646227 		.ascii	"gdb''-O2''-fomit-frame-pointer''-falign-functions=1"
 134      272D4F32 
 134      27272D66 
 134      6F6D6974 
 134      2D667261 
 135 0066 3627272D 		.ascii	"6''-ffunction-sections''-fdata-sections''-fno-commo"
 135      6666756E 
 135      6374696F 
 135      6E2D7365 
 135      6374696F 
 136 0099 6E27272D 		.ascii	"n''-flto'\000"
 136      666C746F 
 136      2700
 137              		.text
 138              		.cfi_sections	.debug_frame
 139              		.section	.text.halInit,"ax",%progbits
 140              		.align	2
 141              		.p2align 4,,15
 142              		.global	halInit
 143              		.thumb
 144              		.thumb_func
 145              		.type	halInit, %function
 146              	halInit:
 147              	.LFB194:
 148              		.file 1 "../../../os/hal/src/hal.c"
 149              		.loc 1 60 0
 150              		.cfi_startproc
 151              		@ args = 0, pretend = 0, frame = 0
ARM GAS  /tmp/ccefUha0.s 			page 10


 152              		@ frame_needed = 0, uses_anonymous_args = 0
 153 0000 08B5     		push	{r3, lr}
 154              	.LCFI0:
 155              		.cfi_def_cfa_offset 8
 156              		.cfi_offset 3, -8
 157              		.cfi_offset 14, -4
 158              		.loc 1 66 0
 159 0002 FFF7FEFF 		bl	hal_lld_init
 160              	.LVL0:
 161              		.loc 1 69 0
 162 0006 40F20000 		movw	r0, #:lower16:pal_default_config
 163 000a C0F20000 		movt	r0, #:upper16:pal_default_config
 164 000e FFF7FEFF 		bl	_pal_lld_init
 165              	.LVL1:
 166              		.loc 1 99 0
 167 0012 FFF7FEFF 		bl	sdInit
 168              	.LVL2:
 169              		.loc 1 124 0
 170 0016 FFF7FEFF 		bl	boardInit
 171              	.LVL3:
 172              		.loc 1 130 0
 173 001a BDE80840 		pop	{r3, lr}
 174              		.loc 1 128 0
 175 001e FFF7FEBF 		b	stInit
 176              	.LVL4:
 177              		.cfi_endproc
 178              	.LFE194:
 179              		.size	halInit, .-halInit
 180 0022 00BFAFF3 		.text
 180      0080AFF3 
 180      0080AFF3 
 180      0080
 181              	.Letext0:
 182              		.file 2 "/opt/ARM/gcc-arm-none-eabi-4_7-2013q3/bin/../lib/gcc/arm-none-eabi/4.7.4/../../../../arm-
 183              		.file 3 "../../../os/rt/include/chschd.h"
 184              		.file 4 "../../../os/rt/ports/ARMCMx/compilers/GCC/chtypes.h"
 185              		.file 5 "../../../os/rt/ports/ARMCMx/chcore.h"
 186              		.file 6 "../../../os/rt/ports/ARMCMx/chcore_v7m.h"
 187              		.file 7 "../../../os/rt/include/chmtx.h"
 188              		.file 8 "../../../os/hal/ports/STM32/LLD/GPIOv1/pal_lld.h"
 189              		.file 9 "../../../os/ext/CMSIS/include/core_cm3.h"
 190              		.file 10 "../../../os/hal/ports/STM32/STM32F1xx/hal_lld.h"
 191              		.file 11 "../../../os/hal/include/serial.h"
 192              		.file 12 "../../../os/hal/boards/OLIMEX_STM32_P103/board.h"
 193              		.file 13 "../../../os/hal/include/st.h"
 194              		.file 14 "../../../os/hal/osal/rt/osal.h"
 195              		.section	.debug_info,"",%progbits
 196              	.Ldebug_info0:
 197 0000 9B060000 		.4byte	0x69b
 198 0004 0200     		.2byte	0x2
 199 0006 00000000 		.4byte	.Ldebug_abbrev0
 200 000a 04       		.byte	0x4
 201 000b 01       		.uleb128 0x1
 202 000c DB010000 		.4byte	.LASF91
 203 0010 01       		.byte	0x1
 204 0011 82020000 		.4byte	.LASF92
 205 0015 E4030000 		.4byte	.LASF93
ARM GAS  /tmp/ccefUha0.s 			page 11


 206 0019 00000000 		.4byte	.Ldebug_ranges0+0
 207 001d 00000000 		.4byte	0
 208 0021 00000000 		.4byte	0
 209 0025 00000000 		.4byte	.Ldebug_line0
 210 0029 02       		.uleb128 0x2
 211 002a 04       		.byte	0x4
 212 002b 05       		.byte	0x5
 213 002c 696E7400 		.ascii	"int\000"
 214 0030 03       		.uleb128 0x3
 215 0031 04       		.byte	0x4
 216 0032 07       		.byte	0x7
 217 0033 CE010000 		.4byte	.LASF0
 218 0037 03       		.uleb128 0x3
 219 0038 01       		.byte	0x1
 220 0039 06       		.byte	0x6
 221 003a 98010000 		.4byte	.LASF1
 222 003e 04       		.uleb128 0x4
 223 003f AE000000 		.4byte	.LASF4
 224 0043 02       		.byte	0x2
 225 0044 2A       		.byte	0x2a
 226 0045 49000000 		.4byte	0x49
 227 0049 03       		.uleb128 0x3
 228 004a 01       		.byte	0x1
 229 004b 08       		.byte	0x8
 230 004c 83010000 		.4byte	.LASF2
 231 0050 03       		.uleb128 0x3
 232 0051 02       		.byte	0x2
 233 0052 05       		.byte	0x5
 234 0053 29000000 		.4byte	.LASF3
 235 0057 04       		.uleb128 0x4
 236 0058 B1020000 		.4byte	.LASF5
 237 005c 02       		.byte	0x2
 238 005d 36       		.byte	0x36
 239 005e 62000000 		.4byte	0x62
 240 0062 03       		.uleb128 0x3
 241 0063 02       		.byte	0x2
 242 0064 07       		.byte	0x7
 243 0065 12030000 		.4byte	.LASF6
 244 0069 04       		.uleb128 0x4
 245 006a C2020000 		.4byte	.LASF7
 246 006e 02       		.byte	0x2
 247 006f 4F       		.byte	0x4f
 248 0070 74000000 		.4byte	0x74
 249 0074 03       		.uleb128 0x3
 250 0075 04       		.byte	0x4
 251 0076 05       		.byte	0x5
 252 0077 16010000 		.4byte	.LASF8
 253 007b 04       		.uleb128 0x4
 254 007c B6000000 		.4byte	.LASF9
 255 0080 02       		.byte	0x2
 256 0081 50       		.byte	0x50
 257 0082 86000000 		.4byte	0x86
 258 0086 03       		.uleb128 0x3
 259 0087 04       		.byte	0x4
 260 0088 07       		.byte	0x7
 261 0089 25030000 		.4byte	.LASF10
 262 008d 03       		.uleb128 0x3
ARM GAS  /tmp/ccefUha0.s 			page 12


 263 008e 08       		.byte	0x8
 264 008f 05       		.byte	0x5
 265 0090 F8000000 		.4byte	.LASF11
 266 0094 03       		.uleb128 0x3
 267 0095 08       		.byte	0x8
 268 0096 07       		.byte	0x7
 269 0097 AC010000 		.4byte	.LASF12
 270 009b 05       		.uleb128 0x5
 271 009c 62020000 		.4byte	.LASF40
 272 00a0 44       		.byte	0x44
 273 00a1 03       		.byte	0x3
 274 00a2 79       		.byte	0x79
 275 00a3 A4010000 		.4byte	0x1a4
 276 00a7 06       		.uleb128 0x6
 277 00a8 87000000 		.4byte	.LASF13
 278 00ac 03       		.byte	0x3
 279 00ad 7A       		.byte	0x7a
 280 00ae E8020000 		.4byte	0x2e8
 281 00b2 02       		.byte	0x2
 282 00b3 23       		.byte	0x23
 283 00b4 00       		.uleb128 0
 284 00b5 06       		.uleb128 0x6
 285 00b6 52000000 		.4byte	.LASF14
 286 00ba 03       		.byte	0x3
 287 00bb 7C       		.byte	0x7c
 288 00bc E8020000 		.4byte	0x2e8
 289 00c0 02       		.byte	0x2
 290 00c1 23       		.byte	0x23
 291 00c2 04       		.uleb128 0x4
 292 00c3 06       		.uleb128 0x6
 293 00c4 76000000 		.4byte	.LASF15
 294 00c8 03       		.byte	0x3
 295 00c9 7E       		.byte	0x7e
 296 00ca D5010000 		.4byte	0x1d5
 297 00ce 02       		.byte	0x2
 298 00cf 23       		.byte	0x23
 299 00d0 08       		.uleb128 0x8
 300 00d1 06       		.uleb128 0x6
 301 00d2 A6030000 		.4byte	.LASF16
 302 00d6 03       		.byte	0x3
 303 00d7 7F       		.byte	0x7f
 304 00d8 15020000 		.4byte	0x215
 305 00dc 02       		.byte	0x2
 306 00dd 23       		.byte	0x23
 307 00de 0C       		.uleb128 0xc
 308 00df 06       		.uleb128 0x6
 309 00e0 A4010000 		.4byte	.LASF17
 310 00e4 03       		.byte	0x3
 311 00e5 81       		.byte	0x81
 312 00e6 E8020000 		.4byte	0x2e8
 313 00ea 02       		.byte	0x2
 314 00eb 23       		.byte	0x23
 315 00ec 10       		.uleb128 0x10
 316 00ed 06       		.uleb128 0x6
 317 00ee 6D030000 		.4byte	.LASF18
 318 00f2 03       		.byte	0x3
 319 00f3 82       		.byte	0x82
ARM GAS  /tmp/ccefUha0.s 			page 13


 320 00f4 E8020000 		.4byte	0x2e8
 321 00f8 02       		.byte	0x2
 322 00f9 23       		.byte	0x23
 323 00fa 14       		.uleb128 0x14
 324 00fb 06       		.uleb128 0x6
 325 00fc 04030000 		.4byte	.LASF19
 326 0100 03       		.byte	0x3
 327 0101 89       		.byte	0x89
 328 0102 B8030000 		.4byte	0x3b8
 329 0106 02       		.byte	0x2
 330 0107 23       		.byte	0x23
 331 0108 18       		.uleb128 0x18
 332 0109 06       		.uleb128 0x6
 333 010a D1020000 		.4byte	.LASF20
 334 010e 03       		.byte	0x3
 335 010f 94       		.byte	0x94
 336 0110 BF010000 		.4byte	0x1bf
 337 0114 02       		.byte	0x2
 338 0115 23       		.byte	0x23
 339 0116 1C       		.uleb128 0x1c
 340 0117 06       		.uleb128 0x6
 341 0118 71020000 		.4byte	.LASF21
 342 011c 03       		.byte	0x3
 343 011d 98       		.byte	0x98
 344 011e B4010000 		.4byte	0x1b4
 345 0122 02       		.byte	0x2
 346 0123 23       		.byte	0x23
 347 0124 1D       		.uleb128 0x1d
 348 0125 06       		.uleb128 0x6
 349 0126 9F030000 		.4byte	.LASF22
 350 012a 03       		.byte	0x3
 351 012b 9D       		.byte	0x9d
 352 012c CA010000 		.4byte	0x1ca
 353 0130 02       		.byte	0x2
 354 0131 23       		.byte	0x23
 355 0132 1E       		.uleb128 0x1e
 356 0133 07       		.uleb128 0x7
 357 0134 705F7500 		.ascii	"p_u\000"
 358 0138 03       		.byte	0x3
 359 0139 CF       		.byte	0xcf
 360 013a 83030000 		.4byte	0x383
 361 013e 02       		.byte	0x2
 362 013f 23       		.byte	0x23
 363 0140 20       		.uleb128 0x20
 364 0141 06       		.uleb128 0x6
 365 0142 F0020000 		.4byte	.LASF23
 366 0146 03       		.byte	0x3
 367 0147 D4       		.byte	0xd4
 368 0148 10030000 		.4byte	0x310
 369 014c 02       		.byte	0x2
 370 014d 23       		.byte	0x23
 371 014e 24       		.uleb128 0x24
 372 014f 06       		.uleb128 0x6
 373 0150 6B000000 		.4byte	.LASF24
 374 0154 03       		.byte	0x3
 375 0155 DA       		.byte	0xda
 376 0156 EE020000 		.4byte	0x2ee
ARM GAS  /tmp/ccefUha0.s 			page 14


 377 015a 02       		.byte	0x2
 378 015b 23       		.byte	0x23
 379 015c 28       		.uleb128 0x28
 380 015d 06       		.uleb128 0x6
 381 015e 5A010000 		.4byte	.LASF25
 382 0162 03       		.byte	0x3
 383 0163 DE       		.byte	0xde
 384 0164 E0010000 		.4byte	0x1e0
 385 0168 02       		.byte	0x2
 386 0169 23       		.byte	0x23
 387 016a 30       		.uleb128 0x30
 388 016b 06       		.uleb128 0x6
 389 016c 60010000 		.4byte	.LASF26
 390 0170 03       		.byte	0x3
 391 0171 E4       		.byte	0xe4
 392 0172 EB010000 		.4byte	0x1eb
 393 0176 02       		.byte	0x2
 394 0177 23       		.byte	0x23
 395 0178 34       		.uleb128 0x34
 396 0179 06       		.uleb128 0x6
 397 017a FA020000 		.4byte	.LASF27
 398 017e 03       		.byte	0x3
 399 017f EB       		.byte	0xeb
 400 0180 01040000 		.4byte	0x401
 401 0184 02       		.byte	0x2
 402 0185 23       		.byte	0x23
 403 0186 38       		.uleb128 0x38
 404 0187 06       		.uleb128 0x6
 405 0188 C3010000 		.4byte	.LASF28
 406 018c 03       		.byte	0x3
 407 018d EF       		.byte	0xef
 408 018e D5010000 		.4byte	0x1d5
 409 0192 02       		.byte	0x2
 410 0193 23       		.byte	0x23
 411 0194 3C       		.uleb128 0x3c
 412 0195 06       		.uleb128 0x6
 413 0196 C1030000 		.4byte	.LASF29
 414 019a 03       		.byte	0x3
 415 019b F5       		.byte	0xf5
 416 019c 13020000 		.4byte	0x213
 417 01a0 02       		.byte	0x2
 418 01a1 23       		.byte	0x23
 419 01a2 40       		.uleb128 0x40
 420 01a3 00       		.byte	0
 421 01a4 08       		.uleb128 0x8
 422 01a5 69000000 		.4byte	0x69
 423 01a9 04       		.uleb128 0x4
 424 01aa 8E000000 		.4byte	.LASF30
 425 01ae 04       		.byte	0x4
 426 01af 46       		.byte	0x46
 427 01b0 7B000000 		.4byte	0x7b
 428 01b4 04       		.uleb128 0x4
 429 01b5 74010000 		.4byte	.LASF31
 430 01b9 04       		.byte	0x4
 431 01ba 49       		.byte	0x49
 432 01bb 3E000000 		.4byte	0x3e
 433 01bf 04       		.uleb128 0x4
ARM GAS  /tmp/ccefUha0.s 			page 15


 434 01c0 52030000 		.4byte	.LASF32
 435 01c4 04       		.byte	0x4
 436 01c5 4A       		.byte	0x4a
 437 01c6 3E000000 		.4byte	0x3e
 438 01ca 04       		.uleb128 0x4
 439 01cb 00000000 		.4byte	.LASF33
 440 01cf 04       		.byte	0x4
 441 01d0 4B       		.byte	0x4b
 442 01d1 3E000000 		.4byte	0x3e
 443 01d5 04       		.uleb128 0x4
 444 01d6 0E010000 		.4byte	.LASF34
 445 01da 04       		.byte	0x4
 446 01db 4D       		.byte	0x4d
 447 01dc 7B000000 		.4byte	0x7b
 448 01e0 04       		.uleb128 0x4
 449 01e1 DE030000 		.4byte	.LASF35
 450 01e5 04       		.byte	0x4
 451 01e6 4E       		.byte	0x4e
 452 01e7 69000000 		.4byte	0x69
 453 01eb 04       		.uleb128 0x4
 454 01ec 5F000000 		.4byte	.LASF36
 455 01f0 04       		.byte	0x4
 456 01f1 50       		.byte	0x50
 457 01f2 7B000000 		.4byte	0x7b
 458 01f6 03       		.uleb128 0x3
 459 01f7 04       		.byte	0x4
 460 01f8 07       		.byte	0x7
 461 01f9 42000000 		.4byte	.LASF37
 462 01fd 04       		.uleb128 0x4
 463 01fe 9C020000 		.4byte	.LASF38
 464 0202 05       		.byte	0x5
 465 0203 89       		.byte	0x89
 466 0204 57000000 		.4byte	0x57
 467 0208 04       		.uleb128 0x4
 468 0209 A5000000 		.4byte	.LASF39
 469 020d 05       		.byte	0x5
 470 020e 8F       		.byte	0x8f
 471 020f 13020000 		.4byte	0x213
 472 0213 09       		.uleb128 0x9
 473 0214 04       		.byte	0x4
 474 0215 05       		.uleb128 0x5
 475 0216 48010000 		.4byte	.LASF41
 476 021a 04       		.byte	0x4
 477 021b 05       		.byte	0x5
 478 021c B3       		.byte	0xb3
 479 021d 30020000 		.4byte	0x230
 480 0221 07       		.uleb128 0x7
 481 0222 72313300 		.ascii	"r13\000"
 482 0226 05       		.byte	0x5
 483 0227 B4       		.byte	0xb4
 484 0228 BD020000 		.4byte	0x2bd
 485 022c 02       		.byte	0x2
 486 022d 23       		.byte	0x23
 487 022e 00       		.uleb128 0
 488 022f 00       		.byte	0
 489 0230 05       		.uleb128 0x5
 490 0231 37030000 		.4byte	.LASF42
ARM GAS  /tmp/ccefUha0.s 			page 16


 491 0235 24       		.byte	0x24
 492 0236 06       		.byte	0x6
 493 0237 F5       		.byte	0xf5
 494 0238 BD020000 		.4byte	0x2bd
 495 023c 0A       		.uleb128 0xa
 496 023d 723400   		.ascii	"r4\000"
 497 0240 06       		.byte	0x6
 498 0241 0801     		.2byte	0x108
 499 0243 08020000 		.4byte	0x208
 500 0247 02       		.byte	0x2
 501 0248 23       		.byte	0x23
 502 0249 00       		.uleb128 0
 503 024a 0A       		.uleb128 0xa
 504 024b 723500   		.ascii	"r5\000"
 505 024e 06       		.byte	0x6
 506 024f 0901     		.2byte	0x109
 507 0251 08020000 		.4byte	0x208
 508 0255 02       		.byte	0x2
 509 0256 23       		.byte	0x23
 510 0257 04       		.uleb128 0x4
 511 0258 0A       		.uleb128 0xa
 512 0259 723600   		.ascii	"r6\000"
 513 025c 06       		.byte	0x6
 514 025d 0A01     		.2byte	0x10a
 515 025f 08020000 		.4byte	0x208
 516 0263 02       		.byte	0x2
 517 0264 23       		.byte	0x23
 518 0265 08       		.uleb128 0x8
 519 0266 0A       		.uleb128 0xa
 520 0267 723700   		.ascii	"r7\000"
 521 026a 06       		.byte	0x6
 522 026b 0B01     		.2byte	0x10b
 523 026d 08020000 		.4byte	0x208
 524 0271 02       		.byte	0x2
 525 0272 23       		.byte	0x23
 526 0273 0C       		.uleb128 0xc
 527 0274 0A       		.uleb128 0xa
 528 0275 723800   		.ascii	"r8\000"
 529 0278 06       		.byte	0x6
 530 0279 0C01     		.2byte	0x10c
 531 027b 08020000 		.4byte	0x208
 532 027f 02       		.byte	0x2
 533 0280 23       		.byte	0x23
 534 0281 10       		.uleb128 0x10
 535 0282 0A       		.uleb128 0xa
 536 0283 723900   		.ascii	"r9\000"
 537 0286 06       		.byte	0x6
 538 0287 0D01     		.2byte	0x10d
 539 0289 08020000 		.4byte	0x208
 540 028d 02       		.byte	0x2
 541 028e 23       		.byte	0x23
 542 028f 14       		.uleb128 0x14
 543 0290 0A       		.uleb128 0xa
 544 0291 72313000 		.ascii	"r10\000"
 545 0295 06       		.byte	0x6
 546 0296 0E01     		.2byte	0x10e
 547 0298 08020000 		.4byte	0x208
ARM GAS  /tmp/ccefUha0.s 			page 17


 548 029c 02       		.byte	0x2
 549 029d 23       		.byte	0x23
 550 029e 18       		.uleb128 0x18
 551 029f 0A       		.uleb128 0xa
 552 02a0 72313100 		.ascii	"r11\000"
 553 02a4 06       		.byte	0x6
 554 02a5 0F01     		.2byte	0x10f
 555 02a7 08020000 		.4byte	0x208
 556 02ab 02       		.byte	0x2
 557 02ac 23       		.byte	0x23
 558 02ad 1C       		.uleb128 0x1c
 559 02ae 0A       		.uleb128 0xa
 560 02af 6C7200   		.ascii	"lr\000"
 561 02b2 06       		.byte	0x6
 562 02b3 1001     		.2byte	0x110
 563 02b5 08020000 		.4byte	0x208
 564 02b9 02       		.byte	0x2
 565 02ba 23       		.byte	0x23
 566 02bb 20       		.uleb128 0x20
 567 02bc 00       		.byte	0
 568 02bd 0B       		.uleb128 0xb
 569 02be 04       		.byte	0x4
 570 02bf 30020000 		.4byte	0x230
 571 02c3 0C       		.uleb128 0xc
 572 02c4 08       		.byte	0x8
 573 02c5 03       		.byte	0x3
 574 02c6 53       		.byte	0x53
 575 02c7 E8020000 		.4byte	0x2e8
 576 02cb 06       		.uleb128 0x6
 577 02cc 87000000 		.4byte	.LASF13
 578 02d0 03       		.byte	0x3
 579 02d1 54       		.byte	0x54
 580 02d2 E8020000 		.4byte	0x2e8
 581 02d6 02       		.byte	0x2
 582 02d7 23       		.byte	0x23
 583 02d8 00       		.uleb128 0
 584 02d9 06       		.uleb128 0x6
 585 02da 52000000 		.4byte	.LASF14
 586 02de 03       		.byte	0x3
 587 02df 55       		.byte	0x55
 588 02e0 E8020000 		.4byte	0x2e8
 589 02e4 02       		.byte	0x2
 590 02e5 23       		.byte	0x23
 591 02e6 04       		.uleb128 0x4
 592 02e7 00       		.byte	0
 593 02e8 0B       		.uleb128 0xb
 594 02e9 04       		.byte	0x4
 595 02ea 9B000000 		.4byte	0x9b
 596 02ee 04       		.uleb128 0x4
 597 02ef 4C020000 		.4byte	.LASF43
 598 02f3 03       		.byte	0x3
 599 02f4 56       		.byte	0x56
 600 02f5 C3020000 		.4byte	0x2c3
 601 02f9 0C       		.uleb128 0xc
 602 02fa 04       		.byte	0x4
 603 02fb 03       		.byte	0x3
 604 02fc 5B       		.byte	0x5b
ARM GAS  /tmp/ccefUha0.s 			page 18


 605 02fd 10030000 		.4byte	0x310
 606 0301 06       		.uleb128 0x6
 607 0302 87000000 		.4byte	.LASF13
 608 0306 03       		.byte	0x3
 609 0307 5C       		.byte	0x5c
 610 0308 E8020000 		.4byte	0x2e8
 611 030c 02       		.byte	0x2
 612 030d 23       		.byte	0x23
 613 030e 00       		.uleb128 0
 614 030f 00       		.byte	0
 615 0310 04       		.uleb128 0x4
 616 0311 45040000 		.4byte	.LASF44
 617 0315 03       		.byte	0x3
 618 0316 5D       		.byte	0x5d
 619 0317 F9020000 		.4byte	0x2f9
 620 031b 0C       		.uleb128 0xc
 621 031c 1C       		.byte	0x1c
 622 031d 03       		.byte	0x3
 623 031e 64       		.byte	0x64
 624 031f 78030000 		.4byte	0x378
 625 0323 06       		.uleb128 0x6
 626 0324 33000000 		.4byte	.LASF45
 627 0328 03       		.byte	0x3
 628 0329 65       		.byte	0x65
 629 032a EE020000 		.4byte	0x2ee
 630 032e 02       		.byte	0x2
 631 032f 23       		.byte	0x23
 632 0330 00       		.uleb128 0
 633 0331 06       		.uleb128 0x6
 634 0332 CA020000 		.4byte	.LASF46
 635 0336 03       		.byte	0x3
 636 0337 66       		.byte	0x66
 637 0338 D5010000 		.4byte	0x1d5
 638 033c 02       		.byte	0x2
 639 033d 23       		.byte	0x23
 640 033e 08       		.uleb128 0x8
 641 033f 06       		.uleb128 0x6
 642 0340 59000000 		.4byte	.LASF47
 643 0344 03       		.byte	0x3
 644 0345 68       		.byte	0x68
 645 0346 15020000 		.4byte	0x215
 646 034a 02       		.byte	0x2
 647 034b 23       		.byte	0x23
 648 034c 0C       		.uleb128 0xc
 649 034d 06       		.uleb128 0x6
 650 034e 69020000 		.4byte	.LASF48
 651 0352 03       		.byte	0x3
 652 0353 6B       		.byte	0x6b
 653 0354 E8020000 		.4byte	0x2e8
 654 0358 02       		.byte	0x2
 655 0359 23       		.byte	0x23
 656 035a 10       		.uleb128 0x10
 657 035b 06       		.uleb128 0x6
 658 035c 3D040000 		.4byte	.LASF49
 659 0360 03       		.byte	0x3
 660 0361 6C       		.byte	0x6c
 661 0362 E8020000 		.4byte	0x2e8
ARM GAS  /tmp/ccefUha0.s 			page 19


 662 0366 02       		.byte	0x2
 663 0367 23       		.byte	0x23
 664 0368 14       		.uleb128 0x14
 665 0369 06       		.uleb128 0x6
 666 036a 50010000 		.4byte	.LASF50
 667 036e 03       		.byte	0x3
 668 036f 6F       		.byte	0x6f
 669 0370 E8020000 		.4byte	0x2e8
 670 0374 02       		.byte	0x2
 671 0375 23       		.byte	0x23
 672 0376 18       		.uleb128 0x18
 673 0377 00       		.byte	0
 674 0378 04       		.uleb128 0x4
 675 0379 75030000 		.4byte	.LASF51
 676 037d 03       		.byte	0x3
 677 037e 71       		.byte	0x71
 678 037f 1B030000 		.4byte	0x31b
 679 0383 0D       		.uleb128 0xd
 680 0384 04       		.byte	0x4
 681 0385 03       		.byte	0x3
 682 0386 B1       		.byte	0xb1
 683 0387 B8030000 		.4byte	0x3b8
 684 038b 0E       		.uleb128 0xe
 685 038c 4B000000 		.4byte	.LASF52
 686 0390 03       		.byte	0x3
 687 0391 B8       		.byte	0xb8
 688 0392 E0010000 		.4byte	0x1e0
 689 0396 0E       		.uleb128 0xe
 690 0397 5B030000 		.4byte	.LASF53
 691 039b 03       		.byte	0x3
 692 039c BF       		.byte	0xbf
 693 039d E0010000 		.4byte	0x1e0
 694 03a1 0E       		.uleb128 0xe
 695 03a2 4B030000 		.4byte	.LASF54
 696 03a6 03       		.byte	0x3
 697 03a7 C6       		.byte	0xc6
 698 03a8 13020000 		.4byte	0x213
 699 03ac 0E       		.uleb128 0xe
 700 03ad 91010000 		.4byte	.LASF55
 701 03b1 03       		.byte	0x3
 702 03b2 CD       		.byte	0xcd
 703 03b3 EB010000 		.4byte	0x1eb
 704 03b7 00       		.byte	0
 705 03b8 0B       		.uleb128 0xb
 706 03b9 04       		.byte	0x4
 707 03ba BE030000 		.4byte	0x3be
 708 03be 0F       		.uleb128 0xf
 709 03bf C3030000 		.4byte	0x3c3
 710 03c3 03       		.uleb128 0x3
 711 03c4 01       		.byte	0x1
 712 03c5 08       		.byte	0x8
 713 03c6 AC020000 		.4byte	.LASF56
 714 03ca 05       		.uleb128 0x5
 715 03cb 5C020000 		.4byte	.LASF57
 716 03cf 10       		.byte	0x10
 717 03d0 07       		.byte	0x7
 718 03d1 3A       		.byte	0x3a
ARM GAS  /tmp/ccefUha0.s 			page 20


 719 03d2 01040000 		.4byte	0x401
 720 03d6 06       		.uleb128 0x6
 721 03d7 40010000 		.4byte	.LASF58
 722 03db 07       		.byte	0x7
 723 03dc 3B       		.byte	0x3b
 724 03dd EE020000 		.4byte	0x2ee
 725 03e1 02       		.byte	0x2
 726 03e2 23       		.byte	0x23
 727 03e3 00       		.uleb128 0
 728 03e4 06       		.uleb128 0x6
 729 03e5 B9030000 		.4byte	.LASF59
 730 03e9 07       		.byte	0x7
 731 03ea 3D       		.byte	0x3d
 732 03eb E8020000 		.4byte	0x2e8
 733 03ef 02       		.byte	0x2
 734 03f0 23       		.byte	0x23
 735 03f1 08       		.uleb128 0x8
 736 03f2 06       		.uleb128 0x6
 737 03f3 3B000000 		.4byte	.LASF60
 738 03f7 07       		.byte	0x7
 739 03f8 3F       		.byte	0x3f
 740 03f9 34050000 		.4byte	0x534
 741 03fd 02       		.byte	0x2
 742 03fe 23       		.byte	0x23
 743 03ff 0C       		.uleb128 0xc
 744 0400 00       		.byte	0
 745 0401 0B       		.uleb128 0xb
 746 0402 04       		.byte	0x4
 747 0403 CA030000 		.4byte	0x3ca
 748 0407 10       		.uleb128 0x10
 749 0408 64030000 		.4byte	.LASF61
 750 040c 03       		.byte	0x3
 751 040d 0301     		.2byte	0x103
 752 040f 13040000 		.4byte	0x413
 753 0413 0B       		.uleb128 0xb
 754 0414 04       		.byte	0x4
 755 0415 19040000 		.4byte	0x419
 756 0419 11       		.uleb128 0x11
 757 041a 01       		.byte	0x1
 758 041b 25040000 		.4byte	0x425
 759 041f 12       		.uleb128 0x12
 760 0420 13020000 		.4byte	0x213
 761 0424 00       		.byte	0
 762 0425 10       		.uleb128 0x10
 763 0426 30010000 		.4byte	.LASF62
 764 042a 03       		.byte	0x3
 765 042b 0801     		.2byte	0x108
 766 042d 31040000 		.4byte	0x431
 767 0431 13       		.uleb128 0x13
 768 0432 C9030000 		.4byte	.LASF63
 769 0436 14       		.byte	0x14
 770 0437 03       		.byte	0x3
 771 0438 0F01     		.2byte	0x10f
 772 043a 8A040000 		.4byte	0x48a
 773 043e 14       		.uleb128 0x14
 774 043f 24020000 		.4byte	.LASF64
 775 0443 03       		.byte	0x3
ARM GAS  /tmp/ccefUha0.s 			page 21


 776 0444 1001     		.2byte	0x110
 777 0446 8A040000 		.4byte	0x48a
 778 044a 02       		.byte	0x2
 779 044b 23       		.byte	0x23
 780 044c 00       		.uleb128 0
 781 044d 14       		.uleb128 0x14
 782 044e 43030000 		.4byte	.LASF65
 783 0452 03       		.byte	0x3
 784 0453 1101     		.2byte	0x111
 785 0455 8A040000 		.4byte	0x48a
 786 0459 02       		.byte	0x2
 787 045a 23       		.byte	0x23
 788 045b 04       		.uleb128 0x4
 789 045c 14       		.uleb128 0x14
 790 045d 79020000 		.4byte	.LASF66
 791 0461 03       		.byte	0x3
 792 0462 1201     		.2byte	0x112
 793 0464 FD010000 		.4byte	0x1fd
 794 0468 02       		.byte	0x2
 795 0469 23       		.byte	0x23
 796 046a 08       		.uleb128 0x8
 797 046b 14       		.uleb128 0x14
 798 046c 9D000000 		.4byte	.LASF67
 799 0470 03       		.byte	0x3
 800 0471 1301     		.2byte	0x113
 801 0473 07040000 		.4byte	0x407
 802 0477 02       		.byte	0x2
 803 0478 23       		.byte	0x23
 804 0479 0C       		.uleb128 0xc
 805 047a 14       		.uleb128 0x14
 806 047b 96000000 		.4byte	.LASF68
 807 047f 03       		.byte	0x3
 808 0480 1501     		.2byte	0x115
 809 0482 13020000 		.4byte	0x213
 810 0486 02       		.byte	0x2
 811 0487 23       		.byte	0x23
 812 0488 10       		.uleb128 0x10
 813 0489 00       		.byte	0
 814 048a 0B       		.uleb128 0xb
 815 048b 04       		.byte	0x4
 816 048c 25040000 		.4byte	0x425
 817 0490 15       		.uleb128 0x15
 818 0491 0C       		.byte	0xc
 819 0492 03       		.byte	0x3
 820 0493 1F01     		.2byte	0x11f
 821 0495 D6040000 		.4byte	0x4d6
 822 0499 14       		.uleb128 0x14
 823 049a 24020000 		.4byte	.LASF64
 824 049e 03       		.byte	0x3
 825 049f 2001     		.2byte	0x120
 826 04a1 8A040000 		.4byte	0x48a
 827 04a5 02       		.byte	0x2
 828 04a6 23       		.byte	0x23
 829 04a7 00       		.uleb128 0
 830 04a8 14       		.uleb128 0x14
 831 04a9 43030000 		.4byte	.LASF65
 832 04ad 03       		.byte	0x3
ARM GAS  /tmp/ccefUha0.s 			page 22


 833 04ae 2201     		.2byte	0x122
 834 04b0 8A040000 		.4byte	0x48a
 835 04b4 02       		.byte	0x2
 836 04b5 23       		.byte	0x23
 837 04b6 04       		.uleb128 0x4
 838 04b7 14       		.uleb128 0x14
 839 04b8 79020000 		.4byte	.LASF66
 840 04bc 03       		.byte	0x3
 841 04bd 2401     		.2byte	0x124
 842 04bf FD010000 		.4byte	0x1fd
 843 04c3 02       		.byte	0x2
 844 04c4 23       		.byte	0x23
 845 04c5 08       		.uleb128 0x8
 846 04c6 14       		.uleb128 0x14
 847 04c7 E5000000 		.4byte	.LASF69
 848 04cb 03       		.byte	0x3
 849 04cc 2C01     		.2byte	0x12c
 850 04ce FD010000 		.4byte	0x1fd
 851 04d2 02       		.byte	0x2
 852 04d3 23       		.byte	0x23
 853 04d4 0A       		.uleb128 0xa
 854 04d5 00       		.byte	0
 855 04d6 10       		.uleb128 0x10
 856 04d7 89030000 		.4byte	.LASF70
 857 04db 03       		.byte	0x3
 858 04dc 2F01     		.2byte	0x12f
 859 04de 90040000 		.4byte	0x490
 860 04e2 13       		.uleb128 0x13
 861 04e3 26010000 		.4byte	.LASF71
 862 04e7 2C       		.byte	0x2c
 863 04e8 03       		.byte	0x3
 864 04e9 3601     		.2byte	0x136
 865 04eb 1D050000 		.4byte	0x51d
 866 04ef 14       		.uleb128 0x14
 867 04f0 A6020000 		.4byte	.LASF72
 868 04f4 03       		.byte	0x3
 869 04f5 3A01     		.2byte	0x13a
 870 04f7 78030000 		.4byte	0x378
 871 04fb 02       		.byte	0x2
 872 04fc 23       		.byte	0x23
 873 04fd 00       		.uleb128 0
 874 04fe 14       		.uleb128 0x14
 875 04ff D7030000 		.4byte	.LASF73
 876 0503 03       		.byte	0x3
 877 0504 3E01     		.2byte	0x13e
 878 0506 D6040000 		.4byte	0x4d6
 879 050a 02       		.byte	0x2
 880 050b 23       		.byte	0x23
 881 050c 1C       		.uleb128 0x1c
 882 050d 14       		.uleb128 0x14
 883 050e D2000000 		.4byte	.LASF74
 884 0512 03       		.byte	0x3
 885 0513 4301     		.2byte	0x143
 886 0515 A9010000 		.4byte	0x1a9
 887 0519 02       		.byte	0x2
 888 051a 23       		.byte	0x23
 889 051b 28       		.uleb128 0x28
ARM GAS  /tmp/ccefUha0.s 			page 23


 890 051c 00       		.byte	0
 891 051d 10       		.uleb128 0x10
 892 051e C6000000 		.4byte	.LASF75
 893 0522 03       		.byte	0x3
 894 0523 6501     		.2byte	0x165
 895 0525 E2040000 		.4byte	0x4e2
 896 0529 04       		.uleb128 0x4
 897 052a BA020000 		.4byte	.LASF76
 898 052e 07       		.byte	0x7
 899 052f 35       		.byte	0x35
 900 0530 CA030000 		.4byte	0x3ca
 901 0534 0B       		.uleb128 0xb
 902 0535 04       		.byte	0x4
 903 0536 29050000 		.4byte	0x529
 904 053a 03       		.uleb128 0x3
 905 053b 01       		.byte	0x1
 906 053c 02       		.byte	0x2
 907 053d EA020000 		.4byte	.LASF77
 908 0541 0C       		.uleb128 0xc
 909 0542 0C       		.byte	0xc
 910 0543 08       		.byte	0x8
 911 0544 38       		.byte	0x38
 912 0545 74050000 		.4byte	0x574
 913 0549 07       		.uleb128 0x7
 914 054a 6F647200 		.ascii	"odr\000"
 915 054e 08       		.byte	0x8
 916 054f 3A       		.byte	0x3a
 917 0550 7B000000 		.4byte	0x7b
 918 0554 02       		.byte	0x2
 919 0555 23       		.byte	0x23
 920 0556 00       		.uleb128 0
 921 0557 07       		.uleb128 0x7
 922 0558 63726C00 		.ascii	"crl\000"
 923 055c 08       		.byte	0x8
 924 055d 3C       		.byte	0x3c
 925 055e 7B000000 		.4byte	0x7b
 926 0562 02       		.byte	0x2
 927 0563 23       		.byte	0x23
 928 0564 04       		.uleb128 0x4
 929 0565 07       		.uleb128 0x7
 930 0566 63726800 		.ascii	"crh\000"
 931 056a 08       		.byte	0x8
 932 056b 3E       		.byte	0x3e
 933 056c 7B000000 		.4byte	0x7b
 934 0570 02       		.byte	0x2
 935 0571 23       		.byte	0x23
 936 0572 08       		.uleb128 0x8
 937 0573 00       		.byte	0
 938 0574 04       		.uleb128 0x4
 939 0575 2C020000 		.4byte	.LASF78
 940 0579 08       		.byte	0x8
 941 057a 3F       		.byte	0x3f
 942 057b 41050000 		.4byte	0x541
 943 057f 0C       		.uleb128 0xc
 944 0580 3C       		.byte	0x3c
 945 0581 08       		.byte	0x8
 946 0582 48       		.byte	0x48
ARM GAS  /tmp/ccefUha0.s 			page 24


 947 0583 CE050000 		.4byte	0x5ce
 948 0587 06       		.uleb128 0x6
 949 0588 F1000000 		.4byte	.LASF79
 950 058c 08       		.byte	0x8
 951 058d 4A       		.byte	0x4a
 952 058e 74050000 		.4byte	0x574
 953 0592 02       		.byte	0x2
 954 0593 23       		.byte	0x23
 955 0594 00       		.uleb128 0
 956 0595 06       		.uleb128 0x6
 957 0596 E3020000 		.4byte	.LASF80
 958 059a 08       		.byte	0x8
 959 059b 4C       		.byte	0x4c
 960 059c 74050000 		.4byte	0x574
 961 05a0 02       		.byte	0x2
 962 05a1 23       		.byte	0x23
 963 05a2 0C       		.uleb128 0xc
 964 05a3 06       		.uleb128 0x6
 965 05a4 7C010000 		.4byte	.LASF81
 966 05a8 08       		.byte	0x8
 967 05a9 4E       		.byte	0x4e
 968 05aa 74050000 		.4byte	0x574
 969 05ae 02       		.byte	0x2
 970 05af 23       		.byte	0x23
 971 05b0 18       		.uleb128 0x18
 972 05b1 06       		.uleb128 0x6
 973 05b2 1F010000 		.4byte	.LASF82
 974 05b6 08       		.byte	0x8
 975 05b7 50       		.byte	0x50
 976 05b8 74050000 		.4byte	0x574
 977 05bc 02       		.byte	0x2
 978 05bd 23       		.byte	0x23
 979 05be 24       		.uleb128 0x24
 980 05bf 06       		.uleb128 0x6
 981 05c0 0B030000 		.4byte	.LASF83
 982 05c4 08       		.byte	0x8
 983 05c5 53       		.byte	0x53
 984 05c6 74050000 		.4byte	0x574
 985 05ca 02       		.byte	0x2
 986 05cb 23       		.byte	0x23
 987 05cc 30       		.uleb128 0x30
 988 05cd 00       		.byte	0
 989 05ce 04       		.uleb128 0x4
 990 05cf D9020000 		.4byte	.LASF84
 991 05d3 08       		.byte	0x8
 992 05d4 5D       		.byte	0x5d
 993 05d5 7F050000 		.4byte	0x57f
 994 05d9 16       		.uleb128 0x16
 995 05da 6B010000 		.4byte	.LASF94
 996 05de 0E       		.byte	0xe
 997 05df 9401     		.2byte	0x194
 998 05e1 01       		.byte	0x1
 999 05e2 03       		.byte	0x3
 1000 05e3 17       		.uleb128 0x17
 1001 05e4 01       		.byte	0x1
 1002 05e5 06010000 		.4byte	.LASF95
 1003 05e9 01       		.byte	0x1
ARM GAS  /tmp/ccefUha0.s 			page 25


 1004 05ea 3C       		.byte	0x3c
 1005 05eb 01       		.byte	0x1
 1006 05ec 00000000 		.4byte	.LFB194
 1007 05f0 22000000 		.4byte	.LFE194
 1008 05f4 00000000 		.4byte	.LLST0
 1009 05f8 01       		.byte	0x1
 1010 05f9 2C060000 		.4byte	0x62c
 1011 05fd 18       		.uleb128 0x18
 1012 05fe 06000000 		.4byte	.LVL0
 1013 0602 5A060000 		.4byte	0x65a
 1014 0606 18       		.uleb128 0x18
 1015 0607 12000000 		.4byte	.LVL1
 1016 060b 64060000 		.4byte	0x664
 1017 060f 18       		.uleb128 0x18
 1018 0610 16000000 		.4byte	.LVL2
 1019 0614 7F060000 		.4byte	0x67f
 1020 0618 18       		.uleb128 0x18
 1021 0619 1A000000 		.4byte	.LVL3
 1022 061d 8A060000 		.4byte	0x68a
 1023 0621 19       		.uleb128 0x19
 1024 0622 22000000 		.4byte	.LVL4
 1025 0626 01       		.byte	0x1
 1026 0627 94060000 		.4byte	0x694
 1027 062b 00       		.byte	0
 1028 062c 1A       		.uleb128 0x1a
 1029 062d AC030000 		.4byte	.LASF85
 1030 0631 09       		.byte	0x9
 1031 0632 1606     		.2byte	0x616
 1032 0634 A4010000 		.4byte	0x1a4
 1033 0638 01       		.byte	0x1
 1034 0639 01       		.byte	0x1
 1035 063a 1B       		.uleb128 0x1b
 1036 063b 636800   		.ascii	"ch\000"
 1037 063e 03       		.byte	0x3
 1038 063f 8901     		.2byte	0x189
 1039 0641 1D050000 		.4byte	0x51d
 1040 0645 01       		.byte	0x1
 1041 0646 01       		.byte	0x1
 1042 0647 1A       		.uleb128 0x1a
 1043 0648 16000000 		.4byte	.LASF86
 1044 064c 08       		.byte	0x8
 1045 064d 3D01     		.2byte	0x13d
 1046 064f 55060000 		.4byte	0x655
 1047 0653 01       		.byte	0x1
 1048 0654 01       		.byte	0x1
 1049 0655 0F       		.uleb128 0xf
 1050 0656 CE050000 		.4byte	0x5ce
 1051 065a 1C       		.uleb128 0x1c
 1052 065b 01       		.byte	0x1
 1053 065c 3F020000 		.4byte	.LASF87
 1054 0660 0A       		.byte	0xa
 1055 0661 D1       		.byte	0xd1
 1056 0662 01       		.byte	0x1
 1057 0663 01       		.byte	0x1
 1058 0664 1D       		.uleb128 0x1d
 1059 0665 01       		.byte	0x1
 1060 0666 08000000 		.4byte	.LASF96
ARM GAS  /tmp/ccefUha0.s 			page 26


 1061 066a 08       		.byte	0x8
 1062 066b 4201     		.2byte	0x142
 1063 066d 01       		.byte	0x1
 1064 066e 01       		.byte	0x1
 1065 066f 79060000 		.4byte	0x679
 1066 0673 12       		.uleb128 0x12
 1067 0674 79060000 		.4byte	0x679
 1068 0678 00       		.byte	0
 1069 0679 0B       		.uleb128 0xb
 1070 067a 04       		.byte	0x4
 1071 067b 55060000 		.4byte	0x655
 1072 067f 1E       		.uleb128 0x1e
 1073 0680 01       		.byte	0x1
 1074 0681 BF000000 		.4byte	.LASF88
 1075 0685 0B       		.byte	0xb
 1076 0686 2A01     		.2byte	0x12a
 1077 0688 01       		.byte	0x1
 1078 0689 01       		.byte	0x1
 1079 068a 1C       		.uleb128 0x1c
 1080 068b 01       		.byte	0x1
 1081 068c 7D000000 		.4byte	.LASF89
 1082 0690 0C       		.byte	0xc
 1083 0691 96       		.byte	0x96
 1084 0692 01       		.byte	0x1
 1085 0693 01       		.byte	0x1
 1086 0694 1C       		.uleb128 0x1c
 1087 0695 01       		.byte	0x1
 1088 0696 82030000 		.4byte	.LASF90
 1089 069a 0D       		.byte	0xd
 1090 069b 5A       		.byte	0x5a
 1091 069c 01       		.byte	0x1
 1092 069d 01       		.byte	0x1
 1093 069e 00       		.byte	0
 1094              		.section	.debug_abbrev,"",%progbits
 1095              	.Ldebug_abbrev0:
 1096 0000 01       		.uleb128 0x1
 1097 0001 11       		.uleb128 0x11
 1098 0002 01       		.byte	0x1
 1099 0003 25       		.uleb128 0x25
 1100 0004 0E       		.uleb128 0xe
 1101 0005 13       		.uleb128 0x13
 1102 0006 0B       		.uleb128 0xb
 1103 0007 03       		.uleb128 0x3
 1104 0008 0E       		.uleb128 0xe
 1105 0009 1B       		.uleb128 0x1b
 1106 000a 0E       		.uleb128 0xe
 1107 000b 55       		.uleb128 0x55
 1108 000c 06       		.uleb128 0x6
 1109 000d 11       		.uleb128 0x11
 1110 000e 01       		.uleb128 0x1
 1111 000f 52       		.uleb128 0x52
 1112 0010 01       		.uleb128 0x1
 1113 0011 10       		.uleb128 0x10
 1114 0012 06       		.uleb128 0x6
 1115 0013 00       		.byte	0
 1116 0014 00       		.byte	0
 1117 0015 02       		.uleb128 0x2
ARM GAS  /tmp/ccefUha0.s 			page 27


 1118 0016 24       		.uleb128 0x24
 1119 0017 00       		.byte	0
 1120 0018 0B       		.uleb128 0xb
 1121 0019 0B       		.uleb128 0xb
 1122 001a 3E       		.uleb128 0x3e
 1123 001b 0B       		.uleb128 0xb
 1124 001c 03       		.uleb128 0x3
 1125 001d 08       		.uleb128 0x8
 1126 001e 00       		.byte	0
 1127 001f 00       		.byte	0
 1128 0020 03       		.uleb128 0x3
 1129 0021 24       		.uleb128 0x24
 1130 0022 00       		.byte	0
 1131 0023 0B       		.uleb128 0xb
 1132 0024 0B       		.uleb128 0xb
 1133 0025 3E       		.uleb128 0x3e
 1134 0026 0B       		.uleb128 0xb
 1135 0027 03       		.uleb128 0x3
 1136 0028 0E       		.uleb128 0xe
 1137 0029 00       		.byte	0
 1138 002a 00       		.byte	0
 1139 002b 04       		.uleb128 0x4
 1140 002c 16       		.uleb128 0x16
 1141 002d 00       		.byte	0
 1142 002e 03       		.uleb128 0x3
 1143 002f 0E       		.uleb128 0xe
 1144 0030 3A       		.uleb128 0x3a
 1145 0031 0B       		.uleb128 0xb
 1146 0032 3B       		.uleb128 0x3b
 1147 0033 0B       		.uleb128 0xb
 1148 0034 49       		.uleb128 0x49
 1149 0035 13       		.uleb128 0x13
 1150 0036 00       		.byte	0
 1151 0037 00       		.byte	0
 1152 0038 05       		.uleb128 0x5
 1153 0039 13       		.uleb128 0x13
 1154 003a 01       		.byte	0x1
 1155 003b 03       		.uleb128 0x3
 1156 003c 0E       		.uleb128 0xe
 1157 003d 0B       		.uleb128 0xb
 1158 003e 0B       		.uleb128 0xb
 1159 003f 3A       		.uleb128 0x3a
 1160 0040 0B       		.uleb128 0xb
 1161 0041 3B       		.uleb128 0x3b
 1162 0042 0B       		.uleb128 0xb
 1163 0043 01       		.uleb128 0x1
 1164 0044 13       		.uleb128 0x13
 1165 0045 00       		.byte	0
 1166 0046 00       		.byte	0
 1167 0047 06       		.uleb128 0x6
 1168 0048 0D       		.uleb128 0xd
 1169 0049 00       		.byte	0
 1170 004a 03       		.uleb128 0x3
 1171 004b 0E       		.uleb128 0xe
 1172 004c 3A       		.uleb128 0x3a
 1173 004d 0B       		.uleb128 0xb
 1174 004e 3B       		.uleb128 0x3b
ARM GAS  /tmp/ccefUha0.s 			page 28


 1175 004f 0B       		.uleb128 0xb
 1176 0050 49       		.uleb128 0x49
 1177 0051 13       		.uleb128 0x13
 1178 0052 38       		.uleb128 0x38
 1179 0053 0A       		.uleb128 0xa
 1180 0054 00       		.byte	0
 1181 0055 00       		.byte	0
 1182 0056 07       		.uleb128 0x7
 1183 0057 0D       		.uleb128 0xd
 1184 0058 00       		.byte	0
 1185 0059 03       		.uleb128 0x3
 1186 005a 08       		.uleb128 0x8
 1187 005b 3A       		.uleb128 0x3a
 1188 005c 0B       		.uleb128 0xb
 1189 005d 3B       		.uleb128 0x3b
 1190 005e 0B       		.uleb128 0xb
 1191 005f 49       		.uleb128 0x49
 1192 0060 13       		.uleb128 0x13
 1193 0061 38       		.uleb128 0x38
 1194 0062 0A       		.uleb128 0xa
 1195 0063 00       		.byte	0
 1196 0064 00       		.byte	0
 1197 0065 08       		.uleb128 0x8
 1198 0066 35       		.uleb128 0x35
 1199 0067 00       		.byte	0
 1200 0068 49       		.uleb128 0x49
 1201 0069 13       		.uleb128 0x13
 1202 006a 00       		.byte	0
 1203 006b 00       		.byte	0
 1204 006c 09       		.uleb128 0x9
 1205 006d 0F       		.uleb128 0xf
 1206 006e 00       		.byte	0
 1207 006f 0B       		.uleb128 0xb
 1208 0070 0B       		.uleb128 0xb
 1209 0071 00       		.byte	0
 1210 0072 00       		.byte	0
 1211 0073 0A       		.uleb128 0xa
 1212 0074 0D       		.uleb128 0xd
 1213 0075 00       		.byte	0
 1214 0076 03       		.uleb128 0x3
 1215 0077 08       		.uleb128 0x8
 1216 0078 3A       		.uleb128 0x3a
 1217 0079 0B       		.uleb128 0xb
 1218 007a 3B       		.uleb128 0x3b
 1219 007b 05       		.uleb128 0x5
 1220 007c 49       		.uleb128 0x49
 1221 007d 13       		.uleb128 0x13
 1222 007e 38       		.uleb128 0x38
 1223 007f 0A       		.uleb128 0xa
 1224 0080 00       		.byte	0
 1225 0081 00       		.byte	0
 1226 0082 0B       		.uleb128 0xb
 1227 0083 0F       		.uleb128 0xf
 1228 0084 00       		.byte	0
 1229 0085 0B       		.uleb128 0xb
 1230 0086 0B       		.uleb128 0xb
 1231 0087 49       		.uleb128 0x49
ARM GAS  /tmp/ccefUha0.s 			page 29


 1232 0088 13       		.uleb128 0x13
 1233 0089 00       		.byte	0
 1234 008a 00       		.byte	0
 1235 008b 0C       		.uleb128 0xc
 1236 008c 13       		.uleb128 0x13
 1237 008d 01       		.byte	0x1
 1238 008e 0B       		.uleb128 0xb
 1239 008f 0B       		.uleb128 0xb
 1240 0090 3A       		.uleb128 0x3a
 1241 0091 0B       		.uleb128 0xb
 1242 0092 3B       		.uleb128 0x3b
 1243 0093 0B       		.uleb128 0xb
 1244 0094 01       		.uleb128 0x1
 1245 0095 13       		.uleb128 0x13
 1246 0096 00       		.byte	0
 1247 0097 00       		.byte	0
 1248 0098 0D       		.uleb128 0xd
 1249 0099 17       		.uleb128 0x17
 1250 009a 01       		.byte	0x1
 1251 009b 0B       		.uleb128 0xb
 1252 009c 0B       		.uleb128 0xb
 1253 009d 3A       		.uleb128 0x3a
 1254 009e 0B       		.uleb128 0xb
 1255 009f 3B       		.uleb128 0x3b
 1256 00a0 0B       		.uleb128 0xb
 1257 00a1 01       		.uleb128 0x1
 1258 00a2 13       		.uleb128 0x13
 1259 00a3 00       		.byte	0
 1260 00a4 00       		.byte	0
 1261 00a5 0E       		.uleb128 0xe
 1262 00a6 0D       		.uleb128 0xd
 1263 00a7 00       		.byte	0
 1264 00a8 03       		.uleb128 0x3
 1265 00a9 0E       		.uleb128 0xe
 1266 00aa 3A       		.uleb128 0x3a
 1267 00ab 0B       		.uleb128 0xb
 1268 00ac 3B       		.uleb128 0x3b
 1269 00ad 0B       		.uleb128 0xb
 1270 00ae 49       		.uleb128 0x49
 1271 00af 13       		.uleb128 0x13
 1272 00b0 00       		.byte	0
 1273 00b1 00       		.byte	0
 1274 00b2 0F       		.uleb128 0xf
 1275 00b3 26       		.uleb128 0x26
 1276 00b4 00       		.byte	0
 1277 00b5 49       		.uleb128 0x49
 1278 00b6 13       		.uleb128 0x13
 1279 00b7 00       		.byte	0
 1280 00b8 00       		.byte	0
 1281 00b9 10       		.uleb128 0x10
 1282 00ba 16       		.uleb128 0x16
 1283 00bb 00       		.byte	0
 1284 00bc 03       		.uleb128 0x3
 1285 00bd 0E       		.uleb128 0xe
 1286 00be 3A       		.uleb128 0x3a
 1287 00bf 0B       		.uleb128 0xb
 1288 00c0 3B       		.uleb128 0x3b
ARM GAS  /tmp/ccefUha0.s 			page 30


 1289 00c1 05       		.uleb128 0x5
 1290 00c2 49       		.uleb128 0x49
 1291 00c3 13       		.uleb128 0x13
 1292 00c4 00       		.byte	0
 1293 00c5 00       		.byte	0
 1294 00c6 11       		.uleb128 0x11
 1295 00c7 15       		.uleb128 0x15
 1296 00c8 01       		.byte	0x1
 1297 00c9 27       		.uleb128 0x27
 1298 00ca 0C       		.uleb128 0xc
 1299 00cb 01       		.uleb128 0x1
 1300 00cc 13       		.uleb128 0x13
 1301 00cd 00       		.byte	0
 1302 00ce 00       		.byte	0
 1303 00cf 12       		.uleb128 0x12
 1304 00d0 05       		.uleb128 0x5
 1305 00d1 00       		.byte	0
 1306 00d2 49       		.uleb128 0x49
 1307 00d3 13       		.uleb128 0x13
 1308 00d4 00       		.byte	0
 1309 00d5 00       		.byte	0
 1310 00d6 13       		.uleb128 0x13
 1311 00d7 13       		.uleb128 0x13
 1312 00d8 01       		.byte	0x1
 1313 00d9 03       		.uleb128 0x3
 1314 00da 0E       		.uleb128 0xe
 1315 00db 0B       		.uleb128 0xb
 1316 00dc 0B       		.uleb128 0xb
 1317 00dd 3A       		.uleb128 0x3a
 1318 00de 0B       		.uleb128 0xb
 1319 00df 3B       		.uleb128 0x3b
 1320 00e0 05       		.uleb128 0x5
 1321 00e1 01       		.uleb128 0x1
 1322 00e2 13       		.uleb128 0x13
 1323 00e3 00       		.byte	0
 1324 00e4 00       		.byte	0
 1325 00e5 14       		.uleb128 0x14
 1326 00e6 0D       		.uleb128 0xd
 1327 00e7 00       		.byte	0
 1328 00e8 03       		.uleb128 0x3
 1329 00e9 0E       		.uleb128 0xe
 1330 00ea 3A       		.uleb128 0x3a
 1331 00eb 0B       		.uleb128 0xb
 1332 00ec 3B       		.uleb128 0x3b
 1333 00ed 05       		.uleb128 0x5
 1334 00ee 49       		.uleb128 0x49
 1335 00ef 13       		.uleb128 0x13
 1336 00f0 38       		.uleb128 0x38
 1337 00f1 0A       		.uleb128 0xa
 1338 00f2 00       		.byte	0
 1339 00f3 00       		.byte	0
 1340 00f4 15       		.uleb128 0x15
 1341 00f5 13       		.uleb128 0x13
 1342 00f6 01       		.byte	0x1
 1343 00f7 0B       		.uleb128 0xb
 1344 00f8 0B       		.uleb128 0xb
 1345 00f9 3A       		.uleb128 0x3a
ARM GAS  /tmp/ccefUha0.s 			page 31


 1346 00fa 0B       		.uleb128 0xb
 1347 00fb 3B       		.uleb128 0x3b
 1348 00fc 05       		.uleb128 0x5
 1349 00fd 01       		.uleb128 0x1
 1350 00fe 13       		.uleb128 0x13
 1351 00ff 00       		.byte	0
 1352 0100 00       		.byte	0
 1353 0101 16       		.uleb128 0x16
 1354 0102 2E       		.uleb128 0x2e
 1355 0103 00       		.byte	0
 1356 0104 03       		.uleb128 0x3
 1357 0105 0E       		.uleb128 0xe
 1358 0106 3A       		.uleb128 0x3a
 1359 0107 0B       		.uleb128 0xb
 1360 0108 3B       		.uleb128 0x3b
 1361 0109 05       		.uleb128 0x5
 1362 010a 27       		.uleb128 0x27
 1363 010b 0C       		.uleb128 0xc
 1364 010c 20       		.uleb128 0x20
 1365 010d 0B       		.uleb128 0xb
 1366 010e 00       		.byte	0
 1367 010f 00       		.byte	0
 1368 0110 17       		.uleb128 0x17
 1369 0111 2E       		.uleb128 0x2e
 1370 0112 01       		.byte	0x1
 1371 0113 3F       		.uleb128 0x3f
 1372 0114 0C       		.uleb128 0xc
 1373 0115 03       		.uleb128 0x3
 1374 0116 0E       		.uleb128 0xe
 1375 0117 3A       		.uleb128 0x3a
 1376 0118 0B       		.uleb128 0xb
 1377 0119 3B       		.uleb128 0x3b
 1378 011a 0B       		.uleb128 0xb
 1379 011b 27       		.uleb128 0x27
 1380 011c 0C       		.uleb128 0xc
 1381 011d 11       		.uleb128 0x11
 1382 011e 01       		.uleb128 0x1
 1383 011f 12       		.uleb128 0x12
 1384 0120 01       		.uleb128 0x1
 1385 0121 40       		.uleb128 0x40
 1386 0122 06       		.uleb128 0x6
 1387 0123 9742     		.uleb128 0x2117
 1388 0125 0C       		.uleb128 0xc
 1389 0126 01       		.uleb128 0x1
 1390 0127 13       		.uleb128 0x13
 1391 0128 00       		.byte	0
 1392 0129 00       		.byte	0
 1393 012a 18       		.uleb128 0x18
 1394 012b 898201   		.uleb128 0x4109
 1395 012e 00       		.byte	0
 1396 012f 11       		.uleb128 0x11
 1397 0130 01       		.uleb128 0x1
 1398 0131 31       		.uleb128 0x31
 1399 0132 13       		.uleb128 0x13
 1400 0133 00       		.byte	0
 1401 0134 00       		.byte	0
 1402 0135 19       		.uleb128 0x19
ARM GAS  /tmp/ccefUha0.s 			page 32


 1403 0136 898201   		.uleb128 0x4109
 1404 0139 00       		.byte	0
 1405 013a 11       		.uleb128 0x11
 1406 013b 01       		.uleb128 0x1
 1407 013c 9542     		.uleb128 0x2115
 1408 013e 0C       		.uleb128 0xc
 1409 013f 31       		.uleb128 0x31
 1410 0140 13       		.uleb128 0x13
 1411 0141 00       		.byte	0
 1412 0142 00       		.byte	0
 1413 0143 1A       		.uleb128 0x1a
 1414 0144 34       		.uleb128 0x34
 1415 0145 00       		.byte	0
 1416 0146 03       		.uleb128 0x3
 1417 0147 0E       		.uleb128 0xe
 1418 0148 3A       		.uleb128 0x3a
 1419 0149 0B       		.uleb128 0xb
 1420 014a 3B       		.uleb128 0x3b
 1421 014b 05       		.uleb128 0x5
 1422 014c 49       		.uleb128 0x49
 1423 014d 13       		.uleb128 0x13
 1424 014e 3F       		.uleb128 0x3f
 1425 014f 0C       		.uleb128 0xc
 1426 0150 3C       		.uleb128 0x3c
 1427 0151 0C       		.uleb128 0xc
 1428 0152 00       		.byte	0
 1429 0153 00       		.byte	0
 1430 0154 1B       		.uleb128 0x1b
 1431 0155 34       		.uleb128 0x34
 1432 0156 00       		.byte	0
 1433 0157 03       		.uleb128 0x3
 1434 0158 08       		.uleb128 0x8
 1435 0159 3A       		.uleb128 0x3a
 1436 015a 0B       		.uleb128 0xb
 1437 015b 3B       		.uleb128 0x3b
 1438 015c 05       		.uleb128 0x5
 1439 015d 49       		.uleb128 0x49
 1440 015e 13       		.uleb128 0x13
 1441 015f 3F       		.uleb128 0x3f
 1442 0160 0C       		.uleb128 0xc
 1443 0161 3C       		.uleb128 0x3c
 1444 0162 0C       		.uleb128 0xc
 1445 0163 00       		.byte	0
 1446 0164 00       		.byte	0
 1447 0165 1C       		.uleb128 0x1c
 1448 0166 2E       		.uleb128 0x2e
 1449 0167 00       		.byte	0
 1450 0168 3F       		.uleb128 0x3f
 1451 0169 0C       		.uleb128 0xc
 1452 016a 03       		.uleb128 0x3
 1453 016b 0E       		.uleb128 0xe
 1454 016c 3A       		.uleb128 0x3a
 1455 016d 0B       		.uleb128 0xb
 1456 016e 3B       		.uleb128 0x3b
 1457 016f 0B       		.uleb128 0xb
 1458 0170 27       		.uleb128 0x27
 1459 0171 0C       		.uleb128 0xc
ARM GAS  /tmp/ccefUha0.s 			page 33


 1460 0172 3C       		.uleb128 0x3c
 1461 0173 0C       		.uleb128 0xc
 1462 0174 00       		.byte	0
 1463 0175 00       		.byte	0
 1464 0176 1D       		.uleb128 0x1d
 1465 0177 2E       		.uleb128 0x2e
 1466 0178 01       		.byte	0x1
 1467 0179 3F       		.uleb128 0x3f
 1468 017a 0C       		.uleb128 0xc
 1469 017b 03       		.uleb128 0x3
 1470 017c 0E       		.uleb128 0xe
 1471 017d 3A       		.uleb128 0x3a
 1472 017e 0B       		.uleb128 0xb
 1473 017f 3B       		.uleb128 0x3b
 1474 0180 05       		.uleb128 0x5
 1475 0181 27       		.uleb128 0x27
 1476 0182 0C       		.uleb128 0xc
 1477 0183 3C       		.uleb128 0x3c
 1478 0184 0C       		.uleb128 0xc
 1479 0185 01       		.uleb128 0x1
 1480 0186 13       		.uleb128 0x13
 1481 0187 00       		.byte	0
 1482 0188 00       		.byte	0
 1483 0189 1E       		.uleb128 0x1e
 1484 018a 2E       		.uleb128 0x2e
 1485 018b 00       		.byte	0
 1486 018c 3F       		.uleb128 0x3f
 1487 018d 0C       		.uleb128 0xc
 1488 018e 03       		.uleb128 0x3
 1489 018f 0E       		.uleb128 0xe
 1490 0190 3A       		.uleb128 0x3a
 1491 0191 0B       		.uleb128 0xb
 1492 0192 3B       		.uleb128 0x3b
 1493 0193 05       		.uleb128 0x5
 1494 0194 27       		.uleb128 0x27
 1495 0195 0C       		.uleb128 0xc
 1496 0196 3C       		.uleb128 0x3c
 1497 0197 0C       		.uleb128 0xc
 1498 0198 00       		.byte	0
 1499 0199 00       		.byte	0
 1500 019a 00       		.byte	0
 1501              		.section	.debug_loc,"",%progbits
 1502              	.Ldebug_loc0:
 1503              	.LLST0:
 1504 0000 00000000 		.4byte	.LFB194
 1505 0004 02000000 		.4byte	.LCFI0
 1506 0008 0200     		.2byte	0x2
 1507 000a 7D       		.byte	0x7d
 1508 000b 00       		.sleb128 0
 1509 000c 02000000 		.4byte	.LCFI0
 1510 0010 22000000 		.4byte	.LFE194
 1511 0014 0200     		.2byte	0x2
 1512 0016 7D       		.byte	0x7d
 1513 0017 08       		.sleb128 8
 1514 0018 00000000 		.4byte	0
 1515 001c 00000000 		.4byte	0
 1516              		.section	.debug_aranges,"",%progbits
ARM GAS  /tmp/ccefUha0.s 			page 34


 1517 0000 1C000000 		.4byte	0x1c
 1518 0004 0200     		.2byte	0x2
 1519 0006 00000000 		.4byte	.Ldebug_info0
 1520 000a 04       		.byte	0x4
 1521 000b 00       		.byte	0
 1522 000c 0000     		.2byte	0
 1523 000e 0000     		.2byte	0
 1524 0010 00000000 		.4byte	.LFB194
 1525 0014 22000000 		.4byte	.LFE194-.LFB194
 1526 0018 00000000 		.4byte	0
 1527 001c 00000000 		.4byte	0
 1528              		.section	.debug_ranges,"",%progbits
 1529              	.Ldebug_ranges0:
 1530 0000 00000000 		.4byte	.LFB194
 1531 0004 22000000 		.4byte	.LFE194
 1532 0008 00000000 		.4byte	0
 1533 000c 00000000 		.4byte	0
 1534              		.section	.debug_line,"",%progbits
 1535              	.Ldebug_line0:
 1536 0000 78020000 		.section	.debug_str,"MS",%progbits,1
 1536      02005902 
 1536      00000201 
 1536      FB0E0D00 
 1536      01010101 
 1537              	.LASF33:
 1538 0000 74726566 		.ascii	"trefs_t\000"
 1538      735F7400 
 1539              	.LASF96:
 1540 0008 5F70616C 		.ascii	"_pal_lld_init\000"
 1540      5F6C6C64 
 1540      5F696E69 
 1540      7400
 1541              	.LASF86:
 1542 0016 70616C5F 		.ascii	"pal_default_config\000"
 1542      64656661 
 1542      756C745F 
 1542      636F6E66 
 1542      696700
 1543              	.LASF3:
 1544 0029 73686F72 		.ascii	"short int\000"
 1544      7420696E 
 1544      7400
 1545              	.LASF45:
 1546 0033 725F7175 		.ascii	"r_queue\000"
 1546      65756500 
 1547              	.LASF60:
 1548 003b 6D5F6E65 		.ascii	"m_next\000"
 1548      787400
 1549              	.LASF37:
 1550 0042 73697A65 		.ascii	"sizetype\000"
 1550      74797065 
 1550      00
 1551              	.LASF52:
 1552 004b 7264796D 		.ascii	"rdymsg\000"
 1552      736700
 1553              	.LASF14:
 1554 0052 705F7072 		.ascii	"p_prev\000"
ARM GAS  /tmp/ccefUha0.s 			page 35


 1554      657600
 1555              	.LASF47:
 1556 0059 725F6374 		.ascii	"r_ctx\000"
 1556      7800
 1557              	.LASF36:
 1558 005f 6576656E 		.ascii	"eventmask_t\000"
 1558      746D6173 
 1558      6B5F7400 
 1559              	.LASF24:
 1560 006b 705F6D73 		.ascii	"p_msgqueue\000"
 1560      67717565 
 1560      756500
 1561              	.LASF15:
 1562 0076 705F7072 		.ascii	"p_prio\000"
 1562      696F00
 1563              	.LASF89:
 1564 007d 626F6172 		.ascii	"boardInit\000"
 1564      64496E69 
 1564      7400
 1565              	.LASF13:
 1566 0087 705F6E65 		.ascii	"p_next\000"
 1566      787400
 1567              	.LASF30:
 1568 008e 7274636E 		.ascii	"rtcnt_t\000"
 1568      745F7400 
 1569              	.LASF68:
 1570 0096 76745F70 		.ascii	"vt_par\000"
 1570      617200
 1571              	.LASF67:
 1572 009d 76745F66 		.ascii	"vt_func\000"
 1572      756E6300 
 1573              	.LASF39:
 1574 00a5 72656761 		.ascii	"regarm_t\000"
 1574      726D5F74 
 1574      00
 1575              	.LASF4:
 1576 00ae 75696E74 		.ascii	"uint8_t\000"
 1576      385F7400 
 1577              	.LASF9:
 1578 00b6 75696E74 		.ascii	"uint32_t\000"
 1578      33325F74 
 1578      00
 1579              	.LASF88:
 1580 00bf 7364496E 		.ascii	"sdInit\000"
 1580      697400
 1581              	.LASF75:
 1582 00c6 63685F73 		.ascii	"ch_system_t\000"
 1582      79737465 
 1582      6D5F7400 
 1583              	.LASF74:
 1584 00d2 6D656173 		.ascii	"measurement_offset\000"
 1584      7572656D 
 1584      656E745F 
 1584      6F666673 
 1584      657400
 1585              	.LASF69:
 1586 00e5 76745F6C 		.ascii	"vt_lasttime\000"
ARM GAS  /tmp/ccefUha0.s 			page 36


 1586      61737474 
 1586      696D6500 
 1587              	.LASF79:
 1588 00f1 50414461 		.ascii	"PAData\000"
 1588      746100
 1589              	.LASF11:
 1590 00f8 6C6F6E67 		.ascii	"long long int\000"
 1590      206C6F6E 
 1590      6720696E 
 1590      7400
 1591              	.LASF95:
 1592 0106 68616C49 		.ascii	"halInit\000"
 1592      6E697400 
 1593              	.LASF34:
 1594 010e 74707269 		.ascii	"tprio_t\000"
 1594      6F5F7400 
 1595              	.LASF8:
 1596 0116 6C6F6E67 		.ascii	"long int\000"
 1596      20696E74 
 1596      00
 1597              	.LASF82:
 1598 011f 50444461 		.ascii	"PDData\000"
 1598      746100
 1599              	.LASF71:
 1600 0126 63685F73 		.ascii	"ch_system\000"
 1600      79737465 
 1600      6D00
 1601              	.LASF62:
 1602 0130 76697274 		.ascii	"virtual_timer_t\000"
 1602      75616C5F 
 1602      74696D65 
 1602      725F7400 
 1603              	.LASF58:
 1604 0140 6D5F7175 		.ascii	"m_queue\000"
 1604      65756500 
 1605              	.LASF41:
 1606 0148 636F6E74 		.ascii	"context\000"
 1606      65787400 
 1607              	.LASF50:
 1608 0150 725F6375 		.ascii	"r_current\000"
 1608      7272656E 
 1608      7400
 1609              	.LASF25:
 1610 015a 705F6D73 		.ascii	"p_msg\000"
 1610      6700
 1611              	.LASF26:
 1612 0160 705F6570 		.ascii	"p_epending\000"
 1612      656E6469 
 1612      6E6700
 1613              	.LASF94:
 1614 016b 6F73616C 		.ascii	"osalInit\000"
 1614      496E6974 
 1614      00
 1615              	.LASF31:
 1616 0174 746D6F64 		.ascii	"tmode_t\000"
 1616      655F7400 
 1617              	.LASF81:
ARM GAS  /tmp/ccefUha0.s 			page 37


 1618 017c 50434461 		.ascii	"PCData\000"
 1618      746100
 1619              	.LASF2:
 1620 0183 756E7369 		.ascii	"unsigned char\000"
 1620      676E6564 
 1620      20636861 
 1620      7200
 1621              	.LASF55:
 1622 0191 65776D61 		.ascii	"ewmask\000"
 1622      736B00
 1623              	.LASF1:
 1624 0198 7369676E 		.ascii	"signed char\000"
 1624      65642063 
 1624      68617200 
 1625              	.LASF17:
 1626 01a4 705F6E65 		.ascii	"p_newer\000"
 1626      77657200 
 1627              	.LASF12:
 1628 01ac 6C6F6E67 		.ascii	"long long unsigned int\000"
 1628      206C6F6E 
 1628      6720756E 
 1628      7369676E 
 1628      65642069 
 1629              	.LASF28:
 1630 01c3 705F7265 		.ascii	"p_realprio\000"
 1630      616C7072 
 1630      696F00
 1631              	.LASF0:
 1632 01ce 756E7369 		.ascii	"unsigned int\000"
 1632      676E6564 
 1632      20696E74 
 1632      00
 1633              	.LASF91:
 1634 01db 474E5520 		.ascii	"GNU C 4.7.4 20130913 (release) [ARM/embedded-4_7-br"
 1634      4320342E 
 1634      372E3420 
 1634      32303133 
 1634      30393133 
 1635 020e 616E6368 		.ascii	"anch revision 202601]\000"
 1635      20726576 
 1635      6973696F 
 1635      6E203230 
 1635      32363031 
 1636              	.LASF64:
 1637 0224 76745F6E 		.ascii	"vt_next\000"
 1637      65787400 
 1638              	.LASF78:
 1639 022c 73746D33 		.ascii	"stm32_gpio_setup_t\000"
 1639      325F6770 
 1639      696F5F73 
 1639      65747570 
 1639      5F7400
 1640              	.LASF87:
 1641 023f 68616C5F 		.ascii	"hal_lld_init\000"
 1641      6C6C645F 
 1641      696E6974 
 1641      00
ARM GAS  /tmp/ccefUha0.s 			page 38


 1642              	.LASF43:
 1643 024c 74687265 		.ascii	"threads_queue_t\000"
 1643      6164735F 
 1643      71756575 
 1643      655F7400 
 1644              	.LASF57:
 1645 025c 6D757465 		.ascii	"mutex\000"
 1645      7800
 1646              	.LASF40:
 1647 0262 74687265 		.ascii	"thread\000"
 1647      616400
 1648              	.LASF48:
 1649 0269 725F6E65 		.ascii	"r_newer\000"
 1649      77657200 
 1650              	.LASF21:
 1651 0271 705F666C 		.ascii	"p_flags\000"
 1651      61677300 
 1652              	.LASF66:
 1653 0279 76745F64 		.ascii	"vt_delta\000"
 1653      656C7461 
 1653      00
 1654              	.LASF92:
 1655 0282 2E2E2F2E 		.ascii	"../../../os/hal/src/hal.c\000"
 1655      2E2F2E2E 
 1655      2F6F732F 
 1655      68616C2F 
 1655      7372632F 
 1656              	.LASF38:
 1657 029c 73797374 		.ascii	"systime_t\000"
 1657      696D655F 
 1657      7400
 1658              	.LASF72:
 1659 02a6 726C6973 		.ascii	"rlist\000"
 1659      7400
 1660              	.LASF56:
 1661 02ac 63686172 		.ascii	"char\000"
 1661      00
 1662              	.LASF5:
 1663 02b1 75696E74 		.ascii	"uint16_t\000"
 1663      31365F74 
 1663      00
 1664              	.LASF76:
 1665 02ba 6D757465 		.ascii	"mutex_t\000"
 1665      785F7400 
 1666              	.LASF7:
 1667 02c2 696E7433 		.ascii	"int32_t\000"
 1667      325F7400 
 1668              	.LASF46:
 1669 02ca 725F7072 		.ascii	"r_prio\000"
 1669      696F00
 1670              	.LASF20:
 1671 02d1 705F7374 		.ascii	"p_state\000"
 1671      61746500 
 1672              	.LASF84:
 1673 02d9 50414C43 		.ascii	"PALConfig\000"
 1673      6F6E6669 
 1673      6700
ARM GAS  /tmp/ccefUha0.s 			page 39


 1674              	.LASF80:
 1675 02e3 50424461 		.ascii	"PBData\000"
 1675      746100
 1676              	.LASF77:
 1677 02ea 5F426F6F 		.ascii	"_Bool\000"
 1677      6C00
 1678              	.LASF23:
 1679 02f0 705F7761 		.ascii	"p_waiting\000"
 1679      6974696E 
 1679      6700
 1680              	.LASF27:
 1681 02fa 705F6D74 		.ascii	"p_mtxlist\000"
 1681      786C6973 
 1681      7400
 1682              	.LASF19:
 1683 0304 705F6E61 		.ascii	"p_name\000"
 1683      6D6500
 1684              	.LASF83:
 1685 030b 50454461 		.ascii	"PEData\000"
 1685      746100
 1686              	.LASF6:
 1687 0312 73686F72 		.ascii	"short unsigned int\000"
 1687      7420756E 
 1687      7369676E 
 1687      65642069 
 1687      6E7400
 1688              	.LASF10:
 1689 0325 6C6F6E67 		.ascii	"long unsigned int\000"
 1689      20756E73 
 1689      69676E65 
 1689      6420696E 
 1689      7400
 1690              	.LASF42:
 1691 0337 706F7274 		.ascii	"port_intctx\000"
 1691      5F696E74 
 1691      63747800 
 1692              	.LASF65:
 1693 0343 76745F70 		.ascii	"vt_prev\000"
 1693      72657600 
 1694              	.LASF54:
 1695 034b 77746F62 		.ascii	"wtobjp\000"
 1695      6A7000
 1696              	.LASF32:
 1697 0352 74737461 		.ascii	"tstate_t\000"
 1697      74655F74 
 1697      00
 1698              	.LASF53:
 1699 035b 65786974 		.ascii	"exitcode\000"
 1699      636F6465 
 1699      00
 1700              	.LASF61:
 1701 0364 76746675 		.ascii	"vtfunc_t\000"
 1701      6E635F74 
 1701      00
 1702              	.LASF18:
 1703 036d 705F6F6C 		.ascii	"p_older\000"
 1703      64657200 
ARM GAS  /tmp/ccefUha0.s 			page 40


 1704              	.LASF51:
 1705 0375 72656164 		.ascii	"ready_list_t\000"
 1705      795F6C69 
 1705      73745F74 
 1705      00
 1706              	.LASF90:
 1707 0382 7374496E 		.ascii	"stInit\000"
 1707      697400
 1708              	.LASF70:
 1709 0389 76697274 		.ascii	"virtual_timers_list_t\000"
 1709      75616C5F 
 1709      74696D65 
 1709      72735F6C 
 1709      6973745F 
 1710              	.LASF22:
 1711 039f 705F7265 		.ascii	"p_refs\000"
 1711      667300
 1712              	.LASF16:
 1713 03a6 705F6374 		.ascii	"p_ctx\000"
 1713      7800
 1714              	.LASF85:
 1715 03ac 49544D5F 		.ascii	"ITM_RxBuffer\000"
 1715      52784275 
 1715      66666572 
 1715      00
 1716              	.LASF59:
 1717 03b9 6D5F6F77 		.ascii	"m_owner\000"
 1717      6E657200 
 1718              	.LASF29:
 1719 03c1 705F6D70 		.ascii	"p_mpool\000"
 1719      6F6F6C00 
 1720              	.LASF63:
 1721 03c9 76697274 		.ascii	"virtual_timer\000"
 1721      75616C5F 
 1721      74696D65 
 1721      7200
 1722              	.LASF73:
 1723 03d7 76746C69 		.ascii	"vtlist\000"
 1723      737400
 1724              	.LASF35:
 1725 03de 6D73675F 		.ascii	"msg_t\000"
 1725      7400
 1726              	.LASF93:
 1727 03e4 2F686F6D 		.ascii	"/home/joerg/repos/chibios-projects/ChibiOS-RT/demos"
 1727      652F6A6F 
 1727      6572672F 
 1727      7265706F 
 1727      732F6368 
 1728 0417 2F53544D 		.ascii	"/STM32/RT-STM32F103-OLIMEX_STM32_P103\000"
 1728      33322F52 
 1728      542D5354 
 1728      4D333246 
 1728      3130332D 
 1729              	.LASF49:
 1730 043d 725F6F6C 		.ascii	"r_older\000"
 1730      64657200 
 1731              	.LASF44:
ARM GAS  /tmp/ccefUha0.s 			page 41


 1732 0445 74687265 		.ascii	"threads_list_t\000"
 1732      6164735F 
 1732      6C697374 
 1732      5F7400
 1733              		.comm	__gnu_lto_v1,1,1
 1734              		.ident	"GCC: (GNU Tools for ARM Embedded Processors) 4.7.4 20130913 (release) [ARM/embedded-4_7-br
ARM GAS  /tmp/ccefUha0.s 			page 42


DEFINED SYMBOLS
                            *ABS*:00000000 hal.c
     /tmp/ccefUha0.s:140    .text.halInit:00000000 $t
     /tmp/ccefUha0.s:146    .text.halInit:00000000 halInit
                            *COM*:00000001 __gnu_lto_v1
                     .debug_frame:00000010 $d

UNDEFINED SYMBOLS
hal_lld_init
pal_default_config
_pal_lld_init
sdInit
boardInit
stInit
