ARM GAS  /tmp/ccYYZCi7.s 			page 1


   1              		.syntax unified
   2              		.cpu cortex-m3
   3              		.fpu softvfp
   4              		.eabi_attribute 20, 1
   5              		.eabi_attribute 21, 1
   6              		.eabi_attribute 23, 3
   7              		.eabi_attribute 24, 1
   8              		.eabi_attribute 25, 1
   9              		.eabi_attribute 26, 1
  10              		.eabi_attribute 30, 2
  11              		.eabi_attribute 34, 1
  12              		.eabi_attribute 18, 4
  13              		.thumb
  14              		.file	"hal_lld.c"
  15              		.text
  16              	.Ltext0:
  17              		.section	.gnu.lto_.jmpfuncs.cb40ddf5fdcadd3d,"",%progbits
  18 0000 789C6362 		.ascii	"x\234cb`d`g\300\016\330\2404\023\003P\021\003\000\002"
  18      60646067 
  18      C00ED8A0 
  18      34130350 
  18      11030002 
  19 0014 130014   		.ascii	"\023\000\024"
  20              		.text
  21              		.section	.gnu.lto_.inline.cb40ddf5fdcadd3d,"",%progbits
  22 0000 789C6362 		.ascii	"x\234cb`d\340e\300\016T\2414\023\003\203\220 #\003\223"
  22      6064E065 
  22      C00E54A1 
  22      34130383 
  22      90202303 
  23 0015 DC86578C 		.ascii	"\334\206W\214\014l\013\344\231\200zt\2762\002E\202V"
  23      0C6C0BE4 
  23      99807A74 
  23      BE320245 
  23      8256
  24 0027 DC908588 		.ascii	"\334\220\205\2100\000\000zq\006\272"
  24      3000007A 
  24      7106BA
  25              		.text
  26              		.section	.gnu.lto_.pureconst.cb40ddf5fdcadd3d,"",%progbits
  27 0000 789C6362 		.ascii	"x\234cb`d`f```e\200\000&\006)F)\000\001:\000C"
  27      60646066 
  27      60606065 
  27      80002606 
  27      29462900 
  28              		.text
  29              		.section	.gnu.lto_hal_lld_init.cb40ddf5fdcadd3d,"",%progbits
  30 0000 789CBD94 		.ascii	"x\234\275\224?HBQ\024\306\277s\237\276\202,\337j\030"
  30      3F484251 
  30      14C6BF73 
  30      9FBE822C 
  30      DF6A18
  31 0013 856BA056 		.ascii	"\205k\240VK-\321\02454\364o\011J\302\204\006\301\250"
  31      4B2DD114 
  31      3534F46F 
  31      094AC284 
  31      06C1A8
ARM GAS  /tmp/ccYYZCi7.s 			page 2


  32 0026 8836AFE5 		.ascii	"\2106\257\345\320(mEDE\377\227\346&\243\266\210&\207"
  32      D0286D45 
  32      4445FF97 
  32      E626A3B6 
  32      882687
  33 0039 86066968 		.ascii	"\206\006ihj\224\246\300\316}\367\251X\015i\322\361\351"
  33      6A94A6C0 
  33      CE7DF7A9 
  33      580D69D2 
  33      F1E9
  34 004b EFF21EDF 		.ascii	"\357\362\036\337w\276\203\367>\001\342\317\367\362\361"
  34      77BE83F7 
  34      3E01E2CF 
  34      F7F2F1
  35 005a B7D50406 		.ascii	"\267\325\004\006\231d\200D\346\021Hu\011\"\265`IRPr"
  35      99648044 
  35      E6114875 
  35      0922B560 
  35      49525072 
  36 006e DA563607 		.ascii	"\332V6\007p(\345v\346ncd#_,v\306\010\002\202\020!\274"
  36      7028E576 
  36      E66E6364 
  36      235F2C76 
  36      C6080282 
  37 0085 3C5DFB7D 		.ascii	"<]\373}\210\021\241\013\212\002\256\3526?I\007li\241"
  37      8811A10B 
  37      8A02AEEA 
  37      363F4907 
  37      6C69A1
  38 0098 562194EA 		.ascii	"V!\224\352\241\243\036\025\352\021\345\376\257\325\363"
  38      A1A31E15 
  38      EA11E5FE 
  38      AFD5F3
  39 00a7 BBD9F85E 		.ascii	"\273\331\370^\271\275W\372\3307\263\342&_L\002~\201"
  39      B9BD57FA 
  39      D837B3E2 
  39      265F4C02 
  39      7E81
  40 00b9 593AA000 		.ascii	"Y:\240\000L\346\021\263\205y\314\3640O\230^\346)\323"
  40      4CE611B3 
  40      8579CCF4 
  40      304F985E 
  40      E629D3
  41 00cc 629E317D 		.ascii	"b\2361}\314\013f;\363\234\311\345FZJ\313n\255j\\Qm\227"
  41      CC0B663B 
  41      F39CC9E5 
  41      465A4ACB 
  41      6EAD6A5C 
  42 00e3 09EEAE16 		.ascii	"\011\356\256\026\306=ng\336\366\332f\351\222\334\210"
  42      C63D6E67 
  42      DEF6DA66 
  42      E992DC88 
  43 00f3 92E8C6A5 		.ascii	"\222\350\306\245LS\214\014c\027;L\227PQ\335\220\007"
  43      4C538C0C 
  43      63173B4C 
  43      975051DD 
  43      9007
ARM GAS  /tmp/ccYYZCi7.s 			page 3


  44 0105 5BD205BD 		.ascii	"[\322\005\275\3265G\366\256S\305&\375\320\026u\350\325"
  44      D63547F6 
  44      AE53C526 
  44      FDD01675 
  44      E8D5
  45 0117 4DA0C8E5 		.ascii	"M\240\310\345\375\223\027\034/\243\224i\246\340/\315"
  45      FD93171C 
  45      2FA39469 
  45      A6E02FCD 
  46 0127 65D6E245 		.ascii	"e\326\342E\177\234\213\0328\027\3754\327CGi\256\226"
  46      7F9C8B1A 
  46      3817FD34 
  46      D7434769 
  46      AE96
  47 0139 5ABC4465 		.ascii	"Z\274De\256\315+\003%\017\017\333\350\254\222\213t\217"
  47      AECD2B03 
  47      250F0FDB 
  47      E8AC928B 
  47      748F
  48 014b D13AB23A 		.ascii	"\321:\262:\376\354\250c\346\3121\275\015\210i\261M9"
  48      FEECA863 
  48      E6CA31BD 
  48      0D8869B1 
  48      4D39
  49 015d E6500352 		.ascii	"\346P\003RZ:%\037e\347\2248\320\226\225\212\222\257"
  49      5A3A251F 
  49      65E79438 
  49      D096958A 
  49      92AF
  50 016f CA3F65C5 		.ascii	"\312?e\305\310\264\0334A\346SN\203&g7\317\251\377\251"
  50      C8B41B34 
  50      41E6534E 
  50      83266737 
  50      CFA9FFA9 
  51 0183 3A7FD6CE 		.ascii	":\177\326\316\337\316>N~QI\237\375\232\376\227\356\354"
  51      DFCE3E4E 
  51      7E51499F 
  51      FD9AFE97 
  51      EEEC
  52 0195 073C42BD 		.ascii	"\007<B\275/\252\363\216\253-\303'[\365p\257%\342\301"
  52      2FAAF38E 
  52      AB2DC327 
  52      5BF570AF 
  52      25E2C1
  53 01a8 7038180C 		.ascii	"p8\030\014\351+\261\022Z\234\217\207\226\022\313\253"
  53      E92BB112 
  53      5A9C8F87 
  53      9612CBAB 
  54 01b8 2BA1C9A9 		.ascii	"+\241\311\251\261\276^\375;\334\263\276\256\236D\342"
  54      B1BE5EFD 
  54      3BDCB3BE 
  54      AE9E44E2 
  55 01c8 F1856054 		.ascii	"\361\205`T\313z>\001\213u0\352"
  55      CB7A3E01 
  55      8B7530EA 
  56              		.text
  57              		.section	.gnu.lto_stm32_clock_init.cb40ddf5fdcadd3d,"",%progbits
ARM GAS  /tmp/ccYYZCi7.s 			page 4


  58 0000 789CBD97 		.ascii	"x\234\275\227\273O\024A\034\307\177\263\217\333{\277"
  58      BB4F1441 
  58      1CC77FB3 
  58      8FDB7BBF 
  59 0010 08974002 		.ascii	"\010\227@\002\336R\210`\340\020c\302_`\264\260\340\324"
  59      DE528860 
  59      E01063C2 
  59      5F60B4B0 
  59      E0D4
  60 0022 86048941 		.ascii	"\206\004\211A\022\012\002F\220\020\012Y\361\012\012"
  60      120A0246 
  60      90100A59 
  60      F10A0A
  61 0031 0B62A5C6 		.ascii	"\013b\245\306D\360\311\035\302\371\216T\022=\343\205"
  61      44F0C91D 
  61      C2F98E54 
  61      123DE385 
  62 0041 102A0A0A 		.ascii	"\020*\012\012\013\012\037\215\265\211\011\011~w\207"
  62      0B0A1F8D 
  62      B5890909 
  62      7E7787
  63 0050 D9837014 		.ascii	"\331\203p\024\267\234\267p|.\363\333\371\316\314\367"
  63      B79CB770 
  63      7C2EF3DB 
  63      F9CECCF7 
  64 0060 3BD95924 		.ascii	";\331Y$b\370\331\177\345\361y\030 j\007Y\224\2304\275"
  64      62F8D97F 
  64      E5F17918 
  64      206A0759 
  64      949834BD 
  65 0074 4674332E 		.ascii	"Ft3.1\231\177\221\245\310\355\257D\3061%\245\221\321"
  65      31997F91 
  65      A5C8EDAF 
  65      44C63125 
  65      A591D1
  66 0087 16E1EDBA 		.ascii	"\026\341\355\272\302T^W\2450\257\273\254z\230\267\353"
  66      C2545E57 
  66      A530AFBB 
  66      AC7A98B7 
  66      EB
  67 0098 2EA6F1BA 		.ascii	".\246\361\272&\205x\335m\325C\274]w3\017\257{\244 \257"
  67      268578DD 
  67      6DD543BC 
  67      5D77330F 
  67      AF7BA420 
  68 00ad 7BAD7A90 		.ascii	"{\255z\220\267\353^\346\343u\237\024\340u\277U\017\360"
  68      B7EB5EE6 
  68      E3759F14 
  68      E075BF55 
  68      0FF0
  69 00bf 76DDCF98 		.ascii	"v\335\317\230I,iB\222#\212\032vi!\267'\350\365\005\374"
  69      492C6942 
  69      92238A1A 
  69      766921B7 
  69      27E8F505 
  70 00d4 6CE2A2B5 		.ascii	"l\342\242\265\320X\003\315\032\306\235\351\317\223g"
  70      D05803CD 
ARM GAS  /tmp/ccYYZCi7.s 			page 5


  70      1AC69DE9 
  70      CF9367
  71 00e3 2637B7B7 		.ascii	"&7\267\267\217\364\231\255=\214V\036\374\010\324P\037"
  71      8FF499AD 
  71      3D8C561E 
  71      FC08D450 
  71      1F
  72 00f4 63142793 		.ascii	"c\024'\223\022){-9\240\0379\351\364;}\303I\267\274\352"
  72      12297B2D 
  72      39A01F39 
  72      E9F43B7D 
  72      C349B7BC 
  73 0109 A4D7567A 		.ascii	"\244\327Vz\260b\013[\315\214;\351\266\341ha\353\363"
  73      B0620B5B 
  73      CD8C3BE9 
  73      B6E16861 
  73      EBF3
  74 011b 955BD8B7 		.ascii	"\225[\330\267\371\012&\226[\030\255\\b-\025\033j}\241"
  74      F90A2696 
  74      5B18AD5C 
  74      622D151B 
  74      6A7DA1
  75 012e 92BB3E5B 		.ascii	"\222\273>[9\017s\037\376\307\256\337\232\373\303rK\256"
  75      390F731F 
  75      FEC7AEDF 
  75      9AFBC372 
  75      4BAE
  76 0140 8FD2F2E6 		.ascii	"\217\322\362\346\366\004\321)\231\272\331\014k\300m"
  76      F604D129 
  76      99BAD90C 
  76      6BC06D
  77 014f DD6C1674 		.ascii	"\335l\026t\201\217@\015|\014z\301'\240\017|\012\006"
  77      818F400D 
  77      7C0C7AC1 
  77      27A00F7C 
  77      0A06
  78 0161 C1676008 		.ascii	"\301g`\010|\016F\3019\260\012L\203\325`\006\214\201"
  78      7C0E46C1 
  78      39B00A4C 
  78      83D56006 
  78      8C81
  79 0173 F3600DF8 		.ascii	"\363`\015\370\002\254\005\027\300:p\021\254\007\263"
  79      02AC0517 
  79      C03A7011 
  79      AC07B3
  80 0182 601C7C09 		.ascii	"`\034|\011\352\340+\360(\370\032l\004\337\200M\340["
  80      EAE02BF0 
  80      28F81A6C 
  80      04DF804D 
  80      E05B
  81 0194 B0197C07 		.ascii	"\260\031|\007\342R)e\030a\313W\363\3524\211\007v\022"
  81      E2522965 
  81      1861CB57 
  81      F3EA3489 
  81      077612
  82 01a7 8B05E515 		.ascii	"\213\005\345\025\372\324\365==\330\315\3363\225z\231"
  82      FAD4F53D 
ARM GAS  /tmp/ccYYZCi7.s 			page 6


  82      3DD8CDDE 
  82      33957A99 
  83 01b7 7C9C3246 		.ascii	"|\2342F\212\3651Y\276O\367@E2\215Q\311\230\2312\024"
  83      8AF53159 
  83      BE4FF740 
  83      45328D51 
  83      C9989932 
  84 01cc E2DFF975 		.ascii	"\342\337\371u\311T\342\252+t+kZ\3035\024\310\2307\362"
  84      C954E2AA 
  84      2B742B6B 
  84      5AC33514 
  84      C89837F2 
  85 01e0 2A0638BB 		.ascii	"*\0068\273Sr\240\0155\336\222d2\231\007\2135a<\273\305"
  85      5372A00D 
  85      35DE9264 
  85      3299078B 
  85      35613CBB 
  86 01f5 60AE1245 		.ascii	"`\256\022EILxI\316\253BD\203\016\2371L\241/\224\373"
  86      494C7849 
  86      CEAB4244 
  86      830E9F31 
  86      4CA12F94 
  87 020a C9EECA76 		.ascii	"\311\356\312v\221Wv_\235,B\014\207\037K\232\323\333"
  87      9157765F 
  87      9D2C420C 
  87      871F4B9A 
  87      D3DB
  88 021c 7171ABE0 		.ascii	"qq\253\340\242\327\251\213K\005\027}\220\341#\377-\207"
  88      A2D7A98B 
  88      4B05177D 
  88      90E123FF 
  88      2D87
  89 022e 8D3E4BA2 		.ascii	"\215>K\242#\227\031-E\244\337\022\331Y\275\331(\333"
  89      2397192D 
  89      45A4DF12 
  89      D959BDD9 
  89      28DB
  90 0240 1E247183 		.ascii	"\036$q\203\035\010\316\0341\357`)\323\263}\265\326\276"
  90      1D08CE1C 
  90      31EF6029 
  90      D3B37DB5 
  90      D6BE
  91 0252 61071282 		.ascii	"a\007\022\202\016_\274\337\012$\365kW \241b\201\204"
  91      0E5FBCDF 
  91      0A24F56B 
  91      5720A162 
  91      8184
  92 0264 45202E3B 		.ascii	"E .;\020\234M\242K\264\014\333\272\0122|d\303P\312\220"
  92      109C4DA2 
  92      4BB40CDB 
  92      BA0A327C 
  92      64C350CA 
  93 0279 4895F051 		.ascii	"H\225\360Q+\370\210#N\014W]\216\215\035\203\216\230"
  93      2BF88823 
  93      4E0C575D 
  93      8E8D1D83 
  93      8E98
ARM GAS  /tmp/ccYYZCi7.s 			page 7


  94 028b B37BFFD6 		.ascii	"\263{\377\326\216\025s2$\234t\333N\3420\024]jJ\214\267"
  94      8E157332 
  94      249C74DB 
  94      4EE23014 
  94      5D6A4A8C 
  95 02a0 9893B590 		.ascii	"\230\223\265\220\021\263\032q\356$\023N\326Z\022]\253"
  95      11B31A71 
  95      EE24134E 
  95      D65A125D 
  95      AB
  96 02b1 2D6280BA 		.ascii	"-b\200\2722\304]\017\0311I\313\273\303\346]/\362\366"
  96      32C45D0F 
  96      193149CB 
  96      BBC3E65D 
  96      2FF2F6
  97 02c4 14F2C671 		.ascii	"\024\362\306q,\306\213\227#o\035:\366\244\303\373\003"
  97      2CC68B97 
  97      236F1D3A 
  97      F6A4C3FB 
  97      03
  98 02d5 D78B051E 		.ascii	"\327\213\005\036\024\201{E\340\035\271\305\303>&\214"
  98      14817B45 
  98      E01DB9C5 
  98      C33E268C 
  99 02e5 FC75EE59 		.ascii	"\374u\356Y\307zv\274\270\226\313\322\302\377\016\313"
  99      C77A76BC 
  99      B896CBD2 
  99      C2FF0ECB 
 100 02f5 424B4397 		.ascii	"BKC\227)\331\022\223v\213E\271T\027^(\304J\216\226a"
 100      29D91293 
 100      768B45B9 
 100      54175E28 
 100      C44A8E96 
 101 030a 1F3642A6 		.ascii	"\0376B\246\360\330?\354.l\024\371\372\012\371\342\255"
 101      F0D83FEC 
 101      2E6C14F9 
 101      FA0AF9E2 
 101      AD
 102 031b 440CD654 		.ascii	"D\014\326T\216\347b3t\016|.6\363\212{O\270\001\021\256"
 102      8EE76233 
 102      740E7C2E 
 102      36F38A7B 
 102      4FB80111 
 103 0330 DF0A778D 		.ascii	"\337\012w\215\314\367\031\336\243p\0233k\246\007m\255"
 103      CCF719DE 
 103      A3701333 
 103      6BA6076D 
 103      AD
 104 0341 AD09FE3B 		.ascii	"\255\011\376;4\234\350\277<\220\270:tmd8q\376\302\271"
 104      349CE8BF 
 104      3C90B83A 
 104      746D6438 
 104      71FEC2B9 
 105 0355 93EDFCEF 		.ascii	"\223\355\374\357\351\023ccf\245g`\340Jk/\375\003[\015"
 105      E9136363 
 105      66A56760 
 105      E04A6B2F 
ARM GAS  /tmp/ccYYZCi7.s 			page 8


 105      FD035B0D 
 106 0369 BC51     		.ascii	"\274Q"
 107              		.text
 108              		.section	.gnu.lto_.cgraph.cb40ddf5fdcadd3d,"",%progbits
 109 0000 789C6362 		.ascii	"x\234cb`d`f``\220c\200\002\246\303\214\365\014\014\023"
 109      60646066 
 109      60609063 
 109      8002A6C3 
 109      8CF50C0C 
 110 0015 CE31D4D7 		.ascii	"\3161\324\327\317\353`d:\302X\317\010\3471\000\000\224"
 110      CFEB6064 
 110      3AC258CF 
 110      08E73100 
 110      0094
 111 0027 5109B7   		.ascii	"Q\011\267"
 112              		.text
 113              		.section	.gnu.lto_.vars.cb40ddf5fdcadd3d,"",%progbits
 114 0000 789C6362 		.ascii	"x\234cb`d`f`\000\222P\000\000\000r\000\010"
 114      60646066 
 114      60009250 
 114      00000072 
 114      0008
 115              		.text
 116              		.section	.gnu.lto_.refs.cb40ddf5fdcadd3d,"",%progbits
 117 0000 789C6362 		.ascii	"x\234cb`d`f```b\200\001\000\000\204\000\011"
 117      60646066 
 117      60606062 
 117      80010000 
 117      840009
 118              		.text
 119              		.section	.gnu.lto_.statics.cb40ddf5fdcadd3d,"",%progbits
 120 0000 789C6362 		.ascii	"x\234cb`d`b\300\016@\342\214\020&\000\000\375\000\011"
 120      60646062 
 120      C00E40E2 
 120      8C102600 
 120      00FD0009 
 121              		.text
 122              		.section	.gnu.lto_.decls.cb40ddf5fdcadd3d,"",%progbits
 123 0000 789CAD95 		.ascii	"x\234\255\225_H\034G\034\307g\366\254w\027m\022B\033"
 123      5F481C47 
 123      1CC767F6 
 123      AC77176D 
 123      12421B
 124 0013 D2A75CA0 		.ascii	"\322\247\\\240\206\020\270[O\205\320\207@\316\363\324"
 124      8610B85B 
 124      4F85D087 
 124      40CEF3D4 
 125 0023 D06864EE 		.ascii	"\320hd\356\332\264\017\313\241\347\2459z\271\263q\003"
 125      DAB40FCB 
 125      A1E7A539 
 125      7AB9B371 
 125      03
 126 0034 F66D89A1 		.ascii	"\366m\211\241H\213\326B\373\330pi\243\304\220\320\374"
 126      488BD642 
 126      FBD87069 
 126      A3C490D0 
 126      FC
ARM GAS  /tmp/ccYYZCi7.s 			page 9


 127 0045 41822D21 		.ascii	"A\202-!ic\216\330\030\251\211m)\225\"\365\204\204\372"
 127      69638ED8 
 127      18A9896D 
 127      299522F5 
 127      8484FA
 128 0058 5210DA07 		.ascii	"R\020\332\007\301\376fvwn/\267\353\356\025\177\334\357"
 128      C1FE6676 
 128      776E2FB7 
 128      EBEE157F 
 128      DCEF
 129 006a 77B3BB33 		.ascii	"w\263\2733\237\371\316\374v\177# \214\250\375\004\276"
 129      9FF9CEFC 
 129      767F2320 
 129      8CA8FD04 
 129      BE
 130 007b 01D6598B 		.ascii	"\001\326Y\213\320\020\334r\301\365aT4\001<\007>\206"
 130      D010DC72 
 130      C1F56154 
 130      34013C07 
 130      3E86
 131 008d CA8DDEF7 		.ascii	"\312\215\336\367\200\273\301\267\203\003\002]\006\277"
 131      80BBC1B7 
 131      8303025D 
 131      06BF
 132 009b 0AFE003C 		.ascii	"\012\376\000<\017\376\030\274\012|\012\3746\370]\360"
 132      0FFE18BC 
 132      0A7C0AFC 
 132      36F85DF0 
 133 00ab 47E0581B 		.ascii	"G\340X\033\377\242\215\3310\347\300\013H\325y\003\374"
 133      FFA28DD9 
 133      30E7C00B 
 133      48D57903 
 133      FC
 134 00bc 16F8538D 		.ascii	"\026\370S\215g\246q/\272\240\344\226F\007\225\366\177"
 134      67A6712F 
 134      BAA0E496 
 134      460795F6 
 134      7F
 135 00cd 3736DCBB 		.ascii	"76\334\273\321\027\012X\356#E\301\262\204\017\277\212"
 135      D1170A58 
 135      EE2345C1 
 135      B2840FBF 
 135      8A
 136 00de 5E4312DE 		.ascii	"^C\022\336\356E\310\307Z\265^U-\202\366E\274[k\305\\"
 136      EE45C8C7 
 136      5AB55E55 
 136      2D82F645 
 136      BC5B6BC5 
 137 00f3 FA5E0818 		.ascii	"\372^\010\030\035D\023\0123u\377\264mD;\320\267\023"
 137      1D44130A 
 137      3375FFB4 
 137      6D443BD0 
 137      B713
 138 0105 534DFAAC 		.ascii	"SM\372\254\373\321\030\355r\357\334\0366\011\205\344"
 138      FBD118ED 
 138      72EFDC1E 
 138      360985E4 
ARM GAS  /tmp/ccYYZCi7.s 			page 10


 139 0115 F0DE1261 		.ascii	"\360\336\022a\022\376\012\013\326J\325\371\005\324\206"
 139      12FE0A0B 
 139      D64AD5F9 
 139      05D486
 140 0124 A1E7D7F8 		.ascii	"\241\347\327\370 Z?\260\011|\254\014>^\012\367\242!"
 140      205A3FB0 
 140      097CAC0C 
 140      3E5E0AF7 
 140      A221
 141 0136 4519A40B 		.ascii	"E\031\244\013o\177\010\333j\276\352:tIQF\351\322X\367"
 141      6F7F08DB 
 141      6ABEEA3A 
 141      74495146 
 141      E9D258F7 
 142 014a 7336DD25 		.ascii	"s6\335%<\201\353 \272\275\232D\265#\\\032Z\364\335\332"
 142      3C81EB20 
 142      BABD9A44 
 142      B5235C1A 
 142      5AF4DDDA 
 143 015e 41B7EE1D 		.ascii	"A\267\356\035}!\343#\363yQ\227\251v.\312v\302\332\205"
 143      7D21E323 
 143      F3795197 
 143      A9762ECA 
 143      76C2DA85 
 144 0172 3EA3EBF7 		.ascii	">\243\353\367\031\225\335\023\270\264\003%+\221\360"
 144      1995DD13 
 144      B8B40325 
 144      2B91F0
 145 0181 55BC0BA6 		.ascii	"U\274\013\246\377\005\353\363_\27109\376\206:\237\003"
 145      FF05EBF3 
 145      5FB93039 
 145      FE863A9F 
 145      03
 146 0192 1215F50D 		.ascii	"\022\025\365\015\020\324\261\214\253\250\\z\027i\367"
 146      10D4B18C 
 146      ABA85C7A 
 146      1769F7
 147 01a1 0B232BB5 		.ascii	"\013#+\265&/\337\266}(\247\234\037\2449\255\226\360"
 147      262FDFB6 
 147      7D28A79C 
 147      1FA439AD 
 147      96F0
 148 01b3 65D85601 		.ascii	"e\330V\001\015\011XC\256\215\254\274b\276\263z[5\275"
 148      0D095843 
 148      AE8DACBC 
 148      62BEB37A 
 148      5B35BD
 149 01c6 8F6626CC 		.ascii	"\217f&\314O8s}\344\245J\220>K\344(GN\177j\203\3648T"
 149      4F38737D 
 149      E4A54A90 
 149      3E4BE428 
 149      474E7F6A 
 150 01de F93947CE 		.ascii	"\3719G\316V\206\264V\371%G.\330!w:T9\316\221\213\225"
 150      5686B456 
 150      F925472E 
 150      D821773A 
 150      5439CE91 
ARM GAS  /tmp/ccYYZCi7.s 			page 11


 151 01f4 21AD555E 		.ascii	"!\255U^\343\310\202\035r\217C\225\223\034\271Z\031\322"
 151      E3C8821D 
 151      728F4395 
 151      931CB95A 
 151      19D2
 152 0206 5AE59DE2 		.ascii	"Z\345\235\342\213i\207\3649T\371C\361\275\254\014\351"
 152      8B6987F4 
 152      3954F943 
 152      F1BDAC0C 
 152      E9
 153 0217 33F99898 		.ascii	"3\371\230\230\031?F\011_\207\372\263M\3027\360>\270"
 153      193F4609 
 153      5F87FAB3 
 153      4DC237F0 
 153      3EB8
 154 0229 B8C5E224 		.ascii	"\270\305\342$\213\267Y\234b\361;\026\357\260x\227\305"
 154      8BB7599C 
 154      62F13B16 
 154      EFB07897 
 154      C5
 155 023a EF59BC0F 		.ascii	"\357Y\274\017Q\263\032\364q\261\334\251\025\303\372"
 155      51B31AF4 
 155      71B1DCA9 
 155      15C3FA
 156 0249 5C78806B 		.ascii	"\\x\200k\364qZ\375\310\0351\026\220#%o\261\261\022\345"
 156      F4715AFD 
 156      C81D3116 
 156      9023256F 
 156      B1B112E5 
 157 025d 5925CA0B 		.ascii	"Y%\312\013z%Z\033^\301\216At\352\031\323B4c(D\013\303"
 157      7A255A1B 
 157      5EC18E41 
 157      74EA19D3 
 157      42346328 
 158 0274 A6854828 		.ascii	"\246\205H(K\216\204o\302\011\241\016.\014oM!\222\360"
 158      4B8E846F 
 158      C209A10E 
 158      2E0C6F4D 
 158      2192F0
 159 0287 3467AE0E 		.ascii	"4g\256\016\377\237Bd\226\360\031C\302\177\204\204\013"
 159      FF9F4264 
 159      96F01943 
 159      C27F8484 
 159      0B
 160 0298 127EC412 		.ascii	"\022~\304\0228k\231\300\374\246\011|\\\226\300\222\003"
 160      386B99C0 
 160      FCA6097C 
 160      5C96C092 
 160      03
 161 02a9 20573C00 		.ascii	" W<\000^\177!\201s,\201Ox\002\247\377Z\306\216At\352"
 161      5E7F2181 
 161      732C814F 
 161      7802A7FF 
 161      5AC68E41 
 162 02bf 79D304CE 		.ascii	"y\323\004\316\033\022\270\372l\331,\201^\223\257k\211"
 162      1B12B8FA 
 162      6CD92C81 
ARM GAS  /tmp/ccYYZCi7.s 			page 12


 162      5E93AF6B 
 162      89
 163 02d0 E9A083D7 		.ascii	"\351\240\203\327\237-o\321IR\340\314\351\347\256\255"
 163      9F2D6FD1 
 163      4952E0CC 
 163      E9E7AEAD 
 164 02e0 39499E73 		.ascii	"9I\236s\344\254\035\322\351I\3627G.T\206\264R\251\177"
 164      E4AC1DD2 
 164      E949F237 
 164      472E5486 
 164      B452A97F 
 165 02f4 0D14B968 		.ascii	"\015\024\271h\207tz\222\254q\225\205\312\220\326{\371"
 165      87747A92 
 165      AC719585 
 165      CA90D67B 
 165      F9
 166 0305 0F47AEDA 		.ascii	"\017G\256\332!\235\236$\212KG\256U\206\264Vy\236#\327"
 166      219D9E24 
 166      8A4B47AE 
 166      5586B456 
 166      799E23D7 
 167 0319 ED903E33 		.ascii	"\355\220>3\225\345f\374r$\374\004\252\200W\302OY\025"
 167      95E566FC 
 167      7224FC04 
 167      AA8057C2 
 167      4F5915
 168 032c F899C55F 		.ascii	"\370\231\305_Y\374\215\305\337Y\\d\361\017\026\227X"
 168      59FC8DC5 
 168      DF595C64 
 168      F10F1697 
 168      58
 169 033d FCD3B25E 		.ascii	"\374\323\262^\314mZ/\012\305z\201jOu\247\343\351to<"
 169      CC6D5A2F 
 169      0AC57A81 
 169      6A4F75A7 
 169      E3E9746F 
 170 0352 9549C9D5 		.ascii	"\225I\311\325m\235o\371\302\250>\020\020\325_\266_\204"
 170      6D9D6FF9 
 170      C2A83E10 
 170      10D55FB6 
 170      5F84
 171 0364 E7625FF6 		.ascii	"\347b_\366\214\334/Fc\035\215\015jl\015\016\014\210"
 171      8CDC2F46 
 171      631D8D0D 
 171      6A6C0D0E 
 171      0C88
 172 0376 DAC84002 		.ascii	"\332\310@\002\355\354\227O76\304\023\351l\342}\006\362"
 172      EDEC974F 
 172      3736C413 
 172      E96CE27D 
 172      06F2
 173 0388 9C4D6564 		.ascii	"\234Med\270#\313b\266O\026C\244C|/\221\360w\2379\355"
 173      B823CB62 
 173      B64F1643 
 173      A4437C2F 
 173      91F0779F 
 174 039e CF643349 		.ascii	"\317d3I\177\262\273'\345o\212\037\3627\324\007\033?"
ARM GAS  /tmp/ccYYZCi7.s 			page 13


 174      7FB2BB27 
 174      E56F8A1F 
 174      F237D407 
 174      1B3F
 175 03b0 68147B52 		.ascii	"h\024{R\031:]:\325C\373\211%\375\304\246\300\241@\223"
 175      193A5D3A 
 175      D543FB89 
 175      25FDC4A6 
 175      C0A14093 
 176 03c4 C835C1AF 		.ascii	"\3105\301\257\364y*\223H\237\355M\212\375r/\314\032"
 176      F4792A93 
 176      489FED4D 
 176      8AFD722F 
 176      CC1A
 177 03d6 38856A48 		.ascii	"8\205jH8\034\217}\330\227lI\236\2543\256%9 \213\341"
 177      381C8F7D 
 177      D8976C49 
 177      9EAC33AE 
 177      2539208B 
 178 03eb 8EE8D128 		.ascii	"\216\350\321(\254Bd\232O\006\353\007`\204\020&U\341"
 178      AC42649A 
 178      4F06EB07 
 178      60841026 
 178      55E1
 179 03fd D636E20A 		.ascii	"\3266\342\012\037%\236PWs\003\211\306X#H\033\325\241"
 179      1F259E50 
 179      57730389 
 179      C6582348 
 179      1BD5A1
 180 0410 F6E64827 		.ascii	"\366\346H'q\323\007\332\177\020\376\253\232[\3020\""
 180      71D307DA 
 180      7F10FEAB 
 180      9A5BC230 
 180      22
 181 0421 4A6ABA4E 		.ascii	"Jj\272N\020}\276\227[\217\205\242\355\372\225+\004\340"
 181      107DBE97 
 181      5B8F85A2 
 181      EDFA952B 
 181      04E0
 182 0433 3723EF12 		.ascii	"7#\357\022\367\361\256\030\375\027\242D\010\021\017"
 182      F7F1AE18 
 182      FD17A244 
 182      08110F
 183 0442 894423E4 		.ascii	"\211D#\344\355H\213\353x3\251:A\272\310\177c\303n\250"
 183      ED488BEB 
 183      7833A93A 
 183      41BAC87F 
 183      63C36EA8 
 184              		.text
 185              		.section	.gnu.lto_.symtab.cb40ddf5fdcadd3d,"",%progbits
 186 0000 68616C5F 		.ascii	"hal_lld_init\000\000\000\000\000\000\000\000\000\000"
 186      6C6C645F 
 186      696E6974 
 186      00000000 
 186      00000000 
 187 0016 0000A000 		.ascii	"\000\000\240\000\000\000stm32_clock_init\000\000\000"
 187      00007374 
ARM GAS  /tmp/ccYYZCi7.s 			page 14


 187      6D33325F 
 187      636C6F63 
 187      6B5F696E 
 188 002f 00000000 		.ascii	"\000\000\000\000\000\000\000\000\000\245\000\000\000"
 188      00000000 
 188      00A50000 
 188      00
 189              		.text
 190              		.section	.gnu.lto_.opts,"",%progbits
 191 0000 272D6D63 		.ascii	"'-mcpu=cortex-m3''-mno-thumb-interwork''-mthumb''-g"
 191      70753D63 
 191      6F727465 
 191      782D6D33 
 191      27272D6D 
 192 0033 67646227 		.ascii	"gdb''-O2''-fomit-frame-pointer''-falign-functions=1"
 192      272D4F32 
 192      27272D66 
 192      6F6D6974 
 192      2D667261 
 193 0066 3627272D 		.ascii	"6''-ffunction-sections''-fdata-sections''-fno-commo"
 193      6666756E 
 193      6374696F 
 193      6E2D7365 
 193      6374696F 
 194 0099 6E27272D 		.ascii	"n''-flto'\000"
 194      666C746F 
 194      2700
 195              		.text
 196              		.cfi_sections	.debug_frame
 197              		.section	.text.hal_lld_init,"ax",%progbits
 198              		.align	2
 199              		.p2align 4,,15
 200              		.global	hal_lld_init
 201              		.thumb
 202              		.thumb_func
 203              		.type	hal_lld_init, %function
 204              	hal_lld_init:
 205              	.LFB195:
 206              		.file 1 "../../../os/hal/ports/STM32/STM32F1xx/hal_lld.c"
 207              		.loc 1 98 0
 208              		.cfi_startproc
 209              		@ args = 0, pretend = 0, frame = 0
 210              		@ frame_needed = 0, uses_anonymous_args = 0
 211              		@ link register save eliminated.
 212              		.loc 1 101 0
 213 0000 4FF48053 		mov	r3, #4096
 214 0004 C4F20203 		movt	r3, 16386
 215 0008 4FF0FF31 		mov	r1, #-1
 216 000c 0022     		movs	r2, #0
 217 000e 1869     		ldr	r0, [r3, #16]
 218 0010 1961     		str	r1, [r3, #16]
 219 0012 1A61     		str	r2, [r3, #16]
 220              		.loc 1 102 0
 221 0014 D868     		ldr	r0, [r3, #12]
 222 0016 D960     		str	r1, [r3, #12]
 223 0018 DA60     		str	r2, [r3, #12]
 224              		.loc 1 105 0
ARM GAS  /tmp/ccYYZCi7.s 			page 15


 225 001a D869     		ldr	r0, [r3, #28]
 226              	.LBB4:
 227              	.LBB5:
 228              		.loc 1 51 0
 229 001c 4FF4E042 		mov	r2, #28672
 230              	.LBE5:
 231              	.LBE4:
 232              		.loc 1 105 0
 233 0020 40F08051 		orr	r1, r0, #268435456
 234 0024 D961     		str	r1, [r3, #28]
 235              		.loc 1 106 0
 236 0026 D869     		ldr	r0, [r3, #28]
 237              	.LBB8:
 238              	.LBB6:
 239              		.loc 1 51 0
 240 0028 C4F20002 		movt	r2, 16384
 241              	.LBE6:
 242              	.LBE8:
 243              		.loc 1 106 0
 244 002c 40F00061 		orr	r1, r0, #134217728
 245 0030 D961     		str	r1, [r3, #28]
 246              	.LBB9:
 247              	.LBB7:
 248              		.loc 1 51 0
 249 0032 1368     		ldr	r3, [r2, #0]
 250 0034 43F48070 		orr	r0, r3, #256
 251 0038 1060     		str	r0, [r2, #0]
 252 003a 7047     		bx	lr
 253              	.LBE7:
 254              	.LBE9:
 255              		.cfi_endproc
 256              	.LFE195:
 257              		.size	hal_lld_init, .-hal_lld_init
 258 003c AFF30080 		.section	.text.stm32_clock_init,"ax",%progbits
 259              		.align	2
 260              		.p2align 4,,15
 261              		.global	stm32_clock_init
 262              		.thumb
 263              		.thumb_func
 264              		.type	stm32_clock_init, %function
 265              	stm32_clock_init:
 266              	.LFB196:
 267              		.loc 1 135 0
 268              		.cfi_startproc
 269              		@ args = 0, pretend = 0, frame = 0
 270              		@ frame_needed = 0, uses_anonymous_args = 0
 271              		@ link register save eliminated.
 272              		.loc 1 140 0
 273 0000 4FF48053 		mov	r3, #4096
 274 0004 C4F20203 		movt	r3, 16386
 275 0008 1A68     		ldr	r2, [r3, #0]
 276              		.loc 1 141 0
 277 000a 1946     		mov	r1, r3
 278              		.loc 1 140 0
 279 000c 42F00100 		orr	r0, r2, #1
 280 0010 1860     		str	r0, [r3, #0]
 281              	.L3:
ARM GAS  /tmp/ccYYZCi7.s 			page 16


 282              		.loc 1 141 0 discriminator 1
 283 0012 0A68     		ldr	r2, [r1, #0]
 284 0014 4FF48053 		mov	r3, #4096
 285 0018 9207     		lsls	r2, r2, #30
 286 001a C4F20203 		movt	r3, 16386
 287 001e F8D5     		bpl	.L3
 288              		.loc 1 143 0
 289 0020 1968     		ldr	r1, [r3, #0]
 290              		.loc 1 144 0
 291 0022 0022     		movs	r2, #0
 292              		.loc 1 143 0
 293 0024 01F0F900 		and	r0, r1, #249
 294 0028 1860     		str	r0, [r3, #0]
 295              		.loc 1 145 0
 296 002a 1946     		mov	r1, r3
 297              		.loc 1 144 0
 298 002c 5A60     		str	r2, [r3, #4]
 299              	.L4:
 300              		.loc 1 145 0 discriminator 1
 301 002e 4868     		ldr	r0, [r1, #4]
 302 0030 4FF48053 		mov	r3, #4096
 303 0034 10F00C0F 		tst	r0, #12
 304 0038 C4F20203 		movt	r3, 16386
 305 003c F7D1     		bne	.L4
 306              		.loc 1 154 0
 307 003e 1A68     		ldr	r2, [r3, #0]
 308              		.loc 1 155 0
 309 0040 1946     		mov	r1, r3
 310              		.loc 1 154 0
 311 0042 42F48030 		orr	r0, r2, #65536
 312 0046 1860     		str	r0, [r3, #0]
 313              	.L5:
 314              		.loc 1 155 0 discriminator 1
 315 0048 0A68     		ldr	r2, [r1, #0]
 316 004a 4FF48053 		mov	r3, #4096
 317 004e 9003     		lsls	r0, r2, #14
 318 0050 C4F20203 		movt	r3, 16386
 319 0054 F8D5     		bpl	.L5
 320              		.loc 1 168 0
 321 0056 5868     		ldr	r0, [r3, #4]
 322              		.loc 1 170 0
 323 0058 1946     		mov	r1, r3
 324              		.loc 1 168 0
 325 005a 40F4E812 		orr	r2, r0, #1900544
 326 005e 5A60     		str	r2, [r3, #4]
 327              		.loc 1 169 0
 328 0060 1868     		ldr	r0, [r3, #0]
 329 0062 40F08072 		orr	r2, r0, #16777216
 330 0066 1A60     		str	r2, [r3, #0]
 331              	.L6:
 332              		.loc 1 170 0 discriminator 1
 333 0068 0868     		ldr	r0, [r1, #0]
 334 006a 4FF48053 		mov	r3, #4096
 335 006e 8201     		lsls	r2, r0, #6
 336 0070 C4F20203 		movt	r3, 16386
 337 0074 F8D5     		bpl	.L6
 338              		.loc 1 176 0
ARM GAS  /tmp/ccYYZCi7.s 			page 17


 339 0076 4FF4C841 		mov	r1, #25600
 340              		.loc 1 186 0
 341 007a 4FF40052 		mov	r2, #8192
 342              		.loc 1 176 0
 343 007e C0F21D01 		movt	r1, 29
 344              		.loc 1 186 0
 345 0082 C4F20202 		movt	r2, 16386
 346 0086 1220     		movs	r0, #18
 347              		.loc 1 176 0
 348 0088 5960     		str	r1, [r3, #4]
 349              		.loc 1 186 0
 350 008a 1060     		str	r0, [r2, #0]
 351              		.loc 1 191 0
 352 008c 5968     		ldr	r1, [r3, #4]
 353              		.loc 1 192 0
 354 008e 1A46     		mov	r2, r3
 355              		.loc 1 191 0
 356 0090 41F00200 		orr	r0, r1, #2
 357 0094 5860     		str	r0, [r3, #4]
 358              	.L7:
 359              		.loc 1 192 0 discriminator 1
 360 0096 5368     		ldr	r3, [r2, #4]
 361 0098 03F00C01 		and	r1, r3, #12
 362 009c 0829     		cmp	r1, #8
 363 009e FAD1     		bne	.L7
 364              		.loc 1 200 0
 365 00a0 7047     		bx	lr
 366              		.cfi_endproc
 367              	.LFE196:
 368              		.size	stm32_clock_init, .-stm32_clock_init
 369 00a2 00BFAFF3 		.text
 369      0080AFF3 
 369      0080AFF3 
 369      0080
 370              	.Letext0:
 371              		.file 2 "/opt/ARM/gcc-arm-none-eabi-4_7-2013q3/bin/../lib/gcc/arm-none-eabi/4.7.4/../../../../arm-
 372              		.file 3 "../../../os/rt/include/chschd.h"
 373              		.file 4 "../../../os/rt/ports/ARMCMx/compilers/GCC/chtypes.h"
 374              		.file 5 "../../../os/ext/CMSIS/ST/stm32f10x.h"
 375              		.file 6 "../../../os/rt/ports/ARMCMx/chcore.h"
 376              		.file 7 "../../../os/rt/ports/ARMCMx/chcore_v7m.h"
 377              		.file 8 "../../../os/rt/include/chmtx.h"
 378              		.file 9 "../../../os/ext/CMSIS/include/core_cm3.h"
 379              		.section	.debug_info,"",%progbits
 380              	.Ldebug_info0:
 381 0000 1D070000 		.4byte	0x71d
 382 0004 0200     		.2byte	0x2
 383 0006 00000000 		.4byte	.Ldebug_abbrev0
 384 000a 04       		.byte	0x4
 385 000b 01       		.uleb128 0x1
 386 000c F4010000 		.4byte	.LASF93
 387 0010 01       		.byte	0x1
 388 0011 1D030000 		.4byte	.LASF94
 389 0015 10040000 		.4byte	.LASF95
 390 0019 20000000 		.4byte	.Ldebug_ranges0+0x20
 391 001d 00000000 		.4byte	0
 392 0021 00000000 		.4byte	0
ARM GAS  /tmp/ccYYZCi7.s 			page 18


 393 0025 00000000 		.4byte	.Ldebug_line0
 394 0029 02       		.uleb128 0x2
 395 002a 04       		.byte	0x4
 396 002b 05       		.byte	0x5
 397 002c 696E7400 		.ascii	"int\000"
 398 0030 03       		.uleb128 0x3
 399 0031 04       		.byte	0x4
 400 0032 07       		.byte	0x7
 401 0033 E7010000 		.4byte	.LASF0
 402 0037 03       		.uleb128 0x3
 403 0038 01       		.byte	0x1
 404 0039 06       		.byte	0x6
 405 003a B3010000 		.4byte	.LASF1
 406 003e 04       		.uleb128 0x4
 407 003f B3000000 		.4byte	.LASF4
 408 0043 02       		.byte	0x2
 409 0044 2A       		.byte	0x2a
 410 0045 49000000 		.4byte	0x49
 411 0049 03       		.uleb128 0x3
 412 004a 01       		.byte	0x1
 413 004b 08       		.byte	0x8
 414 004c 9D010000 		.4byte	.LASF2
 415 0050 03       		.uleb128 0x3
 416 0051 02       		.byte	0x2
 417 0052 05       		.byte	0x5
 418 0053 11000000 		.4byte	.LASF3
 419 0057 04       		.uleb128 0x4
 420 0058 AE020000 		.4byte	.LASF5
 421 005c 02       		.byte	0x2
 422 005d 36       		.byte	0x36
 423 005e 62000000 		.4byte	0x62
 424 0062 03       		.uleb128 0x3
 425 0063 02       		.byte	0x2
 426 0064 07       		.byte	0x7
 427 0065 D6020000 		.4byte	.LASF6
 428 0069 04       		.uleb128 0x4
 429 006a BF020000 		.4byte	.LASF7
 430 006e 02       		.byte	0x2
 431 006f 4F       		.byte	0x4f
 432 0070 74000000 		.4byte	0x74
 433 0074 03       		.uleb128 0x3
 434 0075 04       		.byte	0x4
 435 0076 05       		.byte	0x5
 436 0077 39010000 		.4byte	.LASF8
 437 007b 04       		.uleb128 0x4
 438 007c DE010000 		.4byte	.LASF9
 439 0080 02       		.byte	0x2
 440 0081 50       		.byte	0x50
 441 0082 86000000 		.4byte	0x86
 442 0086 03       		.uleb128 0x3
 443 0087 04       		.byte	0x4
 444 0088 07       		.byte	0x7
 445 0089 0B030000 		.4byte	.LASF10
 446 008d 03       		.uleb128 0x3
 447 008e 08       		.byte	0x8
 448 008f 05       		.byte	0x5
 449 0090 1C010000 		.4byte	.LASF11
ARM GAS  /tmp/ccYYZCi7.s 			page 19


 450 0094 03       		.uleb128 0x3
 451 0095 08       		.byte	0x8
 452 0096 07       		.byte	0x7
 453 0097 C7010000 		.4byte	.LASF12
 454 009b 05       		.uleb128 0x5
 455 009c 74020000 		.4byte	.LASF54
 456 00a0 44       		.byte	0x44
 457 00a1 03       		.byte	0x3
 458 00a2 79       		.byte	0x79
 459 00a3 A4010000 		.4byte	0x1a4
 460 00a7 06       		.uleb128 0x6
 461 00a8 76000000 		.4byte	.LASF13
 462 00ac 03       		.byte	0x3
 463 00ad 7A       		.byte	0x7a
 464 00ae 65040000 		.4byte	0x465
 465 00b2 02       		.byte	0x2
 466 00b3 23       		.byte	0x23
 467 00b4 00       		.uleb128 0
 468 00b5 06       		.uleb128 0x6
 469 00b6 3F000000 		.4byte	.LASF14
 470 00ba 03       		.byte	0x3
 471 00bb 7C       		.byte	0x7c
 472 00bc 65040000 		.4byte	0x465
 473 00c0 02       		.byte	0x2
 474 00c1 23       		.byte	0x23
 475 00c2 04       		.uleb128 0x4
 476 00c3 06       		.uleb128 0x6
 477 00c4 6F000000 		.4byte	.LASF15
 478 00c8 03       		.byte	0x3
 479 00c9 7E       		.byte	0x7e
 480 00ca DA010000 		.4byte	0x1da
 481 00ce 02       		.byte	0x2
 482 00cf 23       		.byte	0x23
 483 00d0 08       		.uleb128 0x8
 484 00d1 06       		.uleb128 0x6
 485 00d2 D2030000 		.4byte	.LASF16
 486 00d6 03       		.byte	0x3
 487 00d7 7F       		.byte	0x7f
 488 00d8 92030000 		.4byte	0x392
 489 00dc 02       		.byte	0x2
 490 00dd 23       		.byte	0x23
 491 00de 0C       		.uleb128 0xc
 492 00df 06       		.uleb128 0x6
 493 00e0 BF010000 		.4byte	.LASF17
 494 00e4 03       		.byte	0x3
 495 00e5 81       		.byte	0x81
 496 00e6 65040000 		.4byte	0x465
 497 00ea 02       		.byte	0x2
 498 00eb 23       		.byte	0x23
 499 00ec 10       		.uleb128 0x10
 500 00ed 06       		.uleb128 0x6
 501 00ee 89030000 		.4byte	.LASF18
 502 00f2 03       		.byte	0x3
 503 00f3 82       		.byte	0x82
 504 00f4 65040000 		.4byte	0x465
 505 00f8 02       		.byte	0x2
 506 00f9 23       		.byte	0x23
ARM GAS  /tmp/ccYYZCi7.s 			page 20


 507 00fa 14       		.uleb128 0x14
 508 00fb 06       		.uleb128 0x6
 509 00fc 2A010000 		.4byte	.LASF19
 510 0100 03       		.byte	0x3
 511 0101 89       		.byte	0x89
 512 0102 35050000 		.4byte	0x535
 513 0106 02       		.byte	0x2
 514 0107 23       		.byte	0x23
 515 0108 18       		.uleb128 0x18
 516 0109 06       		.uleb128 0x6
 517 010a CE020000 		.4byte	.LASF20
 518 010e 03       		.byte	0x3
 519 010f 94       		.byte	0x94
 520 0110 C4010000 		.4byte	0x1c4
 521 0114 02       		.byte	0x2
 522 0115 23       		.byte	0x23
 523 0116 1C       		.uleb128 0x1c
 524 0117 06       		.uleb128 0x6
 525 0118 83020000 		.4byte	.LASF21
 526 011c 03       		.byte	0x3
 527 011d 98       		.byte	0x98
 528 011e B9010000 		.4byte	0x1b9
 529 0122 02       		.byte	0x2
 530 0123 23       		.byte	0x23
 531 0124 1D       		.uleb128 0x1d
 532 0125 06       		.uleb128 0x6
 533 0126 BD030000 		.4byte	.LASF22
 534 012a 03       		.byte	0x3
 535 012b 9D       		.byte	0x9d
 536 012c CF010000 		.4byte	0x1cf
 537 0130 02       		.byte	0x2
 538 0131 23       		.byte	0x23
 539 0132 1E       		.uleb128 0x1e
 540 0133 07       		.uleb128 0x7
 541 0134 705F7500 		.ascii	"p_u\000"
 542 0138 03       		.byte	0x3
 543 0139 CF       		.byte	0xcf
 544 013a 00050000 		.4byte	0x500
 545 013e 02       		.byte	0x2
 546 013f 23       		.byte	0x23
 547 0140 20       		.uleb128 0x20
 548 0141 06       		.uleb128 0x6
 549 0142 EF020000 		.4byte	.LASF23
 550 0146 03       		.byte	0x3
 551 0147 D4       		.byte	0xd4
 552 0148 8D040000 		.4byte	0x48d
 553 014c 02       		.byte	0x2
 554 014d 23       		.byte	0x23
 555 014e 24       		.uleb128 0x24
 556 014f 06       		.uleb128 0x6
 557 0150 64000000 		.4byte	.LASF24
 558 0154 03       		.byte	0x3
 559 0155 DA       		.byte	0xda
 560 0156 6B040000 		.4byte	0x46b
 561 015a 02       		.byte	0x2
 562 015b 23       		.byte	0x23
 563 015c 28       		.uleb128 0x28
ARM GAS  /tmp/ccYYZCi7.s 			page 21


 564 015d 06       		.uleb128 0x6
 565 015e 8F010000 		.4byte	.LASF25
 566 0162 03       		.byte	0x3
 567 0163 DE       		.byte	0xde
 568 0164 E5010000 		.4byte	0x1e5
 569 0168 02       		.byte	0x2
 570 0169 23       		.byte	0x23
 571 016a 30       		.uleb128 0x30
 572 016b 06       		.uleb128 0x6
 573 016c DE000000 		.4byte	.LASF26
 574 0170 03       		.byte	0x3
 575 0171 E4       		.byte	0xe4
 576 0172 F0010000 		.4byte	0x1f0
 577 0176 02       		.byte	0x2
 578 0177 23       		.byte	0x23
 579 0178 34       		.uleb128 0x34
 580 0179 06       		.uleb128 0x6
 581 017a F9020000 		.4byte	.LASF27
 582 017e 03       		.byte	0x3
 583 017f EB       		.byte	0xeb
 584 0180 7E050000 		.4byte	0x57e
 585 0184 02       		.byte	0x2
 586 0185 23       		.byte	0x23
 587 0186 38       		.uleb128 0x38
 588 0187 06       		.uleb128 0x6
 589 0188 94020000 		.4byte	.LASF28
 590 018c 03       		.byte	0x3
 591 018d EF       		.byte	0xef
 592 018e DA010000 		.4byte	0x1da
 593 0192 02       		.byte	0x2
 594 0193 23       		.byte	0x23
 595 0194 3C       		.uleb128 0x3c
 596 0195 06       		.uleb128 0x6
 597 0196 ED030000 		.4byte	.LASF29
 598 019a 03       		.byte	0x3
 599 019b F5       		.byte	0xf5
 600 019c 90030000 		.4byte	0x390
 601 01a0 02       		.byte	0x2
 602 01a1 23       		.byte	0x23
 603 01a2 40       		.uleb128 0x40
 604 01a3 00       		.byte	0
 605 01a4 08       		.uleb128 0x8
 606 01a5 69000000 		.4byte	0x69
 607 01a9 08       		.uleb128 0x8
 608 01aa 7B000000 		.4byte	0x7b
 609 01ae 04       		.uleb128 0x4
 610 01af 7D000000 		.4byte	.LASF30
 611 01b3 04       		.byte	0x4
 612 01b4 46       		.byte	0x46
 613 01b5 7B000000 		.4byte	0x7b
 614 01b9 04       		.uleb128 0x4
 615 01ba 95010000 		.4byte	.LASF31
 616 01be 04       		.byte	0x4
 617 01bf 49       		.byte	0x49
 618 01c0 3E000000 		.4byte	0x3e
 619 01c4 04       		.uleb128 0x4
 620 01c5 6E030000 		.4byte	.LASF32
ARM GAS  /tmp/ccYYZCi7.s 			page 22


 621 01c9 04       		.byte	0x4
 622 01ca 4A       		.byte	0x4a
 623 01cb 3E000000 		.4byte	0x3e
 624 01cf 04       		.uleb128 0x4
 625 01d0 00000000 		.4byte	.LASF33
 626 01d4 04       		.byte	0x4
 627 01d5 4B       		.byte	0x4b
 628 01d6 3E000000 		.4byte	0x3e
 629 01da 04       		.uleb128 0x4
 630 01db 31010000 		.4byte	.LASF34
 631 01df 04       		.byte	0x4
 632 01e0 4D       		.byte	0x4d
 633 01e1 7B000000 		.4byte	0x7b
 634 01e5 04       		.uleb128 0x4
 635 01e6 0A040000 		.4byte	.LASF35
 636 01ea 04       		.byte	0x4
 637 01eb 4E       		.byte	0x4e
 638 01ec 69000000 		.4byte	0x69
 639 01f0 04       		.uleb128 0x4
 640 01f1 58000000 		.4byte	.LASF36
 641 01f5 04       		.byte	0x4
 642 01f6 50       		.byte	0x50
 643 01f7 7B000000 		.4byte	0x7b
 644 01fb 03       		.uleb128 0x3
 645 01fc 04       		.byte	0x4
 646 01fd 07       		.byte	0x7
 647 01fe 2A000000 		.4byte	.LASF37
 648 0202 09       		.uleb128 0x9
 649 0203 24       		.byte	0x24
 650 0204 05       		.byte	0x5
 651 0205 8503     		.2byte	0x385
 652 0207 90020000 		.4byte	0x290
 653 020b 0A       		.uleb128 0xa
 654 020c 41435200 		.ascii	"ACR\000"
 655 0210 05       		.byte	0x5
 656 0211 8703     		.2byte	0x387
 657 0213 A9010000 		.4byte	0x1a9
 658 0217 02       		.byte	0x2
 659 0218 23       		.byte	0x23
 660 0219 00       		.uleb128 0
 661 021a 0B       		.uleb128 0xb
 662 021b 8C000000 		.4byte	.LASF38
 663 021f 05       		.byte	0x5
 664 0220 8803     		.2byte	0x388
 665 0222 A9010000 		.4byte	0x1a9
 666 0226 02       		.byte	0x2
 667 0227 23       		.byte	0x23
 668 0228 04       		.uleb128 0x4
 669 0229 0B       		.uleb128 0xb
 670 022a 14010000 		.4byte	.LASF39
 671 022e 05       		.byte	0x5
 672 022f 8903     		.2byte	0x389
 673 0231 A9010000 		.4byte	0x1a9
 674 0235 02       		.byte	0x2
 675 0236 23       		.byte	0x23
 676 0237 08       		.uleb128 0x8
 677 0238 0A       		.uleb128 0xa
ARM GAS  /tmp/ccYYZCi7.s 			page 23


 678 0239 535200   		.ascii	"SR\000"
 679 023c 05       		.byte	0x5
 680 023d 8A03     		.2byte	0x38a
 681 023f A9010000 		.4byte	0x1a9
 682 0243 02       		.byte	0x2
 683 0244 23       		.byte	0x23
 684 0245 0C       		.uleb128 0xc
 685 0246 0A       		.uleb128 0xa
 686 0247 435200   		.ascii	"CR\000"
 687 024a 05       		.byte	0x5
 688 024b 8B03     		.2byte	0x38b
 689 024d A9010000 		.4byte	0x1a9
 690 0251 02       		.byte	0x2
 691 0252 23       		.byte	0x23
 692 0253 10       		.uleb128 0x10
 693 0254 0A       		.uleb128 0xa
 694 0255 415200   		.ascii	"AR\000"
 695 0258 05       		.byte	0x5
 696 0259 8C03     		.2byte	0x38c
 697 025b A9010000 		.4byte	0x1a9
 698 025f 02       		.byte	0x2
 699 0260 23       		.byte	0x23
 700 0261 14       		.uleb128 0x14
 701 0262 0B       		.uleb128 0xb
 702 0263 B4030000 		.4byte	.LASF40
 703 0267 05       		.byte	0x5
 704 0268 8D03     		.2byte	0x38d
 705 026a A9010000 		.4byte	0x1a9
 706 026e 02       		.byte	0x2
 707 026f 23       		.byte	0x23
 708 0270 18       		.uleb128 0x18
 709 0271 0A       		.uleb128 0xa
 710 0272 4F425200 		.ascii	"OBR\000"
 711 0276 05       		.byte	0x5
 712 0277 8E03     		.2byte	0x38e
 713 0279 A9010000 		.4byte	0x1a9
 714 027d 02       		.byte	0x2
 715 027e 23       		.byte	0x23
 716 027f 1C       		.uleb128 0x1c
 717 0280 0B       		.uleb128 0xb
 718 0281 80010000 		.4byte	.LASF41
 719 0285 05       		.byte	0x5
 720 0286 8F03     		.2byte	0x38f
 721 0288 A9010000 		.4byte	0x1a9
 722 028c 02       		.byte	0x2
 723 028d 23       		.byte	0x23
 724 028e 20       		.uleb128 0x20
 725 028f 00       		.byte	0
 726 0290 0C       		.uleb128 0xc
 727 0291 C4030000 		.4byte	.LASF42
 728 0295 05       		.byte	0x5
 729 0296 9803     		.2byte	0x398
 730 0298 02020000 		.4byte	0x202
 731 029c 09       		.uleb128 0x9
 732 029d 08       		.byte	0x8
 733 029e 05       		.byte	0x5
 734 029f 2A04     		.2byte	0x42a
ARM GAS  /tmp/ccYYZCi7.s 			page 24


 735 02a1 C3020000 		.4byte	0x2c3
 736 02a5 0A       		.uleb128 0xa
 737 02a6 435200   		.ascii	"CR\000"
 738 02a9 05       		.byte	0x5
 739 02aa 2C04     		.2byte	0x42c
 740 02ac A9010000 		.4byte	0x1a9
 741 02b0 02       		.byte	0x2
 742 02b1 23       		.byte	0x23
 743 02b2 00       		.uleb128 0
 744 02b3 0A       		.uleb128 0xa
 745 02b4 43535200 		.ascii	"CSR\000"
 746 02b8 05       		.byte	0x5
 747 02b9 2D04     		.2byte	0x42d
 748 02bb A9010000 		.4byte	0x1a9
 749 02bf 02       		.byte	0x2
 750 02c0 23       		.byte	0x23
 751 02c1 04       		.uleb128 0x4
 752 02c2 00       		.byte	0
 753 02c3 0C       		.uleb128 0xc
 754 02c4 4C000000 		.4byte	.LASF43
 755 02c8 05       		.byte	0x5
 756 02c9 2E04     		.2byte	0x42e
 757 02cb 9C020000 		.4byte	0x29c
 758 02cf 09       		.uleb128 0x9
 759 02d0 28       		.byte	0x28
 760 02d1 05       		.byte	0x5
 761 02d2 3404     		.2byte	0x434
 762 02d4 6E030000 		.4byte	0x36e
 763 02d8 0A       		.uleb128 0xa
 764 02d9 435200   		.ascii	"CR\000"
 765 02dc 05       		.byte	0x5
 766 02dd 3604     		.2byte	0x436
 767 02df A9010000 		.4byte	0x1a9
 768 02e3 02       		.byte	0x2
 769 02e4 23       		.byte	0x23
 770 02e5 00       		.uleb128 0
 771 02e6 0B       		.uleb128 0xb
 772 02e7 4C020000 		.4byte	.LASF44
 773 02eb 05       		.byte	0x5
 774 02ec 3704     		.2byte	0x437
 775 02ee A9010000 		.4byte	0x1a9
 776 02f2 02       		.byte	0x2
 777 02f3 23       		.byte	0x23
 778 02f4 04       		.uleb128 0x4
 779 02f5 0A       		.uleb128 0xa
 780 02f6 43495200 		.ascii	"CIR\000"
 781 02fa 05       		.byte	0x5
 782 02fb 3804     		.2byte	0x438
 783 02fd A9010000 		.4byte	0x1a9
 784 0301 02       		.byte	0x2
 785 0302 23       		.byte	0x23
 786 0303 08       		.uleb128 0x8
 787 0304 0B       		.uleb128 0xb
 788 0305 77010000 		.4byte	.LASF45
 789 0309 05       		.byte	0x5
 790 030a 3904     		.2byte	0x439
 791 030c A9010000 		.4byte	0x1a9
ARM GAS  /tmp/ccYYZCi7.s 			page 25


 792 0310 02       		.byte	0x2
 793 0311 23       		.byte	0x23
 794 0312 0C       		.uleb128 0xc
 795 0313 0B       		.uleb128 0xb
 796 0314 08000000 		.4byte	.LASF46
 797 0318 05       		.byte	0x5
 798 0319 3A04     		.2byte	0x43a
 799 031b A9010000 		.4byte	0x1a9
 800 031f 02       		.byte	0x2
 801 0320 23       		.byte	0x23
 802 0321 10       		.uleb128 0x10
 803 0322 0B       		.uleb128 0xb
 804 0323 68010000 		.4byte	.LASF47
 805 0327 05       		.byte	0x5
 806 0328 3B04     		.2byte	0x43b
 807 032a A9010000 		.4byte	0x1a9
 808 032e 02       		.byte	0x2
 809 032f 23       		.byte	0x23
 810 0330 14       		.uleb128 0x14
 811 0331 0B       		.uleb128 0xb
 812 0332 AB010000 		.4byte	.LASF48
 813 0336 05       		.byte	0x5
 814 0337 3C04     		.2byte	0x43c
 815 0339 A9010000 		.4byte	0x1a9
 816 033d 02       		.byte	0x2
 817 033e 23       		.byte	0x23
 818 033f 18       		.uleb128 0x18
 819 0340 0B       		.uleb128 0xb
 820 0341 BB000000 		.4byte	.LASF49
 821 0345 05       		.byte	0x5
 822 0346 3D04     		.2byte	0x43d
 823 0348 A9010000 		.4byte	0x1a9
 824 034c 02       		.byte	0x2
 825 034d 23       		.byte	0x23
 826 034e 1C       		.uleb128 0x1c
 827 034f 0B       		.uleb128 0xb
 828 0350 33000000 		.4byte	.LASF50
 829 0354 05       		.byte	0x5
 830 0355 3E04     		.2byte	0x43e
 831 0357 A9010000 		.4byte	0x1a9
 832 035b 02       		.byte	0x2
 833 035c 23       		.byte	0x23
 834 035d 20       		.uleb128 0x20
 835 035e 0A       		.uleb128 0xa
 836 035f 43535200 		.ascii	"CSR\000"
 837 0363 05       		.byte	0x5
 838 0364 3F04     		.2byte	0x43f
 839 0366 A9010000 		.4byte	0x1a9
 840 036a 02       		.byte	0x2
 841 036b 23       		.byte	0x23
 842 036c 24       		.uleb128 0x24
 843 036d 00       		.byte	0
 844 036e 0C       		.uleb128 0xc
 845 036f 4C010000 		.4byte	.LASF51
 846 0373 05       		.byte	0x5
 847 0374 4A04     		.2byte	0x44a
 848 0376 CF020000 		.4byte	0x2cf
ARM GAS  /tmp/ccYYZCi7.s 			page 26


 849 037a 04       		.uleb128 0x4
 850 037b 9F020000 		.4byte	.LASF52
 851 037f 06       		.byte	0x6
 852 0380 89       		.byte	0x89
 853 0381 57000000 		.4byte	0x57
 854 0385 04       		.uleb128 0x4
 855 0386 99000000 		.4byte	.LASF53
 856 038a 06       		.byte	0x6
 857 038b 8F       		.byte	0x8f
 858 038c 90030000 		.4byte	0x390
 859 0390 0D       		.uleb128 0xd
 860 0391 04       		.byte	0x4
 861 0392 05       		.uleb128 0x5
 862 0393 03030000 		.4byte	.LASF55
 863 0397 04       		.byte	0x4
 864 0398 06       		.byte	0x6
 865 0399 B3       		.byte	0xb3
 866 039a AD030000 		.4byte	0x3ad
 867 039e 07       		.uleb128 0x7
 868 039f 72313300 		.ascii	"r13\000"
 869 03a3 06       		.byte	0x6
 870 03a4 B4       		.byte	0xb4
 871 03a5 3A040000 		.4byte	0x43a
 872 03a9 02       		.byte	0x2
 873 03aa 23       		.byte	0x23
 874 03ab 00       		.uleb128 0
 875 03ac 00       		.byte	0
 876 03ad 05       		.uleb128 0x5
 877 03ae 4D030000 		.4byte	.LASF56
 878 03b2 24       		.byte	0x24
 879 03b3 07       		.byte	0x7
 880 03b4 F5       		.byte	0xf5
 881 03b5 3A040000 		.4byte	0x43a
 882 03b9 0A       		.uleb128 0xa
 883 03ba 723400   		.ascii	"r4\000"
 884 03bd 07       		.byte	0x7
 885 03be 0801     		.2byte	0x108
 886 03c0 85030000 		.4byte	0x385
 887 03c4 02       		.byte	0x2
 888 03c5 23       		.byte	0x23
 889 03c6 00       		.uleb128 0
 890 03c7 0A       		.uleb128 0xa
 891 03c8 723500   		.ascii	"r5\000"
 892 03cb 07       		.byte	0x7
 893 03cc 0901     		.2byte	0x109
 894 03ce 85030000 		.4byte	0x385
 895 03d2 02       		.byte	0x2
 896 03d3 23       		.byte	0x23
 897 03d4 04       		.uleb128 0x4
 898 03d5 0A       		.uleb128 0xa
 899 03d6 723600   		.ascii	"r6\000"
 900 03d9 07       		.byte	0x7
 901 03da 0A01     		.2byte	0x10a
 902 03dc 85030000 		.4byte	0x385
 903 03e0 02       		.byte	0x2
 904 03e1 23       		.byte	0x23
 905 03e2 08       		.uleb128 0x8
ARM GAS  /tmp/ccYYZCi7.s 			page 27


 906 03e3 0A       		.uleb128 0xa
 907 03e4 723700   		.ascii	"r7\000"
 908 03e7 07       		.byte	0x7
 909 03e8 0B01     		.2byte	0x10b
 910 03ea 85030000 		.4byte	0x385
 911 03ee 02       		.byte	0x2
 912 03ef 23       		.byte	0x23
 913 03f0 0C       		.uleb128 0xc
 914 03f1 0A       		.uleb128 0xa
 915 03f2 723800   		.ascii	"r8\000"
 916 03f5 07       		.byte	0x7
 917 03f6 0C01     		.2byte	0x10c
 918 03f8 85030000 		.4byte	0x385
 919 03fc 02       		.byte	0x2
 920 03fd 23       		.byte	0x23
 921 03fe 10       		.uleb128 0x10
 922 03ff 0A       		.uleb128 0xa
 923 0400 723900   		.ascii	"r9\000"
 924 0403 07       		.byte	0x7
 925 0404 0D01     		.2byte	0x10d
 926 0406 85030000 		.4byte	0x385
 927 040a 02       		.byte	0x2
 928 040b 23       		.byte	0x23
 929 040c 14       		.uleb128 0x14
 930 040d 0A       		.uleb128 0xa
 931 040e 72313000 		.ascii	"r10\000"
 932 0412 07       		.byte	0x7
 933 0413 0E01     		.2byte	0x10e
 934 0415 85030000 		.4byte	0x385
 935 0419 02       		.byte	0x2
 936 041a 23       		.byte	0x23
 937 041b 18       		.uleb128 0x18
 938 041c 0A       		.uleb128 0xa
 939 041d 72313100 		.ascii	"r11\000"
 940 0421 07       		.byte	0x7
 941 0422 0F01     		.2byte	0x10f
 942 0424 85030000 		.4byte	0x385
 943 0428 02       		.byte	0x2
 944 0429 23       		.byte	0x23
 945 042a 1C       		.uleb128 0x1c
 946 042b 0A       		.uleb128 0xa
 947 042c 6C7200   		.ascii	"lr\000"
 948 042f 07       		.byte	0x7
 949 0430 1001     		.2byte	0x110
 950 0432 85030000 		.4byte	0x385
 951 0436 02       		.byte	0x2
 952 0437 23       		.byte	0x23
 953 0438 20       		.uleb128 0x20
 954 0439 00       		.byte	0
 955 043a 0E       		.uleb128 0xe
 956 043b 04       		.byte	0x4
 957 043c AD030000 		.4byte	0x3ad
 958 0440 0F       		.uleb128 0xf
 959 0441 08       		.byte	0x8
 960 0442 03       		.byte	0x3
 961 0443 53       		.byte	0x53
 962 0444 65040000 		.4byte	0x465
ARM GAS  /tmp/ccYYZCi7.s 			page 28


 963 0448 06       		.uleb128 0x6
 964 0449 76000000 		.4byte	.LASF13
 965 044d 03       		.byte	0x3
 966 044e 54       		.byte	0x54
 967 044f 65040000 		.4byte	0x465
 968 0453 02       		.byte	0x2
 969 0454 23       		.byte	0x23
 970 0455 00       		.uleb128 0
 971 0456 06       		.uleb128 0x6
 972 0457 3F000000 		.4byte	.LASF14
 973 045b 03       		.byte	0x3
 974 045c 55       		.byte	0x55
 975 045d 65040000 		.4byte	0x465
 976 0461 02       		.byte	0x2
 977 0462 23       		.byte	0x23
 978 0463 04       		.uleb128 0x4
 979 0464 00       		.byte	0
 980 0465 0E       		.uleb128 0xe
 981 0466 04       		.byte	0x4
 982 0467 9B000000 		.4byte	0x9b
 983 046b 04       		.uleb128 0x4
 984 046c 5E020000 		.4byte	.LASF57
 985 0470 03       		.byte	0x3
 986 0471 56       		.byte	0x56
 987 0472 40040000 		.4byte	0x440
 988 0476 0F       		.uleb128 0xf
 989 0477 04       		.byte	0x4
 990 0478 03       		.byte	0x3
 991 0479 5B       		.byte	0x5b
 992 047a 8D040000 		.4byte	0x48d
 993 047e 06       		.uleb128 0x6
 994 047f 76000000 		.4byte	.LASF13
 995 0483 03       		.byte	0x3
 996 0484 5C       		.byte	0x5c
 997 0485 65040000 		.4byte	0x465
 998 0489 02       		.byte	0x2
 999 048a 23       		.byte	0x23
 1000 048b 00       		.uleb128 0
 1001 048c 00       		.byte	0
 1002 048d 04       		.uleb128 0x4
 1003 048e 71040000 		.4byte	.LASF58
 1004 0492 03       		.byte	0x3
 1005 0493 5D       		.byte	0x5d
 1006 0494 76040000 		.4byte	0x476
 1007 0498 0F       		.uleb128 0xf
 1008 0499 1C       		.byte	0x1c
 1009 049a 03       		.byte	0x3
 1010 049b 64       		.byte	0x64
 1011 049c F5040000 		.4byte	0x4f5
 1012 04a0 06       		.uleb128 0x6
 1013 04a1 1B000000 		.4byte	.LASF59
 1014 04a5 03       		.byte	0x3
 1015 04a6 65       		.byte	0x65
 1016 04a7 6B040000 		.4byte	0x46b
 1017 04ab 02       		.byte	0x2
 1018 04ac 23       		.byte	0x23
 1019 04ad 00       		.uleb128 0
ARM GAS  /tmp/ccYYZCi7.s 			page 29


 1020 04ae 06       		.uleb128 0x6
 1021 04af C7020000 		.4byte	.LASF60
 1022 04b3 03       		.byte	0x3
 1023 04b4 66       		.byte	0x66
 1024 04b5 DA010000 		.4byte	0x1da
 1025 04b9 02       		.byte	0x2
 1026 04ba 23       		.byte	0x23
 1027 04bb 08       		.uleb128 0x8
 1028 04bc 06       		.uleb128 0x6
 1029 04bd 46000000 		.4byte	.LASF61
 1030 04c1 03       		.byte	0x3
 1031 04c2 68       		.byte	0x68
 1032 04c3 92030000 		.4byte	0x392
 1033 04c7 02       		.byte	0x2
 1034 04c8 23       		.byte	0x23
 1035 04c9 0C       		.uleb128 0xc
 1036 04ca 06       		.uleb128 0x6
 1037 04cb 7B020000 		.4byte	.LASF62
 1038 04cf 03       		.byte	0x3
 1039 04d0 6B       		.byte	0x6b
 1040 04d1 65040000 		.4byte	0x465
 1041 04d5 02       		.byte	0x2
 1042 04d6 23       		.byte	0x23
 1043 04d7 10       		.uleb128 0x10
 1044 04d8 06       		.uleb128 0x6
 1045 04d9 69040000 		.4byte	.LASF63
 1046 04dd 03       		.byte	0x3
 1047 04de 6C       		.byte	0x6c
 1048 04df 65040000 		.4byte	0x465
 1049 04e3 02       		.byte	0x2
 1050 04e4 23       		.byte	0x23
 1051 04e5 14       		.uleb128 0x14
 1052 04e6 06       		.uleb128 0x6
 1053 04e7 85010000 		.4byte	.LASF64
 1054 04eb 03       		.byte	0x3
 1055 04ec 6F       		.byte	0x6f
 1056 04ed 65040000 		.4byte	0x465
 1057 04f1 02       		.byte	0x2
 1058 04f2 23       		.byte	0x23
 1059 04f3 18       		.uleb128 0x18
 1060 04f4 00       		.byte	0
 1061 04f5 04       		.uleb128 0x4
 1062 04f6 91030000 		.4byte	.LASF65
 1063 04fa 03       		.byte	0x3
 1064 04fb 71       		.byte	0x71
 1065 04fc 98040000 		.4byte	0x498
 1066 0500 10       		.uleb128 0x10
 1067 0501 04       		.byte	0x4
 1068 0502 03       		.byte	0x3
 1069 0503 B1       		.byte	0xb1
 1070 0504 35050000 		.4byte	0x535
 1071 0508 11       		.uleb128 0x11
 1072 0509 38000000 		.4byte	.LASF66
 1073 050d 03       		.byte	0x3
 1074 050e B8       		.byte	0xb8
 1075 050f E5010000 		.4byte	0x1e5
 1076 0513 11       		.uleb128 0x11
ARM GAS  /tmp/ccYYZCi7.s 			page 30


 1077 0514 77030000 		.4byte	.LASF67
 1078 0518 03       		.byte	0x3
 1079 0519 BF       		.byte	0xbf
 1080 051a E5010000 		.4byte	0x1e5
 1081 051e 11       		.uleb128 0x11
 1082 051f 61030000 		.4byte	.LASF68
 1083 0523 03       		.byte	0x3
 1084 0524 C6       		.byte	0xc6
 1085 0525 90030000 		.4byte	0x390
 1086 0529 11       		.uleb128 0x11
 1087 052a 45020000 		.4byte	.LASF69
 1088 052e 03       		.byte	0x3
 1089 052f CD       		.byte	0xcd
 1090 0530 F0010000 		.4byte	0x1f0
 1091 0534 00       		.byte	0
 1092 0535 0E       		.uleb128 0xe
 1093 0536 04       		.byte	0x4
 1094 0537 3B050000 		.4byte	0x53b
 1095 053b 12       		.uleb128 0x12
 1096 053c 40050000 		.4byte	0x540
 1097 0540 03       		.uleb128 0x3
 1098 0541 01       		.byte	0x1
 1099 0542 08       		.byte	0x8
 1100 0543 A9020000 		.4byte	.LASF70
 1101 0547 05       		.uleb128 0x5
 1102 0548 6E020000 		.4byte	.LASF71
 1103 054c 10       		.byte	0x10
 1104 054d 08       		.byte	0x8
 1105 054e 3A       		.byte	0x3a
 1106 054f 7E050000 		.4byte	0x57e
 1107 0553 06       		.uleb128 0x6
 1108 0554 6F010000 		.4byte	.LASF72
 1109 0558 08       		.byte	0x8
 1110 0559 3B       		.byte	0x3b
 1111 055a 6B040000 		.4byte	0x46b
 1112 055e 02       		.byte	0x2
 1113 055f 23       		.byte	0x23
 1114 0560 00       		.uleb128 0
 1115 0561 06       		.uleb128 0x6
 1116 0562 E5030000 		.4byte	.LASF73
 1117 0566 08       		.byte	0x8
 1118 0567 3D       		.byte	0x3d
 1119 0568 65040000 		.4byte	0x465
 1120 056c 02       		.byte	0x2
 1121 056d 23       		.byte	0x23
 1122 056e 08       		.uleb128 0x8
 1123 056f 06       		.uleb128 0x6
 1124 0570 23000000 		.4byte	.LASF74
 1125 0574 08       		.byte	0x8
 1126 0575 3F       		.byte	0x3f
 1127 0576 B1060000 		.4byte	0x6b1
 1128 057a 02       		.byte	0x2
 1129 057b 23       		.byte	0x23
 1130 057c 0C       		.uleb128 0xc
 1131 057d 00       		.byte	0
 1132 057e 0E       		.uleb128 0xe
 1133 057f 04       		.byte	0x4
ARM GAS  /tmp/ccYYZCi7.s 			page 31


 1134 0580 47050000 		.4byte	0x547
 1135 0584 0C       		.uleb128 0xc
 1136 0585 80030000 		.4byte	.LASF75
 1137 0589 03       		.byte	0x3
 1138 058a 0301     		.2byte	0x103
 1139 058c 90050000 		.4byte	0x590
 1140 0590 0E       		.uleb128 0xe
 1141 0591 04       		.byte	0x4
 1142 0592 96050000 		.4byte	0x596
 1143 0596 13       		.uleb128 0x13
 1144 0597 01       		.byte	0x1
 1145 0598 A2050000 		.4byte	0x5a2
 1146 059c 14       		.uleb128 0x14
 1147 059d 90030000 		.4byte	0x390
 1148 05a1 00       		.byte	0
 1149 05a2 0C       		.uleb128 0xc
 1150 05a3 58010000 		.4byte	.LASF76
 1151 05a7 03       		.byte	0x3
 1152 05a8 0801     		.2byte	0x108
 1153 05aa AE050000 		.4byte	0x5ae
 1154 05ae 15       		.uleb128 0x15
 1155 05af F5030000 		.4byte	.LASF77
 1156 05b3 14       		.byte	0x14
 1157 05b4 03       		.byte	0x3
 1158 05b5 0F01     		.2byte	0x10f
 1159 05b7 07060000 		.4byte	0x607
 1160 05bb 0B       		.uleb128 0xb
 1161 05bc 3D020000 		.4byte	.LASF78
 1162 05c0 03       		.byte	0x3
 1163 05c1 1001     		.2byte	0x110
 1164 05c3 07060000 		.4byte	0x607
 1165 05c7 02       		.byte	0x2
 1166 05c8 23       		.byte	0x23
 1167 05c9 00       		.uleb128 0
 1168 05ca 0B       		.uleb128 0xb
 1169 05cb 59030000 		.4byte	.LASF79
 1170 05cf 03       		.byte	0x3
 1171 05d0 1101     		.2byte	0x111
 1172 05d2 07060000 		.4byte	0x607
 1173 05d6 02       		.byte	0x2
 1174 05d7 23       		.byte	0x23
 1175 05d8 04       		.uleb128 0x4
 1176 05d9 0B       		.uleb128 0xb
 1177 05da 8B020000 		.4byte	.LASF80
 1178 05de 03       		.byte	0x3
 1179 05df 1201     		.2byte	0x112
 1180 05e1 7A030000 		.4byte	0x37a
 1181 05e5 02       		.byte	0x2
 1182 05e6 23       		.byte	0x23
 1183 05e7 08       		.uleb128 0x8
 1184 05e8 0B       		.uleb128 0xb
 1185 05e9 91000000 		.4byte	.LASF81
 1186 05ed 03       		.byte	0x3
 1187 05ee 1301     		.2byte	0x113
 1188 05f0 84050000 		.4byte	0x584
 1189 05f4 02       		.byte	0x2
 1190 05f5 23       		.byte	0x23
ARM GAS  /tmp/ccYYZCi7.s 			page 32


 1191 05f6 0C       		.uleb128 0xc
 1192 05f7 0B       		.uleb128 0xb
 1193 05f8 85000000 		.4byte	.LASF82
 1194 05fc 03       		.byte	0x3
 1195 05fd 1501     		.2byte	0x115
 1196 05ff 90030000 		.4byte	0x390
 1197 0603 02       		.byte	0x2
 1198 0604 23       		.byte	0x23
 1199 0605 10       		.uleb128 0x10
 1200 0606 00       		.byte	0
 1201 0607 0E       		.uleb128 0xe
 1202 0608 04       		.byte	0x4
 1203 0609 A2050000 		.4byte	0x5a2
 1204 060d 09       		.uleb128 0x9
 1205 060e 0C       		.byte	0xc
 1206 060f 03       		.byte	0x3
 1207 0610 1F01     		.2byte	0x11f
 1208 0612 53060000 		.4byte	0x653
 1209 0616 0B       		.uleb128 0xb
 1210 0617 3D020000 		.4byte	.LASF78
 1211 061b 03       		.byte	0x3
 1212 061c 2001     		.2byte	0x120
 1213 061e 07060000 		.4byte	0x607
 1214 0622 02       		.byte	0x2
 1215 0623 23       		.byte	0x23
 1216 0624 00       		.uleb128 0
 1217 0625 0B       		.uleb128 0xb
 1218 0626 59030000 		.4byte	.LASF79
 1219 062a 03       		.byte	0x3
 1220 062b 2201     		.2byte	0x122
 1221 062d 07060000 		.4byte	0x607
 1222 0631 02       		.byte	0x2
 1223 0632 23       		.byte	0x23
 1224 0633 04       		.uleb128 0x4
 1225 0634 0B       		.uleb128 0xb
 1226 0635 8B020000 		.4byte	.LASF80
 1227 0639 03       		.byte	0x3
 1228 063a 2401     		.2byte	0x124
 1229 063c 7A030000 		.4byte	0x37a
 1230 0640 02       		.byte	0x2
 1231 0641 23       		.byte	0x23
 1232 0642 08       		.uleb128 0x8
 1233 0643 0B       		.uleb128 0xb
 1234 0644 08010000 		.4byte	.LASF83
 1235 0648 03       		.byte	0x3
 1236 0649 2C01     		.2byte	0x12c
 1237 064b 7A030000 		.4byte	0x37a
 1238 064f 02       		.byte	0x2
 1239 0650 23       		.byte	0x23
 1240 0651 0A       		.uleb128 0xa
 1241 0652 00       		.byte	0
 1242 0653 0C       		.uleb128 0xc
 1243 0654 9E030000 		.4byte	.LASF84
 1244 0658 03       		.byte	0x3
 1245 0659 2F01     		.2byte	0x12f
 1246 065b 0D060000 		.4byte	0x60d
 1247 065f 15       		.uleb128 0x15
ARM GAS  /tmp/ccYYZCi7.s 			page 33


 1248 0660 42010000 		.4byte	.LASF85
 1249 0664 2C       		.byte	0x2c
 1250 0665 03       		.byte	0x3
 1251 0666 3601     		.2byte	0x136
 1252 0668 9A060000 		.4byte	0x69a
 1253 066c 0B       		.uleb128 0xb
 1254 066d 68030000 		.4byte	.LASF86
 1255 0671 03       		.byte	0x3
 1256 0672 3A01     		.2byte	0x13a
 1257 0674 F5040000 		.4byte	0x4f5
 1258 0678 02       		.byte	0x2
 1259 0679 23       		.byte	0x23
 1260 067a 00       		.uleb128 0
 1261 067b 0B       		.uleb128 0xb
 1262 067c 03040000 		.4byte	.LASF87
 1263 0680 03       		.byte	0x3
 1264 0681 3E01     		.2byte	0x13e
 1265 0683 53060000 		.4byte	0x653
 1266 0687 02       		.byte	0x2
 1267 0688 23       		.byte	0x23
 1268 0689 1C       		.uleb128 0x1c
 1269 068a 0B       		.uleb128 0xb
 1270 068b F5000000 		.4byte	.LASF88
 1271 068f 03       		.byte	0x3
 1272 0690 4301     		.2byte	0x143
 1273 0692 AE010000 		.4byte	0x1ae
 1274 0696 02       		.byte	0x2
 1275 0697 23       		.byte	0x23
 1276 0698 28       		.uleb128 0x28
 1277 0699 00       		.byte	0
 1278 069a 0C       		.uleb128 0xc
 1279 069b E9000000 		.4byte	.LASF89
 1280 069f 03       		.byte	0x3
 1281 06a0 6501     		.2byte	0x165
 1282 06a2 5F060000 		.4byte	0x65f
 1283 06a6 04       		.uleb128 0x4
 1284 06a7 B7020000 		.4byte	.LASF90
 1285 06ab 08       		.byte	0x8
 1286 06ac 35       		.byte	0x35
 1287 06ad 47050000 		.4byte	0x547
 1288 06b1 0E       		.uleb128 0xe
 1289 06b2 04       		.byte	0x4
 1290 06b3 A6060000 		.4byte	0x6a6
 1291 06b7 03       		.uleb128 0x3
 1292 06b8 01       		.byte	0x1
 1293 06b9 02       		.byte	0x2
 1294 06ba E9020000 		.4byte	.LASF91
 1295 06be 16       		.uleb128 0x16
 1296 06bf C3000000 		.4byte	.LASF96
 1297 06c3 01       		.byte	0x1
 1298 06c4 30       		.byte	0x30
 1299 06c5 01       		.byte	0x1
 1300 06c6 01       		.byte	0x1
 1301 06c7 17       		.uleb128 0x17
 1302 06c8 01       		.byte	0x1
 1303 06c9 51020000 		.4byte	.LASF97
 1304 06cd 01       		.byte	0x1
ARM GAS  /tmp/ccYYZCi7.s 			page 34


 1305 06ce 62       		.byte	0x62
 1306 06cf 01       		.byte	0x1
 1307 06d0 00000000 		.4byte	.LFB195
 1308 06d4 3C000000 		.4byte	.LFE195
 1309 06d8 02       		.byte	0x2
 1310 06d9 7D       		.byte	0x7d
 1311 06da 00       		.sleb128 0
 1312 06db 01       		.byte	0x1
 1313 06dc F0060000 		.4byte	0x6f0
 1314 06e0 18       		.uleb128 0x18
 1315 06e1 BE060000 		.4byte	0x6be
 1316 06e5 1C000000 		.4byte	.LBB4
 1317 06e9 00000000 		.4byte	.Ldebug_ranges0+0
 1318 06ed 01       		.byte	0x1
 1319 06ee 6D       		.byte	0x6d
 1320 06ef 00       		.byte	0
 1321 06f0 19       		.uleb128 0x19
 1322 06f1 01       		.byte	0x1
 1323 06f2 A2000000 		.4byte	.LASF98
 1324 06f6 01       		.byte	0x1
 1325 06f7 87       		.byte	0x87
 1326 06f8 01       		.byte	0x1
 1327 06f9 00000000 		.4byte	.LFB196
 1328 06fd A2000000 		.4byte	.LFE196
 1329 0701 02       		.byte	0x2
 1330 0702 7D       		.byte	0x7d
 1331 0703 00       		.sleb128 0
 1332 0704 01       		.byte	0x1
 1333 0705 1A       		.uleb128 0x1a
 1334 0706 D8030000 		.4byte	.LASF92
 1335 070a 09       		.byte	0x9
 1336 070b 1606     		.2byte	0x616
 1337 070d A4010000 		.4byte	0x1a4
 1338 0711 01       		.byte	0x1
 1339 0712 01       		.byte	0x1
 1340 0713 1B       		.uleb128 0x1b
 1341 0714 636800   		.ascii	"ch\000"
 1342 0717 03       		.byte	0x3
 1343 0718 8901     		.2byte	0x189
 1344 071a 9A060000 		.4byte	0x69a
 1345 071e 01       		.byte	0x1
 1346 071f 01       		.byte	0x1
 1347 0720 00       		.byte	0
 1348              		.section	.debug_abbrev,"",%progbits
 1349              	.Ldebug_abbrev0:
 1350 0000 01       		.uleb128 0x1
 1351 0001 11       		.uleb128 0x11
 1352 0002 01       		.byte	0x1
 1353 0003 25       		.uleb128 0x25
 1354 0004 0E       		.uleb128 0xe
 1355 0005 13       		.uleb128 0x13
 1356 0006 0B       		.uleb128 0xb
 1357 0007 03       		.uleb128 0x3
 1358 0008 0E       		.uleb128 0xe
 1359 0009 1B       		.uleb128 0x1b
 1360 000a 0E       		.uleb128 0xe
 1361 000b 55       		.uleb128 0x55
ARM GAS  /tmp/ccYYZCi7.s 			page 35


 1362 000c 06       		.uleb128 0x6
 1363 000d 11       		.uleb128 0x11
 1364 000e 01       		.uleb128 0x1
 1365 000f 52       		.uleb128 0x52
 1366 0010 01       		.uleb128 0x1
 1367 0011 10       		.uleb128 0x10
 1368 0012 06       		.uleb128 0x6
 1369 0013 00       		.byte	0
 1370 0014 00       		.byte	0
 1371 0015 02       		.uleb128 0x2
 1372 0016 24       		.uleb128 0x24
 1373 0017 00       		.byte	0
 1374 0018 0B       		.uleb128 0xb
 1375 0019 0B       		.uleb128 0xb
 1376 001a 3E       		.uleb128 0x3e
 1377 001b 0B       		.uleb128 0xb
 1378 001c 03       		.uleb128 0x3
 1379 001d 08       		.uleb128 0x8
 1380 001e 00       		.byte	0
 1381 001f 00       		.byte	0
 1382 0020 03       		.uleb128 0x3
 1383 0021 24       		.uleb128 0x24
 1384 0022 00       		.byte	0
 1385 0023 0B       		.uleb128 0xb
 1386 0024 0B       		.uleb128 0xb
 1387 0025 3E       		.uleb128 0x3e
 1388 0026 0B       		.uleb128 0xb
 1389 0027 03       		.uleb128 0x3
 1390 0028 0E       		.uleb128 0xe
 1391 0029 00       		.byte	0
 1392 002a 00       		.byte	0
 1393 002b 04       		.uleb128 0x4
 1394 002c 16       		.uleb128 0x16
 1395 002d 00       		.byte	0
 1396 002e 03       		.uleb128 0x3
 1397 002f 0E       		.uleb128 0xe
 1398 0030 3A       		.uleb128 0x3a
 1399 0031 0B       		.uleb128 0xb
 1400 0032 3B       		.uleb128 0x3b
 1401 0033 0B       		.uleb128 0xb
 1402 0034 49       		.uleb128 0x49
 1403 0035 13       		.uleb128 0x13
 1404 0036 00       		.byte	0
 1405 0037 00       		.byte	0
 1406 0038 05       		.uleb128 0x5
 1407 0039 13       		.uleb128 0x13
 1408 003a 01       		.byte	0x1
 1409 003b 03       		.uleb128 0x3
 1410 003c 0E       		.uleb128 0xe
 1411 003d 0B       		.uleb128 0xb
 1412 003e 0B       		.uleb128 0xb
 1413 003f 3A       		.uleb128 0x3a
 1414 0040 0B       		.uleb128 0xb
 1415 0041 3B       		.uleb128 0x3b
 1416 0042 0B       		.uleb128 0xb
 1417 0043 01       		.uleb128 0x1
 1418 0044 13       		.uleb128 0x13
ARM GAS  /tmp/ccYYZCi7.s 			page 36


 1419 0045 00       		.byte	0
 1420 0046 00       		.byte	0
 1421 0047 06       		.uleb128 0x6
 1422 0048 0D       		.uleb128 0xd
 1423 0049 00       		.byte	0
 1424 004a 03       		.uleb128 0x3
 1425 004b 0E       		.uleb128 0xe
 1426 004c 3A       		.uleb128 0x3a
 1427 004d 0B       		.uleb128 0xb
 1428 004e 3B       		.uleb128 0x3b
 1429 004f 0B       		.uleb128 0xb
 1430 0050 49       		.uleb128 0x49
 1431 0051 13       		.uleb128 0x13
 1432 0052 38       		.uleb128 0x38
 1433 0053 0A       		.uleb128 0xa
 1434 0054 00       		.byte	0
 1435 0055 00       		.byte	0
 1436 0056 07       		.uleb128 0x7
 1437 0057 0D       		.uleb128 0xd
 1438 0058 00       		.byte	0
 1439 0059 03       		.uleb128 0x3
 1440 005a 08       		.uleb128 0x8
 1441 005b 3A       		.uleb128 0x3a
 1442 005c 0B       		.uleb128 0xb
 1443 005d 3B       		.uleb128 0x3b
 1444 005e 0B       		.uleb128 0xb
 1445 005f 49       		.uleb128 0x49
 1446 0060 13       		.uleb128 0x13
 1447 0061 38       		.uleb128 0x38
 1448 0062 0A       		.uleb128 0xa
 1449 0063 00       		.byte	0
 1450 0064 00       		.byte	0
 1451 0065 08       		.uleb128 0x8
 1452 0066 35       		.uleb128 0x35
 1453 0067 00       		.byte	0
 1454 0068 49       		.uleb128 0x49
 1455 0069 13       		.uleb128 0x13
 1456 006a 00       		.byte	0
 1457 006b 00       		.byte	0
 1458 006c 09       		.uleb128 0x9
 1459 006d 13       		.uleb128 0x13
 1460 006e 01       		.byte	0x1
 1461 006f 0B       		.uleb128 0xb
 1462 0070 0B       		.uleb128 0xb
 1463 0071 3A       		.uleb128 0x3a
 1464 0072 0B       		.uleb128 0xb
 1465 0073 3B       		.uleb128 0x3b
 1466 0074 05       		.uleb128 0x5
 1467 0075 01       		.uleb128 0x1
 1468 0076 13       		.uleb128 0x13
 1469 0077 00       		.byte	0
 1470 0078 00       		.byte	0
 1471 0079 0A       		.uleb128 0xa
 1472 007a 0D       		.uleb128 0xd
 1473 007b 00       		.byte	0
 1474 007c 03       		.uleb128 0x3
 1475 007d 08       		.uleb128 0x8
ARM GAS  /tmp/ccYYZCi7.s 			page 37


 1476 007e 3A       		.uleb128 0x3a
 1477 007f 0B       		.uleb128 0xb
 1478 0080 3B       		.uleb128 0x3b
 1479 0081 05       		.uleb128 0x5
 1480 0082 49       		.uleb128 0x49
 1481 0083 13       		.uleb128 0x13
 1482 0084 38       		.uleb128 0x38
 1483 0085 0A       		.uleb128 0xa
 1484 0086 00       		.byte	0
 1485 0087 00       		.byte	0
 1486 0088 0B       		.uleb128 0xb
 1487 0089 0D       		.uleb128 0xd
 1488 008a 00       		.byte	0
 1489 008b 03       		.uleb128 0x3
 1490 008c 0E       		.uleb128 0xe
 1491 008d 3A       		.uleb128 0x3a
 1492 008e 0B       		.uleb128 0xb
 1493 008f 3B       		.uleb128 0x3b
 1494 0090 05       		.uleb128 0x5
 1495 0091 49       		.uleb128 0x49
 1496 0092 13       		.uleb128 0x13
 1497 0093 38       		.uleb128 0x38
 1498 0094 0A       		.uleb128 0xa
 1499 0095 00       		.byte	0
 1500 0096 00       		.byte	0
 1501 0097 0C       		.uleb128 0xc
 1502 0098 16       		.uleb128 0x16
 1503 0099 00       		.byte	0
 1504 009a 03       		.uleb128 0x3
 1505 009b 0E       		.uleb128 0xe
 1506 009c 3A       		.uleb128 0x3a
 1507 009d 0B       		.uleb128 0xb
 1508 009e 3B       		.uleb128 0x3b
 1509 009f 05       		.uleb128 0x5
 1510 00a0 49       		.uleb128 0x49
 1511 00a1 13       		.uleb128 0x13
 1512 00a2 00       		.byte	0
 1513 00a3 00       		.byte	0
 1514 00a4 0D       		.uleb128 0xd
 1515 00a5 0F       		.uleb128 0xf
 1516 00a6 00       		.byte	0
 1517 00a7 0B       		.uleb128 0xb
 1518 00a8 0B       		.uleb128 0xb
 1519 00a9 00       		.byte	0
 1520 00aa 00       		.byte	0
 1521 00ab 0E       		.uleb128 0xe
 1522 00ac 0F       		.uleb128 0xf
 1523 00ad 00       		.byte	0
 1524 00ae 0B       		.uleb128 0xb
 1525 00af 0B       		.uleb128 0xb
 1526 00b0 49       		.uleb128 0x49
 1527 00b1 13       		.uleb128 0x13
 1528 00b2 00       		.byte	0
 1529 00b3 00       		.byte	0
 1530 00b4 0F       		.uleb128 0xf
 1531 00b5 13       		.uleb128 0x13
 1532 00b6 01       		.byte	0x1
ARM GAS  /tmp/ccYYZCi7.s 			page 38


 1533 00b7 0B       		.uleb128 0xb
 1534 00b8 0B       		.uleb128 0xb
 1535 00b9 3A       		.uleb128 0x3a
 1536 00ba 0B       		.uleb128 0xb
 1537 00bb 3B       		.uleb128 0x3b
 1538 00bc 0B       		.uleb128 0xb
 1539 00bd 01       		.uleb128 0x1
 1540 00be 13       		.uleb128 0x13
 1541 00bf 00       		.byte	0
 1542 00c0 00       		.byte	0
 1543 00c1 10       		.uleb128 0x10
 1544 00c2 17       		.uleb128 0x17
 1545 00c3 01       		.byte	0x1
 1546 00c4 0B       		.uleb128 0xb
 1547 00c5 0B       		.uleb128 0xb
 1548 00c6 3A       		.uleb128 0x3a
 1549 00c7 0B       		.uleb128 0xb
 1550 00c8 3B       		.uleb128 0x3b
 1551 00c9 0B       		.uleb128 0xb
 1552 00ca 01       		.uleb128 0x1
 1553 00cb 13       		.uleb128 0x13
 1554 00cc 00       		.byte	0
 1555 00cd 00       		.byte	0
 1556 00ce 11       		.uleb128 0x11
 1557 00cf 0D       		.uleb128 0xd
 1558 00d0 00       		.byte	0
 1559 00d1 03       		.uleb128 0x3
 1560 00d2 0E       		.uleb128 0xe
 1561 00d3 3A       		.uleb128 0x3a
 1562 00d4 0B       		.uleb128 0xb
 1563 00d5 3B       		.uleb128 0x3b
 1564 00d6 0B       		.uleb128 0xb
 1565 00d7 49       		.uleb128 0x49
 1566 00d8 13       		.uleb128 0x13
 1567 00d9 00       		.byte	0
 1568 00da 00       		.byte	0
 1569 00db 12       		.uleb128 0x12
 1570 00dc 26       		.uleb128 0x26
 1571 00dd 00       		.byte	0
 1572 00de 49       		.uleb128 0x49
 1573 00df 13       		.uleb128 0x13
 1574 00e0 00       		.byte	0
 1575 00e1 00       		.byte	0
 1576 00e2 13       		.uleb128 0x13
 1577 00e3 15       		.uleb128 0x15
 1578 00e4 01       		.byte	0x1
 1579 00e5 27       		.uleb128 0x27
 1580 00e6 0C       		.uleb128 0xc
 1581 00e7 01       		.uleb128 0x1
 1582 00e8 13       		.uleb128 0x13
 1583 00e9 00       		.byte	0
 1584 00ea 00       		.byte	0
 1585 00eb 14       		.uleb128 0x14
 1586 00ec 05       		.uleb128 0x5
 1587 00ed 00       		.byte	0
 1588 00ee 49       		.uleb128 0x49
 1589 00ef 13       		.uleb128 0x13
ARM GAS  /tmp/ccYYZCi7.s 			page 39


 1590 00f0 00       		.byte	0
 1591 00f1 00       		.byte	0
 1592 00f2 15       		.uleb128 0x15
 1593 00f3 13       		.uleb128 0x13
 1594 00f4 01       		.byte	0x1
 1595 00f5 03       		.uleb128 0x3
 1596 00f6 0E       		.uleb128 0xe
 1597 00f7 0B       		.uleb128 0xb
 1598 00f8 0B       		.uleb128 0xb
 1599 00f9 3A       		.uleb128 0x3a
 1600 00fa 0B       		.uleb128 0xb
 1601 00fb 3B       		.uleb128 0x3b
 1602 00fc 05       		.uleb128 0x5
 1603 00fd 01       		.uleb128 0x1
 1604 00fe 13       		.uleb128 0x13
 1605 00ff 00       		.byte	0
 1606 0100 00       		.byte	0
 1607 0101 16       		.uleb128 0x16
 1608 0102 2E       		.uleb128 0x2e
 1609 0103 00       		.byte	0
 1610 0104 03       		.uleb128 0x3
 1611 0105 0E       		.uleb128 0xe
 1612 0106 3A       		.uleb128 0x3a
 1613 0107 0B       		.uleb128 0xb
 1614 0108 3B       		.uleb128 0x3b
 1615 0109 0B       		.uleb128 0xb
 1616 010a 27       		.uleb128 0x27
 1617 010b 0C       		.uleb128 0xc
 1618 010c 20       		.uleb128 0x20
 1619 010d 0B       		.uleb128 0xb
 1620 010e 00       		.byte	0
 1621 010f 00       		.byte	0
 1622 0110 17       		.uleb128 0x17
 1623 0111 2E       		.uleb128 0x2e
 1624 0112 01       		.byte	0x1
 1625 0113 3F       		.uleb128 0x3f
 1626 0114 0C       		.uleb128 0xc
 1627 0115 03       		.uleb128 0x3
 1628 0116 0E       		.uleb128 0xe
 1629 0117 3A       		.uleb128 0x3a
 1630 0118 0B       		.uleb128 0xb
 1631 0119 3B       		.uleb128 0x3b
 1632 011a 0B       		.uleb128 0xb
 1633 011b 27       		.uleb128 0x27
 1634 011c 0C       		.uleb128 0xc
 1635 011d 11       		.uleb128 0x11
 1636 011e 01       		.uleb128 0x1
 1637 011f 12       		.uleb128 0x12
 1638 0120 01       		.uleb128 0x1
 1639 0121 40       		.uleb128 0x40
 1640 0122 0A       		.uleb128 0xa
 1641 0123 9742     		.uleb128 0x2117
 1642 0125 0C       		.uleb128 0xc
 1643 0126 01       		.uleb128 0x1
 1644 0127 13       		.uleb128 0x13
 1645 0128 00       		.byte	0
 1646 0129 00       		.byte	0
ARM GAS  /tmp/ccYYZCi7.s 			page 40


 1647 012a 18       		.uleb128 0x18
 1648 012b 1D       		.uleb128 0x1d
 1649 012c 00       		.byte	0
 1650 012d 31       		.uleb128 0x31
 1651 012e 13       		.uleb128 0x13
 1652 012f 52       		.uleb128 0x52
 1653 0130 01       		.uleb128 0x1
 1654 0131 55       		.uleb128 0x55
 1655 0132 06       		.uleb128 0x6
 1656 0133 58       		.uleb128 0x58
 1657 0134 0B       		.uleb128 0xb
 1658 0135 59       		.uleb128 0x59
 1659 0136 0B       		.uleb128 0xb
 1660 0137 00       		.byte	0
 1661 0138 00       		.byte	0
 1662 0139 19       		.uleb128 0x19
 1663 013a 2E       		.uleb128 0x2e
 1664 013b 00       		.byte	0
 1665 013c 3F       		.uleb128 0x3f
 1666 013d 0C       		.uleb128 0xc
 1667 013e 03       		.uleb128 0x3
 1668 013f 0E       		.uleb128 0xe
 1669 0140 3A       		.uleb128 0x3a
 1670 0141 0B       		.uleb128 0xb
 1671 0142 3B       		.uleb128 0x3b
 1672 0143 0B       		.uleb128 0xb
 1673 0144 27       		.uleb128 0x27
 1674 0145 0C       		.uleb128 0xc
 1675 0146 11       		.uleb128 0x11
 1676 0147 01       		.uleb128 0x1
 1677 0148 12       		.uleb128 0x12
 1678 0149 01       		.uleb128 0x1
 1679 014a 40       		.uleb128 0x40
 1680 014b 0A       		.uleb128 0xa
 1681 014c 9742     		.uleb128 0x2117
 1682 014e 0C       		.uleb128 0xc
 1683 014f 00       		.byte	0
 1684 0150 00       		.byte	0
 1685 0151 1A       		.uleb128 0x1a
 1686 0152 34       		.uleb128 0x34
 1687 0153 00       		.byte	0
 1688 0154 03       		.uleb128 0x3
 1689 0155 0E       		.uleb128 0xe
 1690 0156 3A       		.uleb128 0x3a
 1691 0157 0B       		.uleb128 0xb
 1692 0158 3B       		.uleb128 0x3b
 1693 0159 05       		.uleb128 0x5
 1694 015a 49       		.uleb128 0x49
 1695 015b 13       		.uleb128 0x13
 1696 015c 3F       		.uleb128 0x3f
 1697 015d 0C       		.uleb128 0xc
 1698 015e 3C       		.uleb128 0x3c
 1699 015f 0C       		.uleb128 0xc
 1700 0160 00       		.byte	0
 1701 0161 00       		.byte	0
 1702 0162 1B       		.uleb128 0x1b
 1703 0163 34       		.uleb128 0x34
ARM GAS  /tmp/ccYYZCi7.s 			page 41


 1704 0164 00       		.byte	0
 1705 0165 03       		.uleb128 0x3
 1706 0166 08       		.uleb128 0x8
 1707 0167 3A       		.uleb128 0x3a
 1708 0168 0B       		.uleb128 0xb
 1709 0169 3B       		.uleb128 0x3b
 1710 016a 05       		.uleb128 0x5
 1711 016b 49       		.uleb128 0x49
 1712 016c 13       		.uleb128 0x13
 1713 016d 3F       		.uleb128 0x3f
 1714 016e 0C       		.uleb128 0xc
 1715 016f 3C       		.uleb128 0x3c
 1716 0170 0C       		.uleb128 0xc
 1717 0171 00       		.byte	0
 1718 0172 00       		.byte	0
 1719 0173 00       		.byte	0
 1720              		.section	.debug_aranges,"",%progbits
 1721 0000 24000000 		.4byte	0x24
 1722 0004 0200     		.2byte	0x2
 1723 0006 00000000 		.4byte	.Ldebug_info0
 1724 000a 04       		.byte	0x4
 1725 000b 00       		.byte	0
 1726 000c 0000     		.2byte	0
 1727 000e 0000     		.2byte	0
 1728 0010 00000000 		.4byte	.LFB195
 1729 0014 3C000000 		.4byte	.LFE195-.LFB195
 1730 0018 00000000 		.4byte	.LFB196
 1731 001c A2000000 		.4byte	.LFE196-.LFB196
 1732 0020 00000000 		.4byte	0
 1733 0024 00000000 		.4byte	0
 1734              		.section	.debug_ranges,"",%progbits
 1735              	.Ldebug_ranges0:
 1736 0000 1C000000 		.4byte	.LBB4
 1737 0004 20000000 		.4byte	.LBE4
 1738 0008 28000000 		.4byte	.LBB8
 1739 000c 2C000000 		.4byte	.LBE8
 1740 0010 32000000 		.4byte	.LBB9
 1741 0014 3C000000 		.4byte	.LBE9
 1742 0018 00000000 		.4byte	0
 1743 001c 00000000 		.4byte	0
 1744 0020 00000000 		.4byte	.LFB195
 1745 0024 3C000000 		.4byte	.LFE195
 1746 0028 00000000 		.4byte	.LFB196
 1747 002c A2000000 		.4byte	.LFE196
 1748 0030 00000000 		.4byte	0
 1749 0034 00000000 		.4byte	0
 1750              		.section	.debug_line,"",%progbits
 1751              	.Ldebug_line0:
 1752 0000 27020000 		.section	.debug_str,"MS",%progbits,1
 1752      0200AE01 
 1752      00000201 
 1752      FB0E0D00 
 1752      01010101 
 1753              	.LASF33:
 1754 0000 74726566 		.ascii	"trefs_t\000"
 1754      735F7400 
 1755              	.LASF46:
ARM GAS  /tmp/ccYYZCi7.s 			page 42


 1756 0008 41504231 		.ascii	"APB1RSTR\000"
 1756      52535452 
 1756      00
 1757              	.LASF3:
 1758 0011 73686F72 		.ascii	"short int\000"
 1758      7420696E 
 1758      7400
 1759              	.LASF59:
 1760 001b 725F7175 		.ascii	"r_queue\000"
 1760      65756500 
 1761              	.LASF74:
 1762 0023 6D5F6E65 		.ascii	"m_next\000"
 1762      787400
 1763              	.LASF37:
 1764 002a 73697A65 		.ascii	"sizetype\000"
 1764      74797065 
 1764      00
 1765              	.LASF50:
 1766 0033 42444352 		.ascii	"BDCR\000"
 1766      00
 1767              	.LASF66:
 1768 0038 7264796D 		.ascii	"rdymsg\000"
 1768      736700
 1769              	.LASF14:
 1770 003f 705F7072 		.ascii	"p_prev\000"
 1770      657600
 1771              	.LASF61:
 1772 0046 725F6374 		.ascii	"r_ctx\000"
 1772      7800
 1773              	.LASF43:
 1774 004c 5057525F 		.ascii	"PWR_TypeDef\000"
 1774      54797065 
 1774      44656600 
 1775              	.LASF36:
 1776 0058 6576656E 		.ascii	"eventmask_t\000"
 1776      746D6173 
 1776      6B5F7400 
 1777              	.LASF24:
 1778 0064 705F6D73 		.ascii	"p_msgqueue\000"
 1778      67717565 
 1778      756500
 1779              	.LASF15:
 1780 006f 705F7072 		.ascii	"p_prio\000"
 1780      696F00
 1781              	.LASF13:
 1782 0076 705F6E65 		.ascii	"p_next\000"
 1782      787400
 1783              	.LASF30:
 1784 007d 7274636E 		.ascii	"rtcnt_t\000"
 1784      745F7400 
 1785              	.LASF82:
 1786 0085 76745F70 		.ascii	"vt_par\000"
 1786      617200
 1787              	.LASF38:
 1788 008c 4B455952 		.ascii	"KEYR\000"
 1788      00
 1789              	.LASF81:
ARM GAS  /tmp/ccYYZCi7.s 			page 43


 1790 0091 76745F66 		.ascii	"vt_func\000"
 1790      756E6300 
 1791              	.LASF53:
 1792 0099 72656761 		.ascii	"regarm_t\000"
 1792      726D5F74 
 1792      00
 1793              	.LASF98:
 1794 00a2 73746D33 		.ascii	"stm32_clock_init\000"
 1794      325F636C 
 1794      6F636B5F 
 1794      696E6974 
 1794      00
 1795              	.LASF4:
 1796 00b3 75696E74 		.ascii	"uint8_t\000"
 1796      385F7400 
 1797              	.LASF49:
 1798 00bb 41504231 		.ascii	"APB1ENR\000"
 1798      454E5200 
 1799              	.LASF96:
 1800 00c3 68616C5F 		.ascii	"hal_lld_backup_domain_init\000"
 1800      6C6C645F 
 1800      6261636B 
 1800      75705F64 
 1800      6F6D6169 
 1801              	.LASF26:
 1802 00de 705F6570 		.ascii	"p_epending\000"
 1802      656E6469 
 1802      6E6700
 1803              	.LASF89:
 1804 00e9 63685F73 		.ascii	"ch_system_t\000"
 1804      79737465 
 1804      6D5F7400 
 1805              	.LASF88:
 1806 00f5 6D656173 		.ascii	"measurement_offset\000"
 1806      7572656D 
 1806      656E745F 
 1806      6F666673 
 1806      657400
 1807              	.LASF83:
 1808 0108 76745F6C 		.ascii	"vt_lasttime\000"
 1808      61737474 
 1808      696D6500 
 1809              	.LASF39:
 1810 0114 4F50544B 		.ascii	"OPTKEYR\000"
 1810      45595200 
 1811              	.LASF11:
 1812 011c 6C6F6E67 		.ascii	"long long int\000"
 1812      206C6F6E 
 1812      6720696E 
 1812      7400
 1813              	.LASF19:
 1814 012a 705F6E61 		.ascii	"p_name\000"
 1814      6D6500
 1815              	.LASF34:
 1816 0131 74707269 		.ascii	"tprio_t\000"
 1816      6F5F7400 
 1817              	.LASF8:
ARM GAS  /tmp/ccYYZCi7.s 			page 44


 1818 0139 6C6F6E67 		.ascii	"long int\000"
 1818      20696E74 
 1818      00
 1819              	.LASF85:
 1820 0142 63685F73 		.ascii	"ch_system\000"
 1820      79737465 
 1820      6D00
 1821              	.LASF51:
 1822 014c 5243435F 		.ascii	"RCC_TypeDef\000"
 1822      54797065 
 1822      44656600 
 1823              	.LASF76:
 1824 0158 76697274 		.ascii	"virtual_timer_t\000"
 1824      75616C5F 
 1824      74696D65 
 1824      725F7400 
 1825              	.LASF47:
 1826 0168 41484245 		.ascii	"AHBENR\000"
 1826      4E5200
 1827              	.LASF72:
 1828 016f 6D5F7175 		.ascii	"m_queue\000"
 1828      65756500 
 1829              	.LASF45:
 1830 0177 41504232 		.ascii	"APB2RSTR\000"
 1830      52535452 
 1830      00
 1831              	.LASF41:
 1832 0180 57525052 		.ascii	"WRPR\000"
 1832      00
 1833              	.LASF64:
 1834 0185 725F6375 		.ascii	"r_current\000"
 1834      7272656E 
 1834      7400
 1835              	.LASF25:
 1836 018f 705F6D73 		.ascii	"p_msg\000"
 1836      6700
 1837              	.LASF31:
 1838 0195 746D6F64 		.ascii	"tmode_t\000"
 1838      655F7400 
 1839              	.LASF2:
 1840 019d 756E7369 		.ascii	"unsigned char\000"
 1840      676E6564 
 1840      20636861 
 1840      7200
 1841              	.LASF48:
 1842 01ab 41504232 		.ascii	"APB2ENR\000"
 1842      454E5200 
 1843              	.LASF1:
 1844 01b3 7369676E 		.ascii	"signed char\000"
 1844      65642063 
 1844      68617200 
 1845              	.LASF17:
 1846 01bf 705F6E65 		.ascii	"p_newer\000"
 1846      77657200 
 1847              	.LASF12:
 1848 01c7 6C6F6E67 		.ascii	"long long unsigned int\000"
 1848      206C6F6E 
ARM GAS  /tmp/ccYYZCi7.s 			page 45


 1848      6720756E 
 1848      7369676E 
 1848      65642069 
 1849              	.LASF9:
 1850 01de 75696E74 		.ascii	"uint32_t\000"
 1850      33325F74 
 1850      00
 1851              	.LASF0:
 1852 01e7 756E7369 		.ascii	"unsigned int\000"
 1852      676E6564 
 1852      20696E74 
 1852      00
 1853              	.LASF93:
 1854 01f4 474E5520 		.ascii	"GNU C 4.7.4 20130913 (release) [ARM/embedded-4_7-br"
 1854      4320342E 
 1854      372E3420 
 1854      32303133 
 1854      30393133 
 1855 0227 616E6368 		.ascii	"anch revision 202601]\000"
 1855      20726576 
 1855      6973696F 
 1855      6E203230 
 1855      32363031 
 1856              	.LASF78:
 1857 023d 76745F6E 		.ascii	"vt_next\000"
 1857      65787400 
 1858              	.LASF69:
 1859 0245 65776D61 		.ascii	"ewmask\000"
 1859      736B00
 1860              	.LASF44:
 1861 024c 43464752 		.ascii	"CFGR\000"
 1861      00
 1862              	.LASF97:
 1863 0251 68616C5F 		.ascii	"hal_lld_init\000"
 1863      6C6C645F 
 1863      696E6974 
 1863      00
 1864              	.LASF57:
 1865 025e 74687265 		.ascii	"threads_queue_t\000"
 1865      6164735F 
 1865      71756575 
 1865      655F7400 
 1866              	.LASF71:
 1867 026e 6D757465 		.ascii	"mutex\000"
 1867      7800
 1868              	.LASF54:
 1869 0274 74687265 		.ascii	"thread\000"
 1869      616400
 1870              	.LASF62:
 1871 027b 725F6E65 		.ascii	"r_newer\000"
 1871      77657200 
 1872              	.LASF21:
 1873 0283 705F666C 		.ascii	"p_flags\000"
 1873      61677300 
 1874              	.LASF80:
 1875 028b 76745F64 		.ascii	"vt_delta\000"
 1875      656C7461 
ARM GAS  /tmp/ccYYZCi7.s 			page 46


 1875      00
 1876              	.LASF28:
 1877 0294 705F7265 		.ascii	"p_realprio\000"
 1877      616C7072 
 1877      696F00
 1878              	.LASF52:
 1879 029f 73797374 		.ascii	"systime_t\000"
 1879      696D655F 
 1879      7400
 1880              	.LASF70:
 1881 02a9 63686172 		.ascii	"char\000"
 1881      00
 1882              	.LASF5:
 1883 02ae 75696E74 		.ascii	"uint16_t\000"
 1883      31365F74 
 1883      00
 1884              	.LASF90:
 1885 02b7 6D757465 		.ascii	"mutex_t\000"
 1885      785F7400 
 1886              	.LASF7:
 1887 02bf 696E7433 		.ascii	"int32_t\000"
 1887      325F7400 
 1888              	.LASF60:
 1889 02c7 725F7072 		.ascii	"r_prio\000"
 1889      696F00
 1890              	.LASF20:
 1891 02ce 705F7374 		.ascii	"p_state\000"
 1891      61746500 
 1892              	.LASF6:
 1893 02d6 73686F72 		.ascii	"short unsigned int\000"
 1893      7420756E 
 1893      7369676E 
 1893      65642069 
 1893      6E7400
 1894              	.LASF91:
 1895 02e9 5F426F6F 		.ascii	"_Bool\000"
 1895      6C00
 1896              	.LASF23:
 1897 02ef 705F7761 		.ascii	"p_waiting\000"
 1897      6974696E 
 1897      6700
 1898              	.LASF27:
 1899 02f9 705F6D74 		.ascii	"p_mtxlist\000"
 1899      786C6973 
 1899      7400
 1900              	.LASF55:
 1901 0303 636F6E74 		.ascii	"context\000"
 1901      65787400 
 1902              	.LASF10:
 1903 030b 6C6F6E67 		.ascii	"long unsigned int\000"
 1903      20756E73 
 1903      69676E65 
 1903      6420696E 
 1903      7400
 1904              	.LASF94:
 1905 031d 2E2E2F2E 		.ascii	"../../../os/hal/ports/STM32/STM32F1xx/hal_lld.c\000"
 1905      2E2F2E2E 
ARM GAS  /tmp/ccYYZCi7.s 			page 47


 1905      2F6F732F 
 1905      68616C2F 
 1905      706F7274 
 1906              	.LASF56:
 1907 034d 706F7274 		.ascii	"port_intctx\000"
 1907      5F696E74 
 1907      63747800 
 1908              	.LASF79:
 1909 0359 76745F70 		.ascii	"vt_prev\000"
 1909      72657600 
 1910              	.LASF68:
 1911 0361 77746F62 		.ascii	"wtobjp\000"
 1911      6A7000
 1912              	.LASF86:
 1913 0368 726C6973 		.ascii	"rlist\000"
 1913      7400
 1914              	.LASF32:
 1915 036e 74737461 		.ascii	"tstate_t\000"
 1915      74655F74 
 1915      00
 1916              	.LASF67:
 1917 0377 65786974 		.ascii	"exitcode\000"
 1917      636F6465 
 1917      00
 1918              	.LASF75:
 1919 0380 76746675 		.ascii	"vtfunc_t\000"
 1919      6E635F74 
 1919      00
 1920              	.LASF18:
 1921 0389 705F6F6C 		.ascii	"p_older\000"
 1921      64657200 
 1922              	.LASF65:
 1923 0391 72656164 		.ascii	"ready_list_t\000"
 1923      795F6C69 
 1923      73745F74 
 1923      00
 1924              	.LASF84:
 1925 039e 76697274 		.ascii	"virtual_timers_list_t\000"
 1925      75616C5F 
 1925      74696D65 
 1925      72735F6C 
 1925      6973745F 
 1926              	.LASF40:
 1927 03b4 52455345 		.ascii	"RESERVED\000"
 1927      52564544 
 1927      00
 1928              	.LASF22:
 1929 03bd 705F7265 		.ascii	"p_refs\000"
 1929      667300
 1930              	.LASF42:
 1931 03c4 464C4153 		.ascii	"FLASH_TypeDef\000"
 1931      485F5479 
 1931      70654465 
 1931      6600
 1932              	.LASF16:
 1933 03d2 705F6374 		.ascii	"p_ctx\000"
 1933      7800
ARM GAS  /tmp/ccYYZCi7.s 			page 48


 1934              	.LASF92:
 1935 03d8 49544D5F 		.ascii	"ITM_RxBuffer\000"
 1935      52784275 
 1935      66666572 
 1935      00
 1936              	.LASF73:
 1937 03e5 6D5F6F77 		.ascii	"m_owner\000"
 1937      6E657200 
 1938              	.LASF29:
 1939 03ed 705F6D70 		.ascii	"p_mpool\000"
 1939      6F6F6C00 
 1940              	.LASF77:
 1941 03f5 76697274 		.ascii	"virtual_timer\000"
 1941      75616C5F 
 1941      74696D65 
 1941      7200
 1942              	.LASF87:
 1943 0403 76746C69 		.ascii	"vtlist\000"
 1943      737400
 1944              	.LASF35:
 1945 040a 6D73675F 		.ascii	"msg_t\000"
 1945      7400
 1946              	.LASF95:
 1947 0410 2F686F6D 		.ascii	"/home/joerg/repos/chibios-projects/ChibiOS-RT/demos"
 1947      652F6A6F 
 1947      6572672F 
 1947      7265706F 
 1947      732F6368 
 1948 0443 2F53544D 		.ascii	"/STM32/RT-STM32F103-OLIMEX_STM32_P103\000"
 1948      33322F52 
 1948      542D5354 
 1948      4D333246 
 1948      3130332D 
 1949              	.LASF63:
 1950 0469 725F6F6C 		.ascii	"r_older\000"
 1950      64657200 
 1951              	.LASF58:
 1952 0471 74687265 		.ascii	"threads_list_t\000"
 1952      6164735F 
 1952      6C697374 
 1952      5F7400
 1953              		.comm	__gnu_lto_v1,1,1
 1954              		.ident	"GCC: (GNU Tools for ARM Embedded Processors) 4.7.4 20130913 (release) [ARM/embedded-4_7-br
ARM GAS  /tmp/ccYYZCi7.s 			page 49


DEFINED SYMBOLS
                            *ABS*:00000000 hal_lld.c
     /tmp/ccYYZCi7.s:198    .text.hal_lld_init:00000000 $t
     /tmp/ccYYZCi7.s:204    .text.hal_lld_init:00000000 hal_lld_init
     /tmp/ccYYZCi7.s:259    .text.stm32_clock_init:00000000 $t
     /tmp/ccYYZCi7.s:265    .text.stm32_clock_init:00000000 stm32_clock_init
                            *COM*:00000001 __gnu_lto_v1
                     .debug_frame:00000010 $d

NO UNDEFINED SYMBOLS
