ARM GAS  /tmp/ccZjsTj3.s 			page 1


   1              		.syntax unified
   2              		.cpu cortex-m3
   3              		.fpu softvfp
   4              		.eabi_attribute 20, 1
   5              		.eabi_attribute 21, 1
   6              		.eabi_attribute 23, 3
   7              		.eabi_attribute 24, 1
   8              		.eabi_attribute 25, 1
   9              		.eabi_attribute 26, 1
  10              		.eabi_attribute 30, 2
  11              		.eabi_attribute 34, 1
  12              		.eabi_attribute 18, 4
  13              		.thumb
  14              		.file	"main.c"
  15              		.text
  16              	.Ltext0:
  17              		.section	.gnu.lto_.jmpfuncs.eb64cc3320801bb0,"",%progbits
  18 0000 789C6362 		.ascii	"x\234cb`d`g\300\016\346\0021\007\02031002I2\244220t"
  18      60646067 
  18      C00EE602 
  18      31071033 
  18      31303032 
  19 001b A8A33051 		.ascii	"\250\2430Q\305\253\030~6p\244222f22\034\353_,\012\324"
  19      C5AB187E 
  19      3670A432 
  19      32326632 
  19      321CEB5F 
  20 0032 CA0A1364 		.ascii	"\312\012\023d\002\0122~\331\316\0152\016\244\205\231"
  20      020A327E 
  20      D9CE0D32 
  20      0EA48599 
  21 0042 E1041384 		.ascii	"\341\004\023\204\305\302\340\310\000S\305\312\030\317"
  21      C5C2E0C8 
  21      0053C5CA 
  21      18CF
  22 0050 C8708215 		.ascii	"\310p\202\025\246\210\015\304@1\366\314u6\230$\324\325"
  22      A6880DC4 
  22      4031F6CC 
  22      75369824 
  22      D4D5
  23 0062 ECB98999 		.ascii	"\354\271\211\231yz\311\014\000\246U\033\037"
  23      797AC90C 
  23      00A6551B 
  23      1F
  24              		.text
  25              		.section	.gnu.lto_.inline.eb64cc3320801bb0,"",%progbits
  26 0000 789C6362 		.ascii	"x\234cb`d\340e\300\016\302\2414\023\003\003\327#!F\006"
  26      6064E065 
  26      C00EC2A1 
  26      34130303 
  26      D7232146 
  27 0015 268E0557 		.ascii	"&\216\005W$\030X\200|&nF\240>\010\311\310 z]\004$\331"
  27      24185880 
  27      7C266E46 
  27      A03E08C9 
  27      C8207A5D 
  28 002c F0CA0043 		.ascii	"\360\312\000C\222\215\237\201\201\025l\0103\017\330"
ARM GAS  /tmp/ccZjsTj3.s 			page 2


  28      928D9F81 
  28      81156C08 
  28      330FD8
  29 003b 20462E06 		.ascii	" F.\006(\301\000\000\213\262\006."
  29      28C10000 
  29      8BB2062E 
  30              		.text
  31              		.section	.gnu.lto_.pureconst.eb64cc3320801bb0,"",%progbits
  32 0000 789C6362 		.ascii	"x\234cb`d`f```e\200\000&\0063F3\000\001\252\000{"
  32      60646066 
  32      60606065 
  32      80002606 
  32      33463300 
  33              		.text
  34              		.section	.gnu.lto_Thread1.eb64cc3320801bb0,"",%progbits
  35 0000 789C9552 		.ascii	"x\234\225R1k\024Q\020\376\276\367\336%\227K\324X\251"
  35      316B1451 
  35      10FEBEF7 
  35      DE25974B 
  35      D458A9
  36 0013 8D9E1211 		.ascii	"\215\236\022\021\014\336\026Iqe\312\200U\0026\302%\234"
  36      0CDE1649 
  36      7165CA80 
  36      550236C2 
  36      259C
  37 0025 E723594C 		.ascii	"\347#YLN\330$\2056\367<\257H#\004mb@\210D\210\330\332"
  37      4ED82485 
  37      36F73CAF 
  37      4823046D 
  37      62408844 
  38 003c 47896271 		.ascii	"G\211bq\034\"he\225B\261\361\017\010\3029o\337\336\251"
  38      1C226865 
  38      9542B1F1 
  38      0F08C239 
  38      6FDFDEA9 
  39 0050 18446777 		.ascii	"\030Dgw\231\331\331y\337\367\315\314*P\256?\355\222"
  39      99D9D979 
  39      DFF7CDCC 
  39      2A50AE3F 
  39      ED92
  40 0062 3CEF1430 		.ascii	"<\357\0240%\2369Pm\274\005\356\024\025u\0104M\010L\310"
  40      259E3950 
  40      6DBC05EE 
  40      14157508 
  40      344D084C 
  41 0077 9C251A4A 		.ascii	"\234%\032J\0336\256\244h<\207\307\316\335\337x\325\234"
  41      1B36AEA4 
  41      683C87C7 
  41      CEDDDF78 
  41      D59C
  42 0089 6E1E74BB 		.ascii	"n\036t\273g\254\317\316\023\355{\237y\012\226D\021\336"
  42      67ACCFCE 
  42      13ED7B9F 
  42      790A9644 
  42      11DE
  43 009b 2B98DF79 		.ascii	"+\230\337y\367\266\276\234\3774\371B\275<\3506\306\260"
  43      F7B6BE9C 
ARM GAS  /tmp/ccZjsTj3.s 			page 3


  43      FF34F942 
  43      BD3CE836 
  43      C6B0
  44 00ad E331EEBA 		.ascii	"\3431\356\272iK\255\020\321#t\036\014\034\002 \005\030"
  44      694BAD10 
  44      D123741E 
  44      0C1C0220 
  44      0518
  45 00bf 29A0C26D 		.ascii	")\240\302ma\026\313\241\345\334\250\257Om\306{bV\312"
  45      6116CBA1 
  45      E5DCA8AF 
  45      4F6DC67B 
  45      6256CA
  46 00d2 41FD064A 		.ascii	"A\375\006J\3363\205\202\236)4\012\023)\005\376\252\360"
  46      DE338582 
  46      9E29340A 
  46      132905FE 
  46      AAF0
  47 00e4 36BEB993 		.ascii	"6\276\271\223\2269\236F\371\221\333\234\262\034\300"
  47      96399E46 
  47      F991DB9C 
  47      B21CC0
  48 00f3 D7F7C3E9 		.ascii	"\327\367\303\351\2676\232W}\213\031}p\254\360\211\250"
  48      B7369A57 
  48      7D8B197D 
  48      70ACF089 
  48      A8
  49 0104 AA7047F2 		.ascii	"\252pG\362?\255\306\3028.\312`t\352\006\365\026\036"
  49      3FADC6C2 
  49      382ECA60 
  49      74EA06F5 
  49      161E
  50 0116 D232AF3C 		.ascii	"\3222\257<A\336r\210qX\215W1\224\352\007\346z\273\232"
  50      41DE7288 
  50      71588D57 
  50      3194EA07 
  50      E67ABB9A 
  51 012a 637F6B42 		.ascii	"c\177kBzy3W\341S\201O\241L\006UP\302\341O\243\177Z\372"
  51      7A793357 
  51      E153814F 
  51      A14C0655 
  51      50C2E14F 
  52 0142 5FD7BF36 		.ascii	"_\327\2776Q\341\2564\262\367q\367D_\330\254\314\222"
  52      51E1AE34 
  52      B2F771F7 
  52      445FD8AC 
  52      CC92
  53 0154 B253DDC6 		.ascii	"\262S\335\306~\371\373s\006\341\343x\346Z\002:\234\201"
  53      7EF9FB73 
  53      06E1E378 
  53      E65A023A 
  53      9C81
  54 0166 8F288F7C 		.ascii	"\217(\217|\004n\273\345\014B\334\223\246C\340\223G\341"
  54      046EBBE5 
  54      0C42DC93 
  54      A643E093 
  54      47E1
ARM GAS  /tmp/ccZjsTj3.s 			page 4


  55 0178 8A127660 		.ascii	"\212\022v`^\233\336\004\262\006\217q\236Y\027\276r\024"
  55      5E9BDE04 
  55      B2068F71 
  55      9E5917BE 
  55      7214
  56 018a EB17C41D 		.ascii	"\353\027\304\035\367\015\355\227;\346\377i\315a\264"
  56      F70DED97 
  56      3BE6FF69 
  56      CD61B4
  57 0199 1FFE9936 		.ascii	"\037\376\2316\374(&\355\2353\375\371\216\225JQ\270o"
  57      FC2826ED 
  57      9D33FDF9 
  57      8E954A51 
  57      B86F
  58 01ab AE44C96A 		.ascii	"\256D\311j\024\327kKk\327mT[L\354B\274\262\232\334*"
  58      14D76B4B 
  58      6BD76D54 
  58      5B4CEC42 
  58      BCB29ADC 
  59 01c0 2D6270B9 		.ascii	"-bp\271\032\327K5\350j\262`\352\325e\233\277\266\024"
  59      1AD74B35 
  59      E86AB260 
  59      EAD5659B 
  59      BFB614
  60 01d3 D76FD804 		.ascii	"\327o\330\004?\000\230\366\231T"
  60      3F0098F6 
  60      9954
  61              		.text
  62              		.section	.gnu.lto_main.eb64cc3320801bb0,"",%progbits
  63 0000 789C7D52 		.ascii	"x\234}R=K\003A\020}\263{{\247\306\357\217\240\225\301"
  63      3D4B0341 
  63      107DB37B 
  63      7BA7C6EF 
  63      8FA095C1 
  64 0014 4641103B 		.ascii	"FA\020;+\013;[\0036\202\212\310\011\026\372\003l\262"
  64      2B0B3B5B 
  64      0336828A 
  64      C80916FA 
  64      036CB2
  65 0027 C6145612 		.ascii	"\306\024V\022\004?be,D\354,\005A\361\003$\004\253C-"
  65      043F6265 
  65      2C44EC2C 
  65      0541F103 
  65      2404AB43 
  66 003c 2C040BFF 		.ascii	",\004\013\377\200\215 \304\331\333\234\232D\235\343"
  66      808D20C4 
  66      D9DB9C9A 
  66      449DE3
  67 004b 787BB3EF 		.ascii	"x{\263\357\275\335\231\033\001\342\2476F\371=\021@="
  67      BDDD991B 
  67      01E2A736 
  67      46F93D11 
  67      403D
  68 005d 23B92091 		.ascii	"#\271 \221\275\003V\023\202\244]H\341\004q\350\001u"
  68      BD035613 
  68      82A45D48 
  68      E10471E8 
ARM GAS  /tmp/ccZjsTj3.s 			page 5


  68      0175
  69 006f 36023DEC 		.ascii	"6\002=\354\220\262ie\367\363\011BJHGQj2t\027}\310k\275"
  69      90B26965 
  69      F7F30942 
  69      4A484751 
  69      6A327417 
  70 0087 99BD4A8F 		.ascii	"\231\275J\217\247\237K\245^\337dg\011\205\215\227\306"
  70      A79F4BA5 
  70      5EDF6467 
  70      09858D97 
  70      C6
  71 0098 1EF84448 		.ascii	"\036\370DH\300\240\200Sy\217?t\370WT\334j\010r\356\271"
  71      C0A08053 
  71      798F3F74 
  71      F85754DC 
  71      6A0872EE 
  72 00ad B8782EA5 		.ascii	"\270x.\245\200&\201i\332\247>H\306<#\207BF\353\326\320"
  72      80268169 
  72      DAA73E48 
  72      C63C2387 
  72      4246EBD6 
  73 00c2 C9C48441 		.ascii	"\311\304\204AB\222\255@\262\010\031\334\273\323t@\212"
  73      4292AD40 
  73      B20819DC 
  73      BBD37440 
  73      8A
  74 00d3 D32B78D7 		.ascii	"\323+x\327u>I\232%\262t\237\370<&=m{\277\220D\005I\025"
  74      753E499A 
  74      25B2749F 
  74      F83C263D 
  74      6D7BBF90 
  75 00eb 1FAA9D14 		.ascii	"\037\252\235\024\223\244%\2253.-\332oS\215\027\212\353"
  75      93A42595 
  75      332E2DDA 
  75      6F538D17 
  75      8AEB
  76 00fd 8CB8FB6D 		.ascii	"\214\270\373m'V%\256g\261S!n`1=\252\262:\206[\021.\032"
  76      275625AE 
  76      67B15321 
  76      6E60313D 
  76      AAB23A86 
  77 0115 3116319A 		.ascii	"1\0261\232X\243n#Fs\350\337b\013O\222\004\361\037\223"
  77      58A36E23 
  77      4673E8DF 
  77      620B4F92 
  77      04F11F93 
  78 0129 055C4EBD 		.ascii	"\005\\N\275\355.\330\323\346I\014\342Xg\310\247V\271"
  78      ED2ED8D3 
  78      E6490CE2 
  78      5867C8A7 
  78      56B9
  79 013b 871C639B 		.ascii	"\207\034c\2330\332v\350lF;\260k\0333\337\343S\300\332"
  79      30DA76E8 
  79      6C463BB0 
  79      6B1B33DF 
  79      E353C0DA 
  80 014f A969B2F5 		.ascii	"\251i\262\365\220lc\210\010\007\354\006\231WZ\227_\233"
ARM GAS  /tmp/ccZjsTj3.s 			page 6


  80      906C6388 
  80      0807EC06 
  80      99575A97 
  80      5F9B
  81 0161 76E76724 		.ascii	"v\347g$\271c\024\304\271\375\316\307\356!U\025n\212"
  81      B96314C4 
  81      B9FDCEC7 
  81      EE215515 
  81      6E8A
  82 0173 706BBB76 		.ascii	"pk\273v\244\302r:\"\013e\313a\217\353\\\274\312\242"
  82      A4C2723A 
  82      220B65CB 
  82      618FEB5C 
  82      BCCAA2
  83 0186 932DBCEF 		.ascii	"\223-\274\357Fwa\275\237!\036\215@t\035oinqyh\036\237"
  83      467761BD 
  83      9F211E8D 
  83      40741D6F 
  83      696E7179 
  84 019d 10AE8797 		.ascii	"\020\256\207\227"
  85              		.text
  86              		.section	.gnu.lto_.cgraph.eb64cc3320801bb0,"",%progbits
  87 0000 789C3DCB 		.ascii	"x\234=\313=\012\302P\020\004\340\231\335$\357\232^\301"
  87      3D0AC250 
  87      1004E099 
  87      DD24EF9A 
  87      5EC1
  88 0012 134C2060 		.ascii	"\023L `c\343\001D\020/`m\373\374\213\202\245\265\020"
  88      63E30144 
  88      102F606D 
  88      FBFC8B82 
  88      A5B510
  89 0025 CF21EA46 		.ascii	"\317!\352F\33763\037\314\032\010\007\260\305\357,S\300"
  89      DF36331F 
  89      CC1A0807 
  89      B0C5EF2C 
  89      53C0
  90 0037 E20669D9 		.ascii	"\342\006i\331OlOq\324\352l\274R\026j[\362ByAOU\005'"
  90      4F6C4F71 
  90      D4EA6CBC 
  90      52166A5B 
  90      F2427941 
  91 004f AA2E3852 		.ascii	"\252.8RM\301\201J\1778\014\335\372>O\337\222\2430\241"
  91      4DC1814A 
  91      7F380CDD 
  91      FA3E4FDF 
  91      92A330A1 
  92 0063 7BBCE86C 		.ascii	"{\274\350l\260\211\254\221#+\014\221\216a\034~^g\317"
  92      B089AC91 
  92      232B0C91 
  92      8E611C7E 
  92      5E67CF
  93 0076 DD146F74 		.ascii	"\335\024ot\035:\016"
  93      1D3A0E
  94              		.text
  95              		.section	.gnu.lto_.vars.eb64cc3320801bb0,"",%progbits
  96 0000 789C6362 		.ascii	"x\234cb`d`f``\020f\200\000\3463\214L\014\365\014'\030"
ARM GAS  /tmp/ccZjsTj3.s 			page 7


  96      60646066 
  96      60601066 
  96      8000E633 
  96      8C4C0CF5 
  97 0017 1980E421 		.ascii	"\031\200\344!FF\226zf\000+\241\003\375"
  97      4646967A 
  97      66002BA1 
  97      03FD
  98              		.text
  99              		.section	.gnu.lto_.refs.eb64cc3320801bb0,"",%progbits
 100 0000 789C25C1 		.ascii	"x\234%\301\301\015\0000\010\304\260\204r\177\366\237"
 100      C10D0030 
 100      08C4B084 
 100      727FF69F 
 101 0010 964AD885 		.ascii	"\226J\330\205<`8\376mL5\021\026\003K\0005"
 101      3C6038FE 
 101      6D4C3511 
 101      16034B00 
 101      35
 102              		.text
 103              		.section	.gnu.lto_.statics.eb64cc3320801bb0,"",%progbits
 104 0000 789C6362 		.ascii	"x\234cb`d`b\300\016@\342\214\020&\000\000\375\000\011"
 104      60646062 
 104      C00E40E2 
 104      8C102600 
 104      00FD0009 
 105              		.text
 106              		.section	.gnu.lto_.decls.eb64cc3320801bb0,"",%progbits
 107 0000 789CB55C 		.ascii	"x\234\265\\\013t\024U\232\256G?\322$\006|\016;\353\014"
 107      0B741455 
 107      9AAE473F 
 107      D224067C 
 107      0E3BEB0C 
 108 0014 7176DC65 		.ascii	"qv\334e<B\023@dv\325\325!\036a\026\324\223\2049g\346"
 108      3C421340 
 108      6476D5D5 
 108      211E6116 
 108      D4938439 
 109 002a 9C3E3D4D 		.ascii	"\234>=M\247BzM\322Mu\205\307\354\3569- \342;\200s\022"
 109      A7427A4D 
 109      D24D7585 
 109      C7ECEE39 
 109      2D20E23B 
 110 0041 1E8E8101 		.ascii	"\036\216\201\001yxPy)\004\210Q#A\214\217@\204E\243\274"
 110      79785079 
 110      29048851 
 110      23418C8F 
 110      408445A3 
 111 0056 82084686 		.ascii	"\202\010F\206G\226\341\221\220\275\367\257\252[\267"
 111      4796E191 
 111      90BDF7AF 
 111      AA5BB7
 112 0065 AAEBD195 		.ascii	"\252\353\321\225\304:\251[\267\252\357\375\356\377\377"
 112      C43AA95B 
 112      B7AAEFFD 
 112      EEFFFF
 113 0074 F7FFFFFB 		.ascii	"\367\377\377\373\337[\267\3021,\203\217:t\351E\207\277"
ARM GAS  /tmp/ccZjsTj3.s 			page 8


 113      DF5BB7C2 
 113      312C838F 
 113      3A74E945 
 113      87BF
 114 0086 90614664 		.ascii	"\220aFd1\014\217\236\335\217N\224\205|\035:/\2412^t"
 114      310C8F9E 
 114      DD8F4E94 
 114      857C1D3A 
 114      2FA1325E 
 115 009b BD055D5B 		.ascii	"\275\005][\321\365\001t\366\312\325\241\\.\30707\243"
 115      D1F50174 
 115      F6CAD5A1 
 115      5C2EC730 
 115      37A3
 116 00ad F33674FE 		.ascii	"\3636t\376\024\235\267\243\363_\320y7:\203\234\214\223"
 116      149DB7A3 
 116      F35FD079 
 116      373A839C 
 116      8C93
 117 00bf 8FAE63D0 		.ascii	"\217\256c\320y\017\307\350\016\\\367&t\315Fx\271\350"
 117      790FC7E8 
 117      0E5CF726 
 117      74CD4678 
 117      B9E8
 118 00d1 9AA3E03F 		.ascii	"\232\243\340?\210\356g\243\337\346\240\363~t\216C\347"
 118      88EE67A3 
 118      DFE6A0F3 
 118      7E748E43 
 118      E7
 119 00e2 7FA13307 		.ascii	"\177\2413\007=\377ot\375\037t\276\204N?*[\255\264\361"
 119      3DFF6F74 
 119      FD1F74BE 
 119      844E3F2A 
 119      5BADB4F1 
 120 00f6 134EA6F3 		.ascii	"\023N\246\363>t\235\214\316\177Ge\237E\327\347\321\311"
 120      3E749D8C 
 120      CE7F4765 
 120      9F45D7E7 
 120      D1C9
 121 0108 296D611A 		.ascii	")ma\0321\351F:0\375?ad<\225\216E\350\331\010t.\346d"
 121      31E9463A 
 121      30FD3F61 
 121      643C958E 
 121      45E8D908 
 122 0120 39609E87 		.ascii	"9`\236\207\243\374\022\316\\&?\343\364\264\3557\320"
 122      A3FC12CE 
 122      5C263FE3 
 122      F4B4ED37 
 122      D0
 123 0131 86DB5DC0 		.ascii	"\206\333]\300\3112\273Y\221\315\335\212\254\260\314"
 123      C932BB59 
 123      91CDDD8A 
 123      ACB0CC
 124 0140 7215F9DD 		.ascii	"r\025\371\335\246\320\253\312\214>\262\231gS\251\271"
 124      A6D0ABCA 
 124      8C3EB299 
 124      6753A9B9 
ARM GAS  /tmp/ccZjsTj3.s 			page 9


 125 0150 A9BA05A9 		.ascii	"\251\272\005\251\211{sob\026\245\320\221\267\027Q\374"
 125      897B736F 
 125      6216A5D0 
 125      91B71751 
 125      FC
 126 0161 0F4C88CD 		.ascii	"\017L\210\315\0150L\243\037\2629(;\033\225\277\223Y"
 126      0D304CA3 
 126      1FB23928 
 126      3B1B95BF 
 126      9359
 127 0173 9D4A55A3 		.ascii	"\235JU\243Bl\210]\311\336\204p9\226\271\213Y\237\202"
 127      426C885D 
 127      C9DE8470 
 127      3996B98B 
 127      599F82
 128 0186 43E944E5 		.ascii	"C\351D\3452\230\251_\277\243\223\227o2\300\016\261\177"
 128      3298A95F 
 128      BFA39397 
 128      6F32C00E 
 128      B17F
 129 0198 653994AE 		.ascii	"e9\224\256A\270!v5{\227\334ZJn\015?e\224\347\035\257"
 129      41B82176 
 129      357B97DC 
 129      5A4A6E0D 
 129      3F6594E7 
 130 01ae 4E63D28F 		.ascii	"Nc\322\217\254;\230:\304L\365\274\324D\237\031_\350"
 130      AC3B983A 
 130      C44CF5BC 
 130      D4449F19 
 130      5FE8
 131 01c0 47966E3E 		.ascii	"G\226n>\305\221\346\363\030,\242\361\254)\231\206r!"
 131      C591E6F3 
 131      182CA2F1 
 131      AC299986 
 131      7221
 132 01d2 760390F9 		.ascii	"v\003\220\371\272)\231\257Sd\266\374\334\015\225\267"
 132      BA2999AF 
 132      5364B6FC 
 132      DC0D95B7 
 133 01e2 317F062A 		.ascii	"1\177\006*\027 \034)\300,\324~\321H\311#\224x\014\235"
 133      17201C29 
 133      C02CD47E 
 133      D148C923 
 133      94780C9D 
 134 01f6 F1161B40 		.ascii	"\361\026\033@\034Ld\225\246\257?\377\325\247A\271\301"
 134      1C4C6495 
 134      A6AF3FFF 
 134      D5A741B9 
 134      C1
 135 0207 10EB0DD0 		.ascii	"\020\353\015\320\004\300\275\\J\006\226\177Vs\330z\007"
 135      04C0BD5C 
 135      4A06967F 
 135      5673D87A 
 135      07
 136 0218 5BB5886B 		.ascii	"[\265\210k\277\311\336\0069\036\224\012=x \233\341\225"
 136      BFC9DE06 
 136      391E940A 
ARM GAS  /tmp/ccZjsTj3.s 			page 10


 136      3D78209B 
 136      E195
 137 022a 1B1D430A 		.ascii	"\033\035C\012\017G\3274\016\255\245x\310\"\210\254\216"
 137      0F47D734 
 137      0EADA578 
 137      C82288AC 
 137      8E
 138 023b 07523C65 		.ascii	"\007R<eS<\304\276\303\336\211RV\317\002KX\3009lX\034"
 138      533CC4BE 
 138      C3DE8952 
 138      56CF024B 
 138      58C0396C 
 139 0251 B3815585 		.ascii	"\263\201U\205\261\241f\033\253\362\316\032d\341\010"
 139      B1A1661B 
 139      ABF2CE1A 
 139      64E108
 140 0260 642D886D 		.ascii	"d-\210ml\266\206D\244\361\026@\204\330bE\361m\000\336"
 140      6CB68644 
 140      A4F11640 
 140      84D86245 
 140      F16D00DE 
 141 0274 D0003866 		.ascii	"\320\0008f-\307*JU\277~\367\355\346\225\324\274\036"
 141      2DC72A4A 
 141      55BF7EF7 
 141      EDE695D4 
 141      BC1E
 142 0286 583932D2 		.ascii	"X92\322+\231>k\222\0322\355\334\020\273\335\026\350"
 142      2B993E6B 
 142      921A32ED 
 142      DC10BBDD 
 142      16E8
 143 0298 BDFE0A67 		.ascii	"\275\376\012g7-\234\215D8\0265\314%\223\347B2\240~)"
 143      372D9C8D 
 143      44381635 
 143      CC2593E7 
 143      4232A07E 
 144 02ad 1716D70C 		.ascii	"\027\026\327\014\026\267\231S\265\354\370\332\335{\356"
 144      16B79953 
 144      B5ECF8DA 
 144      DD7BEE
 145 02bc 971B748D 		.ascii	"\227\033t\215\265\017\260~\3404\215}w\317\010UE}\006"
 145      B50FB07E 
 145      E0348D7D 
 145      77CF0855 
 145      457D06
 146 02cf 95F5E955 		.ascii	"\225\365\351U\026\377\214[\273\214-\227\355U\017V\375"
 146      16FF8C5B 
 146      BB8C2D97 
 146      ED550F56 
 146      FD
 147 02e0 0D866366 		.ascii	"\015\206cf  \254;k\217\211\332p\344f{\346\275\376!\335"
 147      2020AC3B 
 147      6B8F89DA 
 147      70E4667B 
 147      E6BDFE21 
 148 02f5 EBFFE7C2 		.ascii	"\353\377\347\302$\262\372a\022\315\266\232\274\337\204"
 148      24B2FA61 
ARM GAS  /tmp/ccZjsTj3.s 			page 11


 148      12CDB69A 
 148      BCDF84
 149 0304 37362366 		.ascii	"76#fZ\0213\252\230\201\241+\231\252q\226\001y\340\270"
 149      5A1133AA 
 149      9881A12B 
 149      99AA7196 
 149      0179E0B8 
 150 0318 396463E0 		.ascii	"9dc\340jO)\267\212CN-H\015_Gi\361\020\202\311\031\264"
 150      6A4F29B7 
 150      8A434E2D 
 150      480D5F47 
 150      69F11082 
 151 032f F82BD0E2 		.ascii	"\370+\320\342\036\242\305\015[\267\354\273\213\262\010"
 151      1EA2C50D 
 151      5BB7ECBB 
 151      8BB208
 152 033e 3758DF00 		.ascii	"7X\337\000\326F^\263\210\257?\344U\365\345\015\026\301"
 152      D6465EB3 
 152      88AF3FE4 
 152      55F5E50D 
 152      16C1
 153 0350 EBD59927 		.ascii	"\353\325\231'N\234\007\345\345\031\367\3053\352\340"
 153      4E9C07E5 
 153      E519F7C5 
 153      33EAE0
 154 035f 83B4B6BE 		.ascii	"\203\264\266\276\315g\256\255C~4m\355\260\265\304\257"
 154      CD67AEAD 
 154      437E346D 
 154      EDB0B5C4 
 154      AF
 155 0370 32B7C413 		.ascii	"2\267\304\0234o;\371\014\025w\210\001\325\015c\366#"
 155      346F3BF9 
 155      0C157788 
 155      01D50D63 
 155      F623
 156 0382 D31913C6 		.ascii	"\323\031\023\306<\344F\036\213\015\343L_\330>M\263\335"
 156      3CE4461E 
 156      8B0DE34C 
 156      5FD83E4D 
 156      B3DD
 157 0394 9829DB43 		.ascii	"\230)\333C\373\321\237\366l_\260e\373\275\201b\373<"
 157      FBD19FF6 
 157      6C5FB065 
 157      FBBD8162 
 157      FB3C
 158 03a6 CD7673DF 		.ascii	"\315vs\337\330\316c\350C\265\260\254\020\273\221\275"
 158      D8CE63E8 
 158      43B5B0AC 
 158      10BB91BD 
 159 03b6 03DDEE82 		.ascii	"\003\335\356\202\264\011\322\317!\375\002\322\343\220"
 159      B409D2CF 
 159      21FD02D2 
 159      E390
 160 03c4 7E07E939 		.ascii	"~\007\3519\224:\322\272\216\246\365\023\240\025O\016"
 160      943AD2BA 
 160      8EA6F513 
 160      A0154F0E 
ARM GAS  /tmp/ccZjsTj3.s 			page 12


 161 03d4 BA5E7D8D 		.ascii	"\272^}\215\353k\330\224\202^R\347\011\276\314\006\355"
 161      EB6BD894 
 161      825E52E7 
 161      09BECC06 
 161      ED
 162 03e5 AB30FF69 		.ascii	"\2530\377i%.jU\303\216=\372\331\216\035\022\307\314"
 162      252E6A55 
 162      C38E3DFA 
 162      D98E1D12 
 162      C7CC
 163 03f7 F3E09A3D 		.ascii	"\363\340\232=\246\323\210\036j\032\321\264t\025\313"
 163      A6D3881E 
 163      6A1AD1B4 
 163      7415CB
 164 0406 A41FACC3 		.ascii	"\244\037\254\303tG?\207au&J\2631\227\303lT{T6:/\015"
 164      74473F87 
 164      6175264A 
 164      B33197C3 
 164      6C547B54 
 165 041e D6316187 		.ascii	"\3261a\207\3031+\241\336S\234\031\023\370\251\312D["
 165      C3312BA1 
 165      DE539C19 
 165      13F8A9CA 
 165      445B
 166 0430 8DCF8407 		.ascii	"\215\317\204\007\017\305C\210}\222C\276\212y\213 \266"
 166      0FC54388 
 166      7D9243BE 
 166      8A798B20 
 166      B6
 167 0441 1FCA1DC0 		.ascii	"\037\312\035\3008\330\214\235:\017\301*\000v\266C\343"
 167      38D88C9D 
 167      3A0FC12A 
 167      0076B643 
 167      E3
 168 0452 CF9BB2F3 		.ascii	"\317\233\262\363<\305\316\365\346M\327\027\362\351\014"
 168      3CC5CEF5 
 168      E64DD717 
 168      F2E90C
 169 0461 3137E938 		.ascii	"17\3518z\0168:J@\333^=\303\366\217%\025\363\024\301"
 169      7A0E383A 
 169      4A40DB5E 
 169      3DC3F68F 
 169      2515F314 
 170 0476 EC18D6BF 		.ascii	"\354\030\326\277\220\330\365T\363e\016\017\315g=Z\340"
 170      90D8F554 
 170      F3650E0F 
 170      CD673D5A 
 170      E0
 171 0487 BB5317F8 		.ascii	"\273S\027\370\272\301\252\001\254K\036m\230o\335C\346"
 171      BAC1AA01 
 171      AC4B1E6D 
 171      986FDD43 
 171      E6
 172 0498 AD7EC330 		.ascii	"\255~\3030\357\327\217\333~2n\373\003d\336\352\272\002"
 172      EFD78FDB 
 172      7E326EFB 
 172      0364DEEA 
ARM GAS  /tmp/ccZjsTj3.s 			page 13


 172      BA02
 173 04aa C7F41251 		.ascii	"\307\364\022Q^on\355\255\365\3675\320\314\330\211p\314"
 173      5E6F6EED 
 173      ADF5F735 
 173      D0CCD889 
 173      70CC
 174 04bc 022F6E72 		.ascii	"\002/nr\205\251\232\255\240\324\254a\353\241\217\207"
 174      85A99AAD 
 174      A0D4AC61 
 174      EBA18F87 
 175 04cc 9A68992B 		.ascii	"\232h\231+\333\257\323\326/~\011\255\277\010\255\257"
 175      DBAFD3D6 
 175      2F7E09AD 
 175      BF08ADAF 
 176 04dc 346D7D25 		.ascii	"4m}%\325\372\231/6]3\363<\001\253\326C\354\375\267f"
 176      D5FA992F 
 176      365D33F3 
 176      3C01ABD6 
 176      43ECFDB7 
 177 04f1 D0E96B40 		.ascii	"\320\351k@\203\233\274Z\234\370\356\276aj\237=\220M"
 177      839BBC5A 
 177      9CF8EEBE 
 177      616A9F3D 
 177      904D
 178 0503 3705F7BA 		.ascii	"7\005\367\272\030\372\023B\374\231/\026\275\266\314"
 178      18FA1342 
 178      FC992F16 
 178      BDB6CC
 179 0512 DB5F7392 		.ascii	"\333_s\222\211\371\234\240\266L\352\2379\251\210\007"
 179      89F99CA0 
 179      B64CEA9F 
 179      39A98807 
 180 0522 08629B03 		.ascii	"\010b\233\003\242\323\324EE<H\020\333]!Z\323x\230 v"
 180      A2D3D445 
 180      453C4810 
 180      DB5D215A 
 180      D3789820 
 181 0537 38203A05 		.ascii	"8 :\005\254*b;A\354t\205hM\343\021\202\330\345\200\350"
 181      AC2A623B 
 181      41EC7485 
 181      684DE311 
 181      82D8E580 
 182 054c 1484A988 		.ascii	"\024\204\251\210'\010b\267+Dk\032O\021\304\246\337\332"
 182      270862B7 
 182      2B446B1A 
 182      4F11C4A6 
 182      DFDA
 183 055e 23E699D1 		.ascii	"#\346\231\321\230\246S\306\210\247\216\243\"\2363\304"
 183      98A653C6 
 183      88A78EA3 
 183      229E33C4 
 184 056e 77346C3D 		.ascii	"w4l=\374q\260\017\372O\240\316z5\317w\336\245\3473\223"
 184      FC71B00F 
 184      FA4FA0CE 
 184      7A35CF77 
 184      DEA5E733 
 185 0583 863C3475 		.ascii	"\206<4u\021\324\226uN\303\235\263^\311\230\335\004\263"
ARM GAS  /tmp/ccZjsTj3.s 			page 14


 185      11D49675 
 185      4EC39DB3 
 185      5EC998DD 
 185      04B3
 186 0595 6DF800CE 		.ascii	"m\370\000\316@2_\242L\031\226(\207Z\225\016\261\357"
 186      40325FA2 
 186      4C199628 
 186      875A950E 
 186      B1EF
 187 05a7 737885F2 		.ascii	"sx\205\362\003.@(Q\362$+/P\316\367\341\362f\016\326"
 187      032E4028 
 187      51F2242B 
 187      2F50CEF7 
 187      E1F2660E 
 188 05bc B9B6B5AE 		.ascii	"\271\266\265\2564\322\272\362\214\217t\305\257\372l"
 188      34D2BAF2 
 188      8C8F74C5 
 188      AFFA6C
 189 05cb 3CE7E6A6 		.ascii	"<\347\346\246\206\3722Z\235\325-\217\301\310^\355\323"
 189      86FA325A 
 189      9DD52D8F 
 189      C1C85EED 
 189      D3
 190 05dc A2846D6A 		.ascii	"\242\204mj\224\240\2563P\374f\260\236\273\324\247)\353"
 190      94A0AE33 
 190      50FC66B0 
 190      9EBBD4A7 
 190      29EB
 191 05ee A2D797FA 		.ascii	"\242\327\227\372\315I\310\300t\373\306O\013\360\263"
 191      CD49C8C0 
 191      74FBC64F 
 191      0BF0B3
 192 05fd 92E2674B 		.ascii	"\222\342gK\377\370YO\363\363\206;~\206\367\237\237V"
 192      FFF8594F 
 192      F3F3863B 
 192      7E86F79F 
 192      9F56
 193 060f E06713C5 		.ascii	"\340g\023\305\317;\375\343g\007\305\317\2467\335\361"
 193      CF3BFDE3 
 193      6707C5CF 
 193      A637DDF1 
 194 061f 338AE247 		.ascii	"3\212\342G\016\243nf\026;\205Q\260\002\303\335\314\244"
 194      0EA36E66 
 194      163B8551 
 194      B002C3DD 
 194      CCA4
 195 0631 0731F829 		.ascii	"\0071\370)y\011\363F\256\211\205y\250\246\324\245\334"
 195      7909F346 
 195      AE898579 
 195      A8A6D4A5 
 195      DC
 196 0642 466000D7 		.ascii	"F`\000\327mz\363\333>\207\351z\314f\202\331\335\027"
 196      6D7AF3DB 
 196      3E87E97A 
 196      CC6682D9 
 196      DD17
 197 0654 4FADF384 		.ascii	"O\255\363\204\017@\240B\000\273\266\367w.\341:Z?\002"
ARM GAS  /tmp/ccZjsTj3.s 			page 15


 197      0F40A042 
 197      00BBB6F7 
 197      772EE13A 
 197      5A3F02
 198 0667 3A7388D2 		.ascii	":s\210\322\231VMgj\270>\204\353h4&\014!\2659\265\324"
 198      99564D67 
 198      6AB83E84 
 198      EB683426 
 198      0C21B539 
 199 067d 610C3265 		.ascii	"a\0142eI9\320\320HT\260\373\327}\030\207\373\276\024"
 199      4939D0D0 
 199      4854B0FB 
 199      D77D1887 
 199      FBBE14
 200 0690 7012E6D0 		.ascii	"p\022\346\320g\211`:\227+J\227\001\016\026\325w\246"
 200      6789603A 
 200      972B4A97 
 200      010E16D5 
 200      77A6
 201 06a2 B1F87754 		.ascii	"\261\370wT,\336\276\274\324D\215\331\264\2412\304Vs"
 201      2CDEBEBC 
 201      D4448DD9 
 201      B4A132C4 
 201      5673
 202 06b4 9C82D8B1 		.ascii	"\234\202\330\261\274O\032\222~\320\004\206\330\323h"
 202      BC4F1A92 
 202      7ED00486 
 202      D8D368
 203 06c3 7C43D49D 		.ascii	"|C\324\235\341\310Z\015\307\364\020\311w\324;\331\216"
 203      E1C85A0D 
 203      C7F410C9 
 203      77D43BD9 
 203      8E
 204 06d4 5EF6793A 		.ascii	"^\366y:\331\247(\331?H\313\354A]\030B\313\376\007\220"
 204      D9A728D9 
 204      3F48CBEC 
 204      415D1842 
 204      CBFE0790 
 205 06e8 FDD37E55 		.ascii	"\375\323~U\366]\313\014\262\267\301\301\254\2353\225"
 205      F65DCB0C 
 205      B2B7C1C1 
 205      AC9D3395 
 206 06f8 FD395AF6 		.ascii	"\3759Z\366\313\314d\317Y\312\036\327\355X603\375\020"
 206      CBCC64CF 
 206      59CA1ED7 
 206      ED583630 
 206      33FD10
 207 070b BB986076 		.ascii	"\273\230`v\376\324\015b\236uo\236\243z\363<\352M.\304"
 207      FED40D62 
 207      9E756F9E 
 207      A37AF33C 
 207      EA4D2EC4 
 208 071f 5EE0F0FA 		.ascii	"^\340\360\372\333E\272Ok\374$\346\332\251\365\251^\200"
 208      DB45BA4F 
 208      6BFC24E6 
 208      DAA9F5A9 
 208      5E80
ARM GAS  /tmp/ccZjsTj3.s 			page 16


 209 0731 6A7EB825 		.ascii	"j~\270%3z\177\270\212`v\375\233=3\243\034\305#{\243"
 209      337A7FB8 
 209      8A6076FD 
 209      9B3D33A3 
 209      1CC5237B 
 210 0746 7504B1E3 		.ascii	"u\004\261\343>7\210yi\210n\027\3218f\013\264}\315T\201"
 210      3E378879 
 210      69886E17 
 210      D138660B 
 210      B47DCD54 
 211 075b AE510AF4 		.ascii	"\256Q\012\364\355\337[\2771\233\306\363\224\326\253"
 211      EDDF5BBF 
 211      319BC6F3 
 211      94D6AB
 212 076a 8A7C9860 		.ascii	"\212|\230`\266\277\223k/\364\3144\210c\216\021\310N"
 212      B6BF936B 
 212      2FF4CC34 
 212      88638E11 
 212      C84E
 213 077c A7153557 		.ascii	"\247\0255W\257\321\\.4\316\3471\177\247\211\241v\036"
 213      AFD15C2E 
 213      34CEE731 
 213      7FA789A1 
 213      761E
 214 078e CC561552 		.ascii	"\314V\025R\026\026\245\241\327(\015\355A\032\312\207"
 214      1616A5A1 
 214      D7280DED 
 214      411ACA87 
 215 079e D8EBA0A1 		.ascii	"\330\353\240\241)\036\247s\371\014\326\211\347\361T"
 215      291EA773 
 215      F90CD689 
 215      E7F154
 216 07ad 247C9EC8 		.ascii	"$|\236\310\240\333\235\014\362t=f\335\332U:\356\276"
 216      A0DB9D0C 
 216      F2743D66 
 216      DDDA553A 
 216      EEBE
 217 07bf ECA72656 		.ascii	"\354\247&V\227\034\034\301x\307n\224W\334\346f\221"
 217      971C1CC1 
 217      78C76E94 
 217      57DCE666 
 217      91
 218 07d0 D16DB793 		.ascii	"\321m\267\223\217\035o\2406\035\023\242\211\027\010"
 218      8F1D6FA0 
 218      361D13A2 
 218      891708
 219 07df 64678393 		.ascii	"dg\203\223\277z\320\214LG\261\310>\214Z\277\371s\226"
 219      BF7AD08C 
 219      4C47B1C8 
 219      3E8C5ABF 
 219      F97396
 220 07f2 BABCBBAA 		.ascii	"\272\274\273\252\241\307\225\2134\343B\366\001+\011"
 220      A1C7958B 
 220      34E342F6 
 220      012B09
 221 0801 6653AD93 		.ascii	"fS\255\223d\2344\334uP\264\210\307$\254\317\322\202"
 221      649C34DC 
ARM GAS  /tmp/ccZjsTj3.s 			page 17


 221      7550B488 
 221      C724ACCF 
 221      D282
 222 0813 A203FD0E 		.ascii	"\242\003\375\016\212\336\246\204\264d\217C,c\247\257"
 222      8ADEA684 
 222      B4648F43 
 222      2C63A7AF 
 223 0823 BAB69FA2 		.ascii	"\272\266\237\242\214\352idT\236\020\273\020\214\352"
 223      8CEA6964 
 223      549E10BB 
 223      108CEA
 224 0832 59485F04 		.ascii	"YH_\004\323\252\316\304\264\236\244\225\375\335,\365"
 224      D3AACEC4 
 224      B49EA495 
 224      FDDD2CF5 
 225 0842 3D46CBD2 		.ascii	"=F\313\322\001\0138\264\327\"!\266\227\205\200#E\017"
 225      010B38B4 
 225      D72221B6 
 225      97858023 
 225      450F
 226 0854 4ECD59EA 		.ascii	"N\315Y\352{\237\372+\357\272\332.\243S#\230;\371\231"
 226      7B9FFA2B 
 226      EFBADA2E 
 226      A3532398 
 226      3BF999
 227 0867 0530777A 		.ascii	"\0050wzjn\206s\247Z\336\217W\"I\227w\376\243\214\231"
 227      6A6E8673 
 227      A75ADE8F 
 227      57224997 
 227      77FEA38C 
 228 087c 1110E66E 		.ascii	"\021\020\346n9\002H\0372\360S2mY\376'\023\271\300\253"
 228      3902481F 
 228      32F05332 
 228      6D59FE27 
 228      13B9C0AB 
 229 0890 3D148167 		.ascii	"=\024\201g\311^\326\003\314q\312\323c\324SV+|\232z\314"
 229      C95ED603 
 229      CC71CAD3 
 229      63D45356 
 229      2B7C9A7A 
 230 08a5 A982489F 		.ascii	"\251\202H\237\300\351\244\257\321\027bW\360x9\343\025"
 230      C0E9A4AF 
 230      D1176257 
 230      F07839E3 
 230      15
 231 08b6 9EB79CF9 		.ascii	"\236\267\234\371] }\321\375j\2569\323\316\326\247\213"
 231      5D207DD1 
 231      FD6AAE39 
 231      D3CED6A7 
 231      8B
 232 08c7 FDECD6AF 		.ascii	"\375\354\326\257u+\3110\244\\&\035Q\337\266\371\342"
 232      752BC930 
 232      A45C261D 
 232      51DFB6F9 
 232      E2
 233 08d8 5EAF8CEA 		.ascii	"^\257\214\352\022j\035@\255\017\250P\330\223d\014\304"
 233      126A1D40 
ARM GAS  /tmp/ccZjsTj3.s 			page 18


 233      AD0FA850 
 233      D893640C 
 233      C4
 234 08e9 315BA1E2 		.ascii	"1[\241\342\353\274\351\236@^\013\005\272\226Zo]\324"
 234      EBBCE99E 
 234      405E0B05 
 234      BA965A6F 
 234      5DD4
 235 08fb 0702BB09 		.ascii	"\007\002\273\011b\367R\247\360K\257\341\264XUG)\357"
 235      62F752A7 
 235      F04BAFE1 
 235      B4585547 
 235      29EF
 236 090d 0F6C2698 		.ascii	"\017l&\230M\016\261\244\363\2424~\367\3141\255\004\261"
 236      4D0EB1A4 
 236      F3A2347E 
 236      F7CC31AD 
 236      04B1
 237 091f C531E275 		.ascii	"\3051\342u^@\2241\277$\230m\016T:/\037\312\210G\011"
 237      5E409431 
 237      BF24986D 
 237      0E543A2F 
 237      1FCA8847 
 238 0934 62872B44 		.ascii	"b\207+Dk\032\277#\210NQy\177\366\006X\276N\301\352\264"
 238      6B1ABF23 
 238      884E5179 
 238      7FF60658 
 238      BE4EC1EA 
 239 0949 8BD76D0D 		.ascii	"\213\327m\0150\274\211\301\372l]\267A\213\215\234\367"
 239      30BC89C1 
 239      FA6C5DB7 
 239      418B8D9C 
 239      F7
 240 095a 32D166B2 		.ascii	"2\321f\262\223\307\334\237#f\322^\253\276\2346\264\217"
 240      93C7DC9F 
 240      2366D25E 
 240      ABBE9C36 
 240      B48F
 241 096c A9B36EFF 		.ascii	"\251\263n\377=^\027\026PG\332o\034s\225\310\272k\231"
 241      3D5E1716 
 241      5047DA6F 
 241      1C7395C8 
 241      BA6B99
 242 097f D3F0EEBC 		.ascii	"\323\360\356\274d\017\201\317\274A\304\270\034\3256"
 242      640F81CF 
 242      BC41C4B8 
 242      1CD536
 243 098e CFAC03D3 		.ascii	"\317\254\003\323\017\332\372C\354F\3445\263B\354\033"
 243      0FDAFA43 
 243      EC46E435 
 243      B342EC1B 
 244 099e 30A6BE05 		.ascii	"0\246\276\005\351fH\267B\3726\244\333!\255\207\364\003"
 244      E96648B7 
 244      42FA36A4 
 244      DB21AD87 
 244      F403
 245 09b0 6DDCFD51 		.ascii	"m\334\375Q@9\346\331AfC\246\301\2239\333j\237\034u3"
ARM GAS  /tmp/ccZjsTj3.s 			page 19


 245      4039E6D9 
 245      416643A6 
 245      C19339DB 
 245      6A9F1C75 
 246 09c5 78D74583 		.ascii	"x\327E\2034G\275\377\252\352\250e]\375\221\230\256s"
 246      3447BDFF 
 246      AAEAA865 
 246      5DFD9198 
 246      AE73
 247 09d7 C3B4F59C 		.ascii	"\303\264\365\234\023\3631\324w#S\015L\327\032\266\277"
 247      13F331D4 
 247      7723530D 
 247      4CD71AB6 
 247      BF
 248 09e8 1A263D98 		.ascii	"\032&=\230\203\026\376F\310\351\266\202B\021k\243\370"
 248      8316FE46 
 248      C8E9B682 
 248      42116BA3 
 248      F8
 249 09f9 44D9D7A6 		.ascii	"D\331\327\246yu57\230\360\263\226\360c\325\272\232\177"
 249      79753537 
 249      98F0B396 
 249      F063D5BA 
 249      9A7F
 250 0a0b DCB60787 		.ascii	"\334\266\007\207\372d\0329fC\306\210\177\264D\264\231"
 250      FA641A39 
 250      6643C688 
 250      7FB444B4 
 250      99
 251 0a1c 1CD2DBFD 		.ascii	"\034\322\333\375\216j\270\267\033\024\344\000(\310F"
 251      8E6AB8B7 
 251      1B14E400 
 251      28C846
 252 0a2b A220674F 		.ascii	"\242 gO\355\277p\253\334B\006H\260\024l:\366\036\244"
 252      EDBF70AB 
 252      DC420648 
 252      B0146C3A 
 252      F61EA4
 253 0a3e C6DEB6FA 		.ascii	"\306\336\266\372\2239&6\226\213Y\230?/5/5\\\216\376"
 253      93392636 
 253      968B5998 
 253      3F2F352F 
 253      355C8EFE 
 254 0a52 E739EC53 		.ascii	"\3479\354SD\323\016\330\204\356\274\217\020\005e\300"
 254      44D30ED8 
 254      84EEBC8F 
 254      100565C0 
 255 0a62 11A6A2A3 		.ascii	"\021\246\242\243\376\344-\346x\031\214\342@\234\272"
 255      FEE42DE6 
 255      78198CE2 
 255      409CBA
 256 0a71 2BB28360 		.ascii	"+\262\203`v\326\237\314u\2039D\303T\030\016\261\207"
 256      76D69FCC 
 256      75833944 
 256      C354180E 
 256      B187
 257 0a83 61FE7296 		.ascii	"a\376r\226`v\271\2443\317\222\316\363\004\263\333%\235"
ARM GAS  /tmp/ccZjsTj3.s 			page 20


 257      6076B9A4 
 257      33CF92CE 
 257      F304B3DB 
 257      259D
 258 0a95 A32CE9BC 		.ascii	"\243,\351\274F0\233v:\321i\023\303\350\350\354%\230"
 258      46309B76 
 258      3AD16913 
 258      C3E8E8EC 
 258      2598
 259 0aa7 2D3B9DE8 		.ascii	"-;\235\350\324cZ\313\363\231l\025\263\315%\235\326\362"
 259      D4635ACB 
 259      F3996C15 
 259      B3CD259D 
 259      D6F2
 260 0ab9 7C8160B6 		.ascii	"|\201`\266\273\244\323Z\2365\004\263\303\221N\233hK"
 260      BBA4D35A 
 260      9E3504B3 
 260      C3914E9B 
 260      684B
 261 0acb 47E77282 		.ascii	"G\347r\202\331\351H\247\036\323Z\236k\010f\227K:\255"
 261      D9E948A7 
 261      1ED35A9E 
 261      6B086697 
 261      4B3AAD
 262 0ade E5B99E60 		.ascii	"\345\271\236`v\273\244\323Z\236[\010f\323.':m\"C\035"
 262      76BBA4D3 
 262      5A9E5B08 
 262      66D32E27 
 262      3A6D2243 
 263 0af3 9DDB0966 		.ascii	"\235\333\011f\313.':\365\230C\030\213\203v\227!\366"
 263      CB2E273A 
 263      F5984318 
 263      8B837697 
 263      21F6
 264 0b05 101A62D1 		.ascii	"\020\032b\321\340\364\2770|~\005\351\327\220\036\201"
 264      E0F4BF30 
 264      7C7E05E9 
 264      D7901E81 
 265 0b15 F418A427 		.ascii	"\364\030\244' =\011\351)HOC\372=\244?@\3727H\317Cz1"
 265      203D09E9 
 265      29484F43 
 265      FA3DA43F 
 265      40FA3748 
 266 0b2d 938584FD 		.ascii	"\223\205\204\375\364\032\335\373\331\231\317\351\023"
 266      F41ADDFB 
 266      D999CFE9 
 266      13
 267 0b3a 667D6CC6 		.ascii	"f}l\306\347\032j!\3415\026B\211\265,\246\357\012\244"
 267      E71A6A21 
 267      E1351642 
 267      89B52CA6 
 267      EF0AA4
 268 0b4d 3540EB6A 		.ascii	"5@\353jH\367@\3721\244\237A\332\232\011\017u\332~T\335"
 268      48F740FA 
 268      31A49F41 
 268      DA9A090F 
 268      75DA7E54 
ARM GAS  /tmp/ccZjsTj3.s 			page 21


 269 0b62 08A8460B 		.ascii	"\010\250F\013\013O\250\033\007\032\027\244\026\262O"
 269      0B4FA81B 
 269      071A17A4 
 269      16B24F
 270 0b71 6EBA5D43 		.ascii	"n\272]C\323O\347\350\001\3612\250\323\336lu@l\330z\304"
 270      D34FE7E8 
 270      01F132A8 
 270      D3DE6C75 
 270      406CD87A 
 271 0b86 B099DE0D 		.ascii	"\260\231\336\015\3325@;@\3206\324\234o\276O\025Q@\027"
 271      DA35403B 
 271      40D036D4 
 271      9C6FBE4F 
 271      15514017 
 272 0b9a D6C23D3D 		.ascii	"\326\302==\256\005\310\270\026\010\310kT\362\327!L\037"
 272      AE05C8B8 
 272      1608C86B 
 272      54F2D721 
 272      4C1F
 273 0bac 6BA9D436 		.ascii	"k\251\3246\336B\310\335\313) \177\357C\330t\3352l\032"
 273      DE42C8DD 
 273      CB29207F 
 273      EF43D874 
 273      DD326C1A 
 274 0bc0 EED87797 		.ascii	"\356\330w\227x\363\276\263\370d\360\217\004 G'`\263"
 274      78F3BEB3 
 274      F864F08F 
 274      04204727 
 274      60B3
 275 0bd2 68585F36 		.ascii	"hX_6\304>\351\271\323t)A_\016\026\256=f\221\014~\252"
 275      C43EE9B9 
 275      D3742941 
 275      5F0E16AE 
 275      3D66910C 
 276 0be8 4632177A 		.ascii	"F2\027z.|\277\324l\373\251~C\255\274\273rq\016\253\200"
 276      2E7CBFD4 
 276      6CFBA97E 
 276      43ADBCBB 
 276      72710EAB 
 277 0bfd B6EF745A 		.ascii	"\266\357tZ\213\326\313K9L\\R-\301l\"o]\372\027,\254"
 277      8BD6CB4B 
 277      394C5C52 
 277      2DC16C22 
 277      6F5DFA17 
 278 0c13 20881DAE 		.ascii	" \210\035\256\020GY\"\326i4\336\337\207@\201(\266\354"
 278      10475922 
 278      D66934DE 
 278      DF874081 
 278      28B6EC
 279 0c26 3BE67B60 		.ascii	";\346{`\301\364)\017\366\013OC\372\014\244\317y\250"
 279      C1F4290F 
 279      F60B4F43 
 279      FA0CA4CF 
 279      79A8
 280 0c38 E9C6EA1C 		.ascii	"\351\306\352\034\325\302Zv\347\252\000r\317Q\210Z\007"
 280      D5C25A76 
 280      E7AA0072 
ARM GAS  /tmp/ccZjsTj3.s 			page 22


 280      CF51885A 
 280      07
 281 0c49 338E98D6 		.ascii	"3\216\230\326\272\333\253\351\3560\346/\251\306+\270"
 281      BADBABE9 
 281      EE30E62F 
 281      A9C62BB8 
 282 0c59 D72FF7F6 		.ascii	"\327/\367\366\372\345o\2268f\023!\346\333\346-\237*"
 282      FAE56F96 
 282      38661321 
 282      E6DBE62D 
 282      9F2A
 283 0c6b 2FA07EC9 		.ascii	"/\240~\311\3745\225Z\214\213*S\341\367\240\324\213\236"
 283      FC35955A 
 283      8C8B2A53 
 283      E1F7A0D4 
 283      8B9E
 284 0c7d 61966DC9 		.ascii	"a\226m\311\2332\377\231Y\203\247\016\037\314\235(\277"
 284      9B32FF99 
 284      5983A70E 
 284      1FCC9D28 
 284      BF
 285 0c8e CC631C6A 		.ascii	"\314c\034j\3115_\362\350\2768\306\204\326\035S\0115"
 285      C9355FF2 
 285      E8BE38C6 
 285      84D61D53 
 285      0935
 286 0ca0 AC7678EC 		.ascii	"\254vx\354\254\374e\317mJ\256\230|\0074\225S\205\275"
 286      ACFC65CF 
 286      6D4AAE98 
 286      7C073495 
 286      5385BD
 287 0cb3 8D78239A 		.ascii	"\215x#\232L\217L\345\022G*\247\246\021y\264\272z^\235"
 287      4C8F4CE5 
 287      12472AA7 
 287      A61179B4 
 287      BA7A5E9D 
 288 0cc7 1991B64B 		.ascii	"\031\221\266K25\036\303\327\032\370\023\014z\201\205"
 288      32351EC3 
 288      D71AF813 
 288      0C7A8185 
 289 0cd7 633E249D 		.ascii	"c>$\235\262\352\223-\275\317\350\2148\304.M\027\227"
 289      B2EA932D 
 289      BDCFE88C 
 289      38C42E4D 
 289      1797
 290 0ce9 4689DAAF 		.ascii	"F\211\332\257]\004\342\372g\007\316\324\032 \226\333"
 290      5D04E2FA 
 290      6707CED4 
 290      1A2096DB 
 291 0cf9 411898C1 		.ascii	"A\030\230\301og\254\271y\305\310\015R\003\257\325\307"
 291      6F67ACB9 
 291      79C5C80D 
 291      5203AFD5 
 291      C7
 292 0d0a 262F73D4 		.ascii	"&/s\324\255a-\010\223m\336\014=F\255\362`u\254\275A"
 292      AD612D08 
 292      936DDE0C 
ARM GAS  /tmp/ccZjsTj3.s 			page 23


 292      3D46ADF2 
 292      6075ACBD 
 293 0d1f 93CF924B 		.ascii	"\223\317\222K\265d\215\240\2255l\0146|]\247'S\367\331"
 293      B5648DA0 
 293      95356C0C 
 293      367C5DA7 
 293      2753F7D9 
 294 0d33 0B720504 		.ascii	"\013r\005\004\264\251a\246\036\3465\027\342\262\355"
 294      B4A961A6 
 294      1EE63517 
 294      E2B2ED
 295 0d42 FB754669 		.ascii	"\373uFi\341\270@\373\364J\266V\035U\233\011U\365\037"
 295      E1B840FB 
 295      F44AB656 
 295      1D559B09 
 295      55F51F
 296 0d55 2DFF5037 		.ascii	"-\377P7\236\206\330\327\007\212\256\215i\206\3031\365"
 296      9E86D8D7 
 296      078AAE8D 
 296      6986C331 
 296      F5
 297 0d66 A4E5CDED 		.ascii	"\244\345\315\355\007.\032Z~\303^\0071\036\232\203\022"
 297      072E1A5A 
 297      7EC35E07 
 297      311E9A83 
 297      12
 298 0d77 840BDF1C 		.ascii	"\204\013\337\0340\210\364-=\300/\230\225\030 U71u\264"
 298      3088F42D 
 298      3DC02F98 
 298      95182055 
 298      373175B4 
 299 0d8b B77798FA 		.ascii	"\267w\230\372\217\003\236\313%\010=\3737|I6r\033\376"
 299      8F039ECB 
 299      25083DFB 
 299      377C4936 
 299      721BFE
 300 0d9e 2B0006DC 		.ascii	"+\000\006\334\254\001b\260\306\317\221\306,\344S\251"
 300      AC0162B0 
 300      C6CF91C6 
 300      2CE453A9 
 301 0dae 6E34C996 		.ascii	"n4\311\226c\006\216y)WsvK>\035j\027dl\325\303Q\264\231"
 301      63068E79 
 301      29577376 
 301      4B3E1D6A 
 301      17646CD5 
 302 0dc6 8DCF47B5 		.ascii	"\215\317G\265\265\242\273\031\275\306\276\355\301\214"
 302      B5A2BB19 
 302      BDC6BEED 
 302      C18C
 303 0dd4 2C252D5F 		.ascii	",%-_o\336t\361_e\340\014\220\320\244\006j\3560\035\356"
 303      6FDE74F1 
 303      5F65E00C 
 303      90D0A406 
 303      6AEE301D 
 304 0de9 7750C37D 		.ascii	"wP\303}\327\247\246_\000\361\016\353q6\313-\273\201"
 304      D7A7A65F 
 304      00F10EEB 
ARM GAS  /tmp/ccZjsTj3.s 			page 24


 304      7136CB2D 
 304      BB81
 305 0dfb F23709E5 		.ascii	"\3627\011\345-\177\311\265\241;}\261\245\321\224\346"
 305      2D7FC9B5 
 305      A13B7DB1 
 305      A5D194E6 
 306 0e0b 468AE68E 		.ascii	"F\212\346\216\025f\233f|&/:v\001\025\270n\347\212\376"
 306      15669B66 
 306      7C262F3A 
 306      760115B8 
 306      6EE78AFE 
 307 0e1f BFE890DF 		.ascii	"\277\350\220\337\2257\021\314\256>\1778\254\356\\Y\001"
 307      953711CC 
 307      AE3E7F38 
 307      ACEE5C59 
 307      01
 308 0e30 547E4C10 		.ascii	"T~L\020\233~\346\0061\317\204Fy[F+Al\177e\240\366I\037"
 308      9B7EE606 
 308      31CF8446 
 308      795B462B 
 308      416C7F65 
 309 0e48 26981D0E 		.ascii	"&\230\035\016T:\277\350P6\217\020\304n\007D\323\351"
 309      543ABFE8 
 309      50368F10 
 309      C46E0744 
 309      D3E9
 310 0e5a 6CFA412B 		.ascii	"l\372A+O\210}\017\205U\250\255\367!\354i\202t\017\244"
 310      4F887D0F 
 310      8555A8AD 
 310      F721EC69 
 310      82740FA4 
 311 0e6e 7B21DD07 		.ascii	"{!\335\007i\013\035b}O\214\246\3553M]\014:\352\254/"
 311      690B1D62 
 311      7D4F8CA6 
 311      ED334D5D 
 311      0C3AEAAC 
 312 0e83 D6666315 		.ascii	"\326fc\025\344\207\330\317\301j\316\023\253\351\376"
 312      E487D8CF 
 312      C16ACE13 
 312      ABE9FE
 313 0e92 C4C66AD2 		.ascii	"\304\306j\322\343\372\003\246Fs\2002\232\356\217\315"
 313      E3FA03A6 
 313      46738032 
 313      9AEE8FCD 
 314 0ea2 8C860EEA 		.ascii	"\214\206\016\352\235\277\366\321\004q\213\201\374C@"
 314      9DBFF6D1 
 314      04718B81 
 314      FC4340
 315 0eb1 FED383C9 		.ascii	"\376\323\203\311X\370\321U\273W\234z \216\251\201\212"
 315      58F8D155 
 315      BB579C7A 
 315      208EA981 
 315      8A
 316 0ec2 5F9A32F1 		.ascii	"_\2322\361%\315\304Gf\2578\275:\335:\010c\375\032\202"
 316      25CDC447 
 316      66AF38BD 
 316      3ADD3A08 
ARM GAS  /tmp/ccZjsTj3.s 			page 25


 316      63FD1A82 
 317 0ed6 D8B4AFFF 		.ascii	"\330\264\257\377\333\345d\314\215\004\263\305\341[\014"
 317      DBE564CC 
 317      8D04B3C5 
 317      E15B0C
 318 0ee5 3DA2CE02 		.ascii	"=\242\316\002\224y\204\374A\3736\202\330\266OS8\327"
 318      947984FC 
 318      41FB3682 
 318      D8B64F53 
 318      38D7
 319 0ef7 4B8EFD7B 		.ascii	"K\216\375{\331w\322$\026s\367\346\256\003\304\323@z"
 319      D977D224 
 319      1673F7E6 
 319      AE03C4D3 
 319      407A
 320 0f09 BF7DAFC5 		.ascii	"\277}\257\305\233;\334\2245!\247=\326o\356\014\277q"
 320      9B3BDC94 
 320      3521A73D 
 320      D66FEE0C 
 320      BF71
 321 0f1b 4C33115D 		.ascii	"L3\021]\373>w\033st\335A\277\271\373\214@v:\352\214"
 321      FB3E771B 
 321      7374DD41 
 321      BFB9FB8C 
 321      40763AEA 
 322 0f30 A9D74C3F 		.ascii	"\251\327L?h\245\016\261\355\310#yC\354\327\340y\216"
 322      68A50EB1 
 322      EDC82379 
 322      43ECD7E0 
 322      798E
 323 0f42 407A0CD2 		.ascii	"@z\014\322\023\220~\237\311\324\014\253\"\001\377\306"
 323      13907E9F 
 323      C9D40CAB 
 323      2201FFC6 
 324 0f52 C329C6DF 		.ascii	"\303)\306\3374y t<\304\036%\210m\256\020uB\245t<\304"
 324      34792074 
 324      3CC41E25 
 324      886DAE10 
 324      7542A574 
 325 0f68 1E27881D 		.ascii	"\036'\210\035-\375\320q\235\335\034\204\236\002\314"
 325      2DFDD071 
 325      9DDD1C84 
 325      9E02CC
 326 0f77 296E106D 		.ascii	")n\020m\026-\017P\375\324&O\310\277\200^\371\001\322"
 326      162D0F50 
 326      FDD4264F 
 326      C8BF805E 
 326      F901D2
 327 0f8a B390FE8D 		.ascii	"\263\220\376\215\036-\216\017VG\213\256\307\314=\263"
 327      1E2D8E0F 
 327      56478BAE 
 327      C7CC3DB3 
 328 0f9a F9F095AE 		.ascii	"\371\360\225\256\177\256"
 328      7FAE
 329 0fa0 37865DF4 		.ascii	"7\206]\364`)\234&\006w|\355+\375\336\030v\236\260s\275"
 329      60299C26 
 329      06777CED 
ARM GAS  /tmp/ccZjsTj3.s 			page 26


 329      2BFDDE18 
 329      769EB073 
 330 0fb5 F9FCF165 		.ascii	"\371\374\361e\016\273\345Mw\345\232\311u\007%\327\235"
 330      0EBBE54D 
 330      77E59AC9 
 330      750725D7 
 330      9D
 331 0fc6 1ED86EB9 		.ascii	"\036\330n\271\013d\371\031\244\027h\211\316\037B\202"
 331      0B64F919 
 331      A4176889 
 331      CE1F4282 
 332 0fd6 C6D39BB5 		.ascii	"\306\323\233\265\361W\037\333\302Z\236\026f\233\255"
 332      F1571FDB 
 332      C25A9E16 
 332      669BAD
 333 0fe5 8BD63D88 		.ascii	"\213\326=\210_\243\342/\232\314C>\014q\305\343~9\360"
 333      5FA3E22F 
 333      9ACC433E 
 333      0C71C5E3 
 333      7E39F0
 334 0ff8 AABC2B8A 		.ascii	"\252\274+\2122\0015\247"
 334      320135A7 
 335 1000 FE171CEB 		.ascii	"\376\027\034\353\272\227=\346\313\201r\250o]\357\232"
 335      BA973DE6 
 335      CB8172A8 
 335      6F5DEF9A 
 336 1010 564F7983 		.ascii	"VOy\203h\257&!\266\026>\022\313\244\323]F\366=\362 "
 336      68AF2621 
 336      B6163E12 
 336      CBA4D35D 
 336      46F63DF2 
 337 1025 4F3AE9EC 		.ascii	"O:\351\354\251\375W_R8\3170\270Oy\315\206x\374\224\354"
 337      A9FD575F 
 337      5238CF30 
 337      B84F79CD 
 337      8678FC94 
 338 103a 4EEB3961 		.ascii	"N\3539a\366&\325/\277\020Q|U7\350\377\313@\011\256\334"
 338      F626D52F 
 338      BF10517C 
 338      5537E8FF 
 338      CB4009AE 
 339 104f DE73E216 		.ascii	"\336s\342\026{}\325w\217r\230`\326\022\314\216\036\276"
 339      7B7DD577 
 339      8F729860 
 339      D612CC8E 
 339      1EBE
 340 1061 8F0ED000 		.ascii	"\217\016\320\000\271\202@v:AZ\372?\003d\035\201\354"
 340      B9824076 
 340      3A415AFA 
 340      3F03641D 
 340      81EC
 341 1073 7207694D 		.ascii	"r\007iM\345j\002\331\355\004i9c\320A\"\317\317s\012"
 341      E56A02D9 
 341      ED046939 
 341      63D04122 
 341      CFCF730A 
 342 1087 64D37557 		.ascii	"d\323uW\220\326T\256'T\2668Af<g\320t2\304>\351\275\223"
ARM GAS  /tmp/ccZjsTj3.s 			page 27


 342      90D654AE 
 342      2754B638 
 342      41663C67 
 342      D07432C4 
 343 109f F187D8B9 		.ascii	"\361\207\330\271^\354\233\346C\272\000\322\205\220>"
 343      5EEC9BE6 
 343      43BA00D2 
 343      85903E
 344 10ae 0BE9F390 		.ascii	"\013\351\363\220\276\340%\236\313`\320=\266\006\375"
 344      BEE0259E 
 344      CB60D03D 
 344      B606FD
 345 10bd 925717C9 		.ascii	"\222W\027\311\030\352\326\330FH\325^+'\262\321\266\336"
 345      18EAD6D8 
 345      4648D55E 
 345      2B27B2D1 
 345      B6DE
 346 10cf 22CB7AEB 		.ascii	"\"\313z\353l\353-\266\254\367\212m\275%Z=&\247H\020"
 346      6CEB2DB6 
 346      ACF78A6D 
 346      BD255A3D 
 346      26A74810 
 347 10e3 6391F202 		.ascii	"c\221\362\00216S\020}\217<:5o\002s\307\310\221A\371"
 347      31365310 
 347      7D8F3C3A 
 347      356F0273 
 347      C7C89141 
 348 10f8 2F9E0C96 		.ascii	"/\236\014\226E\312\203\261\312hyU\211\020LB\331\221"
 348      45CA83B1 
 348      CA687955 
 348      89104C42 
 348      D991
 349 110a 65CC60BA 		.ascii	"e\314`\272\326\357\246\024\373\222\261?\011a\351\017"
 349      D6EFA614 
 349      FB92B13F 
 349      0961E90F 
 350 111a C178420A 		.ascii	"\301xB\012>T8%8=\032\035\021\021+FT\306+\205\021BdZ"
 350      3E543825 
 350      383D1A1D 
 350      11112B46 
 350      54C62B85 
 351 1132 6CC4D8F0 		.ascii	"l\304\330\360\275#F\217\312\0373cLpZ\254\022\203\227"
 351      BD23468F 
 351      CA1F3363 
 351      4C705AAC 
 351      128397
 352 1145 C7A6E172 		.ascii	"\307\246\341rA]\271\340\330\221\367\216\034\253\265"
 352      415DB9E0 
 352      D891F78E 
 352      1CABB5
 353 1154 28959408 		.ascii	"(\225\224\010\245\250E\177U\254R\032\037\226\244\001"
 353      A5A8457F 
 353      55AC521A 
 353      1F96A401 
 354 1164 6B823089 		.ascii	"k\2020\211\376\364\277S\215\243FQ\343\336YbL\022<\242"
 354      FEF4BF53 
 354      8DA34651 
ARM GAS  /tmp/ccZjsTj3.s 			page 28


 354      E3DE5962 
 354      4C123CA2 
 355 1178 1029F156 		.ascii	"\020)\361V$\247\207\245\261\264\204D)\230\210\213R\022"
 355      24A787A5 
 355      B1B48444 
 355      2998888B 
 355      5212
 356 118a 533561CA 		.ascii	"S5a\312\354`4^\221\210\225\013b2\370\310\204\011\301"
 356      EC60345E 
 356      9188950B 
 356      6232F8C8 
 356      8409C1
 357 119d 68993427 		.ascii	"h\2314'!$1\013\010l\314\350\260\304'\252$~\272 \005"
 357      2124310B 
 357      086CCCE8 
 357      B0C427AA 
 357      247EBA20 
 358 11b2 92739252 		.ascii	"\222s\222R\254\002\311\355N[\270\262h\\\024P\375,,\202"
 358      AC02C9ED 
 358      4E5BB8B2 
 358      685C1450 
 358      FD2C2C82 
 359 11c6 FC7161C9 		.ascii	"\374qa\311\203\000$\017B\220|@\230\344\305\224I\374"
 359      8300240F 
 359      42907C40 
 359      98E4C594 
 359      49FC
 360 11d8 CC0A2957 		.ascii	"\314\012)W\230)TJ\341d\274J\214\"\340_\030\200U\316"
 360      9829544A 
 360      E164BC4A 
 360      8C22E05F 
 360      188055CE 
 361 11ec A265500E 		.ascii	"\242eP\016S\225C\327\030\"\337\224\307\222\222P)\210"
 361      539543D7 
 361      1822DF94 
 361      C7929250 
 361      2988
 362 11fe 61154F7D 		.ascii	"a\025O}\340\027\312\303\225\302l\311'\225\341&\363,"
 362      E017CAC3 
 362      95C26CC9 
 362      2795E126 
 362      F32C
 363 1210 E193D1B2 		.ascii	"\341\223\321\262\022\004\356K\310\305\023\341\204(\314"
 363      1204EE4B 
 363      C8C513E1 
 363      8428CC
 364 121f F44B0931 		.ascii	"\364K\0111\026\017K\300\010\226\004<\217\305\375\321"
 364      160F4BC0 
 364      0896043C 
 364      8FC5FDD1 
 365 122f 78A5848A 		.ascii	"x\245\204\212ec\276\303\350\267\2504\373W\316\"\011"
 365      6563BEC3 
 365      E8B7A834 
 365      FB57CE22 
 365      09
 366 1240 CFBCB702 		.ascii	"\317\274\267\002\213E\024\246\243\376\013K\2348\226"
 366      8B4514A6 
ARM GAS  /tmp/ccZjsTj3.s 			page 29


 366      A3FE0B4B 
 366      9C3896
 367 124f 13EFE1C4 		.ascii	"\023\357\341\304q\234x/'\216\347\304_\363b\376(t\346"
 367      719C782F 
 367      278EE7C4 
 367      5FF362FE 
 367      2874E6
 368 1262 73E522BA 		.ascii	"s\345\"\272\214\361&\302\010\331\217i\232\205xI\204"
 368      8CF126C2 
 368      08D98F69 
 368      9A857849 
 368      84
 369 1273 E3E52582 		.ascii	"\343\345%\202\350\211\226EDLh\244B\310\222\222RDB\202"
 369      E8899645 
 369      444C68A4 
 369      42C89292 
 369      52444282 
 370 1287 433F42CE 		.ascii	"C?B\316/U\304K\344\373\322\362\310\364\244_\022\205"
 370      2F55C44B 
 370      E4FBD2F2 
 370      C8F4A45F 
 370      1285
 371 1299 D224508E 		.ascii	"\322$P\2163>\261d\016R\210,avL\212\242\202\276YR|\332"
 371      333EB164 
 371      0E52882C 
 371      61764C8A 
 371      A282BE59 
 372 12b0 7F26B241 		.ascii	"\177&\262Aj\025\221\344\023\250\2440\013g\370D\270*"
 372      6A1591E4 
 372      13A8A430 
 372      0B67F844 
 372      B82A
 373 12c2 57965A12 		.ascii	"W\226Z\022\304\031\226\002\211\360\254HL\212UN\037\254"
 373      C4199602 
 373      89F0AC48 
 373      4C8A554E 
 373      1FAC
 374 12d4 FE30A34A 		.ascii	"\3760\243J\250B\255\015J\204\021*\334x!\213\036\010"
 374      A842AD0D 
 374      4A84112A 
 374      DC78218B 
 374      1E08
 375 12e6 09A112A9 		.ascii	"\011\241\022\251\343toE\025\222\3250K\311WH\263\261"
 375      E3746F45 
 375      1592D530 
 375      4BC95748 
 375      B3B1
 376 12f8 AE55C858 		.ascii	"\256U\310X\350\032\237\205;\016j!j*\240CP\323\250\034"
 376      E81A9F85 
 376      3B0E6A21 
 376      6A2AA043 
 376      50D3A81C 
 377 130c 26631066 		.ascii	"&c\020f$R\016\335\200\036&\342\361\362l\324\311t\207"
 377      24520EDD 
 377      801E26E2 
 377      F1F26CD4 
 377      C97487
ARM GAS  /tmp/ccZjsTj3.s 			page 30


 378 131f 63F2652D 		.ascii	"c\362e-\001\021\240\376C\017ei\010I\200\363\302\257"
 378      0111A0FE 
 378      430F6569 
 378      084980F3 
 378      C2AF
 379 1331 81648922 		.ascii	"\201d\211\"\275@QAx\352\243\223\036\235T\354G\271\242"
 379      BD405141 
 379      78EAA393 
 379      1E9D54EC 
 379      47B9A2
 380 1344 E2C71ECF 		.ascii	"\342\307\036\317B\327\302\207\037*\370\275\027\212\334"
 380      42D7C287 
 380      1F2AF8BD 
 380      178ADC
 381 1353 10AB443A 		.ascii	"\020\253D:\254\262k\255\245P\000k\351 \2447J\351,5\033"
 381      ACB26BAD 
 381      A550006B 
 381      E920A437 
 381      4AE92C35 
 382 1368 98A1CA0F 		.ascii	"\230\241\312\017\345\242\361*\244Cb\326\214\360\264"
 382      E5A2F12A 
 382      A44362D6 
 382      8CF0B4
 383 1377 AAD25241 		.ascii	"\252\322RA\364\316\010K\361\204\037\025\021\023\222"
 383      F4CE084B 
 383      F1841F15 
 383      111392
 384 1386 88AE6209 		.ascii	"\210\256b\011\272\006fT\306\245X\351\034\2042#,g}3\020"
 384      BA066654 
 384      C6A558E9 
 384      1C843223 
 384      2C677D33 
 385 139b B3954FF8 		.ascii	"\263\225O\370b\200\231\033\257\222(\312|q\310p\261i"
 385      6280991B 
 385      AF9228CA 
 385      7C71C870 
 385      B169
 386 13ad 5C7CDA0D 		.ascii	"\\|\332\015S\213\036*,\016\027#s.\020Ju6\213d\020\234"
 386      538B1E2A 
 386      2C0E1723 
 386      732E104A 
 386      75368B64 
 387 13c3 30A56852 		.ascii	"0\245hRQ\260\250\030\271\215\2121\243K\363G\341~\340"
 387      51B0A818 
 387      B98D8A31 
 387      A34BF347 
 387      E17EE0
 388 13d6 8A0A0385 		.ascii	"\212\012\003\205\017\027=\\\370\273\207\013Fq\005\332"
 388      0F173D5C 
 388      F8BB870B 
 388      467105DA 
 389 13e6 4D3EFF9B 		.ascii	"M>\377\233B\355n4?\2410\237\334\215Aw\243\311\335Xt"
 389      42ED6E34 
 389      3FA1309F 
 389      DC8D4177 
 389      A3C9DD58 
 390 13fb 3786DCDD 		.ascii	"7\206\334\335\343y\244\370q\255\3428oU2\"J\203\222\322"
ARM GAS  /tmp/ccZjsTj3.s 			page 31


 390      E379A4F8 
 390      71ADE238 
 390      6F553222 
 390      4A8392D2 
 391 140f 1391F2D8 		.ascii	"\023\221\362\330\364J\305\270\306\215\015K\367\030\275"
 391      F44AC5B8 
 391      C68D0D4B 
 391      F718BD
 392 141e B86C4245 		.ascii	"\270lBE\305S\306\214\016N\236\\\020\004vf\346+^=\\^"
 392      C553C68C 
 392      0E4E9E5C 
 392      10047666 
 392      E62B5E3D 
 393 1434 8E2DD69B 		.ascii	"\216-\326\233L\010B\011\037\025\363\3219\032\235c\224"
 393      4C084209 
 393      1F15F3D1 
 393      391A9D63 
 393      94
 394 1445 116242BC 		.ascii	"\021bB\274\26246\335_\014\232\232\357\257\210\304*G"
 394      B23436DD 
 394      5F0C9A9A 
 394      EFAF88C4 
 394      2A47
 395 1457 46193E22 		.ascii	"F\031>\"N\037\024-+.+)*\027\204\304?Y\366\244\242\341"
 395      4E1F142D 
 395      2B2E2B29 
 395      2A1784C4 
 395      3F59F6A4 
 396 146d B82B8B85 		.ascii	"\270+\213\205\244$\303\014%\305%\364\014W\300W\254\276"
 396      A424C30C 
 396      25C525F4 
 396      0C57C057 
 396      ACBE
 397 147f 52695565 		.ascii	"RiUe4,\335\010\320\023PYI(B\212\023\213\372\223%(#J"
 397      342CDD08 
 397      D0135059 
 397      4928428A 
 397      138BFA93 
 398 1497 816859D1 		.ascii	"\201hY\321\234\344\244\312\230dm\012\310\277b,\304;"
 398      9CE4A4CA 
 398      98646D0A 
 398      C8BF622C 
 398      C43B
 399 14a9 2EF773AB 		.ascii	".\367s\253Q\255\014\2064\276\250`t`VD\341/;Z\026\306"
 399      51AD0C86 
 399      34BEA860 
 399      74605644 
 399      E12F3B5A 
 400 14bf EE59407E 		.ascii	"\356Y@~%@\3629\370\2679\212\371\372EYK|\"81\257\010"
 400      2540F239 
 400      F8B7398A 
 400      F9FA4559 
 400      4B7C2238 
 401 14d6 CE45549C 		.ascii	"\316ET\234\213(;\227\000zZ%\212\310:\274\"\256v\353"
 401      8B283B97 
 401      007A5A25 
 401      8AC83ABC 
ARM GAS  /tmp/ccZjsTj3.s 			page 32


 401      22AE76EB 
 402 14ea CC982855 		.ascii	"\314\230(U!ic\307/\252\236`\260\356iX\272Aw\357\237"
 402      216963C7 
 402      2FAA9E60 
 402      B0EE6958 
 402      BA4177EF 
 403 14ff 298195E1 		.ascii	")\201\225\341+v\243Y\350Z\"\224K\021\224\221\305\204"
 403      2B76A359 
 403      E85A2294 
 403      4B119491 
 403      C584
 404 1511 7FC1391F 		.ascii	"\177\3019\037.\021\021\263\321\245<\222\224pm\364\010"
 404      2E1111B3 
 404      D1A53C92 
 404      94706DF4 
 404      08
 405 1522 B7E117A5 		.ascii	"\267\341\027\245(\362\343\322M\025B$Y%\012\025\330\253"
 405      28F2E3D2 
 405      4D154224 
 405      59250A15 
 405      D8AB
 406 1534 C74B4B93 		.ascii	"\307KK\223\202\304E\313r\036y|\322c\252b#u\233\214\316"
 406      82C445CB 
 406      721E797C 
 406      D263AA62 
 406      23759B8C 
 407 1549 89FCA482 		.ascii	"\211\374\244\202B\376\261\202B\317o\212\012\013=\223"
 407      42FEB182 
 407      42CF6F8A 
 407      0A0B3D93 
 408 1559 27FC47E1 		.ascii	"'\374G\341\377\003\211\234\251T"
 408      FF03899C 
 408      A954
 409              		.text
 410              		.section	.gnu.lto_.symtab.eb64cc3320801bb0,"",%progbits
 411 0000 6D61696E 		.ascii	"main\000\000\000\000\000\000\000\000\000\000\000\000"
 411      00000000 
 411      00000000 
 411      00000000 
 412 0010 13020000 		.ascii	"\023\002\000\000chThdSleep\000\000\002\000\000\000\000"
 412      63685468 
 412      64536C65 
 412      65700000 
 412      02000000 
 413 0025 00000000 		.ascii	"\000\000\000\000\000\026\002\000\000TestThread\000\000"
 413      00160200 
 413      00546573 
 413      74546872 
 413      65616400 
 414 003a 02000000 		.ascii	"\002\000\000\000\000\000\000\000\000\000\032\002\000"
 414      00000000 
 414      00001A02 
 414      00
 415 0047 00636854 		.ascii	"\000chThdCreateStatic\000\000\002\000\000\000\000\000"
 415      68644372 
 415      65617465 
 415      53746174 
ARM GAS  /tmp/ccZjsTj3.s 			page 33


 415      69630000 
 416 0061 00000000 		.ascii	"\000\000\000\000\034\002\000\000sdStart\000\000\002"
 416      1C020000 
 416      73645374 
 416      61727400 
 416      0002
 417 0073 00000000 		.ascii	"\000\000\000\000\000\000\000\000\000'\002\000\000ch"
 417      00000000 
 417      00270200 
 417      006368
 418 0082 53797349 		.ascii	"SysInit\000\000\002\000\000\000\000\000\000\000\000"
 418      6E697400 
 418      00020000 
 418      00000000 
 418      0000
 419 0094 002C0200 		.ascii	"\000,\002\000\000halInit\000\000\002\000\000\000\000"
 419      0068616C 
 419      496E6974 
 419      00000200 
 419      000000
 420 00a7 00000000 		.ascii	"\000\000\000\000\000/\002\000\000ch\000\000\002\000"
 420      002F0200 
 420      00636800 
 420      000200
 421 00b6 00000000 		.ascii	"\000\000\000\000\000\000\000\0005\002\000\000SD2\000"
 421      00000000 
 421      35020000 
 421      53443200 
 422 00c6 00020000 		.ascii	"\000\002\000\000\000\000\000\000\000\000\0001\002\000"
 422      00000000 
 422      00000031 
 422      0200
 423 00d4 00       		.ascii	"\000"
 424              		.text
 425              		.section	.gnu.lto_.opts,"",%progbits
 426 0000 272D6D63 		.ascii	"'-mcpu=cortex-m3''-mno-thumb-interwork''-mthumb''-g"
 426      70753D63 
 426      6F727465 
 426      782D6D33 
 426      27272D6D 
 427 0033 67646227 		.ascii	"gdb''-O2''-fomit-frame-pointer''-falign-functions=1"
 427      272D4F32 
 427      27272D66 
 427      6F6D6974 
 427      2D667261 
 428 0066 3627272D 		.ascii	"6''-ffunction-sections''-fdata-sections''-fno-commo"
 428      6666756E 
 428      6374696F 
 428      6E2D7365 
 428      6374696F 
 429 0099 6E27272D 		.ascii	"n''-flto'\000"
 429      666C746F 
 429      2700
 430              		.text
 431              		.cfi_sections	.debug_frame
 432              		.section	.text.Thread1,"ax",%progbits
 433              		.align	2
ARM GAS  /tmp/ccZjsTj3.s 			page 34


 434              		.p2align 4,,15
 435              		.thumb
 436              		.thumb_func
 437              		.type	Thread1, %function
 438              	Thread1:
 439              	.LFB194:
 440              		.file 1 "main.c"
 441              		.loc 1 25 0
 442              		.cfi_startproc
 443              		@ args = 0, pretend = 0, frame = 0
 444              		@ frame_needed = 0, uses_anonymous_args = 0
 445              	.LVL0:
 446              	.LBB4:
 447              	.LBB5:
 448              		.file 2 "../../../os/rt/include/chregistry.h"
 449              		.loc 2 133 0
 450 0000 0A4B     		ldr	r3, .L4
 451              	.LBE5:
 452              	.LBE4:
 453              		.loc 1 25 0
 454 0002 70B5     		push	{r4, r5, r6, lr}
 455              	.LCFI0:
 456              		.cfi_def_cfa_offset 16
 457              		.cfi_offset 4, -16
 458              		.cfi_offset 5, -12
 459              		.cfi_offset 6, -8
 460              		.cfi_offset 14, -4
 461              	.LBB9:
 462              	.LBB6:
 463              		.loc 2 133 0
 464 0004 9869     		ldr	r0, [r3, #24]
 465              	.LVL1:
 466              	.LBE6:
 467              	.LBE9:
 468              		.loc 1 31 0
 469 0006 4FF48054 		mov	r4, #4096
 470              	.LBB10:
 471              	.LBB7:
 472              		.loc 2 133 0
 473 000a 094A     		ldr	r2, .L4+4
 474              	.LBE7:
 475              	.LBE10:
 476              		.loc 1 31 0
 477 000c 2546     		mov	r5, r4
 478              	.LBB11:
 479              	.LBB8:
 480              		.loc 2 133 0
 481 000e 8261     		str	r2, [r0, #24]
 482              	.LBE8:
 483              	.LBE11:
 484              		.loc 1 31 0
 485 0010 C4F20104 		movt	r4, 16385
 486 0014 2E46     		mov	r6, r5
 487              	.L2:
 488              		.loc 1 31 0 is_stmt 0 discriminator 1
 489 0016 2661     		str	r6, [r4, #16]
 490              		.loc 1 32 0 is_stmt 1 discriminator 1
ARM GAS  /tmp/ccZjsTj3.s 			page 35


 491 0018 41F28830 		movw	r0, #5000
 492 001c FFF7FEFF 		bl	chThdSleep
 493              	.LVL2:
 494              		.loc 1 33 0 discriminator 1
 495 0020 6561     		str	r5, [r4, #20]
 496              		.loc 1 34 0 discriminator 1
 497 0022 41F28830 		movw	r0, #5000
 498 0026 FFF7FEFF 		bl	chThdSleep
 499              	.LVL3:
 500 002a F4E7     		b	.L2
 501              	.L5:
 502              		.align	2
 503              	.L4:
 504 002c 00000000 		.word	ch
 505 0030 00000000 		.word	.LC0
 506              		.cfi_endproc
 507              	.LFE194:
 508              		.size	Thread1, .-Thread1
 509 0034 AFF30080 		.section	.text.startup.main,"ax",%progbits
 509      AFF30080 
 509      AFF30080 
 510              		.align	2
 511              		.p2align 4,,15
 512              		.global	main
 513              		.thumb
 514              		.thumb_func
 515              		.type	main, %function
 516              	main:
 517              	.LFB195:
 518              		.loc 1 41 0
 519              		.cfi_startproc
 520              		@ args = 0, pretend = 0, frame = 0
 521              		@ frame_needed = 0, uses_anonymous_args = 0
 522 0000 10B5     		push	{r4, lr}
 523              	.LCFI1:
 524              		.cfi_def_cfa_offset 8
 525              		.cfi_offset 4, -8
 526              		.cfi_offset 14, -4
 527 0002 82B0     		sub	sp, sp, #8
 528              	.LCFI2:
 529              		.cfi_def_cfa_offset 16
 530              		.loc 1 50 0
 531 0004 FFF7FEFF 		bl	halInit
 532              	.LVL4:
 533              		.loc 1 51 0
 534 0008 FFF7FEFF 		bl	chSysInit
 535              	.LVL5:
 536              		.loc 1 57 0
 537 000c 0E48     		ldr	r0, .L12
 538 000e 0021     		movs	r1, #0
 539 0010 FFF7FEFF 		bl	sdStart
 540              	.LVL6:
 541              		.loc 1 62 0
 542 0014 0023     		movs	r3, #0
 543 0016 0093     		str	r3, [sp, #0]
 544 0018 0C48     		ldr	r0, .L12+4
 545 001a 4FF4A471 		mov	r1, #328
ARM GAS  /tmp/ccZjsTj3.s 			page 36


 546 001e 4122     		movs	r2, #65
 547 0020 0B4B     		ldr	r3, .L12+8
 548              		.loc 1 70 0
 549 0022 4FF40064 		mov	r4, #2048
 550              		.loc 1 62 0
 551 0026 FFF7FEFF 		bl	chThdCreateStatic
 552              	.LVL7:
 553              		.loc 1 70 0
 554 002a C4F20104 		movt	r4, 16385
 555 002e 03E0     		b	.L8
 556              	.L7:
 557              		.loc 1 72 0
 558 0030 41F28830 		movw	r0, #5000
 559 0034 FFF7FEFF 		bl	chThdSleep
 560              	.LVL8:
 561              	.L8:
 562              		.loc 1 70 0
 563 0038 A068     		ldr	r0, [r4, #8]
 564 003a C307     		lsls	r3, r0, #31
 565 003c F8D5     		bpl	.L7
 566              		.loc 1 71 0
 567 003e 0248     		ldr	r0, .L12
 568 0040 FFF7FEFF 		bl	TestThread
 569              	.LVL9:
 570 0044 F4E7     		b	.L7
 571              	.L13:
 572 0046 00BF     		.align	2
 573              	.L12:
 574 0048 00000000 		.word	SD2
 575 004c 00000000 		.word	.LANCHOR0
 576 0050 00000000 		.word	Thread1
 577              		.cfi_endproc
 578              	.LFE195:
 579              		.size	main, .-main
 580 0054 AFF30080 		.section	.bss.waThread1,"aw",%nobits
 580      AFF30080 
 580      AFF30080 
 581              		.align	3
 582              		.set	.LANCHOR0,. + 0
 583              		.type	waThread1, %object
 584              		.size	waThread1, 328
 585              	waThread1:
 586 0000 00000000 		.space	328
 586      00000000 
 586      00000000 
 586      00000000 
 586      00000000 
 587              		.section	.rodata.str1.4,"aMS",%progbits,1
 588              		.align	2
 589              	.LC0:
 590 0000 626C696E 		.ascii	"blinker\000"
 590      6B657200 
 591              		.text
 592              	.Letext0:
 593              		.file 3 "../../../os/rt/include/chschd.h"
 594              		.file 4 "/opt/ARM/gcc-arm-none-eabi-4_7-2013q3/bin/../lib/gcc/arm-none-eabi/4.7.4/include/stddef.h
 595              		.file 5 "/opt/ARM/gcc-arm-none-eabi-4_7-2013q3/bin/../lib/gcc/arm-none-eabi/4.7.4/../../../../arm-
ARM GAS  /tmp/ccZjsTj3.s 			page 37


 596              		.file 6 "../../../os/rt/ports/ARMCMx/compilers/GCC/chtypes.h"
 597              		.file 7 "../../../os/ext/CMSIS/ST/stm32f10x.h"
 598              		.file 8 "../../../os/rt/ports/ARMCMx/chcore.h"
 599              		.file 9 "../../../os/rt/ports/ARMCMx/chcore_v7m.h"
 600              		.file 10 "../../../os/rt/include/chmtx.h"
 601              		.file 11 "../../../os/rt/include/chthreads.h"
 602              		.file 12 "../../../os/rt/include/chevents.h"
 603              		.file 13 "../../../os/rt/include/chqueues.h"
 604              		.file 14 "../../../os/hal/ports/STM32/LLD/GPIOv1/pal_lld.h"
 605              		.file 15 "../../../os/hal/include/serial.h"
 606              		.file 16 "../../../os/hal/ports/STM32/LLD/USARTv1/serial_lld.h"
 607              		.file 17 "../../../os/hal/include/hal.h"
 608              		.file 18 "../../../os/rt/include/chsys.h"
 609              		.file 19 "../../../test/rt/test.h"
 610              		.file 20 "../../../os/ext/CMSIS/include/core_cm3.h"
 611              		.section	.debug_info,"",%progbits
 612              	.Ldebug_info0:
 613 0000 C70C0000 		.4byte	0xcc7
 614 0004 0200     		.2byte	0x2
 615 0006 00000000 		.4byte	.Ldebug_abbrev0
 616 000a 04       		.byte	0x4
 617 000b 01       		.uleb128 0x1
 618 000c FD000000 		.4byte	.LASF143
 619 0010 01       		.byte	0x1
 620 0011 16030000 		.4byte	.LASF144
 621 0015 EC040000 		.4byte	.LASF145
 622 0019 28000000 		.4byte	.Ldebug_ranges0+0x28
 623 001d 00000000 		.4byte	0
 624 0021 00000000 		.4byte	0
 625 0025 00000000 		.4byte	.Ldebug_line0
 626 0029 02       		.uleb128 0x2
 627 002a 68010000 		.4byte	.LASF56
 628 002e 44       		.byte	0x44
 629 002f 03       		.byte	0x3
 630 0030 79       		.byte	0x79
 631 0031 32010000 		.4byte	0x132
 632 0035 03       		.uleb128 0x3
 633 0036 1F040000 		.4byte	.LASF0
 634 003a 03       		.byte	0x3
 635 003b 7A       		.byte	0x7a
 636 003c 88040000 		.4byte	0x488
 637 0040 02       		.byte	0x2
 638 0041 23       		.byte	0x23
 639 0042 00       		.uleb128 0
 640 0043 03       		.uleb128 0x3
 641 0044 92030000 		.4byte	.LASF1
 642 0048 03       		.byte	0x3
 643 0049 7C       		.byte	0x7c
 644 004a 88040000 		.4byte	0x488
 645 004e 02       		.byte	0x2
 646 004f 23       		.byte	0x23
 647 0050 04       		.uleb128 0x4
 648 0051 03       		.uleb128 0x3
 649 0052 A8000000 		.4byte	.LASF2
 650 0056 03       		.byte	0x3
 651 0057 7E       		.byte	0x7e
 652 0058 F5010000 		.4byte	0x1f5
ARM GAS  /tmp/ccZjsTj3.s 			page 38


 653 005c 02       		.byte	0x2
 654 005d 23       		.byte	0x23
 655 005e 08       		.uleb128 0x8
 656 005f 03       		.uleb128 0x3
 657 0060 29060000 		.4byte	.LASF3
 658 0064 03       		.byte	0x3
 659 0065 7F       		.byte	0x7f
 660 0066 B5030000 		.4byte	0x3b5
 661 006a 02       		.byte	0x2
 662 006b 23       		.byte	0x23
 663 006c 0C       		.uleb128 0xc
 664 006d 03       		.uleb128 0x3
 665 006e 8E010000 		.4byte	.LASF4
 666 0072 03       		.byte	0x3
 667 0073 81       		.byte	0x81
 668 0074 88040000 		.4byte	0x488
 669 0078 02       		.byte	0x2
 670 0079 23       		.byte	0x23
 671 007a 10       		.uleb128 0x10
 672 007b 03       		.uleb128 0x3
 673 007c 08030000 		.4byte	.LASF5
 674 0080 03       		.byte	0x3
 675 0081 82       		.byte	0x82
 676 0082 88040000 		.4byte	0x488
 677 0086 02       		.byte	0x2
 678 0087 23       		.byte	0x23
 679 0088 14       		.uleb128 0x14
 680 0089 03       		.uleb128 0x3
 681 008a B0050000 		.4byte	.LASF6
 682 008e 03       		.byte	0x3
 683 008f 89       		.byte	0x89
 684 0090 58050000 		.4byte	0x558
 685 0094 02       		.byte	0x2
 686 0095 23       		.byte	0x23
 687 0096 18       		.uleb128 0x18
 688 0097 03       		.uleb128 0x3
 689 0098 09040000 		.4byte	.LASF7
 690 009c 03       		.byte	0x3
 691 009d 94       		.byte	0x94
 692 009e DF010000 		.4byte	0x1df
 693 00a2 02       		.byte	0x2
 694 00a3 23       		.byte	0x23
 695 00a4 1C       		.uleb128 0x1c
 696 00a5 03       		.uleb128 0x3
 697 00a6 26040000 		.4byte	.LASF8
 698 00aa 03       		.byte	0x3
 699 00ab 98       		.byte	0x98
 700 00ac D4010000 		.4byte	0x1d4
 701 00b0 02       		.byte	0x2
 702 00b1 23       		.byte	0x23
 703 00b2 1D       		.uleb128 0x1d
 704 00b3 03       		.uleb128 0x3
 705 00b4 6F010000 		.4byte	.LASF9
 706 00b8 03       		.byte	0x3
 707 00b9 9D       		.byte	0x9d
 708 00ba EA010000 		.4byte	0x1ea
 709 00be 02       		.byte	0x2
ARM GAS  /tmp/ccZjsTj3.s 			page 39


 710 00bf 23       		.byte	0x23
 711 00c0 1E       		.uleb128 0x1e
 712 00c1 04       		.uleb128 0x4
 713 00c2 705F7500 		.ascii	"p_u\000"
 714 00c6 03       		.byte	0x3
 715 00c7 CF       		.byte	0xcf
 716 00c8 23050000 		.4byte	0x523
 717 00cc 02       		.byte	0x2
 718 00cd 23       		.byte	0x23
 719 00ce 20       		.uleb128 0x20
 720 00cf 03       		.uleb128 0x3
 721 00d0 DF020000 		.4byte	.LASF10
 722 00d4 03       		.byte	0x3
 723 00d5 D4       		.byte	0xd4
 724 00d6 B0040000 		.4byte	0x4b0
 725 00da 02       		.byte	0x2
 726 00db 23       		.byte	0x23
 727 00dc 24       		.uleb128 0x24
 728 00dd 03       		.uleb128 0x3
 729 00de 0A020000 		.4byte	.LASF11
 730 00e2 03       		.byte	0x3
 731 00e3 DA       		.byte	0xda
 732 00e4 8E040000 		.4byte	0x48e
 733 00e8 02       		.byte	0x2
 734 00e9 23       		.byte	0x23
 735 00ea 28       		.uleb128 0x28
 736 00eb 03       		.uleb128 0x3
 737 00ec F9050000 		.4byte	.LASF12
 738 00f0 03       		.byte	0x3
 739 00f1 DE       		.byte	0xde
 740 00f2 00020000 		.4byte	0x200
 741 00f6 02       		.byte	0x2
 742 00f7 23       		.byte	0x23
 743 00f8 30       		.uleb128 0x30
 744 00f9 03       		.uleb128 0x3
 745 00fa 53040000 		.4byte	.LASF13
 746 00fe 03       		.byte	0x3
 747 00ff E4       		.byte	0xe4
 748 0100 0B020000 		.4byte	0x20b
 749 0104 02       		.byte	0x2
 750 0105 23       		.byte	0x23
 751 0106 34       		.uleb128 0x34
 752 0107 03       		.uleb128 0x3
 753 0108 F5030000 		.4byte	.LASF14
 754 010c 03       		.byte	0x3
 755 010d EB       		.byte	0xeb
 756 010e A1050000 		.4byte	0x5a1
 757 0112 02       		.byte	0x2
 758 0113 23       		.byte	0x23
 759 0114 38       		.uleb128 0x38
 760 0115 03       		.uleb128 0x3
 761 0116 D8040000 		.4byte	.LASF15
 762 011a 03       		.byte	0x3
 763 011b EF       		.byte	0xef
 764 011c F5010000 		.4byte	0x1f5
 765 0120 02       		.byte	0x2
 766 0121 23       		.byte	0x23
ARM GAS  /tmp/ccZjsTj3.s 			page 40


 767 0122 3C       		.uleb128 0x3c
 768 0123 03       		.uleb128 0x3
 769 0124 ED000000 		.4byte	.LASF16
 770 0128 03       		.byte	0x3
 771 0129 F5       		.byte	0xf5
 772 012a A8030000 		.4byte	0x3a8
 773 012e 02       		.byte	0x2
 774 012f 23       		.byte	0x23
 775 0130 40       		.uleb128 0x40
 776 0131 00       		.byte	0
 777 0132 05       		.uleb128 0x5
 778 0133 04       		.byte	0x4
 779 0134 05       		.byte	0x5
 780 0135 696E7400 		.ascii	"int\000"
 781 0139 06       		.uleb128 0x6
 782 013a 15000000 		.4byte	.LASF19
 783 013e 04       		.byte	0x4
 784 013f D5       		.byte	0xd5
 785 0140 44010000 		.4byte	0x144
 786 0144 07       		.uleb128 0x7
 787 0145 04       		.byte	0x4
 788 0146 07       		.byte	0x7
 789 0147 D5010000 		.4byte	.LASF17
 790 014b 07       		.uleb128 0x7
 791 014c 01       		.byte	0x1
 792 014d 06       		.byte	0x6
 793 014e CD000000 		.4byte	.LASF18
 794 0152 06       		.uleb128 0x6
 795 0153 DB050000 		.4byte	.LASF20
 796 0157 05       		.byte	0x5
 797 0158 2A       		.byte	0x2a
 798 0159 5D010000 		.4byte	0x15d
 799 015d 07       		.uleb128 0x7
 800 015e 01       		.byte	0x1
 801 015f 08       		.byte	0x8
 802 0160 C7030000 		.4byte	.LASF21
 803 0164 07       		.uleb128 0x7
 804 0165 02       		.byte	0x2
 805 0166 05       		.byte	0x5
 806 0167 FF030000 		.4byte	.LASF22
 807 016b 06       		.uleb128 0x6
 808 016c EA010000 		.4byte	.LASF23
 809 0170 05       		.byte	0x5
 810 0171 36       		.byte	0x36
 811 0172 76010000 		.4byte	0x176
 812 0176 07       		.uleb128 0x7
 813 0177 02       		.byte	0x2
 814 0178 07       		.byte	0x7
 815 0179 3A020000 		.4byte	.LASF24
 816 017d 06       		.uleb128 0x6
 817 017e BF030000 		.4byte	.LASF25
 818 0182 05       		.byte	0x5
 819 0183 4F       		.byte	0x4f
 820 0184 88010000 		.4byte	0x188
 821 0188 07       		.uleb128 0x7
 822 0189 04       		.byte	0x4
 823 018a 05       		.byte	0x5
ARM GAS  /tmp/ccZjsTj3.s 			page 41


 824 018b 56010000 		.4byte	.LASF26
 825 018f 06       		.uleb128 0x6
 826 0190 72040000 		.4byte	.LASF27
 827 0194 05       		.byte	0x5
 828 0195 50       		.byte	0x50
 829 0196 9A010000 		.4byte	0x19a
 830 019a 07       		.uleb128 0x7
 831 019b 04       		.byte	0x4
 832 019c 07       		.byte	0x7
 833 019d 99040000 		.4byte	.LASF28
 834 01a1 07       		.uleb128 0x7
 835 01a2 08       		.byte	0x8
 836 01a3 05       		.byte	0x5
 837 01a4 BF000000 		.4byte	.LASF29
 838 01a8 06       		.uleb128 0x6
 839 01a9 23000000 		.4byte	.LASF30
 840 01ad 05       		.byte	0x5
 841 01ae 78       		.byte	0x78
 842 01af B3010000 		.4byte	0x1b3
 843 01b3 07       		.uleb128 0x7
 844 01b4 08       		.byte	0x8
 845 01b5 07       		.byte	0x7
 846 01b6 5A000000 		.4byte	.LASF31
 847 01ba 08       		.uleb128 0x8
 848 01bb 6B010000 		.4byte	0x16b
 849 01bf 08       		.uleb128 0x8
 850 01c0 7D010000 		.4byte	0x17d
 851 01c4 08       		.uleb128 0x8
 852 01c5 8F010000 		.4byte	0x18f
 853 01c9 06       		.uleb128 0x6
 854 01ca 5E050000 		.4byte	.LASF32
 855 01ce 06       		.byte	0x6
 856 01cf 46       		.byte	0x46
 857 01d0 8F010000 		.4byte	0x18f
 858 01d4 06       		.uleb128 0x6
 859 01d5 7B020000 		.4byte	.LASF33
 860 01d9 06       		.byte	0x6
 861 01da 49       		.byte	0x49
 862 01db 52010000 		.4byte	0x152
 863 01df 06       		.uleb128 0x6
 864 01e0 5F010000 		.4byte	.LASF34
 865 01e4 06       		.byte	0x6
 866 01e5 4A       		.byte	0x4a
 867 01e6 52010000 		.4byte	0x152
 868 01ea 06       		.uleb128 0x6
 869 01eb 58030000 		.4byte	.LASF35
 870 01ef 06       		.byte	0x6
 871 01f0 4B       		.byte	0x4b
 872 01f1 52010000 		.4byte	0x152
 873 01f5 06       		.uleb128 0x6
 874 01f6 A3030000 		.4byte	.LASF36
 875 01fa 06       		.byte	0x6
 876 01fb 4D       		.byte	0x4d
 877 01fc 8F010000 		.4byte	0x18f
 878 0200 06       		.uleb128 0x6
 879 0201 4D020000 		.4byte	.LASF37
 880 0205 06       		.byte	0x6
ARM GAS  /tmp/ccZjsTj3.s 			page 42


 881 0206 4E       		.byte	0x4e
 882 0207 7D010000 		.4byte	0x17d
 883 020b 06       		.uleb128 0x6
 884 020c 83020000 		.4byte	.LASF38
 885 0210 06       		.byte	0x6
 886 0211 50       		.byte	0x50
 887 0212 8F010000 		.4byte	0x18f
 888 0216 06       		.uleb128 0x6
 889 0217 7B050000 		.4byte	.LASF39
 890 021b 06       		.byte	0x6
 891 021c 51       		.byte	0x51
 892 021d 8F010000 		.4byte	0x18f
 893 0221 07       		.uleb128 0x7
 894 0222 04       		.byte	0x4
 895 0223 07       		.byte	0x7
 896 0224 E9020000 		.4byte	.LASF40
 897 0228 09       		.uleb128 0x9
 898 0229 52010000 		.4byte	0x152
 899 022d 0A       		.uleb128 0xa
 900 022e 1C       		.byte	0x1c
 901 022f 07       		.byte	0x7
 902 0230 E903     		.2byte	0x3e9
 903 0232 A0020000 		.4byte	0x2a0
 904 0236 0B       		.uleb128 0xb
 905 0237 43524C00 		.ascii	"CRL\000"
 906 023b 07       		.byte	0x7
 907 023c EB03     		.2byte	0x3eb
 908 023e C4010000 		.4byte	0x1c4
 909 0242 02       		.byte	0x2
 910 0243 23       		.byte	0x23
 911 0244 00       		.uleb128 0
 912 0245 0B       		.uleb128 0xb
 913 0246 43524800 		.ascii	"CRH\000"
 914 024a 07       		.byte	0x7
 915 024b EC03     		.2byte	0x3ec
 916 024d C4010000 		.4byte	0x1c4
 917 0251 02       		.byte	0x2
 918 0252 23       		.byte	0x23
 919 0253 04       		.uleb128 0x4
 920 0254 0B       		.uleb128 0xb
 921 0255 49445200 		.ascii	"IDR\000"
 922 0259 07       		.byte	0x7
 923 025a ED03     		.2byte	0x3ed
 924 025c C4010000 		.4byte	0x1c4
 925 0260 02       		.byte	0x2
 926 0261 23       		.byte	0x23
 927 0262 08       		.uleb128 0x8
 928 0263 0B       		.uleb128 0xb
 929 0264 4F445200 		.ascii	"ODR\000"
 930 0268 07       		.byte	0x7
 931 0269 EE03     		.2byte	0x3ee
 932 026b C4010000 		.4byte	0x1c4
 933 026f 02       		.byte	0x2
 934 0270 23       		.byte	0x23
 935 0271 0C       		.uleb128 0xc
 936 0272 0C       		.uleb128 0xc
 937 0273 D9000000 		.4byte	.LASF41
ARM GAS  /tmp/ccZjsTj3.s 			page 43


 938 0277 07       		.byte	0x7
 939 0278 EF03     		.2byte	0x3ef
 940 027a C4010000 		.4byte	0x1c4
 941 027e 02       		.byte	0x2
 942 027f 23       		.byte	0x23
 943 0280 10       		.uleb128 0x10
 944 0281 0B       		.uleb128 0xb
 945 0282 42525200 		.ascii	"BRR\000"
 946 0286 07       		.byte	0x7
 947 0287 F003     		.2byte	0x3f0
 948 0289 C4010000 		.4byte	0x1c4
 949 028d 02       		.byte	0x2
 950 028e 23       		.byte	0x23
 951 028f 14       		.uleb128 0x14
 952 0290 0C       		.uleb128 0xc
 953 0291 4E040000 		.4byte	.LASF42
 954 0295 07       		.byte	0x7
 955 0296 F103     		.2byte	0x3f1
 956 0298 C4010000 		.4byte	0x1c4
 957 029c 02       		.byte	0x2
 958 029d 23       		.byte	0x23
 959 029e 18       		.uleb128 0x18
 960 029f 00       		.byte	0
 961 02a0 0D       		.uleb128 0xd
 962 02a1 15020000 		.4byte	.LASF43
 963 02a5 07       		.byte	0x7
 964 02a6 F203     		.2byte	0x3f2
 965 02a8 2D020000 		.4byte	0x22d
 966 02ac 0A       		.uleb128 0xa
 967 02ad 1C       		.byte	0x1c
 968 02ae 07       		.byte	0x7
 969 02af D204     		.2byte	0x4d2
 970 02b1 86030000 		.4byte	0x386
 971 02b5 0B       		.uleb128 0xb
 972 02b6 535200   		.ascii	"SR\000"
 973 02b9 07       		.byte	0x7
 974 02ba D404     		.2byte	0x4d4
 975 02bc BA010000 		.4byte	0x1ba
 976 02c0 02       		.byte	0x2
 977 02c1 23       		.byte	0x23
 978 02c2 00       		.uleb128 0
 979 02c3 0C       		.uleb128 0xc
 980 02c4 60030000 		.4byte	.LASF44
 981 02c8 07       		.byte	0x7
 982 02c9 D504     		.2byte	0x4d5
 983 02cb 6B010000 		.4byte	0x16b
 984 02cf 02       		.byte	0x2
 985 02d0 23       		.byte	0x23
 986 02d1 02       		.uleb128 0x2
 987 02d2 0B       		.uleb128 0xb
 988 02d3 445200   		.ascii	"DR\000"
 989 02d6 07       		.byte	0x7
 990 02d7 D604     		.2byte	0x4d6
 991 02d9 BA010000 		.4byte	0x1ba
 992 02dd 02       		.byte	0x2
 993 02de 23       		.byte	0x23
 994 02df 04       		.uleb128 0x4
ARM GAS  /tmp/ccZjsTj3.s 			page 44


 995 02e0 0C       		.uleb128 0xc
 996 02e1 6A030000 		.4byte	.LASF45
 997 02e5 07       		.byte	0x7
 998 02e6 D704     		.2byte	0x4d7
 999 02e8 6B010000 		.4byte	0x16b
 1000 02ec 02       		.byte	0x2
 1001 02ed 23       		.byte	0x23
 1002 02ee 06       		.uleb128 0x6
 1003 02ef 0B       		.uleb128 0xb
 1004 02f0 42525200 		.ascii	"BRR\000"
 1005 02f4 07       		.byte	0x7
 1006 02f5 D804     		.2byte	0x4d8
 1007 02f7 BA010000 		.4byte	0x1ba
 1008 02fb 02       		.byte	0x2
 1009 02fc 23       		.byte	0x23
 1010 02fd 08       		.uleb128 0x8
 1011 02fe 0C       		.uleb128 0xc
 1012 02ff 74030000 		.4byte	.LASF46
 1013 0303 07       		.byte	0x7
 1014 0304 D904     		.2byte	0x4d9
 1015 0306 6B010000 		.4byte	0x16b
 1016 030a 02       		.byte	0x2
 1017 030b 23       		.byte	0x23
 1018 030c 0A       		.uleb128 0xa
 1019 030d 0B       		.uleb128 0xb
 1020 030e 43523100 		.ascii	"CR1\000"
 1021 0312 07       		.byte	0x7
 1022 0313 DA04     		.2byte	0x4da
 1023 0315 BA010000 		.4byte	0x1ba
 1024 0319 02       		.byte	0x2
 1025 031a 23       		.byte	0x23
 1026 031b 0C       		.uleb128 0xc
 1027 031c 0C       		.uleb128 0xc
 1028 031d 7E030000 		.4byte	.LASF47
 1029 0321 07       		.byte	0x7
 1030 0322 DB04     		.2byte	0x4db
 1031 0324 6B010000 		.4byte	0x16b
 1032 0328 02       		.byte	0x2
 1033 0329 23       		.byte	0x23
 1034 032a 0E       		.uleb128 0xe
 1035 032b 0B       		.uleb128 0xb
 1036 032c 43523200 		.ascii	"CR2\000"
 1037 0330 07       		.byte	0x7
 1038 0331 DC04     		.2byte	0x4dc
 1039 0333 BA010000 		.4byte	0x1ba
 1040 0337 02       		.byte	0x2
 1041 0338 23       		.byte	0x23
 1042 0339 10       		.uleb128 0x10
 1043 033a 0C       		.uleb128 0xc
 1044 033b 88030000 		.4byte	.LASF48
 1045 033f 07       		.byte	0x7
 1046 0340 DD04     		.2byte	0x4dd
 1047 0342 6B010000 		.4byte	0x16b
 1048 0346 02       		.byte	0x2
 1049 0347 23       		.byte	0x23
 1050 0348 12       		.uleb128 0x12
 1051 0349 0B       		.uleb128 0xb
ARM GAS  /tmp/ccZjsTj3.s 			page 45


 1052 034a 43523300 		.ascii	"CR3\000"
 1053 034e 07       		.byte	0x7
 1054 034f DE04     		.2byte	0x4de
 1055 0351 BA010000 		.4byte	0x1ba
 1056 0355 02       		.byte	0x2
 1057 0356 23       		.byte	0x23
 1058 0357 14       		.uleb128 0x14
 1059 0358 0C       		.uleb128 0xc
 1060 0359 68040000 		.4byte	.LASF49
 1061 035d 07       		.byte	0x7
 1062 035e DF04     		.2byte	0x4df
 1063 0360 6B010000 		.4byte	0x16b
 1064 0364 02       		.byte	0x2
 1065 0365 23       		.byte	0x23
 1066 0366 16       		.uleb128 0x16
 1067 0367 0C       		.uleb128 0xc
 1068 0368 E8000000 		.4byte	.LASF50
 1069 036c 07       		.byte	0x7
 1070 036d E004     		.2byte	0x4e0
 1071 036f BA010000 		.4byte	0x1ba
 1072 0373 02       		.byte	0x2
 1073 0374 23       		.byte	0x23
 1074 0375 18       		.uleb128 0x18
 1075 0376 0C       		.uleb128 0xc
 1076 0377 99030000 		.4byte	.LASF51
 1077 037b 07       		.byte	0x7
 1078 037c E104     		.2byte	0x4e1
 1079 037e 6B010000 		.4byte	0x16b
 1080 0382 02       		.byte	0x2
 1081 0383 23       		.byte	0x23
 1082 0384 1A       		.uleb128 0x1a
 1083 0385 00       		.byte	0
 1084 0386 0D       		.uleb128 0xd
 1085 0387 66020000 		.4byte	.LASF52
 1086 038b 07       		.byte	0x7
 1087 038c E204     		.2byte	0x4e2
 1088 038e AC020000 		.4byte	0x2ac
 1089 0392 06       		.uleb128 0x6
 1090 0393 CE040000 		.4byte	.LASF53
 1091 0397 08       		.byte	0x8
 1092 0398 89       		.byte	0x89
 1093 0399 6B010000 		.4byte	0x16b
 1094 039d 06       		.uleb128 0x6
 1095 039e 9E010000 		.4byte	.LASF54
 1096 03a2 08       		.byte	0x8
 1097 03a3 8F       		.byte	0x8f
 1098 03a4 A8030000 		.4byte	0x3a8
 1099 03a8 0E       		.uleb128 0xe
 1100 03a9 04       		.byte	0x4
 1101 03aa 06       		.uleb128 0x6
 1102 03ab 9F020000 		.4byte	.LASF55
 1103 03af 08       		.byte	0x8
 1104 03b0 97       		.byte	0x97
 1105 03b1 A8010000 		.4byte	0x1a8
 1106 03b5 02       		.uleb128 0x2
 1107 03b6 56050000 		.4byte	.LASF57
 1108 03ba 04       		.byte	0x4
ARM GAS  /tmp/ccZjsTj3.s 			page 46


 1109 03bb 08       		.byte	0x8
 1110 03bc B3       		.byte	0xb3
 1111 03bd D0030000 		.4byte	0x3d0
 1112 03c1 04       		.uleb128 0x4
 1113 03c2 72313300 		.ascii	"r13\000"
 1114 03c6 08       		.byte	0x8
 1115 03c7 B4       		.byte	0xb4
 1116 03c8 5D040000 		.4byte	0x45d
 1117 03cc 02       		.byte	0x2
 1118 03cd 23       		.byte	0x23
 1119 03ce 00       		.uleb128 0
 1120 03cf 00       		.byte	0
 1121 03d0 02       		.uleb128 0x2
 1122 03d1 2C000000 		.4byte	.LASF58
 1123 03d5 24       		.byte	0x24
 1124 03d6 09       		.byte	0x9
 1125 03d7 F5       		.byte	0xf5
 1126 03d8 5D040000 		.4byte	0x45d
 1127 03dc 0B       		.uleb128 0xb
 1128 03dd 723400   		.ascii	"r4\000"
 1129 03e0 09       		.byte	0x9
 1130 03e1 0801     		.2byte	0x108
 1131 03e3 9D030000 		.4byte	0x39d
 1132 03e7 02       		.byte	0x2
 1133 03e8 23       		.byte	0x23
 1134 03e9 00       		.uleb128 0
 1135 03ea 0B       		.uleb128 0xb
 1136 03eb 723500   		.ascii	"r5\000"
 1137 03ee 09       		.byte	0x9
 1138 03ef 0901     		.2byte	0x109
 1139 03f1 9D030000 		.4byte	0x39d
 1140 03f5 02       		.byte	0x2
 1141 03f6 23       		.byte	0x23
 1142 03f7 04       		.uleb128 0x4
 1143 03f8 0B       		.uleb128 0xb
 1144 03f9 723600   		.ascii	"r6\000"
 1145 03fc 09       		.byte	0x9
 1146 03fd 0A01     		.2byte	0x10a
 1147 03ff 9D030000 		.4byte	0x39d
 1148 0403 02       		.byte	0x2
 1149 0404 23       		.byte	0x23
 1150 0405 08       		.uleb128 0x8
 1151 0406 0B       		.uleb128 0xb
 1152 0407 723700   		.ascii	"r7\000"
 1153 040a 09       		.byte	0x9
 1154 040b 0B01     		.2byte	0x10b
 1155 040d 9D030000 		.4byte	0x39d
 1156 0411 02       		.byte	0x2
 1157 0412 23       		.byte	0x23
 1158 0413 0C       		.uleb128 0xc
 1159 0414 0B       		.uleb128 0xb
 1160 0415 723800   		.ascii	"r8\000"
 1161 0418 09       		.byte	0x9
 1162 0419 0C01     		.2byte	0x10c
 1163 041b 9D030000 		.4byte	0x39d
 1164 041f 02       		.byte	0x2
 1165 0420 23       		.byte	0x23
ARM GAS  /tmp/ccZjsTj3.s 			page 47


 1166 0421 10       		.uleb128 0x10
 1167 0422 0B       		.uleb128 0xb
 1168 0423 723900   		.ascii	"r9\000"
 1169 0426 09       		.byte	0x9
 1170 0427 0D01     		.2byte	0x10d
 1171 0429 9D030000 		.4byte	0x39d
 1172 042d 02       		.byte	0x2
 1173 042e 23       		.byte	0x23
 1174 042f 14       		.uleb128 0x14
 1175 0430 0B       		.uleb128 0xb
 1176 0431 72313000 		.ascii	"r10\000"
 1177 0435 09       		.byte	0x9
 1178 0436 0E01     		.2byte	0x10e
 1179 0438 9D030000 		.4byte	0x39d
 1180 043c 02       		.byte	0x2
 1181 043d 23       		.byte	0x23
 1182 043e 18       		.uleb128 0x18
 1183 043f 0B       		.uleb128 0xb
 1184 0440 72313100 		.ascii	"r11\000"
 1185 0444 09       		.byte	0x9
 1186 0445 0F01     		.2byte	0x10f
 1187 0447 9D030000 		.4byte	0x39d
 1188 044b 02       		.byte	0x2
 1189 044c 23       		.byte	0x23
 1190 044d 1C       		.uleb128 0x1c
 1191 044e 0B       		.uleb128 0xb
 1192 044f 6C7200   		.ascii	"lr\000"
 1193 0452 09       		.byte	0x9
 1194 0453 1001     		.2byte	0x110
 1195 0455 9D030000 		.4byte	0x39d
 1196 0459 02       		.byte	0x2
 1197 045a 23       		.byte	0x23
 1198 045b 20       		.uleb128 0x20
 1199 045c 00       		.byte	0
 1200 045d 0F       		.uleb128 0xf
 1201 045e 04       		.byte	0x4
 1202 045f D0030000 		.4byte	0x3d0
 1203 0463 10       		.uleb128 0x10
 1204 0464 08       		.byte	0x8
 1205 0465 03       		.byte	0x3
 1206 0466 53       		.byte	0x53
 1207 0467 88040000 		.4byte	0x488
 1208 046b 03       		.uleb128 0x3
 1209 046c 1F040000 		.4byte	.LASF0
 1210 0470 03       		.byte	0x3
 1211 0471 54       		.byte	0x54
 1212 0472 88040000 		.4byte	0x488
 1213 0476 02       		.byte	0x2
 1214 0477 23       		.byte	0x23
 1215 0478 00       		.uleb128 0
 1216 0479 03       		.uleb128 0x3
 1217 047a 92030000 		.4byte	.LASF1
 1218 047e 03       		.byte	0x3
 1219 047f 55       		.byte	0x55
 1220 0480 88040000 		.4byte	0x488
 1221 0484 02       		.byte	0x2
 1222 0485 23       		.byte	0x23
ARM GAS  /tmp/ccZjsTj3.s 			page 48


 1223 0486 04       		.uleb128 0x4
 1224 0487 00       		.byte	0
 1225 0488 0F       		.uleb128 0xf
 1226 0489 04       		.byte	0x4
 1227 048a 29000000 		.4byte	0x29
 1228 048e 06       		.uleb128 0x6
 1229 048f 3E040000 		.4byte	.LASF59
 1230 0493 03       		.byte	0x3
 1231 0494 56       		.byte	0x56
 1232 0495 63040000 		.4byte	0x463
 1233 0499 10       		.uleb128 0x10
 1234 049a 04       		.byte	0x4
 1235 049b 03       		.byte	0x3
 1236 049c 5B       		.byte	0x5b
 1237 049d B0040000 		.4byte	0x4b0
 1238 04a1 03       		.uleb128 0x3
 1239 04a2 1F040000 		.4byte	.LASF0
 1240 04a6 03       		.byte	0x3
 1241 04a7 5C       		.byte	0x5c
 1242 04a8 88040000 		.4byte	0x488
 1243 04ac 02       		.byte	0x2
 1244 04ad 23       		.byte	0x23
 1245 04ae 00       		.uleb128 0
 1246 04af 00       		.byte	0
 1247 04b0 06       		.uleb128 0x6
 1248 04b1 EA050000 		.4byte	.LASF60
 1249 04b5 03       		.byte	0x3
 1250 04b6 5D       		.byte	0x5d
 1251 04b7 99040000 		.4byte	0x499
 1252 04bb 10       		.uleb128 0x10
 1253 04bc 1C       		.byte	0x1c
 1254 04bd 03       		.byte	0x3
 1255 04be 64       		.byte	0x64
 1256 04bf 18050000 		.4byte	0x518
 1257 04c3 03       		.uleb128 0x3
 1258 04c4 7B040000 		.4byte	.LASF61
 1259 04c8 03       		.byte	0x3
 1260 04c9 65       		.byte	0x65
 1261 04ca 8E040000 		.4byte	0x48e
 1262 04ce 02       		.byte	0x2
 1263 04cf 23       		.byte	0x23
 1264 04d0 00       		.uleb128 0
 1265 04d1 03       		.uleb128 0x3
 1266 04d2 11040000 		.4byte	.LASF62
 1267 04d6 03       		.byte	0x3
 1268 04d7 66       		.byte	0x66
 1269 04d8 F5010000 		.4byte	0x1f5
 1270 04dc 02       		.byte	0x2
 1271 04dd 23       		.byte	0x23
 1272 04de 08       		.uleb128 0x8
 1273 04df 03       		.uleb128 0x3
 1274 04e0 10030000 		.4byte	.LASF63
 1275 04e4 03       		.byte	0x3
 1276 04e5 68       		.byte	0x68
 1277 04e6 B5030000 		.4byte	0x3b5
 1278 04ea 02       		.byte	0x2
 1279 04eb 23       		.byte	0x23
ARM GAS  /tmp/ccZjsTj3.s 			page 49


 1280 04ec 0C       		.uleb128 0xc
 1281 04ed 03       		.uleb128 0x3
 1282 04ee 96010000 		.4byte	.LASF64
 1283 04f2 03       		.byte	0x3
 1284 04f3 6B       		.byte	0x6b
 1285 04f4 88040000 		.4byte	0x488
 1286 04f8 02       		.byte	0x2
 1287 04f9 23       		.byte	0x23
 1288 04fa 10       		.uleb128 0x10
 1289 04fb 03       		.uleb128 0x3
 1290 04fc 1D030000 		.4byte	.LASF65
 1291 0500 03       		.byte	0x3
 1292 0501 6C       		.byte	0x6c
 1293 0502 88040000 		.4byte	0x488
 1294 0506 02       		.byte	0x2
 1295 0507 23       		.byte	0x23
 1296 0508 14       		.uleb128 0x14
 1297 0509 03       		.uleb128 0x3
 1298 050a AB040000 		.4byte	.LASF66
 1299 050e 03       		.byte	0x3
 1300 050f 6F       		.byte	0x6f
 1301 0510 88040000 		.4byte	0x488
 1302 0514 02       		.byte	0x2
 1303 0515 23       		.byte	0x23
 1304 0516 18       		.uleb128 0x18
 1305 0517 00       		.byte	0
 1306 0518 06       		.uleb128 0x6
 1307 0519 08000000 		.4byte	.LASF67
 1308 051d 03       		.byte	0x3
 1309 051e 71       		.byte	0x71
 1310 051f BB040000 		.4byte	0x4bb
 1311 0523 11       		.uleb128 0x11
 1312 0524 04       		.byte	0x4
 1313 0525 03       		.byte	0x3
 1314 0526 B1       		.byte	0xb1
 1315 0527 58050000 		.4byte	0x558
 1316 052b 12       		.uleb128 0x12
 1317 052c 1C000000 		.4byte	.LASF68
 1318 0530 03       		.byte	0x3
 1319 0531 B8       		.byte	0xb8
 1320 0532 00020000 		.4byte	0x200
 1321 0536 12       		.uleb128 0x12
 1322 0537 71000000 		.4byte	.LASF69
 1323 053b 03       		.byte	0x3
 1324 053c BF       		.byte	0xbf
 1325 053d 00020000 		.4byte	0x200
 1326 0541 12       		.uleb128 0x12
 1327 0542 E3050000 		.4byte	.LASF70
 1328 0546 03       		.byte	0x3
 1329 0547 C6       		.byte	0xc6
 1330 0548 A8030000 		.4byte	0x3a8
 1331 054c 12       		.uleb128 0x12
 1332 054d 18040000 		.4byte	.LASF71
 1333 0551 03       		.byte	0x3
 1334 0552 CD       		.byte	0xcd
 1335 0553 0B020000 		.4byte	0x20b
 1336 0557 00       		.byte	0
ARM GAS  /tmp/ccZjsTj3.s 			page 50


 1337 0558 0F       		.uleb128 0xf
 1338 0559 04       		.byte	0x4
 1339 055a 5E050000 		.4byte	0x55e
 1340 055e 09       		.uleb128 0x9
 1341 055f 63050000 		.4byte	0x563
 1342 0563 07       		.uleb128 0x7
 1343 0564 01       		.byte	0x1
 1344 0565 08       		.byte	0x8
 1345 0566 BA040000 		.4byte	.LASF72
 1346 056a 02       		.uleb128 0x2
 1347 056b B3030000 		.4byte	.LASF73
 1348 056f 10       		.byte	0x10
 1349 0570 0A       		.byte	0xa
 1350 0571 3A       		.byte	0x3a
 1351 0572 A1050000 		.4byte	0x5a1
 1352 0576 03       		.uleb128 0x3
 1353 0577 F5000000 		.4byte	.LASF74
 1354 057b 0A       		.byte	0xa
 1355 057c 3B       		.byte	0x3b
 1356 057d 8E040000 		.4byte	0x48e
 1357 0581 02       		.byte	0x2
 1358 0582 23       		.byte	0x23
 1359 0583 00       		.uleb128 0
 1360 0584 03       		.uleb128 0x3
 1361 0585 17060000 		.4byte	.LASF75
 1362 0589 0A       		.byte	0xa
 1363 058a 3D       		.byte	0x3d
 1364 058b 88040000 		.4byte	0x488
 1365 058f 02       		.byte	0x2
 1366 0590 23       		.byte	0x23
 1367 0591 08       		.uleb128 0x8
 1368 0592 03       		.uleb128 0x3
 1369 0593 C7040000 		.4byte	.LASF76
 1370 0597 0A       		.byte	0xa
 1371 0598 3F       		.byte	0x3f
 1372 0599 F5060000 		.4byte	0x6f5
 1373 059d 02       		.byte	0x2
 1374 059e 23       		.byte	0x23
 1375 059f 0C       		.uleb128 0xc
 1376 05a0 00       		.byte	0
 1377 05a1 0F       		.uleb128 0xf
 1378 05a2 04       		.byte	0x4
 1379 05a3 6A050000 		.4byte	0x56a
 1380 05a7 0D       		.uleb128 0xd
 1381 05a8 E3040000 		.4byte	.LASF77
 1382 05ac 03       		.byte	0x3
 1383 05ad 0301     		.2byte	0x103
 1384 05af B3050000 		.4byte	0x5b3
 1385 05b3 0F       		.uleb128 0xf
 1386 05b4 04       		.byte	0x4
 1387 05b5 B9050000 		.4byte	0x5b9
 1388 05b9 13       		.uleb128 0x13
 1389 05ba 01       		.byte	0x1
 1390 05bb C5050000 		.4byte	0x5c5
 1391 05bf 14       		.uleb128 0x14
 1392 05c0 A8030000 		.4byte	0x3a8
 1393 05c4 00       		.byte	0
ARM GAS  /tmp/ccZjsTj3.s 			page 51


 1394 05c5 0D       		.uleb128 0xd
 1395 05c6 CA020000 		.4byte	.LASF78
 1396 05ca 03       		.byte	0x3
 1397 05cb 0801     		.2byte	0x108
 1398 05cd D1050000 		.4byte	0x5d1
 1399 05d1 15       		.uleb128 0x15
 1400 05d2 66050000 		.4byte	.LASF79
 1401 05d6 14       		.byte	0x14
 1402 05d7 03       		.byte	0x3
 1403 05d8 0F01     		.2byte	0x10f
 1404 05da 2A060000 		.4byte	0x62a
 1405 05de 0C       		.uleb128 0xc
 1406 05df E2010000 		.4byte	.LASF80
 1407 05e3 03       		.byte	0x3
 1408 05e4 1001     		.2byte	0x110
 1409 05e6 2A060000 		.4byte	0x62a
 1410 05ea 02       		.byte	0x2
 1411 05eb 23       		.byte	0x23
 1412 05ec 00       		.uleb128 0
 1413 05ed 0C       		.uleb128 0xc
 1414 05ee A7010000 		.4byte	.LASF81
 1415 05f2 03       		.byte	0x3
 1416 05f3 1101     		.2byte	0x111
 1417 05f5 2A060000 		.4byte	0x62a
 1418 05f9 02       		.byte	0x2
 1419 05fa 23       		.byte	0x23
 1420 05fb 04       		.uleb128 0x4
 1421 05fc 0C       		.uleb128 0xc
 1422 05fd 83040000 		.4byte	.LASF82
 1423 0601 03       		.byte	0x3
 1424 0602 1201     		.2byte	0x112
 1425 0604 92030000 		.4byte	0x392
 1426 0608 02       		.byte	0x2
 1427 0609 23       		.byte	0x23
 1428 060a 08       		.uleb128 0x8
 1429 060b 0C       		.uleb128 0xc
 1430 060c 2F060000 		.4byte	.LASF83
 1431 0610 03       		.byte	0x3
 1432 0611 1301     		.2byte	0x113
 1433 0613 A7050000 		.4byte	0x5a7
 1434 0617 02       		.byte	0x2
 1435 0618 23       		.byte	0x23
 1436 0619 0C       		.uleb128 0xc
 1437 061a 0C       		.uleb128 0xc
 1438 061b 74050000 		.4byte	.LASF84
 1439 061f 03       		.byte	0x3
 1440 0620 1501     		.2byte	0x115
 1441 0622 A8030000 		.4byte	0x3a8
 1442 0626 02       		.byte	0x2
 1443 0627 23       		.byte	0x23
 1444 0628 10       		.uleb128 0x10
 1445 0629 00       		.byte	0
 1446 062a 0F       		.uleb128 0xf
 1447 062b 04       		.byte	0x4
 1448 062c C5050000 		.4byte	0x5c5
 1449 0630 0A       		.uleb128 0xa
 1450 0631 0C       		.byte	0xc
ARM GAS  /tmp/ccZjsTj3.s 			page 52


 1451 0632 03       		.byte	0x3
 1452 0633 1F01     		.2byte	0x11f
 1453 0635 76060000 		.4byte	0x676
 1454 0639 0C       		.uleb128 0xc
 1455 063a E2010000 		.4byte	.LASF80
 1456 063e 03       		.byte	0x3
 1457 063f 2001     		.2byte	0x120
 1458 0641 2A060000 		.4byte	0x62a
 1459 0645 02       		.byte	0x2
 1460 0646 23       		.byte	0x23
 1461 0647 00       		.uleb128 0
 1462 0648 0C       		.uleb128 0xc
 1463 0649 A7010000 		.4byte	.LASF81
 1464 064d 03       		.byte	0x3
 1465 064e 2201     		.2byte	0x122
 1466 0650 2A060000 		.4byte	0x62a
 1467 0654 02       		.byte	0x2
 1468 0655 23       		.byte	0x23
 1469 0656 04       		.uleb128 0x4
 1470 0657 0C       		.uleb128 0xc
 1471 0658 83040000 		.4byte	.LASF82
 1472 065c 03       		.byte	0x3
 1473 065d 2401     		.2byte	0x124
 1474 065f 92030000 		.4byte	0x392
 1475 0663 02       		.byte	0x2
 1476 0664 23       		.byte	0x23
 1477 0665 08       		.uleb128 0x8
 1478 0666 0C       		.uleb128 0xc
 1479 0667 FC020000 		.4byte	.LASF85
 1480 066b 03       		.byte	0x3
 1481 066c 2C01     		.2byte	0x12c
 1482 066e 92030000 		.4byte	0x392
 1483 0672 02       		.byte	0x2
 1484 0673 23       		.byte	0x23
 1485 0674 0A       		.uleb128 0xa
 1486 0675 00       		.byte	0
 1487 0676 0D       		.uleb128 0xd
 1488 0677 7A000000 		.4byte	.LASF86
 1489 067b 03       		.byte	0x3
 1490 067c 2F01     		.2byte	0x12f
 1491 067e 30060000 		.4byte	0x630
 1492 0682 15       		.uleb128 0x15
 1493 0683 4C010000 		.4byte	.LASF87
 1494 0687 2C       		.byte	0x2c
 1495 0688 03       		.byte	0x3
 1496 0689 3601     		.2byte	0x136
 1497 068b BD060000 		.4byte	0x6bd
 1498 068f 0C       		.uleb128 0xc
 1499 0690 C8050000 		.4byte	.LASF88
 1500 0694 03       		.byte	0x3
 1501 0695 3A01     		.2byte	0x13a
 1502 0697 18050000 		.4byte	0x518
 1503 069b 02       		.byte	0x2
 1504 069c 23       		.byte	0x23
 1505 069d 00       		.uleb128 0
 1506 069e 0C       		.uleb128 0xc
 1507 069f 38000000 		.4byte	.LASF89
ARM GAS  /tmp/ccZjsTj3.s 			page 53


 1508 06a3 03       		.byte	0x3
 1509 06a4 3E01     		.2byte	0x13e
 1510 06a6 76060000 		.4byte	0x676
 1511 06aa 02       		.byte	0x2
 1512 06ab 23       		.byte	0x23
 1513 06ac 1C       		.uleb128 0x1c
 1514 06ad 0C       		.uleb128 0xc
 1515 06ae 97050000 		.4byte	.LASF90
 1516 06b2 03       		.byte	0x3
 1517 06b3 4301     		.2byte	0x143
 1518 06b5 C9010000 		.4byte	0x1c9
 1519 06b9 02       		.byte	0x2
 1520 06ba 23       		.byte	0x23
 1521 06bb 28       		.uleb128 0x28
 1522 06bc 00       		.byte	0
 1523 06bd 0D       		.uleb128 0xd
 1524 06be 5A020000 		.4byte	.LASF91
 1525 06c2 03       		.byte	0x3
 1526 06c3 6501     		.2byte	0x165
 1527 06c5 82060000 		.4byte	0x682
 1528 06c9 06       		.uleb128 0x6
 1529 06ca 00000000 		.4byte	.LASF92
 1530 06ce 0B       		.byte	0xb
 1531 06cf 68       		.byte	0x68
 1532 06d0 D4060000 		.4byte	0x6d4
 1533 06d4 0F       		.uleb128 0xf
 1534 06d5 04       		.byte	0x4
 1535 06d6 DA060000 		.4byte	0x6da
 1536 06da 16       		.uleb128 0x16
 1537 06db 01       		.byte	0x1
 1538 06dc 00020000 		.4byte	0x200
 1539 06e0 EA060000 		.4byte	0x6ea
 1540 06e4 14       		.uleb128 0x14
 1541 06e5 A8030000 		.4byte	0x3a8
 1542 06e9 00       		.byte	0
 1543 06ea 06       		.uleb128 0x6
 1544 06eb AF010000 		.4byte	.LASF93
 1545 06ef 0A       		.byte	0xa
 1546 06f0 35       		.byte	0x35
 1547 06f1 6A050000 		.4byte	0x56a
 1548 06f5 0F       		.uleb128 0xf
 1549 06f6 04       		.byte	0x4
 1550 06f7 EA060000 		.4byte	0x6ea
 1551 06fb 06       		.uleb128 0x6
 1552 06fc 45050000 		.4byte	.LASF94
 1553 0700 0C       		.byte	0xc
 1554 0701 35       		.byte	0x35
 1555 0702 06070000 		.4byte	0x706
 1556 0706 02       		.uleb128 0x2
 1557 0707 37060000 		.4byte	.LASF95
 1558 070b 10       		.byte	0x10
 1559 070c 0C       		.byte	0xc
 1560 070d 3A       		.byte	0x3a
 1561 070e 4B070000 		.4byte	0x74b
 1562 0712 03       		.uleb128 0x3
 1563 0713 2E040000 		.4byte	.LASF96
 1564 0717 0C       		.byte	0xc
ARM GAS  /tmp/ccZjsTj3.s 			page 54


 1565 0718 3B       		.byte	0x3b
 1566 0719 4B070000 		.4byte	0x74b
 1567 071d 02       		.byte	0x2
 1568 071e 23       		.byte	0x23
 1569 071f 00       		.uleb128 0
 1570 0720 03       		.uleb128 0x3
 1571 0721 E0030000 		.4byte	.LASF97
 1572 0725 0C       		.byte	0xc
 1573 0726 3E       		.byte	0x3e
 1574 0727 88040000 		.4byte	0x488
 1575 072b 02       		.byte	0x2
 1576 072c 23       		.byte	0x23
 1577 072d 04       		.uleb128 0x4
 1578 072e 03       		.uleb128 0x3
 1579 072f 25030000 		.4byte	.LASF98
 1580 0733 0C       		.byte	0xc
 1581 0734 40       		.byte	0x40
 1582 0735 0B020000 		.4byte	0x20b
 1583 0739 02       		.byte	0x2
 1584 073a 23       		.byte	0x23
 1585 073b 08       		.uleb128 0x8
 1586 073c 03       		.uleb128 0x3
 1587 073d EC030000 		.4byte	.LASF99
 1588 0741 0C       		.byte	0xc
 1589 0742 41       		.byte	0x41
 1590 0743 16020000 		.4byte	0x216
 1591 0747 02       		.byte	0x2
 1592 0748 23       		.byte	0x23
 1593 0749 0C       		.uleb128 0xc
 1594 074a 00       		.byte	0
 1595 074b 0F       		.uleb128 0xf
 1596 074c 04       		.byte	0x4
 1597 074d FB060000 		.4byte	0x6fb
 1598 0751 02       		.uleb128 0x2
 1599 0752 CE050000 		.4byte	.LASF100
 1600 0756 04       		.byte	0x4
 1601 0757 0C       		.byte	0xc
 1602 0758 48       		.byte	0x48
 1603 0759 6C070000 		.4byte	0x76c
 1604 075d 03       		.uleb128 0x3
 1605 075e B7050000 		.4byte	.LASF101
 1606 0762 0C       		.byte	0xc
 1607 0763 49       		.byte	0x49
 1608 0764 4B070000 		.4byte	0x74b
 1609 0768 02       		.byte	0x2
 1610 0769 23       		.byte	0x23
 1611 076a 00       		.uleb128 0
 1612 076b 00       		.byte	0
 1613 076c 06       		.uleb128 0x6
 1614 076d C0010000 		.4byte	.LASF102
 1615 0771 0C       		.byte	0xc
 1616 0772 4C       		.byte	0x4c
 1617 0773 51070000 		.4byte	0x751
 1618 0777 06       		.uleb128 0x6
 1619 0778 9D000000 		.4byte	.LASF103
 1620 077c 0D       		.byte	0xd
 1621 077d 40       		.byte	0x40
ARM GAS  /tmp/ccZjsTj3.s 			page 55


 1622 077e 82070000 		.4byte	0x782
 1623 0782 02       		.uleb128 0x2
 1624 0783 B7010000 		.4byte	.LASF104
 1625 0787 24       		.byte	0x24
 1626 0788 0D       		.byte	0xd
 1627 0789 4E       		.byte	0x4e
 1628 078a FF070000 		.4byte	0x7ff
 1629 078e 03       		.uleb128 0x3
 1630 078f B5000000 		.4byte	.LASF105
 1631 0793 0D       		.byte	0xd
 1632 0794 4F       		.byte	0x4f
 1633 0795 8E040000 		.4byte	0x48e
 1634 0799 02       		.byte	0x2
 1635 079a 23       		.byte	0x23
 1636 079b 00       		.uleb128 0
 1637 079c 03       		.uleb128 0x3
 1638 079d F2020000 		.4byte	.LASF106
 1639 07a1 0D       		.byte	0xd
 1640 07a2 50       		.byte	0x50
 1641 07a3 39010000 		.4byte	0x139
 1642 07a7 02       		.byte	0x2
 1643 07a8 23       		.byte	0x23
 1644 07a9 08       		.uleb128 0x8
 1645 07aa 03       		.uleb128 0x3
 1646 07ab 76010000 		.4byte	.LASF107
 1647 07af 0D       		.byte	0xd
 1648 07b0 51       		.byte	0x51
 1649 07b1 22080000 		.4byte	0x822
 1650 07b5 02       		.byte	0x2
 1651 07b6 23       		.byte	0x23
 1652 07b7 0C       		.uleb128 0xc
 1653 07b8 03       		.uleb128 0x3
 1654 07b9 AA050000 		.4byte	.LASF108
 1655 07bd 0D       		.byte	0xd
 1656 07be 52       		.byte	0x52
 1657 07bf 22080000 		.4byte	0x822
 1658 07c3 02       		.byte	0x2
 1659 07c4 23       		.byte	0x23
 1660 07c5 10       		.uleb128 0x10
 1661 07c6 03       		.uleb128 0x3
 1662 07c7 7F010000 		.4byte	.LASF109
 1663 07cb 0D       		.byte	0xd
 1664 07cc 54       		.byte	0x54
 1665 07cd 22080000 		.4byte	0x822
 1666 07d1 02       		.byte	0x2
 1667 07d2 23       		.byte	0x23
 1668 07d3 14       		.uleb128 0x14
 1669 07d4 03       		.uleb128 0x3
 1670 07d5 AB030000 		.4byte	.LASF110
 1671 07d9 0D       		.byte	0xd
 1672 07da 55       		.byte	0x55
 1673 07db 22080000 		.4byte	0x822
 1674 07df 02       		.byte	0x2
 1675 07e0 23       		.byte	0x23
 1676 07e1 18       		.uleb128 0x18
 1677 07e2 03       		.uleb128 0x3
 1678 07e3 BF050000 		.4byte	.LASF111
ARM GAS  /tmp/ccZjsTj3.s 			page 56


 1679 07e7 0D       		.byte	0xd
 1680 07e8 56       		.byte	0x56
 1681 07e9 FF070000 		.4byte	0x7ff
 1682 07ed 02       		.byte	0x2
 1683 07ee 23       		.byte	0x23
 1684 07ef 1C       		.uleb128 0x1c
 1685 07f0 03       		.uleb128 0x3
 1686 07f1 87010000 		.4byte	.LASF112
 1687 07f5 0D       		.byte	0xd
 1688 07f6 57       		.byte	0x57
 1689 07f7 A8030000 		.4byte	0x3a8
 1690 07fb 02       		.byte	0x2
 1691 07fc 23       		.byte	0x23
 1692 07fd 20       		.uleb128 0x20
 1693 07fe 00       		.byte	0
 1694 07ff 06       		.uleb128 0x6
 1695 0800 95020000 		.4byte	.LASF113
 1696 0804 0D       		.byte	0xd
 1697 0805 43       		.byte	0x43
 1698 0806 0A080000 		.4byte	0x80a
 1699 080a 0F       		.uleb128 0xf
 1700 080b 04       		.byte	0x4
 1701 080c 10080000 		.4byte	0x810
 1702 0810 13       		.uleb128 0x13
 1703 0811 01       		.byte	0x1
 1704 0812 1C080000 		.4byte	0x81c
 1705 0816 14       		.uleb128 0x14
 1706 0817 1C080000 		.4byte	0x81c
 1707 081b 00       		.byte	0
 1708 081c 0F       		.uleb128 0xf
 1709 081d 04       		.byte	0x4
 1710 081e 77070000 		.4byte	0x777
 1711 0822 0F       		.uleb128 0xf
 1712 0823 04       		.byte	0x4
 1713 0824 52010000 		.4byte	0x152
 1714 0828 06       		.uleb128 0x6
 1715 0829 3F000000 		.4byte	.LASF114
 1716 082d 0D       		.byte	0xd
 1717 082e 65       		.byte	0x65
 1718 082f 77070000 		.4byte	0x777
 1719 0833 06       		.uleb128 0x6
 1720 0834 88050000 		.4byte	.LASF115
 1721 0838 0D       		.byte	0xd
 1722 0839 72       		.byte	0x72
 1723 083a 77070000 		.4byte	0x777
 1724 083e 16       		.uleb128 0x16
 1725 083f 01       		.byte	0x1
 1726 0840 39010000 		.4byte	0x139
 1727 0844 58080000 		.4byte	0x858
 1728 0848 14       		.uleb128 0x14
 1729 0849 A8030000 		.4byte	0x3a8
 1730 084d 14       		.uleb128 0x14
 1731 084e 58080000 		.4byte	0x858
 1732 0852 14       		.uleb128 0x14
 1733 0853 39010000 		.4byte	0x139
 1734 0857 00       		.byte	0
 1735 0858 0F       		.uleb128 0xf
ARM GAS  /tmp/ccZjsTj3.s 			page 57


 1736 0859 04       		.byte	0x4
 1737 085a 28020000 		.4byte	0x228
 1738 085e 0F       		.uleb128 0xf
 1739 085f 04       		.byte	0x4
 1740 0860 3E080000 		.4byte	0x83e
 1741 0864 16       		.uleb128 0x16
 1742 0865 01       		.byte	0x1
 1743 0866 39010000 		.4byte	0x139
 1744 086a 7E080000 		.4byte	0x87e
 1745 086e 14       		.uleb128 0x14
 1746 086f A8030000 		.4byte	0x3a8
 1747 0873 14       		.uleb128 0x14
 1748 0874 22080000 		.4byte	0x822
 1749 0878 14       		.uleb128 0x14
 1750 0879 39010000 		.4byte	0x139
 1751 087d 00       		.byte	0
 1752 087e 0F       		.uleb128 0xf
 1753 087f 04       		.byte	0x4
 1754 0880 64080000 		.4byte	0x864
 1755 0884 16       		.uleb128 0x16
 1756 0885 01       		.byte	0x1
 1757 0886 00020000 		.4byte	0x200
 1758 088a 99080000 		.4byte	0x899
 1759 088e 14       		.uleb128 0x14
 1760 088f A8030000 		.4byte	0x3a8
 1761 0893 14       		.uleb128 0x14
 1762 0894 52010000 		.4byte	0x152
 1763 0898 00       		.byte	0
 1764 0899 0F       		.uleb128 0xf
 1765 089a 04       		.byte	0x4
 1766 089b 84080000 		.4byte	0x884
 1767 089f 07       		.uleb128 0x7
 1768 08a0 01       		.byte	0x1
 1769 08a1 02       		.byte	0x2
 1770 08a2 B9030000 		.4byte	.LASF116
 1771 08a6 16       		.uleb128 0x16
 1772 08a7 01       		.byte	0x1
 1773 08a8 00020000 		.4byte	0x200
 1774 08ac C0080000 		.4byte	0x8c0
 1775 08b0 14       		.uleb128 0x14
 1776 08b1 A8030000 		.4byte	0x3a8
 1777 08b5 14       		.uleb128 0x14
 1778 08b6 52010000 		.4byte	0x152
 1779 08ba 14       		.uleb128 0x14
 1780 08bb 92030000 		.4byte	0x392
 1781 08bf 00       		.byte	0
 1782 08c0 0F       		.uleb128 0xf
 1783 08c1 04       		.byte	0x4
 1784 08c2 A6080000 		.4byte	0x8a6
 1785 08c6 16       		.uleb128 0x16
 1786 08c7 01       		.byte	0x1
 1787 08c8 00020000 		.4byte	0x200
 1788 08cc DB080000 		.4byte	0x8db
 1789 08d0 14       		.uleb128 0x14
 1790 08d1 A8030000 		.4byte	0x3a8
 1791 08d5 14       		.uleb128 0x14
 1792 08d6 92030000 		.4byte	0x392
ARM GAS  /tmp/ccZjsTj3.s 			page 58


 1793 08da 00       		.byte	0
 1794 08db 0F       		.uleb128 0xf
 1795 08dc 04       		.byte	0x4
 1796 08dd C6080000 		.4byte	0x8c6
 1797 08e1 16       		.uleb128 0x16
 1798 08e2 01       		.byte	0x1
 1799 08e3 39010000 		.4byte	0x139
 1800 08e7 00090000 		.4byte	0x900
 1801 08eb 14       		.uleb128 0x14
 1802 08ec A8030000 		.4byte	0x3a8
 1803 08f0 14       		.uleb128 0x14
 1804 08f1 58080000 		.4byte	0x858
 1805 08f5 14       		.uleb128 0x14
 1806 08f6 39010000 		.4byte	0x139
 1807 08fa 14       		.uleb128 0x14
 1808 08fb 92030000 		.4byte	0x392
 1809 08ff 00       		.byte	0
 1810 0900 0F       		.uleb128 0xf
 1811 0901 04       		.byte	0x4
 1812 0902 E1080000 		.4byte	0x8e1
 1813 0906 16       		.uleb128 0x16
 1814 0907 01       		.byte	0x1
 1815 0908 39010000 		.4byte	0x139
 1816 090c 25090000 		.4byte	0x925
 1817 0910 14       		.uleb128 0x14
 1818 0911 A8030000 		.4byte	0x3a8
 1819 0915 14       		.uleb128 0x14
 1820 0916 22080000 		.4byte	0x822
 1821 091a 14       		.uleb128 0x14
 1822 091b 39010000 		.4byte	0x139
 1823 091f 14       		.uleb128 0x14
 1824 0920 92030000 		.4byte	0x392
 1825 0924 00       		.byte	0
 1826 0925 0F       		.uleb128 0xf
 1827 0926 04       		.byte	0x4
 1828 0927 06090000 		.4byte	0x906
 1829 092b 06       		.uleb128 0x6
 1830 092c 4D000000 		.4byte	.LASF117
 1831 0930 0E       		.byte	0xe
 1832 0931 6D       		.byte	0x6d
 1833 0932 8F010000 		.4byte	0x18f
 1834 0936 17       		.uleb128 0x17
 1835 0937 01       		.byte	0x1
 1836 0938 0F       		.byte	0xf
 1837 0939 59       		.byte	0x59
 1838 093a 51090000 		.4byte	0x951
 1839 093e 18       		.uleb128 0x18
 1840 093f 5E040000 		.4byte	.LASF118
 1841 0943 00       		.sleb128 0
 1842 0944 18       		.uleb128 0x18
 1843 0945 36040000 		.4byte	.LASF119
 1844 0949 01       		.sleb128 1
 1845 094a 18       		.uleb128 0x18
 1846 094b 45030000 		.4byte	.LASF120
 1847 094f 02       		.sleb128 2
 1848 0950 00       		.byte	0
 1849 0951 06       		.uleb128 0x6
ARM GAS  /tmp/ccZjsTj3.s 			page 59


 1850 0952 1F060000 		.4byte	.LASF121
 1851 0956 0F       		.byte	0xf
 1852 0957 5D       		.byte	0x5d
 1853 0958 36090000 		.4byte	0x936
 1854 095c 06       		.uleb128 0x6
 1855 095d 8C040000 		.4byte	.LASF122
 1856 0961 0F       		.byte	0xf
 1857 0962 62       		.byte	0x62
 1858 0963 67090000 		.4byte	0x967
 1859 0967 02       		.uleb128 0x2
 1860 0968 8C040000 		.4byte	.LASF122
 1861 096c 78       		.byte	0x78
 1862 096d 0F       		.byte	0xf
 1863 096e 7C       		.byte	0x7c
 1864 096f E2090000 		.4byte	0x9e2
 1865 0973 04       		.uleb128 0x4
 1866 0974 766D7400 		.ascii	"vmt\000"
 1867 0978 0F       		.byte	0xf
 1868 0979 7E       		.byte	0x7e
 1869 097a AB0A0000 		.4byte	0xaab
 1870 097e 02       		.byte	0x2
 1871 097f 23       		.byte	0x23
 1872 0980 00       		.uleb128 0
 1873 0981 03       		.uleb128 0x3
 1874 0982 34020000 		.4byte	.LASF123
 1875 0986 0F       		.byte	0xf
 1876 0987 7F       		.byte	0x7f
 1877 0988 6C070000 		.4byte	0x76c
 1878 098c 02       		.byte	0x2
 1879 098d 23       		.byte	0x23
 1880 098e 04       		.uleb128 0x4
 1881 098f 03       		.uleb128 0x3
 1882 0990 46010000 		.4byte	.LASF124
 1883 0994 0F       		.byte	0xf
 1884 0995 7F       		.byte	0x7f
 1885 0996 51090000 		.4byte	0x951
 1886 099a 02       		.byte	0x2
 1887 099b 23       		.byte	0x23
 1888 099c 08       		.uleb128 0x8
 1889 099d 03       		.uleb128 0x3
 1890 099e 03020000 		.4byte	.LASF125
 1891 09a2 0F       		.byte	0xf
 1892 09a3 7F       		.byte	0x7f
 1893 09a4 28080000 		.4byte	0x828
 1894 09a8 02       		.byte	0x2
 1895 09a9 23       		.byte	0x23
 1896 09aa 0C       		.uleb128 0xc
 1897 09ab 03       		.uleb128 0x3
 1898 09ac 53020000 		.4byte	.LASF126
 1899 09b0 0F       		.byte	0xf
 1900 09b1 7F       		.byte	0x7f
 1901 09b2 33080000 		.4byte	0x833
 1902 09b6 02       		.byte	0x2
 1903 09b7 23       		.byte	0x23
 1904 09b8 30       		.uleb128 0x30
 1905 09b9 04       		.uleb128 0x4
 1906 09ba 696200   		.ascii	"ib\000"
ARM GAS  /tmp/ccZjsTj3.s 			page 60


 1907 09bd 0F       		.byte	0xf
 1908 09be 7F       		.byte	0x7f
 1909 09bf B60A0000 		.4byte	0xab6
 1910 09c3 02       		.byte	0x2
 1911 09c4 23       		.byte	0x23
 1912 09c5 54       		.uleb128 0x54
 1913 09c6 04       		.uleb128 0x4
 1914 09c7 6F6200   		.ascii	"ob\000"
 1915 09ca 0F       		.byte	0xf
 1916 09cb 7F       		.byte	0x7f
 1917 09cc B60A0000 		.4byte	0xab6
 1918 09d0 02       		.byte	0x2
 1919 09d1 23       		.byte	0x23
 1920 09d2 64       		.uleb128 0x64
 1921 09d3 03       		.uleb128 0x3
 1922 09d4 CF010000 		.4byte	.LASF127
 1923 09d8 0F       		.byte	0xf
 1924 09d9 7F       		.byte	0x7f
 1925 09da C60A0000 		.4byte	0xac6
 1926 09de 02       		.byte	0x2
 1927 09df 23       		.byte	0x23
 1928 09e0 74       		.uleb128 0x74
 1929 09e1 00       		.byte	0
 1930 09e2 10       		.uleb128 0x10
 1931 09e3 0C       		.byte	0xc
 1932 09e4 10       		.byte	0x10
 1933 09e5 D7       		.byte	0xd7
 1934 09e6 230A0000 		.4byte	0xa23
 1935 09ea 03       		.uleb128 0x3
 1936 09eb 8F020000 		.4byte	.LASF128
 1937 09ef 10       		.byte	0x10
 1938 09f0 DB       		.byte	0xdb
 1939 09f1 8F010000 		.4byte	0x18f
 1940 09f5 02       		.byte	0x2
 1941 09f6 23       		.byte	0x23
 1942 09f7 00       		.uleb128 0
 1943 09f8 04       		.uleb128 0x4
 1944 09f9 63723100 		.ascii	"cr1\000"
 1945 09fd 10       		.byte	0x10
 1946 09fe E0       		.byte	0xe0
 1947 09ff 6B010000 		.4byte	0x16b
 1948 0a03 02       		.byte	0x2
 1949 0a04 23       		.byte	0x23
 1950 0a05 04       		.uleb128 0x4
 1951 0a06 04       		.uleb128 0x4
 1952 0a07 63723200 		.ascii	"cr2\000"
 1953 0a0b 10       		.byte	0x10
 1954 0a0c E4       		.byte	0xe4
 1955 0a0d 6B010000 		.4byte	0x16b
 1956 0a11 02       		.byte	0x2
 1957 0a12 23       		.byte	0x23
 1958 0a13 06       		.uleb128 0x6
 1959 0a14 04       		.uleb128 0x4
 1960 0a15 63723300 		.ascii	"cr3\000"
 1961 0a19 10       		.byte	0x10
 1962 0a1a E8       		.byte	0xe8
 1963 0a1b 6B010000 		.4byte	0x16b
ARM GAS  /tmp/ccZjsTj3.s 			page 61


 1964 0a1f 02       		.byte	0x2
 1965 0a20 23       		.byte	0x23
 1966 0a21 08       		.uleb128 0x8
 1967 0a22 00       		.byte	0
 1968 0a23 06       		.uleb128 0x6
 1969 0a24 38030000 		.4byte	.LASF129
 1970 0a28 10       		.byte	0x10
 1971 0a29 E9       		.byte	0xe9
 1972 0a2a E2090000 		.4byte	0x9e2
 1973 0a2e 02       		.uleb128 0x2
 1974 0a2f F3010000 		.4byte	.LASF130
 1975 0a33 20       		.byte	0x20
 1976 0a34 0F       		.byte	0xf
 1977 0a35 71       		.byte	0x71
 1978 0a36 AB0A0000 		.4byte	0xaab
 1979 0a3a 03       		.uleb128 0x3
 1980 0a3b C4020000 		.4byte	.LASF131
 1981 0a3f 0F       		.byte	0xf
 1982 0a40 72       		.byte	0x72
 1983 0a41 5E080000 		.4byte	0x85e
 1984 0a45 02       		.byte	0x2
 1985 0a46 23       		.byte	0x23
 1986 0a47 00       		.uleb128 0
 1987 0a48 03       		.uleb128 0x3
 1988 0a49 B5040000 		.4byte	.LASF132
 1989 0a4d 0F       		.byte	0xf
 1990 0a4e 72       		.byte	0x72
 1991 0a4f 7E080000 		.4byte	0x87e
 1992 0a53 02       		.byte	0x2
 1993 0a54 23       		.byte	0x23
 1994 0a55 04       		.uleb128 0x4
 1995 0a56 04       		.uleb128 0x4
 1996 0a57 70757400 		.ascii	"put\000"
 1997 0a5b 0F       		.byte	0xf
 1998 0a5c 72       		.byte	0x72
 1999 0a5d 99080000 		.4byte	0x899
 2000 0a61 02       		.byte	0x2
 2001 0a62 23       		.byte	0x23
 2002 0a63 08       		.uleb128 0x8
 2003 0a64 04       		.uleb128 0x4
 2004 0a65 67657400 		.ascii	"get\000"
 2005 0a69 0F       		.byte	0xf
 2006 0a6a 72       		.byte	0x72
 2007 0a6b D4060000 		.4byte	0x6d4
 2008 0a6f 02       		.byte	0x2
 2009 0a70 23       		.byte	0x23
 2010 0a71 0C       		.uleb128 0xc
 2011 0a72 03       		.uleb128 0x3
 2012 0a73 DA020000 		.4byte	.LASF133
 2013 0a77 0F       		.byte	0xf
 2014 0a78 72       		.byte	0x72
 2015 0a79 C0080000 		.4byte	0x8c0
 2016 0a7d 02       		.byte	0x2
 2017 0a7e 23       		.byte	0x23
 2018 0a7f 10       		.uleb128 0x10
 2019 0a80 03       		.uleb128 0x3
 2020 0a81 2A020000 		.4byte	.LASF134
ARM GAS  /tmp/ccZjsTj3.s 			page 62


 2021 0a85 0F       		.byte	0xf
 2022 0a86 72       		.byte	0x72
 2023 0a87 DB080000 		.4byte	0x8db
 2024 0a8b 02       		.byte	0x2
 2025 0a8c 23       		.byte	0x23
 2026 0a8d 14       		.uleb128 0x14
 2027 0a8e 03       		.uleb128 0x3
 2028 0a8f 74020000 		.4byte	.LASF135
 2029 0a93 0F       		.byte	0xf
 2030 0a94 72       		.byte	0x72
 2031 0a95 00090000 		.4byte	0x900
 2032 0a99 02       		.byte	0x2
 2033 0a9a 23       		.byte	0x23
 2034 0a9b 18       		.uleb128 0x18
 2035 0a9c 03       		.uleb128 0x3
 2036 0a9d AF000000 		.4byte	.LASF136
 2037 0aa1 0F       		.byte	0xf
 2038 0aa2 72       		.byte	0x72
 2039 0aa3 25090000 		.4byte	0x925
 2040 0aa7 02       		.byte	0x2
 2041 0aa8 23       		.byte	0x23
 2042 0aa9 1C       		.uleb128 0x1c
 2043 0aaa 00       		.byte	0
 2044 0aab 0F       		.uleb128 0xf
 2045 0aac 04       		.byte	0x4
 2046 0aad B10A0000 		.4byte	0xab1
 2047 0ab1 09       		.uleb128 0x9
 2048 0ab2 2E0A0000 		.4byte	0xa2e
 2049 0ab6 19       		.uleb128 0x19
 2050 0ab7 52010000 		.4byte	0x152
 2051 0abb C60A0000 		.4byte	0xac6
 2052 0abf 1A       		.uleb128 0x1a
 2053 0ac0 21020000 		.4byte	0x221
 2054 0ac4 0F       		.byte	0xf
 2055 0ac5 00       		.byte	0
 2056 0ac6 0F       		.uleb128 0xf
 2057 0ac7 04       		.byte	0x4
 2058 0ac8 86030000 		.4byte	0x386
 2059 0acc 19       		.uleb128 0x19
 2060 0acd AA030000 		.4byte	0x3aa
 2061 0ad1 DC0A0000 		.4byte	0xadc
 2062 0ad5 1A       		.uleb128 0x1a
 2063 0ad6 21020000 		.4byte	0x221
 2064 0ada 28       		.byte	0x28
 2065 0adb 00       		.byte	0
 2066 0adc 1B       		.uleb128 0x1b
 2067 0add 04060000 		.4byte	.LASF146
 2068 0ae1 02       		.byte	0x2
 2069 0ae2 82       		.byte	0x82
 2070 0ae3 01       		.byte	0x1
 2071 0ae4 03       		.byte	0x3
 2072 0ae5 F50A0000 		.4byte	0xaf5
 2073 0ae9 1C       		.uleb128 0x1c
 2074 0aea 2F020000 		.4byte	.LASF147
 2075 0aee 02       		.byte	0x2
 2076 0aef 82       		.byte	0x82
 2077 0af0 58050000 		.4byte	0x558
ARM GAS  /tmp/ccZjsTj3.s 			page 63


 2078 0af4 00       		.byte	0
 2079 0af5 1D       		.uleb128 0x1d
 2080 0af6 AA020000 		.4byte	.LASF148
 2081 0afa 01       		.byte	0x1
 2082 0afb 19       		.byte	0x19
 2083 0afc 01       		.byte	0x1
 2084 0afd 00020000 		.4byte	0x200
 2085 0b01 00000000 		.4byte	.LFB194
 2086 0b05 34000000 		.4byte	.LFE194
 2087 0b09 00000000 		.4byte	.LLST0
 2088 0b0d 01       		.byte	0x1
 2089 0b0e 680B0000 		.4byte	0xb68
 2090 0b12 1E       		.uleb128 0x1e
 2091 0b13 61726700 		.ascii	"arg\000"
 2092 0b17 01       		.byte	0x1
 2093 0b18 19       		.byte	0x19
 2094 0b19 A8030000 		.4byte	0x3a8
 2095 0b1d 20000000 		.4byte	.LLST1
 2096 0b21 1F       		.uleb128 0x1f
 2097 0b22 DC0A0000 		.4byte	0xadc
 2098 0b26 00000000 		.4byte	.LBB4
 2099 0b2a 00000000 		.4byte	.Ldebug_ranges0+0
 2100 0b2e 01       		.byte	0x1
 2101 0b2f 1D       		.byte	0x1d
 2102 0b30 410B0000 		.4byte	0xb41
 2103 0b34 20       		.uleb128 0x20
 2104 0b35 E90A0000 		.4byte	0xae9
 2105 0b39 06       		.byte	0x6
 2106 0b3a 03       		.byte	0x3
 2107 0b3b 00000000 		.4byte	.LC0
 2108 0b3f 9F       		.byte	0x9f
 2109 0b40 00       		.byte	0
 2110 0b41 21       		.uleb128 0x21
 2111 0b42 20000000 		.4byte	.LVL2
 2112 0b46 370C0000 		.4byte	0xc37
 2113 0b4a 560B0000 		.4byte	0xb56
 2114 0b4e 22       		.uleb128 0x22
 2115 0b4f 01       		.byte	0x1
 2116 0b50 50       		.byte	0x50
 2117 0b51 03       		.byte	0x3
 2118 0b52 0A       		.byte	0xa
 2119 0b53 8813     		.2byte	0x1388
 2120 0b55 00       		.byte	0
 2121 0b56 23       		.uleb128 0x23
 2122 0b57 2A000000 		.4byte	.LVL3
 2123 0b5b 370C0000 		.4byte	0xc37
 2124 0b5f 22       		.uleb128 0x22
 2125 0b60 01       		.byte	0x1
 2126 0b61 50       		.byte	0x50
 2127 0b62 03       		.byte	0x3
 2128 0b63 0A       		.byte	0xa
 2129 0b64 8813     		.2byte	0x1388
 2130 0b66 00       		.byte	0
 2131 0b67 00       		.byte	0
 2132 0b68 24       		.uleb128 0x24
 2133 0b69 01       		.byte	0x1
 2134 0b6a FF050000 		.4byte	.LASF149
ARM GAS  /tmp/ccZjsTj3.s 			page 64


 2135 0b6e 01       		.byte	0x1
 2136 0b6f 29       		.byte	0x29
 2137 0b70 01       		.byte	0x1
 2138 0b71 32010000 		.4byte	0x132
 2139 0b75 00000000 		.4byte	.LFB195
 2140 0b79 54000000 		.4byte	.LFE195
 2141 0b7d 41000000 		.4byte	.LLST2
 2142 0b81 01       		.byte	0x1
 2143 0b82 FD0B0000 		.4byte	0xbfd
 2144 0b86 25       		.uleb128 0x25
 2145 0b87 08000000 		.4byte	.LVL4
 2146 0b8b 4B0C0000 		.4byte	0xc4b
 2147 0b8f 25       		.uleb128 0x25
 2148 0b90 0C000000 		.4byte	.LVL5
 2149 0b94 550C0000 		.4byte	0xc55
 2150 0b98 21       		.uleb128 0x21
 2151 0b99 14000000 		.4byte	.LVL6
 2152 0b9d 5F0C0000 		.4byte	0xc5f
 2153 0ba1 AB0B0000 		.4byte	0xbab
 2154 0ba5 22       		.uleb128 0x22
 2155 0ba6 01       		.byte	0x1
 2156 0ba7 51       		.byte	0x51
 2157 0ba8 01       		.byte	0x1
 2158 0ba9 30       		.byte	0x30
 2159 0baa 00       		.byte	0
 2160 0bab 21       		.uleb128 0x21
 2161 0bac 2A000000 		.4byte	.LVL7
 2162 0bb0 8A0C0000 		.4byte	0xc8a
 2163 0bb4 DE0B0000 		.4byte	0xbde
 2164 0bb8 22       		.uleb128 0x22
 2165 0bb9 01       		.byte	0x1
 2166 0bba 53       		.byte	0x53
 2167 0bbb 05       		.byte	0x5
 2168 0bbc 03       		.byte	0x3
 2169 0bbd 00000000 		.4byte	Thread1
 2170 0bc1 22       		.uleb128 0x22
 2171 0bc2 01       		.byte	0x1
 2172 0bc3 52       		.byte	0x52
 2173 0bc4 02       		.byte	0x2
 2174 0bc5 08       		.byte	0x8
 2175 0bc6 41       		.byte	0x41
 2176 0bc7 22       		.uleb128 0x22
 2177 0bc8 01       		.byte	0x1
 2178 0bc9 51       		.byte	0x51
 2179 0bca 03       		.byte	0x3
 2180 0bcb 0A       		.byte	0xa
 2181 0bcc 4801     		.2byte	0x148
 2182 0bce 22       		.uleb128 0x22
 2183 0bcf 01       		.byte	0x1
 2184 0bd0 50       		.byte	0x50
 2185 0bd1 05       		.byte	0x5
 2186 0bd2 03       		.byte	0x3
 2187 0bd3 00000000 		.4byte	.LANCHOR0
 2188 0bd7 22       		.uleb128 0x22
 2189 0bd8 02       		.byte	0x2
 2190 0bd9 7D       		.byte	0x7d
 2191 0bda 00       		.sleb128 0
ARM GAS  /tmp/ccZjsTj3.s 			page 65


 2192 0bdb 01       		.byte	0x1
 2193 0bdc 30       		.byte	0x30
 2194 0bdd 00       		.byte	0
 2195 0bde 21       		.uleb128 0x21
 2196 0bdf 38000000 		.4byte	.LVL8
 2197 0be3 370C0000 		.4byte	0xc37
 2198 0be7 F30B0000 		.4byte	0xbf3
 2199 0beb 22       		.uleb128 0x22
 2200 0bec 01       		.byte	0x1
 2201 0bed 50       		.byte	0x50
 2202 0bee 03       		.byte	0x3
 2203 0bef 0A       		.byte	0xa
 2204 0bf0 8813     		.2byte	0x1388
 2205 0bf2 00       		.byte	0
 2206 0bf3 25       		.uleb128 0x25
 2207 0bf4 44000000 		.4byte	.LVL9
 2208 0bf8 B60C0000 		.4byte	0xcb6
 2209 0bfc 00       		.byte	0
 2210 0bfd 26       		.uleb128 0x26
 2211 0bfe 4E030000 		.4byte	.LASF150
 2212 0c02 01       		.byte	0x1
 2213 0c03 18       		.byte	0x18
 2214 0c04 CC0A0000 		.4byte	0xacc
 2215 0c08 05       		.byte	0x5
 2216 0c09 03       		.byte	0x3
 2217 0c0a 00000000 		.4byte	waThread1
 2218 0c0e 27       		.uleb128 0x27
 2219 0c0f 90000000 		.4byte	.LASF137
 2220 0c13 14       		.byte	0x14
 2221 0c14 1606     		.2byte	0x616
 2222 0c16 BF010000 		.4byte	0x1bf
 2223 0c1a 01       		.byte	0x1
 2224 0c1b 01       		.byte	0x1
 2225 0c1c 28       		.uleb128 0x28
 2226 0c1d 636800   		.ascii	"ch\000"
 2227 0c20 03       		.byte	0x3
 2228 0c21 8901     		.2byte	0x189
 2229 0c23 BD060000 		.4byte	0x6bd
 2230 0c27 01       		.byte	0x1
 2231 0c28 01       		.byte	0x1
 2232 0c29 28       		.uleb128 0x28
 2233 0c2a 53443200 		.ascii	"SD2\000"
 2234 0c2e 10       		.byte	0x10
 2235 0c2f 1201     		.2byte	0x112
 2236 0c31 5C090000 		.4byte	0x95c
 2237 0c35 01       		.byte	0x1
 2238 0c36 01       		.byte	0x1
 2239 0c37 29       		.uleb128 0x29
 2240 0c38 01       		.byte	0x1
 2241 0c39 2D030000 		.4byte	.LASF140
 2242 0c3d 0B       		.byte	0xb
 2243 0c3e FD       		.byte	0xfd
 2244 0c3f 01       		.byte	0x1
 2245 0c40 01       		.byte	0x1
 2246 0c41 4B0C0000 		.4byte	0xc4b
 2247 0c45 14       		.uleb128 0x14
 2248 0c46 92030000 		.4byte	0x392
ARM GAS  /tmp/ccZjsTj3.s 			page 66


 2249 0c4a 00       		.byte	0
 2250 0c4b 2A       		.uleb128 0x2a
 2251 0c4c 01       		.byte	0x1
 2252 0c4d 22020000 		.4byte	.LASF138
 2253 0c51 11       		.byte	0x11
 2254 0c52 6A       		.byte	0x6a
 2255 0c53 01       		.byte	0x1
 2256 0c54 01       		.byte	0x1
 2257 0c55 2A       		.uleb128 0x2a
 2258 0c56 01       		.byte	0x1
 2259 0c57 DE000000 		.4byte	.LASF139
 2260 0c5b 12       		.byte	0x12
 2261 0c5c E6       		.byte	0xe6
 2262 0c5d 01       		.byte	0x1
 2263 0c5e 01       		.byte	0x1
 2264 0c5f 2B       		.uleb128 0x2b
 2265 0c60 01       		.byte	0x1
 2266 0c61 BF040000 		.4byte	.LASF141
 2267 0c65 0F       		.byte	0xf
 2268 0c66 2C01     		.2byte	0x12c
 2269 0c68 01       		.byte	0x1
 2270 0c69 01       		.byte	0x1
 2271 0c6a 790C0000 		.4byte	0xc79
 2272 0c6e 14       		.uleb128 0x14
 2273 0c6f 790C0000 		.4byte	0xc79
 2274 0c73 14       		.uleb128 0x14
 2275 0c74 7F0C0000 		.4byte	0xc7f
 2276 0c78 00       		.byte	0
 2277 0c79 0F       		.uleb128 0xf
 2278 0c7a 04       		.byte	0x4
 2279 0c7b 5C090000 		.4byte	0x95c
 2280 0c7f 0F       		.uleb128 0xf
 2281 0c80 04       		.byte	0x4
 2282 0c81 850C0000 		.4byte	0xc85
 2283 0c85 09       		.uleb128 0x9
 2284 0c86 230A0000 		.4byte	0xa23
 2285 0c8a 2C       		.uleb128 0x2c
 2286 0c8b 01       		.byte	0x1
 2287 0c8c B2020000 		.4byte	.LASF151
 2288 0c90 0B       		.byte	0xb
 2289 0c91 F0       		.byte	0xf0
 2290 0c92 01       		.byte	0x1
 2291 0c93 88040000 		.4byte	0x488
 2292 0c97 01       		.byte	0x1
 2293 0c98 B60C0000 		.4byte	0xcb6
 2294 0c9c 14       		.uleb128 0x14
 2295 0c9d A8030000 		.4byte	0x3a8
 2296 0ca1 14       		.uleb128 0x14
 2297 0ca2 39010000 		.4byte	0x139
 2298 0ca6 14       		.uleb128 0x14
 2299 0ca7 F5010000 		.4byte	0x1f5
 2300 0cab 14       		.uleb128 0x14
 2301 0cac C9060000 		.4byte	0x6c9
 2302 0cb0 14       		.uleb128 0x14
 2303 0cb1 A8030000 		.4byte	0x3a8
 2304 0cb5 00       		.byte	0
 2305 0cb6 2D       		.uleb128 0x2d
ARM GAS  /tmp/ccZjsTj3.s 			page 67


 2306 0cb7 01       		.byte	0x1
 2307 0cb8 D5030000 		.4byte	.LASF142
 2308 0cbc 13       		.byte	0x13
 2309 0cbd 52       		.byte	0x52
 2310 0cbe 01       		.byte	0x1
 2311 0cbf 00020000 		.4byte	0x200
 2312 0cc3 01       		.byte	0x1
 2313 0cc4 14       		.uleb128 0x14
 2314 0cc5 A8030000 		.4byte	0x3a8
 2315 0cc9 00       		.byte	0
 2316 0cca 00       		.byte	0
 2317              		.section	.debug_abbrev,"",%progbits
 2318              	.Ldebug_abbrev0:
 2319 0000 01       		.uleb128 0x1
 2320 0001 11       		.uleb128 0x11
 2321 0002 01       		.byte	0x1
 2322 0003 25       		.uleb128 0x25
 2323 0004 0E       		.uleb128 0xe
 2324 0005 13       		.uleb128 0x13
 2325 0006 0B       		.uleb128 0xb
 2326 0007 03       		.uleb128 0x3
 2327 0008 0E       		.uleb128 0xe
 2328 0009 1B       		.uleb128 0x1b
 2329 000a 0E       		.uleb128 0xe
 2330 000b 55       		.uleb128 0x55
 2331 000c 06       		.uleb128 0x6
 2332 000d 11       		.uleb128 0x11
 2333 000e 01       		.uleb128 0x1
 2334 000f 52       		.uleb128 0x52
 2335 0010 01       		.uleb128 0x1
 2336 0011 10       		.uleb128 0x10
 2337 0012 06       		.uleb128 0x6
 2338 0013 00       		.byte	0
 2339 0014 00       		.byte	0
 2340 0015 02       		.uleb128 0x2
 2341 0016 13       		.uleb128 0x13
 2342 0017 01       		.byte	0x1
 2343 0018 03       		.uleb128 0x3
 2344 0019 0E       		.uleb128 0xe
 2345 001a 0B       		.uleb128 0xb
 2346 001b 0B       		.uleb128 0xb
 2347 001c 3A       		.uleb128 0x3a
 2348 001d 0B       		.uleb128 0xb
 2349 001e 3B       		.uleb128 0x3b
 2350 001f 0B       		.uleb128 0xb
 2351 0020 01       		.uleb128 0x1
 2352 0021 13       		.uleb128 0x13
 2353 0022 00       		.byte	0
 2354 0023 00       		.byte	0
 2355 0024 03       		.uleb128 0x3
 2356 0025 0D       		.uleb128 0xd
 2357 0026 00       		.byte	0
 2358 0027 03       		.uleb128 0x3
 2359 0028 0E       		.uleb128 0xe
 2360 0029 3A       		.uleb128 0x3a
 2361 002a 0B       		.uleb128 0xb
 2362 002b 3B       		.uleb128 0x3b
ARM GAS  /tmp/ccZjsTj3.s 			page 68


 2363 002c 0B       		.uleb128 0xb
 2364 002d 49       		.uleb128 0x49
 2365 002e 13       		.uleb128 0x13
 2366 002f 38       		.uleb128 0x38
 2367 0030 0A       		.uleb128 0xa
 2368 0031 00       		.byte	0
 2369 0032 00       		.byte	0
 2370 0033 04       		.uleb128 0x4
 2371 0034 0D       		.uleb128 0xd
 2372 0035 00       		.byte	0
 2373 0036 03       		.uleb128 0x3
 2374 0037 08       		.uleb128 0x8
 2375 0038 3A       		.uleb128 0x3a
 2376 0039 0B       		.uleb128 0xb
 2377 003a 3B       		.uleb128 0x3b
 2378 003b 0B       		.uleb128 0xb
 2379 003c 49       		.uleb128 0x49
 2380 003d 13       		.uleb128 0x13
 2381 003e 38       		.uleb128 0x38
 2382 003f 0A       		.uleb128 0xa
 2383 0040 00       		.byte	0
 2384 0041 00       		.byte	0
 2385 0042 05       		.uleb128 0x5
 2386 0043 24       		.uleb128 0x24
 2387 0044 00       		.byte	0
 2388 0045 0B       		.uleb128 0xb
 2389 0046 0B       		.uleb128 0xb
 2390 0047 3E       		.uleb128 0x3e
 2391 0048 0B       		.uleb128 0xb
 2392 0049 03       		.uleb128 0x3
 2393 004a 08       		.uleb128 0x8
 2394 004b 00       		.byte	0
 2395 004c 00       		.byte	0
 2396 004d 06       		.uleb128 0x6
 2397 004e 16       		.uleb128 0x16
 2398 004f 00       		.byte	0
 2399 0050 03       		.uleb128 0x3
 2400 0051 0E       		.uleb128 0xe
 2401 0052 3A       		.uleb128 0x3a
 2402 0053 0B       		.uleb128 0xb
 2403 0054 3B       		.uleb128 0x3b
 2404 0055 0B       		.uleb128 0xb
 2405 0056 49       		.uleb128 0x49
 2406 0057 13       		.uleb128 0x13
 2407 0058 00       		.byte	0
 2408 0059 00       		.byte	0
 2409 005a 07       		.uleb128 0x7
 2410 005b 24       		.uleb128 0x24
 2411 005c 00       		.byte	0
 2412 005d 0B       		.uleb128 0xb
 2413 005e 0B       		.uleb128 0xb
 2414 005f 3E       		.uleb128 0x3e
 2415 0060 0B       		.uleb128 0xb
 2416 0061 03       		.uleb128 0x3
 2417 0062 0E       		.uleb128 0xe
 2418 0063 00       		.byte	0
 2419 0064 00       		.byte	0
ARM GAS  /tmp/ccZjsTj3.s 			page 69


 2420 0065 08       		.uleb128 0x8
 2421 0066 35       		.uleb128 0x35
 2422 0067 00       		.byte	0
 2423 0068 49       		.uleb128 0x49
 2424 0069 13       		.uleb128 0x13
 2425 006a 00       		.byte	0
 2426 006b 00       		.byte	0
 2427 006c 09       		.uleb128 0x9
 2428 006d 26       		.uleb128 0x26
 2429 006e 00       		.byte	0
 2430 006f 49       		.uleb128 0x49
 2431 0070 13       		.uleb128 0x13
 2432 0071 00       		.byte	0
 2433 0072 00       		.byte	0
 2434 0073 0A       		.uleb128 0xa
 2435 0074 13       		.uleb128 0x13
 2436 0075 01       		.byte	0x1
 2437 0076 0B       		.uleb128 0xb
 2438 0077 0B       		.uleb128 0xb
 2439 0078 3A       		.uleb128 0x3a
 2440 0079 0B       		.uleb128 0xb
 2441 007a 3B       		.uleb128 0x3b
 2442 007b 05       		.uleb128 0x5
 2443 007c 01       		.uleb128 0x1
 2444 007d 13       		.uleb128 0x13
 2445 007e 00       		.byte	0
 2446 007f 00       		.byte	0
 2447 0080 0B       		.uleb128 0xb
 2448 0081 0D       		.uleb128 0xd
 2449 0082 00       		.byte	0
 2450 0083 03       		.uleb128 0x3
 2451 0084 08       		.uleb128 0x8
 2452 0085 3A       		.uleb128 0x3a
 2453 0086 0B       		.uleb128 0xb
 2454 0087 3B       		.uleb128 0x3b
 2455 0088 05       		.uleb128 0x5
 2456 0089 49       		.uleb128 0x49
 2457 008a 13       		.uleb128 0x13
 2458 008b 38       		.uleb128 0x38
 2459 008c 0A       		.uleb128 0xa
 2460 008d 00       		.byte	0
 2461 008e 00       		.byte	0
 2462 008f 0C       		.uleb128 0xc
 2463 0090 0D       		.uleb128 0xd
 2464 0091 00       		.byte	0
 2465 0092 03       		.uleb128 0x3
 2466 0093 0E       		.uleb128 0xe
 2467 0094 3A       		.uleb128 0x3a
 2468 0095 0B       		.uleb128 0xb
 2469 0096 3B       		.uleb128 0x3b
 2470 0097 05       		.uleb128 0x5
 2471 0098 49       		.uleb128 0x49
 2472 0099 13       		.uleb128 0x13
 2473 009a 38       		.uleb128 0x38
 2474 009b 0A       		.uleb128 0xa
 2475 009c 00       		.byte	0
 2476 009d 00       		.byte	0
ARM GAS  /tmp/ccZjsTj3.s 			page 70


 2477 009e 0D       		.uleb128 0xd
 2478 009f 16       		.uleb128 0x16
 2479 00a0 00       		.byte	0
 2480 00a1 03       		.uleb128 0x3
 2481 00a2 0E       		.uleb128 0xe
 2482 00a3 3A       		.uleb128 0x3a
 2483 00a4 0B       		.uleb128 0xb
 2484 00a5 3B       		.uleb128 0x3b
 2485 00a6 05       		.uleb128 0x5
 2486 00a7 49       		.uleb128 0x49
 2487 00a8 13       		.uleb128 0x13
 2488 00a9 00       		.byte	0
 2489 00aa 00       		.byte	0
 2490 00ab 0E       		.uleb128 0xe
 2491 00ac 0F       		.uleb128 0xf
 2492 00ad 00       		.byte	0
 2493 00ae 0B       		.uleb128 0xb
 2494 00af 0B       		.uleb128 0xb
 2495 00b0 00       		.byte	0
 2496 00b1 00       		.byte	0
 2497 00b2 0F       		.uleb128 0xf
 2498 00b3 0F       		.uleb128 0xf
 2499 00b4 00       		.byte	0
 2500 00b5 0B       		.uleb128 0xb
 2501 00b6 0B       		.uleb128 0xb
 2502 00b7 49       		.uleb128 0x49
 2503 00b8 13       		.uleb128 0x13
 2504 00b9 00       		.byte	0
 2505 00ba 00       		.byte	0
 2506 00bb 10       		.uleb128 0x10
 2507 00bc 13       		.uleb128 0x13
 2508 00bd 01       		.byte	0x1
 2509 00be 0B       		.uleb128 0xb
 2510 00bf 0B       		.uleb128 0xb
 2511 00c0 3A       		.uleb128 0x3a
 2512 00c1 0B       		.uleb128 0xb
 2513 00c2 3B       		.uleb128 0x3b
 2514 00c3 0B       		.uleb128 0xb
 2515 00c4 01       		.uleb128 0x1
 2516 00c5 13       		.uleb128 0x13
 2517 00c6 00       		.byte	0
 2518 00c7 00       		.byte	0
 2519 00c8 11       		.uleb128 0x11
 2520 00c9 17       		.uleb128 0x17
 2521 00ca 01       		.byte	0x1
 2522 00cb 0B       		.uleb128 0xb
 2523 00cc 0B       		.uleb128 0xb
 2524 00cd 3A       		.uleb128 0x3a
 2525 00ce 0B       		.uleb128 0xb
 2526 00cf 3B       		.uleb128 0x3b
 2527 00d0 0B       		.uleb128 0xb
 2528 00d1 01       		.uleb128 0x1
 2529 00d2 13       		.uleb128 0x13
 2530 00d3 00       		.byte	0
 2531 00d4 00       		.byte	0
 2532 00d5 12       		.uleb128 0x12
 2533 00d6 0D       		.uleb128 0xd
ARM GAS  /tmp/ccZjsTj3.s 			page 71


 2534 00d7 00       		.byte	0
 2535 00d8 03       		.uleb128 0x3
 2536 00d9 0E       		.uleb128 0xe
 2537 00da 3A       		.uleb128 0x3a
 2538 00db 0B       		.uleb128 0xb
 2539 00dc 3B       		.uleb128 0x3b
 2540 00dd 0B       		.uleb128 0xb
 2541 00de 49       		.uleb128 0x49
 2542 00df 13       		.uleb128 0x13
 2543 00e0 00       		.byte	0
 2544 00e1 00       		.byte	0
 2545 00e2 13       		.uleb128 0x13
 2546 00e3 15       		.uleb128 0x15
 2547 00e4 01       		.byte	0x1
 2548 00e5 27       		.uleb128 0x27
 2549 00e6 0C       		.uleb128 0xc
 2550 00e7 01       		.uleb128 0x1
 2551 00e8 13       		.uleb128 0x13
 2552 00e9 00       		.byte	0
 2553 00ea 00       		.byte	0
 2554 00eb 14       		.uleb128 0x14
 2555 00ec 05       		.uleb128 0x5
 2556 00ed 00       		.byte	0
 2557 00ee 49       		.uleb128 0x49
 2558 00ef 13       		.uleb128 0x13
 2559 00f0 00       		.byte	0
 2560 00f1 00       		.byte	0
 2561 00f2 15       		.uleb128 0x15
 2562 00f3 13       		.uleb128 0x13
 2563 00f4 01       		.byte	0x1
 2564 00f5 03       		.uleb128 0x3
 2565 00f6 0E       		.uleb128 0xe
 2566 00f7 0B       		.uleb128 0xb
 2567 00f8 0B       		.uleb128 0xb
 2568 00f9 3A       		.uleb128 0x3a
 2569 00fa 0B       		.uleb128 0xb
 2570 00fb 3B       		.uleb128 0x3b
 2571 00fc 05       		.uleb128 0x5
 2572 00fd 01       		.uleb128 0x1
 2573 00fe 13       		.uleb128 0x13
 2574 00ff 00       		.byte	0
 2575 0100 00       		.byte	0
 2576 0101 16       		.uleb128 0x16
 2577 0102 15       		.uleb128 0x15
 2578 0103 01       		.byte	0x1
 2579 0104 27       		.uleb128 0x27
 2580 0105 0C       		.uleb128 0xc
 2581 0106 49       		.uleb128 0x49
 2582 0107 13       		.uleb128 0x13
 2583 0108 01       		.uleb128 0x1
 2584 0109 13       		.uleb128 0x13
 2585 010a 00       		.byte	0
 2586 010b 00       		.byte	0
 2587 010c 17       		.uleb128 0x17
 2588 010d 04       		.uleb128 0x4
 2589 010e 01       		.byte	0x1
 2590 010f 0B       		.uleb128 0xb
ARM GAS  /tmp/ccZjsTj3.s 			page 72


 2591 0110 0B       		.uleb128 0xb
 2592 0111 3A       		.uleb128 0x3a
 2593 0112 0B       		.uleb128 0xb
 2594 0113 3B       		.uleb128 0x3b
 2595 0114 0B       		.uleb128 0xb
 2596 0115 01       		.uleb128 0x1
 2597 0116 13       		.uleb128 0x13
 2598 0117 00       		.byte	0
 2599 0118 00       		.byte	0
 2600 0119 18       		.uleb128 0x18
 2601 011a 28       		.uleb128 0x28
 2602 011b 00       		.byte	0
 2603 011c 03       		.uleb128 0x3
 2604 011d 0E       		.uleb128 0xe
 2605 011e 1C       		.uleb128 0x1c
 2606 011f 0D       		.uleb128 0xd
 2607 0120 00       		.byte	0
 2608 0121 00       		.byte	0
 2609 0122 19       		.uleb128 0x19
 2610 0123 01       		.uleb128 0x1
 2611 0124 01       		.byte	0x1
 2612 0125 49       		.uleb128 0x49
 2613 0126 13       		.uleb128 0x13
 2614 0127 01       		.uleb128 0x1
 2615 0128 13       		.uleb128 0x13
 2616 0129 00       		.byte	0
 2617 012a 00       		.byte	0
 2618 012b 1A       		.uleb128 0x1a
 2619 012c 21       		.uleb128 0x21
 2620 012d 00       		.byte	0
 2621 012e 49       		.uleb128 0x49
 2622 012f 13       		.uleb128 0x13
 2623 0130 2F       		.uleb128 0x2f
 2624 0131 0B       		.uleb128 0xb
 2625 0132 00       		.byte	0
 2626 0133 00       		.byte	0
 2627 0134 1B       		.uleb128 0x1b
 2628 0135 2E       		.uleb128 0x2e
 2629 0136 01       		.byte	0x1
 2630 0137 03       		.uleb128 0x3
 2631 0138 0E       		.uleb128 0xe
 2632 0139 3A       		.uleb128 0x3a
 2633 013a 0B       		.uleb128 0xb
 2634 013b 3B       		.uleb128 0x3b
 2635 013c 0B       		.uleb128 0xb
 2636 013d 27       		.uleb128 0x27
 2637 013e 0C       		.uleb128 0xc
 2638 013f 20       		.uleb128 0x20
 2639 0140 0B       		.uleb128 0xb
 2640 0141 01       		.uleb128 0x1
 2641 0142 13       		.uleb128 0x13
 2642 0143 00       		.byte	0
 2643 0144 00       		.byte	0
 2644 0145 1C       		.uleb128 0x1c
 2645 0146 05       		.uleb128 0x5
 2646 0147 00       		.byte	0
 2647 0148 03       		.uleb128 0x3
ARM GAS  /tmp/ccZjsTj3.s 			page 73


 2648 0149 0E       		.uleb128 0xe
 2649 014a 3A       		.uleb128 0x3a
 2650 014b 0B       		.uleb128 0xb
 2651 014c 3B       		.uleb128 0x3b
 2652 014d 0B       		.uleb128 0xb
 2653 014e 49       		.uleb128 0x49
 2654 014f 13       		.uleb128 0x13
 2655 0150 00       		.byte	0
 2656 0151 00       		.byte	0
 2657 0152 1D       		.uleb128 0x1d
 2658 0153 2E       		.uleb128 0x2e
 2659 0154 01       		.byte	0x1
 2660 0155 03       		.uleb128 0x3
 2661 0156 0E       		.uleb128 0xe
 2662 0157 3A       		.uleb128 0x3a
 2663 0158 0B       		.uleb128 0xb
 2664 0159 3B       		.uleb128 0x3b
 2665 015a 0B       		.uleb128 0xb
 2666 015b 27       		.uleb128 0x27
 2667 015c 0C       		.uleb128 0xc
 2668 015d 49       		.uleb128 0x49
 2669 015e 13       		.uleb128 0x13
 2670 015f 11       		.uleb128 0x11
 2671 0160 01       		.uleb128 0x1
 2672 0161 12       		.uleb128 0x12
 2673 0162 01       		.uleb128 0x1
 2674 0163 40       		.uleb128 0x40
 2675 0164 06       		.uleb128 0x6
 2676 0165 9742     		.uleb128 0x2117
 2677 0167 0C       		.uleb128 0xc
 2678 0168 01       		.uleb128 0x1
 2679 0169 13       		.uleb128 0x13
 2680 016a 00       		.byte	0
 2681 016b 00       		.byte	0
 2682 016c 1E       		.uleb128 0x1e
 2683 016d 05       		.uleb128 0x5
 2684 016e 00       		.byte	0
 2685 016f 03       		.uleb128 0x3
 2686 0170 08       		.uleb128 0x8
 2687 0171 3A       		.uleb128 0x3a
 2688 0172 0B       		.uleb128 0xb
 2689 0173 3B       		.uleb128 0x3b
 2690 0174 0B       		.uleb128 0xb
 2691 0175 49       		.uleb128 0x49
 2692 0176 13       		.uleb128 0x13
 2693 0177 02       		.uleb128 0x2
 2694 0178 06       		.uleb128 0x6
 2695 0179 00       		.byte	0
 2696 017a 00       		.byte	0
 2697 017b 1F       		.uleb128 0x1f
 2698 017c 1D       		.uleb128 0x1d
 2699 017d 01       		.byte	0x1
 2700 017e 31       		.uleb128 0x31
 2701 017f 13       		.uleb128 0x13
 2702 0180 52       		.uleb128 0x52
 2703 0181 01       		.uleb128 0x1
 2704 0182 55       		.uleb128 0x55
ARM GAS  /tmp/ccZjsTj3.s 			page 74


 2705 0183 06       		.uleb128 0x6
 2706 0184 58       		.uleb128 0x58
 2707 0185 0B       		.uleb128 0xb
 2708 0186 59       		.uleb128 0x59
 2709 0187 0B       		.uleb128 0xb
 2710 0188 01       		.uleb128 0x1
 2711 0189 13       		.uleb128 0x13
 2712 018a 00       		.byte	0
 2713 018b 00       		.byte	0
 2714 018c 20       		.uleb128 0x20
 2715 018d 05       		.uleb128 0x5
 2716 018e 00       		.byte	0
 2717 018f 31       		.uleb128 0x31
 2718 0190 13       		.uleb128 0x13
 2719 0191 02       		.uleb128 0x2
 2720 0192 0A       		.uleb128 0xa
 2721 0193 00       		.byte	0
 2722 0194 00       		.byte	0
 2723 0195 21       		.uleb128 0x21
 2724 0196 898201   		.uleb128 0x4109
 2725 0199 01       		.byte	0x1
 2726 019a 11       		.uleb128 0x11
 2727 019b 01       		.uleb128 0x1
 2728 019c 31       		.uleb128 0x31
 2729 019d 13       		.uleb128 0x13
 2730 019e 01       		.uleb128 0x1
 2731 019f 13       		.uleb128 0x13
 2732 01a0 00       		.byte	0
 2733 01a1 00       		.byte	0
 2734 01a2 22       		.uleb128 0x22
 2735 01a3 8A8201   		.uleb128 0x410a
 2736 01a6 00       		.byte	0
 2737 01a7 02       		.uleb128 0x2
 2738 01a8 0A       		.uleb128 0xa
 2739 01a9 9142     		.uleb128 0x2111
 2740 01ab 0A       		.uleb128 0xa
 2741 01ac 00       		.byte	0
 2742 01ad 00       		.byte	0
 2743 01ae 23       		.uleb128 0x23
 2744 01af 898201   		.uleb128 0x4109
 2745 01b2 01       		.byte	0x1
 2746 01b3 11       		.uleb128 0x11
 2747 01b4 01       		.uleb128 0x1
 2748 01b5 31       		.uleb128 0x31
 2749 01b6 13       		.uleb128 0x13
 2750 01b7 00       		.byte	0
 2751 01b8 00       		.byte	0
 2752 01b9 24       		.uleb128 0x24
 2753 01ba 2E       		.uleb128 0x2e
 2754 01bb 01       		.byte	0x1
 2755 01bc 3F       		.uleb128 0x3f
 2756 01bd 0C       		.uleb128 0xc
 2757 01be 03       		.uleb128 0x3
 2758 01bf 0E       		.uleb128 0xe
 2759 01c0 3A       		.uleb128 0x3a
 2760 01c1 0B       		.uleb128 0xb
 2761 01c2 3B       		.uleb128 0x3b
ARM GAS  /tmp/ccZjsTj3.s 			page 75


 2762 01c3 0B       		.uleb128 0xb
 2763 01c4 27       		.uleb128 0x27
 2764 01c5 0C       		.uleb128 0xc
 2765 01c6 49       		.uleb128 0x49
 2766 01c7 13       		.uleb128 0x13
 2767 01c8 11       		.uleb128 0x11
 2768 01c9 01       		.uleb128 0x1
 2769 01ca 12       		.uleb128 0x12
 2770 01cb 01       		.uleb128 0x1
 2771 01cc 40       		.uleb128 0x40
 2772 01cd 06       		.uleb128 0x6
 2773 01ce 9742     		.uleb128 0x2117
 2774 01d0 0C       		.uleb128 0xc
 2775 01d1 01       		.uleb128 0x1
 2776 01d2 13       		.uleb128 0x13
 2777 01d3 00       		.byte	0
 2778 01d4 00       		.byte	0
 2779 01d5 25       		.uleb128 0x25
 2780 01d6 898201   		.uleb128 0x4109
 2781 01d9 00       		.byte	0
 2782 01da 11       		.uleb128 0x11
 2783 01db 01       		.uleb128 0x1
 2784 01dc 31       		.uleb128 0x31
 2785 01dd 13       		.uleb128 0x13
 2786 01de 00       		.byte	0
 2787 01df 00       		.byte	0
 2788 01e0 26       		.uleb128 0x26
 2789 01e1 34       		.uleb128 0x34
 2790 01e2 00       		.byte	0
 2791 01e3 03       		.uleb128 0x3
 2792 01e4 0E       		.uleb128 0xe
 2793 01e5 3A       		.uleb128 0x3a
 2794 01e6 0B       		.uleb128 0xb
 2795 01e7 3B       		.uleb128 0x3b
 2796 01e8 0B       		.uleb128 0xb
 2797 01e9 49       		.uleb128 0x49
 2798 01ea 13       		.uleb128 0x13
 2799 01eb 02       		.uleb128 0x2
 2800 01ec 0A       		.uleb128 0xa
 2801 01ed 00       		.byte	0
 2802 01ee 00       		.byte	0
 2803 01ef 27       		.uleb128 0x27
 2804 01f0 34       		.uleb128 0x34
 2805 01f1 00       		.byte	0
 2806 01f2 03       		.uleb128 0x3
 2807 01f3 0E       		.uleb128 0xe
 2808 01f4 3A       		.uleb128 0x3a
 2809 01f5 0B       		.uleb128 0xb
 2810 01f6 3B       		.uleb128 0x3b
 2811 01f7 05       		.uleb128 0x5
 2812 01f8 49       		.uleb128 0x49
 2813 01f9 13       		.uleb128 0x13
 2814 01fa 3F       		.uleb128 0x3f
 2815 01fb 0C       		.uleb128 0xc
 2816 01fc 3C       		.uleb128 0x3c
 2817 01fd 0C       		.uleb128 0xc
 2818 01fe 00       		.byte	0
ARM GAS  /tmp/ccZjsTj3.s 			page 76


 2819 01ff 00       		.byte	0
 2820 0200 28       		.uleb128 0x28
 2821 0201 34       		.uleb128 0x34
 2822 0202 00       		.byte	0
 2823 0203 03       		.uleb128 0x3
 2824 0204 08       		.uleb128 0x8
 2825 0205 3A       		.uleb128 0x3a
 2826 0206 0B       		.uleb128 0xb
 2827 0207 3B       		.uleb128 0x3b
 2828 0208 05       		.uleb128 0x5
 2829 0209 49       		.uleb128 0x49
 2830 020a 13       		.uleb128 0x13
 2831 020b 3F       		.uleb128 0x3f
 2832 020c 0C       		.uleb128 0xc
 2833 020d 3C       		.uleb128 0x3c
 2834 020e 0C       		.uleb128 0xc
 2835 020f 00       		.byte	0
 2836 0210 00       		.byte	0
 2837 0211 29       		.uleb128 0x29
 2838 0212 2E       		.uleb128 0x2e
 2839 0213 01       		.byte	0x1
 2840 0214 3F       		.uleb128 0x3f
 2841 0215 0C       		.uleb128 0xc
 2842 0216 03       		.uleb128 0x3
 2843 0217 0E       		.uleb128 0xe
 2844 0218 3A       		.uleb128 0x3a
 2845 0219 0B       		.uleb128 0xb
 2846 021a 3B       		.uleb128 0x3b
 2847 021b 0B       		.uleb128 0xb
 2848 021c 27       		.uleb128 0x27
 2849 021d 0C       		.uleb128 0xc
 2850 021e 3C       		.uleb128 0x3c
 2851 021f 0C       		.uleb128 0xc
 2852 0220 01       		.uleb128 0x1
 2853 0221 13       		.uleb128 0x13
 2854 0222 00       		.byte	0
 2855 0223 00       		.byte	0
 2856 0224 2A       		.uleb128 0x2a
 2857 0225 2E       		.uleb128 0x2e
 2858 0226 00       		.byte	0
 2859 0227 3F       		.uleb128 0x3f
 2860 0228 0C       		.uleb128 0xc
 2861 0229 03       		.uleb128 0x3
 2862 022a 0E       		.uleb128 0xe
 2863 022b 3A       		.uleb128 0x3a
 2864 022c 0B       		.uleb128 0xb
 2865 022d 3B       		.uleb128 0x3b
 2866 022e 0B       		.uleb128 0xb
 2867 022f 27       		.uleb128 0x27
 2868 0230 0C       		.uleb128 0xc
 2869 0231 3C       		.uleb128 0x3c
 2870 0232 0C       		.uleb128 0xc
 2871 0233 00       		.byte	0
 2872 0234 00       		.byte	0
 2873 0235 2B       		.uleb128 0x2b
 2874 0236 2E       		.uleb128 0x2e
 2875 0237 01       		.byte	0x1
ARM GAS  /tmp/ccZjsTj3.s 			page 77


 2876 0238 3F       		.uleb128 0x3f
 2877 0239 0C       		.uleb128 0xc
 2878 023a 03       		.uleb128 0x3
 2879 023b 0E       		.uleb128 0xe
 2880 023c 3A       		.uleb128 0x3a
 2881 023d 0B       		.uleb128 0xb
 2882 023e 3B       		.uleb128 0x3b
 2883 023f 05       		.uleb128 0x5
 2884 0240 27       		.uleb128 0x27
 2885 0241 0C       		.uleb128 0xc
 2886 0242 3C       		.uleb128 0x3c
 2887 0243 0C       		.uleb128 0xc
 2888 0244 01       		.uleb128 0x1
 2889 0245 13       		.uleb128 0x13
 2890 0246 00       		.byte	0
 2891 0247 00       		.byte	0
 2892 0248 2C       		.uleb128 0x2c
 2893 0249 2E       		.uleb128 0x2e
 2894 024a 01       		.byte	0x1
 2895 024b 3F       		.uleb128 0x3f
 2896 024c 0C       		.uleb128 0xc
 2897 024d 03       		.uleb128 0x3
 2898 024e 0E       		.uleb128 0xe
 2899 024f 3A       		.uleb128 0x3a
 2900 0250 0B       		.uleb128 0xb
 2901 0251 3B       		.uleb128 0x3b
 2902 0252 0B       		.uleb128 0xb
 2903 0253 27       		.uleb128 0x27
 2904 0254 0C       		.uleb128 0xc
 2905 0255 49       		.uleb128 0x49
 2906 0256 13       		.uleb128 0x13
 2907 0257 3C       		.uleb128 0x3c
 2908 0258 0C       		.uleb128 0xc
 2909 0259 01       		.uleb128 0x1
 2910 025a 13       		.uleb128 0x13
 2911 025b 00       		.byte	0
 2912 025c 00       		.byte	0
 2913 025d 2D       		.uleb128 0x2d
 2914 025e 2E       		.uleb128 0x2e
 2915 025f 01       		.byte	0x1
 2916 0260 3F       		.uleb128 0x3f
 2917 0261 0C       		.uleb128 0xc
 2918 0262 03       		.uleb128 0x3
 2919 0263 0E       		.uleb128 0xe
 2920 0264 3A       		.uleb128 0x3a
 2921 0265 0B       		.uleb128 0xb
 2922 0266 3B       		.uleb128 0x3b
 2923 0267 0B       		.uleb128 0xb
 2924 0268 27       		.uleb128 0x27
 2925 0269 0C       		.uleb128 0xc
 2926 026a 49       		.uleb128 0x49
 2927 026b 13       		.uleb128 0x13
 2928 026c 3C       		.uleb128 0x3c
 2929 026d 0C       		.uleb128 0xc
 2930 026e 00       		.byte	0
 2931 026f 00       		.byte	0
 2932 0270 00       		.byte	0
ARM GAS  /tmp/ccZjsTj3.s 			page 78


 2933              		.section	.debug_loc,"",%progbits
 2934              	.Ldebug_loc0:
 2935              	.LLST0:
 2936 0000 00000000 		.4byte	.LFB194
 2937 0004 04000000 		.4byte	.LCFI0
 2938 0008 0200     		.2byte	0x2
 2939 000a 7D       		.byte	0x7d
 2940 000b 00       		.sleb128 0
 2941 000c 04000000 		.4byte	.LCFI0
 2942 0010 34000000 		.4byte	.LFE194
 2943 0014 0200     		.2byte	0x2
 2944 0016 7D       		.byte	0x7d
 2945 0017 10       		.sleb128 16
 2946 0018 00000000 		.4byte	0
 2947 001c 00000000 		.4byte	0
 2948              	.LLST1:
 2949 0020 00000000 		.4byte	.LVL0
 2950 0024 06000000 		.4byte	.LVL1
 2951 0028 0100     		.2byte	0x1
 2952 002a 50       		.byte	0x50
 2953 002b 06000000 		.4byte	.LVL1
 2954 002f 34000000 		.4byte	.LFE194
 2955 0033 0400     		.2byte	0x4
 2956 0035 F3       		.byte	0xf3
 2957 0036 01       		.uleb128 0x1
 2958 0037 50       		.byte	0x50
 2959 0038 9F       		.byte	0x9f
 2960 0039 00000000 		.4byte	0
 2961 003d 00000000 		.4byte	0
 2962              	.LLST2:
 2963 0041 00000000 		.4byte	.LFB195
 2964 0045 02000000 		.4byte	.LCFI1
 2965 0049 0200     		.2byte	0x2
 2966 004b 7D       		.byte	0x7d
 2967 004c 00       		.sleb128 0
 2968 004d 02000000 		.4byte	.LCFI1
 2969 0051 04000000 		.4byte	.LCFI2
 2970 0055 0200     		.2byte	0x2
 2971 0057 7D       		.byte	0x7d
 2972 0058 08       		.sleb128 8
 2973 0059 04000000 		.4byte	.LCFI2
 2974 005d 54000000 		.4byte	.LFE195
 2975 0061 0200     		.2byte	0x2
 2976 0063 7D       		.byte	0x7d
 2977 0064 10       		.sleb128 16
 2978 0065 00000000 		.4byte	0
 2979 0069 00000000 		.4byte	0
 2980              		.section	.debug_aranges,"",%progbits
 2981 0000 24000000 		.4byte	0x24
 2982 0004 0200     		.2byte	0x2
 2983 0006 00000000 		.4byte	.Ldebug_info0
 2984 000a 04       		.byte	0x4
 2985 000b 00       		.byte	0
 2986 000c 0000     		.2byte	0
 2987 000e 0000     		.2byte	0
 2988 0010 00000000 		.4byte	.LFB194
 2989 0014 34000000 		.4byte	.LFE194-.LFB194
ARM GAS  /tmp/ccZjsTj3.s 			page 79


 2990 0018 00000000 		.4byte	.LFB195
 2991 001c 54000000 		.4byte	.LFE195-.LFB195
 2992 0020 00000000 		.4byte	0
 2993 0024 00000000 		.4byte	0
 2994              		.section	.debug_ranges,"",%progbits
 2995              	.Ldebug_ranges0:
 2996 0000 00000000 		.4byte	.LBB4
 2997 0004 02000000 		.4byte	.LBE4
 2998 0008 04000000 		.4byte	.LBB9
 2999 000c 06000000 		.4byte	.LBE9
 3000 0010 0A000000 		.4byte	.LBB10
 3001 0014 0C000000 		.4byte	.LBE10
 3002 0018 0E000000 		.4byte	.LBB11
 3003 001c 10000000 		.4byte	.LBE11
 3004 0020 00000000 		.4byte	0
 3005 0024 00000000 		.4byte	0
 3006 0028 00000000 		.4byte	.LFB194
 3007 002c 34000000 		.4byte	.LFE194
 3008 0030 00000000 		.4byte	.LFB195
 3009 0034 54000000 		.4byte	.LFE195
 3010 0038 00000000 		.4byte	0
 3011 003c 00000000 		.4byte	0
 3012              		.section	.debug_line,"",%progbits
 3013              	.Ldebug_line0:
 3014 0000 54030000 		.section	.debug_str,"MS",%progbits,1
 3014      0200DC02 
 3014      00000201 
 3014      FB0E0D00 
 3014      01010101 
 3015              	.LASF92:
 3016 0000 7466756E 		.ascii	"tfunc_t\000"
 3016      635F7400 
 3017              	.LASF67:
 3018 0008 72656164 		.ascii	"ready_list_t\000"
 3018      795F6C69 
 3018      73745F74 
 3018      00
 3019              	.LASF19:
 3020 0015 73697A65 		.ascii	"size_t\000"
 3020      5F7400
 3021              	.LASF68:
 3022 001c 7264796D 		.ascii	"rdymsg\000"
 3022      736700
 3023              	.LASF30:
 3024 0023 75696E74 		.ascii	"uint64_t\000"
 3024      36345F74 
 3024      00
 3025              	.LASF58:
 3026 002c 706F7274 		.ascii	"port_intctx\000"
 3026      5F696E74 
 3026      63747800 
 3027              	.LASF89:
 3028 0038 76746C69 		.ascii	"vtlist\000"
 3028      737400
 3029              	.LASF114:
 3030 003f 696E7075 		.ascii	"input_queue_t\000"
 3030      745F7175 
ARM GAS  /tmp/ccZjsTj3.s 			page 80


 3030      6575655F 
 3030      7400
 3031              	.LASF117:
 3032 004d 696F706F 		.ascii	"ioportmask_t\000"
 3032      72746D61 
 3032      736B5F74 
 3032      00
 3033              	.LASF31:
 3034 005a 6C6F6E67 		.ascii	"long long unsigned int\000"
 3034      206C6F6E 
 3034      6720756E 
 3034      7369676E 
 3034      65642069 
 3035              	.LASF69:
 3036 0071 65786974 		.ascii	"exitcode\000"
 3036      636F6465 
 3036      00
 3037              	.LASF86:
 3038 007a 76697274 		.ascii	"virtual_timers_list_t\000"
 3038      75616C5F 
 3038      74696D65 
 3038      72735F6C 
 3038      6973745F 
 3039              	.LASF137:
 3040 0090 49544D5F 		.ascii	"ITM_RxBuffer\000"
 3040      52784275 
 3040      66666572 
 3040      00
 3041              	.LASF103:
 3042 009d 696F5F71 		.ascii	"io_queue_t\000"
 3042      75657565 
 3042      5F7400
 3043              	.LASF2:
 3044 00a8 705F7072 		.ascii	"p_prio\000"
 3044      696F00
 3045              	.LASF136:
 3046 00af 72656164 		.ascii	"readt\000"
 3046      7400
 3047              	.LASF105:
 3048 00b5 715F7761 		.ascii	"q_waiting\000"
 3048      6974696E 
 3048      6700
 3049              	.LASF29:
 3050 00bf 6C6F6E67 		.ascii	"long long int\000"
 3050      206C6F6E 
 3050      6720696E 
 3050      7400
 3051              	.LASF18:
 3052 00cd 7369676E 		.ascii	"signed char\000"
 3052      65642063 
 3052      68617200 
 3053              	.LASF41:
 3054 00d9 42535252 		.ascii	"BSRR\000"
 3054      00
 3055              	.LASF139:
 3056 00de 63685379 		.ascii	"chSysInit\000"
 3056      73496E69 
ARM GAS  /tmp/ccZjsTj3.s 			page 81


 3056      7400
 3057              	.LASF50:
 3058 00e8 47545052 		.ascii	"GTPR\000"
 3058      00
 3059              	.LASF16:
 3060 00ed 705F6D70 		.ascii	"p_mpool\000"
 3060      6F6F6C00 
 3061              	.LASF74:
 3062 00f5 6D5F7175 		.ascii	"m_queue\000"
 3062      65756500 
 3063              	.LASF143:
 3064 00fd 474E5520 		.ascii	"GNU C 4.7.4 20130913 (release) [ARM/embedded-4_7-br"
 3064      4320342E 
 3064      372E3420 
 3064      32303133 
 3064      30393133 
 3065 0130 616E6368 		.ascii	"anch revision 202601]\000"
 3065      20726576 
 3065      6973696F 
 3065      6E203230 
 3065      32363031 
 3066              	.LASF124:
 3067 0146 73746174 		.ascii	"state\000"
 3067      6500
 3068              	.LASF87:
 3069 014c 63685F73 		.ascii	"ch_system\000"
 3069      79737465 
 3069      6D00
 3070              	.LASF26:
 3071 0156 6C6F6E67 		.ascii	"long int\000"
 3071      20696E74 
 3071      00
 3072              	.LASF34:
 3073 015f 74737461 		.ascii	"tstate_t\000"
 3073      74655F74 
 3073      00
 3074              	.LASF56:
 3075 0168 74687265 		.ascii	"thread\000"
 3075      616400
 3076              	.LASF9:
 3077 016f 705F7265 		.ascii	"p_refs\000"
 3077      667300
 3078              	.LASF107:
 3079 0176 715F6275 		.ascii	"q_buffer\000"
 3079      66666572 
 3079      00
 3080              	.LASF109:
 3081 017f 715F7772 		.ascii	"q_wrptr\000"
 3081      70747200 
 3082              	.LASF112:
 3083 0187 715F6C69 		.ascii	"q_link\000"
 3083      6E6B00
 3084              	.LASF4:
 3085 018e 705F6E65 		.ascii	"p_newer\000"
 3085      77657200 
 3086              	.LASF64:
 3087 0196 725F6E65 		.ascii	"r_newer\000"
ARM GAS  /tmp/ccZjsTj3.s 			page 82


 3087      77657200 
 3088              	.LASF54:
 3089 019e 72656761 		.ascii	"regarm_t\000"
 3089      726D5F74 
 3089      00
 3090              	.LASF81:
 3091 01a7 76745F70 		.ascii	"vt_prev\000"
 3091      72657600 
 3092              	.LASF93:
 3093 01af 6D757465 		.ascii	"mutex_t\000"
 3093      785F7400 
 3094              	.LASF104:
 3095 01b7 696F5F71 		.ascii	"io_queue\000"
 3095      75657565 
 3095      00
 3096              	.LASF102:
 3097 01c0 6576656E 		.ascii	"event_source_t\000"
 3097      745F736F 
 3097      75726365 
 3097      5F7400
 3098              	.LASF127:
 3099 01cf 75736172 		.ascii	"usart\000"
 3099      7400
 3100              	.LASF17:
 3101 01d5 756E7369 		.ascii	"unsigned int\000"
 3101      676E6564 
 3101      20696E74 
 3101      00
 3102              	.LASF80:
 3103 01e2 76745F6E 		.ascii	"vt_next\000"
 3103      65787400 
 3104              	.LASF23:
 3105 01ea 75696E74 		.ascii	"uint16_t\000"
 3105      31365F74 
 3105      00
 3106              	.LASF130:
 3107 01f3 53657269 		.ascii	"SerialDriverVMT\000"
 3107      616C4472 
 3107      69766572 
 3107      564D5400 
 3108              	.LASF125:
 3109 0203 69717565 		.ascii	"iqueue\000"
 3109      756500
 3110              	.LASF11:
 3111 020a 705F6D73 		.ascii	"p_msgqueue\000"
 3111      67717565 
 3111      756500
 3112              	.LASF43:
 3113 0215 4750494F 		.ascii	"GPIO_TypeDef\000"
 3113      5F547970 
 3113      65446566 
 3113      00
 3114              	.LASF138:
 3115 0222 68616C49 		.ascii	"halInit\000"
 3115      6E697400 
 3116              	.LASF134:
 3117 022a 67657474 		.ascii	"gett\000"
ARM GAS  /tmp/ccZjsTj3.s 			page 83


 3117      00
 3118              	.LASF147:
 3119 022f 6E616D65 		.ascii	"name\000"
 3119      00
 3120              	.LASF123:
 3121 0234 6576656E 		.ascii	"event\000"
 3121      7400
 3122              	.LASF24:
 3123 023a 73686F72 		.ascii	"short unsigned int\000"
 3123      7420756E 
 3123      7369676E 
 3123      65642069 
 3123      6E7400
 3124              	.LASF37:
 3125 024d 6D73675F 		.ascii	"msg_t\000"
 3125      7400
 3126              	.LASF126:
 3127 0253 6F717565 		.ascii	"oqueue\000"
 3127      756500
 3128              	.LASF91:
 3129 025a 63685F73 		.ascii	"ch_system_t\000"
 3129      79737465 
 3129      6D5F7400 
 3130              	.LASF52:
 3131 0266 55534152 		.ascii	"USART_TypeDef\000"
 3131      545F5479 
 3131      70654465 
 3131      6600
 3132              	.LASF135:
 3133 0274 77726974 		.ascii	"writet\000"
 3133      657400
 3134              	.LASF33:
 3135 027b 746D6F64 		.ascii	"tmode_t\000"
 3135      655F7400 
 3136              	.LASF38:
 3137 0283 6576656E 		.ascii	"eventmask_t\000"
 3137      746D6173 
 3137      6B5F7400 
 3138              	.LASF128:
 3139 028f 73706565 		.ascii	"speed\000"
 3139      6400
 3140              	.LASF113:
 3141 0295 716E6F74 		.ascii	"qnotify_t\000"
 3141      6966795F 
 3141      7400
 3142              	.LASF55:
 3143 029f 73746B61 		.ascii	"stkalign_t\000"
 3143      6C69676E 
 3143      5F7400
 3144              	.LASF148:
 3145 02aa 54687265 		.ascii	"Thread1\000"
 3145      61643100 
 3146              	.LASF151:
 3147 02b2 63685468 		.ascii	"chThdCreateStatic\000"
 3147      64437265 
 3147      61746553 
 3147      74617469 
ARM GAS  /tmp/ccZjsTj3.s 			page 84


 3147      6300
 3148              	.LASF131:
 3149 02c4 77726974 		.ascii	"write\000"
 3149      6500
 3150              	.LASF78:
 3151 02ca 76697274 		.ascii	"virtual_timer_t\000"
 3151      75616C5F 
 3151      74696D65 
 3151      725F7400 
 3152              	.LASF133:
 3153 02da 70757474 		.ascii	"putt\000"
 3153      00
 3154              	.LASF10:
 3155 02df 705F7761 		.ascii	"p_waiting\000"
 3155      6974696E 
 3155      6700
 3156              	.LASF40:
 3157 02e9 73697A65 		.ascii	"sizetype\000"
 3157      74797065 
 3157      00
 3158              	.LASF106:
 3159 02f2 715F636F 		.ascii	"q_counter\000"
 3159      756E7465 
 3159      7200
 3160              	.LASF85:
 3161 02fc 76745F6C 		.ascii	"vt_lasttime\000"
 3161      61737474 
 3161      696D6500 
 3162              	.LASF5:
 3163 0308 705F6F6C 		.ascii	"p_older\000"
 3163      64657200 
 3164              	.LASF63:
 3165 0310 725F6374 		.ascii	"r_ctx\000"
 3165      7800
 3166              	.LASF144:
 3167 0316 6D61696E 		.ascii	"main.c\000"
 3167      2E6300
 3168              	.LASF65:
 3169 031d 725F6F6C 		.ascii	"r_older\000"
 3169      64657200 
 3170              	.LASF98:
 3171 0325 656C5F6D 		.ascii	"el_mask\000"
 3171      61736B00 
 3172              	.LASF140:
 3173 032d 63685468 		.ascii	"chThdSleep\000"
 3173      64536C65 
 3173      657000
 3174              	.LASF129:
 3175 0338 53657269 		.ascii	"SerialConfig\000"
 3175      616C436F 
 3175      6E666967 
 3175      00
 3176              	.LASF120:
 3177 0345 53445F52 		.ascii	"SD_READY\000"
 3177      45414459 
 3177      00
 3178              	.LASF150:
ARM GAS  /tmp/ccZjsTj3.s 			page 85


 3179 034e 77615468 		.ascii	"waThread1\000"
 3179      72656164 
 3179      3100
 3180              	.LASF35:
 3181 0358 74726566 		.ascii	"trefs_t\000"
 3181      735F7400 
 3182              	.LASF44:
 3183 0360 52455345 		.ascii	"RESERVED0\000"
 3183      52564544 
 3183      3000
 3184              	.LASF45:
 3185 036a 52455345 		.ascii	"RESERVED1\000"
 3185      52564544 
 3185      3100
 3186              	.LASF46:
 3187 0374 52455345 		.ascii	"RESERVED2\000"
 3187      52564544 
 3187      3200
 3188              	.LASF47:
 3189 037e 52455345 		.ascii	"RESERVED3\000"
 3189      52564544 
 3189      3300
 3190              	.LASF48:
 3191 0388 52455345 		.ascii	"RESERVED4\000"
 3191      52564544 
 3191      3400
 3192              	.LASF1:
 3193 0392 705F7072 		.ascii	"p_prev\000"
 3193      657600
 3194              	.LASF51:
 3195 0399 52455345 		.ascii	"RESERVED6\000"
 3195      52564544 
 3195      3600
 3196              	.LASF36:
 3197 03a3 74707269 		.ascii	"tprio_t\000"
 3197      6F5F7400 
 3198              	.LASF110:
 3199 03ab 715F7264 		.ascii	"q_rdptr\000"
 3199      70747200 
 3200              	.LASF73:
 3201 03b3 6D757465 		.ascii	"mutex\000"
 3201      7800
 3202              	.LASF116:
 3203 03b9 5F426F6F 		.ascii	"_Bool\000"
 3203      6C00
 3204              	.LASF25:
 3205 03bf 696E7433 		.ascii	"int32_t\000"
 3205      325F7400 
 3206              	.LASF21:
 3207 03c7 756E7369 		.ascii	"unsigned char\000"
 3207      676E6564 
 3207      20636861 
 3207      7200
 3208              	.LASF142:
 3209 03d5 54657374 		.ascii	"TestThread\000"
 3209      54687265 
 3209      616400
ARM GAS  /tmp/ccZjsTj3.s 			page 86


 3210              	.LASF97:
 3211 03e0 656C5F6C 		.ascii	"el_listener\000"
 3211      69737465 
 3211      6E657200 
 3212              	.LASF99:
 3213 03ec 656C5F66 		.ascii	"el_flags\000"
 3213      6C616773 
 3213      00
 3214              	.LASF14:
 3215 03f5 705F6D74 		.ascii	"p_mtxlist\000"
 3215      786C6973 
 3215      7400
 3216              	.LASF22:
 3217 03ff 73686F72 		.ascii	"short int\000"
 3217      7420696E 
 3217      7400
 3218              	.LASF7:
 3219 0409 705F7374 		.ascii	"p_state\000"
 3219      61746500 
 3220              	.LASF62:
 3221 0411 725F7072 		.ascii	"r_prio\000"
 3221      696F00
 3222              	.LASF71:
 3223 0418 65776D61 		.ascii	"ewmask\000"
 3223      736B00
 3224              	.LASF0:
 3225 041f 705F6E65 		.ascii	"p_next\000"
 3225      787400
 3226              	.LASF8:
 3227 0426 705F666C 		.ascii	"p_flags\000"
 3227      61677300 
 3228              	.LASF96:
 3229 042e 656C5F6E 		.ascii	"el_next\000"
 3229      65787400 
 3230              	.LASF119:
 3231 0436 53445F53 		.ascii	"SD_STOP\000"
 3231      544F5000 
 3232              	.LASF59:
 3233 043e 74687265 		.ascii	"threads_queue_t\000"
 3233      6164735F 
 3233      71756575 
 3233      655F7400 
 3234              	.LASF42:
 3235 044e 4C434B52 		.ascii	"LCKR\000"
 3235      00
 3236              	.LASF13:
 3237 0453 705F6570 		.ascii	"p_epending\000"
 3237      656E6469 
 3237      6E6700
 3238              	.LASF118:
 3239 045e 53445F55 		.ascii	"SD_UNINIT\000"
 3239      4E494E49 
 3239      5400
 3240              	.LASF49:
 3241 0468 52455345 		.ascii	"RESERVED5\000"
 3241      52564544 
 3241      3500
ARM GAS  /tmp/ccZjsTj3.s 			page 87


 3242              	.LASF27:
 3243 0472 75696E74 		.ascii	"uint32_t\000"
 3243      33325F74 
 3243      00
 3244              	.LASF61:
 3245 047b 725F7175 		.ascii	"r_queue\000"
 3245      65756500 
 3246              	.LASF82:
 3247 0483 76745F64 		.ascii	"vt_delta\000"
 3247      656C7461 
 3247      00
 3248              	.LASF122:
 3249 048c 53657269 		.ascii	"SerialDriver\000"
 3249      616C4472 
 3249      69766572 
 3249      00
 3250              	.LASF28:
 3251 0499 6C6F6E67 		.ascii	"long unsigned int\000"
 3251      20756E73 
 3251      69676E65 
 3251      6420696E 
 3251      7400
 3252              	.LASF66:
 3253 04ab 725F6375 		.ascii	"r_current\000"
 3253      7272656E 
 3253      7400
 3254              	.LASF132:
 3255 04b5 72656164 		.ascii	"read\000"
 3255      00
 3256              	.LASF72:
 3257 04ba 63686172 		.ascii	"char\000"
 3257      00
 3258              	.LASF141:
 3259 04bf 73645374 		.ascii	"sdStart\000"
 3259      61727400 
 3260              	.LASF76:
 3261 04c7 6D5F6E65 		.ascii	"m_next\000"
 3261      787400
 3262              	.LASF53:
 3263 04ce 73797374 		.ascii	"systime_t\000"
 3263      696D655F 
 3263      7400
 3264              	.LASF15:
 3265 04d8 705F7265 		.ascii	"p_realprio\000"
 3265      616C7072 
 3265      696F00
 3266              	.LASF77:
 3267 04e3 76746675 		.ascii	"vtfunc_t\000"
 3267      6E635F74 
 3267      00
 3268              	.LASF145:
 3269 04ec 2F686F6D 		.ascii	"/home/joerg/repos/chibios-projects/ChibiOS-RT/demos"
 3269      652F6A6F 
 3269      6572672F 
 3269      7265706F 
 3269      732F6368 
 3270 051f 2F53544D 		.ascii	"/STM32/RT-STM32F103-OLIMEX_STM32_P103\000"
ARM GAS  /tmp/ccZjsTj3.s 			page 88


 3270      33322F52 
 3270      542D5354 
 3270      4D333246 
 3270      3130332D 
 3271              	.LASF94:
 3272 0545 6576656E 		.ascii	"event_listener_t\000"
 3272      745F6C69 
 3272      7374656E 
 3272      65725F74 
 3272      00
 3273              	.LASF57:
 3274 0556 636F6E74 		.ascii	"context\000"
 3274      65787400 
 3275              	.LASF32:
 3276 055e 7274636E 		.ascii	"rtcnt_t\000"
 3276      745F7400 
 3277              	.LASF79:
 3278 0566 76697274 		.ascii	"virtual_timer\000"
 3278      75616C5F 
 3278      74696D65 
 3278      7200
 3279              	.LASF84:
 3280 0574 76745F70 		.ascii	"vt_par\000"
 3280      617200
 3281              	.LASF39:
 3282 057b 6576656E 		.ascii	"eventflags_t\000"
 3282      74666C61 
 3282      67735F74 
 3282      00
 3283              	.LASF115:
 3284 0588 6F757470 		.ascii	"output_queue_t\000"
 3284      75745F71 
 3284      75657565 
 3284      5F7400
 3285              	.LASF90:
 3286 0597 6D656173 		.ascii	"measurement_offset\000"
 3286      7572656D 
 3286      656E745F 
 3286      6F666673 
 3286      657400
 3287              	.LASF108:
 3288 05aa 715F746F 		.ascii	"q_top\000"
 3288      7000
 3289              	.LASF6:
 3290 05b0 705F6E61 		.ascii	"p_name\000"
 3290      6D6500
 3291              	.LASF101:
 3292 05b7 65735F6E 		.ascii	"es_next\000"
 3292      65787400 
 3293              	.LASF111:
 3294 05bf 715F6E6F 		.ascii	"q_notify\000"
 3294      74696679 
 3294      00
 3295              	.LASF88:
 3296 05c8 726C6973 		.ascii	"rlist\000"
 3296      7400
 3297              	.LASF100:
ARM GAS  /tmp/ccZjsTj3.s 			page 89


 3298 05ce 6576656E 		.ascii	"event_source\000"
 3298      745F736F 
 3298      75726365 
 3298      00
 3299              	.LASF20:
 3300 05db 75696E74 		.ascii	"uint8_t\000"
 3300      385F7400 
 3301              	.LASF70:
 3302 05e3 77746F62 		.ascii	"wtobjp\000"
 3302      6A7000
 3303              	.LASF60:
 3304 05ea 74687265 		.ascii	"threads_list_t\000"
 3304      6164735F 
 3304      6C697374 
 3304      5F7400
 3305              	.LASF12:
 3306 05f9 705F6D73 		.ascii	"p_msg\000"
 3306      6700
 3307              	.LASF149:
 3308 05ff 6D61696E 		.ascii	"main\000"
 3308      00
 3309              	.LASF146:
 3310 0604 63685265 		.ascii	"chRegSetThreadName\000"
 3310      67536574 
 3310      54687265 
 3310      61644E61 
 3310      6D6500
 3311              	.LASF75:
 3312 0617 6D5F6F77 		.ascii	"m_owner\000"
 3312      6E657200 
 3313              	.LASF121:
 3314 061f 73647374 		.ascii	"sdstate_t\000"
 3314      6174655F 
 3314      7400
 3315              	.LASF3:
 3316 0629 705F6374 		.ascii	"p_ctx\000"
 3316      7800
 3317              	.LASF83:
 3318 062f 76745F66 		.ascii	"vt_func\000"
 3318      756E6300 
 3319              	.LASF95:
 3320 0637 6576656E 		.ascii	"event_listener\000"
 3320      745F6C69 
 3320      7374656E 
 3320      657200
 3321              		.comm	__gnu_lto_v1,1,1
 3322              		.ident	"GCC: (GNU Tools for ARM Embedded Processors) 4.7.4 20130913 (release) [ARM/embedded-4_7-br
ARM GAS  /tmp/ccZjsTj3.s 			page 90


DEFINED SYMBOLS
                            *ABS*:00000000 main.c
     /tmp/ccZjsTj3.s:433    .text.Thread1:00000000 $t
     /tmp/ccZjsTj3.s:438    .text.Thread1:00000000 Thread1
     /tmp/ccZjsTj3.s:504    .text.Thread1:0000002c $d
     /tmp/ccZjsTj3.s:510    .text.startup.main:00000000 $t
     /tmp/ccZjsTj3.s:516    .text.startup.main:00000000 main
     /tmp/ccZjsTj3.s:574    .text.startup.main:00000048 $d
     /tmp/ccZjsTj3.s:581    .bss.waThread1:00000000 $d
     /tmp/ccZjsTj3.s:585    .bss.waThread1:00000000 waThread1
     /tmp/ccZjsTj3.s:588    .rodata.str1.4:00000000 $d
                            *COM*:00000001 __gnu_lto_v1
                     .debug_frame:00000010 $d
     /tmp/ccZjsTj3.s:509    .text.Thread1:00000034 $t
     /tmp/ccZjsTj3.s:580    .text.startup.main:00000054 $t

UNDEFINED SYMBOLS
chThdSleep
ch
halInit
chSysInit
sdStart
chThdCreateStatic
TestThread
SD2
