ARM GAS  /tmp/ccZjsTj3.s 			page 1


   1              		.syntax unified
   2              		.cpu cortex-m3
   3              		.fpu softvfp
   4              		.eabi_attribute 20, 1
   5              		.eabi_attribute 21, 1
   6              		.eabi_attribute 23, 3
   7              		.eabi_attribute 24, 1
   8              		.eabi_attribute 25, 1
   9              		.eabi_attribute 26, 1
  10              		.eabi_attribute 30, 2
  11              		.eabi_attribute 34, 1
  12              		.eabi_attribute 18, 4
  13              		.thumb
  14              		.file	"main.c"
  15              		.text
  16              	.Ltext0:
  17              		.section	.gnu.lto_.jmpfuncs.eb64cc3320801bb0,"",%progbits
  18 0000 789C6362 		.ascii	"x\234cb`d`g\300\016\346\0021\007\02031002I2\244220t"
  18      60646067 
  18      C00EE602 
  18      31071033 
  18      31303032 
  19 001b A8A33051 		.ascii	"\250\2430Q\305\253\030~6p\244222f22\034\353_,\012\324"
  19      C5AB187E 
  19      3670A432 
  19      32326632 
  19      321CEB5F 
  20 0032 CA0A1364 		.ascii	"\312\012\023d\002\0122~\331\316\0152\016\244\205\231"
  20      020A327E 
  20      D9CE0D32 
  20      0EA48599 
  21 0042 E1041384 		.ascii	"\341\004\023\204\305\302\340\310\000S\305\312\030\317"
  21      C5C2E0C8 
  21      0053C5CA 
  21      18CF
  22 0050 C8708215 		.ascii	"\310p\202\025\246\210\015\304@1\366\314u6\230$\324\325"
  22      A6880DC4 
  22      4031F6CC 
  22      75369824 
  22      D4D5
  23 0062 ECB98999 		.ascii	"\354\271\211\231yz\311\014\000\246U\033\037"
  23      797AC90C 
  23      00A6551B 
  23      1F
  24              		.text
  25              		.section	.gnu.lto_.inline.eb64cc3320801bb0,"",%progbits
  26 0000 789C6362 		.ascii	"x\234cb`d\340e\300\016\302\2414\023\003\003\327#!F\006"
  26      6064E065 
  26      C00EC2A1 
  26      34130303 
  26      D7232146 
  27 0015 268E0557 		.ascii	"&\216\005W$\030X\200|&nF\240>\010\311\310 z]\004$\331"
  27      24185880 
  27      7C266E46 
  27      A03E08C9 
  27      C8207A5D 
  28 002c F0CA0043 		.ascii	"\360\312\000C\222\215\237\201\201\025l\0103\017\330"
ARM GAS  /tmp/ccZjsTj3.s 			page 2


  28      928D9F81 
  28      81156C08 
  28      330FD8
  29 003b 20462E06 		.ascii	" F.\006(\301\000\000\213\262\006."
  29      28C10000 
  29      8BB2062E 
  30              		.text
  31              		.section	.gnu.lto_.pureconst.eb64cc3320801bb0,"",%progbits
  32 0000 789C6362 		.ascii	"x\234cb`d`f```e\200\000&\0063F3\000\001\252\000{"
  32      60646066 
  32      60606065 
  32      80002606 
  32      33463300 
  33              		.text
  34              		.section	.gnu.lto_Thread1.eb64cc3320801bb0,"",%progbits
  35 0000 789C9552 		.ascii	"x\234\225R1k\024Q\020\376\276\367\336%\227K\324X\251"
  35      316B1451 
  35      10FEBEF7 
  35      DE25974B 
  35      D458A9
  36 0013 8D9E1211 		.ascii	"\215\236\022\021\014\336\026Iqe\312\200U\0026\302%\234"
  36      0CDE1649 
  36      7165CA80 
  36      550236C2 
  36      259C
  37 0025 E723594C 		.ascii	"\347#YLN\330$\2056\367<\257H#\004mb@\210D\210\330\332"
  37      4ED82485 
  37      36F73CAF 
  37      4823046D 
  37      62408844 
  38 003c 47896271 		.ascii	"G\211bq\034\"he\225B\261\361\017\010\3029o\337\336\251"
  38      1C226865 
  38      9542B1F1 
  38      0F08C239 
  38      6FDFDEA9 
  39 0050 18446777 		.ascii	"\030Dgw\231\331\331y\337\367\315\314*P\256?\355\222"
  39      99D9D979 
  39      DFF7CDCC 
  39      2A50AE3F 
  39      ED92
  40 0062 3CEF1430 		.ascii	"<\357\0240%\2369Pm\274\005\356\024\025u\0104M\010L\310"
  40      259E3950 
  40      6DBC05EE 
  40      14157508 
  40      344D084C 
  41 0077 9C251A4A 		.ascii	"\234%\032J\0336\256\244h<\207\307\316\335\337x\325\234"
  41      1B36AEA4 
  41      683C87C7 
  41      CEDDDF78 
  41      D59C
  42 0089 6E1E74BB 		.ascii	"n\036t\273g\254\317\316\023\355{\237y\012\226D\021\336"
  42      67ACCFCE 
  42      13ED7B9F 
  42      790A9644 
  42      11DE
  43 009b 2B98DF79 		.ascii	"+\230\337y\367\266\276\234\3774\371B\275<\3506\306\260"
  43      F7B6BE9C 
ARM GAS  /tmp/ccZjsTj3.s 			page 3


  43      FF34F942 
  43      BD3CE836 
  43      C6B0
  44 00ad E331EEBA 		.ascii	"\3431\356\272iK\255\020\321#t\036\014\034\002 \005\030"
  44      694BAD10 
  44      D123741E 
  44      0C1C0220 
  44      0518
  45 00bf 29A0C26D 		.ascii	")\240\302ma\026\313\241\345\334\250\257Om\306{bV\312"
  45      6116CBA1 
  45      E5DCA8AF 
  45      4F6DC67B 
  45      6256CA
  46 00d2 41FD064A 		.ascii	"A\375\006J\3363\205\202\236)4\012\023)\005\376\252\360"
  46      DE338582 
  46      9E29340A 
  46      132905FE 
  46      AAF0
  47 00e4 36BEB993 		.ascii	"6\276\271\223\2269\236F\371\221\333\234\262\034\300"
  47      96399E46 
  47      F991DB9C 
  47      B21CC0
  48 00f3 D7F7C3E9 		.ascii	"\327\367\303\351\2676\232W}\213\031}p\254\360\211\250"
  48      B7369A57 
  48      7D8B197D 
  48      70ACF089 
  48      A8
  49 0104 AA7047F2 		.ascii	"\252pG\362?\255\306\3028.\312`t\352\006\365\026\036"
  49      3FADC6C2 
  49      382ECA60 
  49      74EA06F5 
  49      161E
  50 0116 D232AF3C 		.ascii	"\3222\257<A\336r\210qX\215W1\224\352\007\346z\273\232"
  50      41DE7288 
  50      71588D57 
  50      3194EA07 
  50      E67ABB9A 
  51 012a 637F6B42 		.ascii	"c\177kBzy3W\341S\201O\241L\006UP\302\341O\243\177Z\372"
  51      7A793357 
  51      E153814F 
  51      A14C0655 
  51      50C2E14F 
  52 0142 5FD7BF36 		.ascii	"_\327\2776Q\341\2564\262\367q\367D_\330\254\314\222"
  52      51E1AE34 
  52      B2F771F7 
  52      445FD8AC 
  52      CC92
  53 0154 B253DDC6 		.ascii	"\262S\335\306~\371\373s\006\341\343x\346Z\002:\234\201"
  53      7EF9FB73 
  53      06E1E378 
  53      E65A023A 
  53      9C81
  54 0166 8F288F7C 		.ascii	"\217(\217|\004n\273\345\014B\334\223\246C\340\223G\341"
  54      046EBBE5 
  54      0C42DC93 
  54      A643E093 
  54      47E1
ARM GAS  /tmp/ccZjsTj3.s 			page 4


  55 0178 8A127660 		.ascii	"\212\022v`^\233\336\004\262\006\217q\236Y\027\276r\024"
  55      5E9BDE04 
  55      B2068F71 
  55      9E5917BE 
  55      7214
  56 018a EB17C41D 		.ascii	"\353\027\304\035\367\015\355\227;\346\377i\315a\264"
  56      F70DED97 
  56      3BE6FF69 
  56      CD61B4
  57 0199 1FFE9936 		.ascii	"\037\376\2316\374(&\355\2353\375\371\216\225JQ\270o"
  57      FC2826ED 
  57      9D33FDF9 
  57      8E954A51 
  57      B86F
  58 01ab AE44C96A 		.ascii	"\256D\311j\024\327kKk\327mT[L\354B\274\262\232\334*"
  58      14D76B4B 
  58      6BD76D54 
  58      5B4CEC42 
  58      BCB29ADC 
  59 01c0 2D6270B9 		.ascii	"-bp\271\032\327K5\350j\262`\352\325e\233\277\266\024"
  59      1AD74B35 
  59      E86AB260 
  59      EAD5659B 
  59      BFB614
  60 01d3 D76FD804 		.ascii	"\327o\330\004?\000\230\366\231T"
  60      3F0098F6 
  60      9954
  61              		.text
  62              		.section	.gnu.lto_main.eb64cc3320801bb0,"",%progbits
  63 0000 789C7D52 		.ascii	"x\234}R=K\003A\020}\263{{\247\306\357\217\240\225\301"
  63      3D4B0341 
  63      107DB37B 
  63      7BA7C6EF 
  63      8FA095C1 
  64 0014 4641103B 		.ascii	"FA\020;+\013;[\0036\202\212\310\011\026\372\003l\262"
  64      2B0B3B5B 
  64      0336828A 
  64      C80916FA 
  64      036CB2
  65 0027 C6145612 		.ascii	"\306\024V\022\004?be,D\354,\005A\361\003$\004\253C-"
  65      043F6265 
  65      2C44EC2C 
  65      0541F103 
  65      2404AB43 
  66 003c 2C040BFF 		.ascii	",\004\013\377\200\215 \304\331\333\234\232D\235\343"
  66      808D20C4 
  66      D9DB9C9A 
  66      449DE3
  67 004b 787BB3EF 		.ascii	"x{\263\357\275\335\231\033\001\342\2476F\371=\021@="
  67      BDDD991B 
  67      01E2A736 
  67      46F93D11 
  67      403D
  68 005d 23B92091 		.ascii	"#\271 \221\275\003V\023\202\244]H\341\004q\350\001u"
  68      BD035613 
  68      82A45D48 
  68      E10471E8 
ARM GAS  /tmp/ccZjsTj3.s 			page 5


  68      0175
  69 006f 36023DEC 		.ascii	"6\002=\354\220\262ie\367\363\011BJHGQj2t\027}\310k\275"
  69      90B26965 
  69      F7F30942 
  69      4A484751 
  69      6A327417 
  70 0087 99BD4A8F 		.ascii	"\231\275J\217\247\237K\245^\337dg\011\205\215\227\306"
  70      A79F4BA5 
  70      5EDF6467 
  70      09858D97 
  70      C6
  71 0098 1EF84448 		.ascii	"\036\370DH\300\240\200Sy\217?t\370WT\334j\010r\356\271"
  71      C0A08053 
  71      798F3F74 
  71      F85754DC 
  71      6A0872EE 
  72 00ad B8782EA5 		.ascii	"\270x.\245\200&\201i\332\247>H\306<#\207BF\353\326\320"
  72      80268169 
  72      DAA73E48 
  72      C63C2387 
  72      4246EBD6 
  73 00c2 C9C48441 		.ascii	"\311\304\204AB\222\255@\262\010\031\334\273\323t@\212"
  73      4292AD40 
  73      B20819DC 
  73      BBD37440 
  73      8A
  74 00d3 D32B78D7 		.ascii	"\323+x\327u>I\232%\262t\237\370<&=m{\277\220D\005I\025"
  74      753E499A 
  74      25B2749F 
  74      F83C263D 
  74      6D7BBF90 
  75 00eb 1FAA9D14 		.ascii	"\037\252\235\024\223\244%\2253.-\332oS\215\027\212\353"
  75      93A42595 
  75      332E2DDA 
  75      6F538D17 
  75      8AEB
  76 00fd 8CB8FB6D 		.ascii	"\214\270\373m'V%\256g\261S!n`1=\252\262:\206[\021.\032"
  76      275625AE 
  76      67B15321 
  76      6E60313D 
  76      AAB23A86 
  77 0115 3116319A 		.ascii	"1\0261\232X\243n#Fs\350\337b\013O\222\004\361\037\223"
  77      58A36E23 
  77      4673E8DF 
  77      620B4F92 
  77      04F11F93 
  78 0129 055C4EBD 		.ascii	"\005\\N\275\355.\330\323\346I\014\342Xg\310\247V\271"
  78      ED2ED8D3 
  78      E6490CE2 
  78      5867C8A7 
  78      56B9
  79 013b 871C639B 		.ascii	"\207\034c\2330\332v\350lF;\260k\0333\337\343S\300\332"
  79      30DA76E8 
  79      6C463BB0 
  79      6B1B33DF 
  79      E353C0DA 
  80 014f A969B2F5 		.ascii	"\251i\262\365\220lc\210\010\007\354\006\231WZ\227_\233"
ARM GAS  /tmp/ccZjsTj3.s 			page 6


  80      906C6388 
  80      0807EC06 
  80      99575A97 
  80      5F9B
  81 0161 76E76724 		.ascii	"v\347g$\271c\024\304\271\375\316\307\356!U\025n\212"
  81      B96314C4 
  81      B9FDCEC7 
  81      EE215515 
  81      6E8A
  82 0173 706BBB76 		.ascii	"pk\273v\244\302r:\"\013e\313a\217\353\\\274\312\242"
  82      A4C2723A 
  82      220B65CB 
  82      618FEB5C 
  82      BCCAA2
  83 0186 932DBCEF 		.ascii	"\223-\274\357Fwa\275\237!\036\215@t\035oinqyh\036\237"
  83      467761BD 
  83      9F211E8D 
  83      40741D6F 
  83      696E7179 
  84 019d 10AE8797 		.ascii	"\020\256\207\227"
  85              		.text
  86              		.section	.gnu.lto_.cgraph.eb64cc3320801bb0,"",%progbits
  87 0000 789C3DCB 		.ascii	"x\234=\313=\012\302P\020\004\340\231\335$\357\232^\301"
  87      3D0AC250 
  87      1004E099 
  87      DD24EF9A 
  87      5EC1
  88 0012 134C2060 		.ascii	"\023L `c\343\001D\020/`m\373\374\213\202\245\265\020"
  88      63E30144 
  88      102F606D 
  88      FBFC8B82 
  88      A5B510
  89 0025 CF21EA46 		.ascii	"\317!\352F\33763\037\314\032\010\007\260\305\357,S\300"
  89      DF36331F 
  89      CC1A0807 
  89      B0C5EF2C 
  89      53C0
  90 0037 E20669D9 		.ascii	"\342\006i\331OlOq\324\352l\274R\026j[\362ByAOU\005'"
  90      4F6C4F71 
  90      D4EA6CBC 
  90      52166A5B 
  90      F2427941 
  91 004f AA2E3852 		.ascii	"\252.8RM\301\201J\1778\014\335\372>O\337\222\2430\241"
  91      4DC1814A 
  91      7F380CDD 
  91      FA3E4FDF 
  91      92A330A1 
  92 0063 7BBCE86C 		.ascii	"{\274\350l\260\211\254\221#+\014\221\216a\034~^g\317"
  92      B089AC91 
  92      232B0C91 
  92      8E611C7E 
  92      5E67CF
  93 0076 DD146F74 		.ascii	"\335\024ot\035:\016"
  93      1D3A0E
  94              		.text
  95              		.section	.gnu.lto_.vars.eb64cc3320801bb0,"",%progbits
  96 0000 789C6362 		.ascii	"x\234cb`d`f``\020f\200\000\3463\214L\014\365\014'\030"
ARM GAS  /tmp/ccZjsTj3.s 			page 7


  96      60646066 
  96      60601066 
  96      8000E633 
  96      8C4C0CF5 
  97 0017 1980E421 		.ascii	"\031\200\344!FF\226zf\000+\241\003\375"
  97      4646967A 
  97      66002BA1 
  97      03FD
  98              		.text
  99              		.section	.gnu.lto_.refs.eb64cc3320801bb0,"",%progbits
 100 0000 789C25C1 		.ascii	"x\234%\301\301\015\0000\010\304\260\204r\177\366\237"
 100      C10D0030 
 100      08C4B084 
 100      727FF69F 
 101 0010 964AD885 		.ascii	"\226J\330\205<`8\376mL5\021\026\003K\0005"
 101      3C6038FE 
 101      6D4C3511 
 101      16034B00 
 101      35
 102              		.text
 103              		.section	.gnu.lto_.statics.eb64cc3320801bb0,"",%progbits
 104 0000 789C6362 		.ascii	"x\234cb`d`b\300\016@\342\214\020&\000\000\375\000\011"
 104      60646062 
 104      C00E40E2 
 104      8C102600 
 104      00FD0009 
 105              		.text
 106              		.section	.gnu.lto_.decls.eb64cc3320801bb0,"",%progbits
 107 0000 789CB55C 		.ascii	"x\234\265\\\013t\024U\232\256G?\322$\006|\016;\353\014"
 107      0B741455 
 107      9AAE473F 
 107      D224067C 
 107      0E3BEB0C 
 108 0014 7176DC65 		.ascii	"qv\334e<B\023@dv\325\325!\036a\026\324\223\2049g\346"
 108      3C421340 
 108      6476D5D5 
 108      211E6116 
 108      D4938439 
 109 002a 9C3E3D4D 		.ascii	"\234>=M\247BzM\322Mu\205\307\354\3569- \342;\200s\022"
 109      A7427A4D 
 109      D24D7585 
 109      C7ECEE39 
 109      2D20E23B 
 110 0041 1E8E8101 		.ascii	"\036\216\201\001yxPy)\004\210Q#A\214\217@\204E\243\274"
 110      79785079 
 110      29048851 
 110      23418C8F 
 110      408445A3 
 111 0056 82084686 		.ascii	"\202\010F\206G\226\341\221\220\275\367\257\252[\267"
 111      4796E191 
 111      90BDF7AF 
 111      AA5BB7
 112 0065 AAEBD195 		.ascii	"\252\353\321\225\304:\251[\267\252\357\375\356\377\377"
 112      C43AA95B 
 112      B7AAEFFD 
 112      EEFFFF
 113 0074 F7FFFFFB 		.ascii	"\367\377\377\373\337[\267\3021,\203\217:t\351E\207\277"
ARM GAS  /tmp/ccZjsTj3.s 			page 8


 113      DF5BB7C2 
 113      312C838F 
 113      3A74E945 
 113      87BF
 114 0086 90614664 		.ascii	"\220aFd1\014\217\236\335\217N\224\205|\035:/\2412^t"
 114      310C8F9E 
 114      DD8F4E94 
 114      857C1D3A 
 114      2FA1325E 
 115 009b BD055D5B 		.ascii	"\275\005][\321\365\001t\366\312\325\241\\.\30707\243"
 115      D1F50174 
 115      F6CAD5A1 
 115      5C2EC730 
 115      37A3
 116 00ad F33674FE 		.ascii	"\3636t\376\024\235\267\243\363_\320y7:\203\234\214\223"
 116      149DB7A3 
 116      F35FD079 
 116      373A839C 
 116      8C93
 117 00bf 8FAE63D0 		.ascii	"\217\256c\320y\017\307\350\016\\\367&t\315Fx\271\350"
 117      790FC7E8 
 117      0E5CF726 
 117      74CD4678 
 117      B9E8
 118 00d1 9AA3E03F 		.ascii	"\232\243\340?\210\356g\243\337\346\240\363~t\216C\347"
 118      88EE67A3 
 118      DFE6A0F3 
 118      7E748E43 
 118      E7
 119 00e2 7FA13307 		.ascii	"\177\2413\007=\377ot\375\037t\276\204N?*[\255\264\361"
 119      3DFF6F74 
 119      FD1F74BE 
 119      844E3F2A 
 119      5BADB4F1 
 120 00f6 134EA6F3 		.ascii	"\023N\246\363>t\235\214\316\177Ge\237E\327\347\321\311"
 120      3E749D8C 
 120      CE7F4765 
 120      9F45D7E7 
 120      D1C9
 121 0108 296D611A 		.ascii	")ma\0321\351F:0\375?ad<\225\216E\350\331\010t.\346d"
 121      31E9463A 
 121      30FD3F61 
 121      643C958E 
 121      45E8D908 
 122 0120 39609E87 		.ascii	"9`\236\207\243\374\022\316\\&?\343\364\264\3557\320"
 122      A3FC12CE 
 122      5C263FE3 
 122      F4B4ED37 
 122      D0
 123 0131 86DB5DC0 		.ascii	"\206\333]\300\3112\273Y\221\315\335\212\254\260\314"
 123      C932BB59 
 123      91CDDD8A 
 123      ACB0CC
 124 0140 7215F9DD 		.ascii	"r\025\371\335\246\320\253\312\214>\262\231gS\251\271"
 124      A6D0ABCA 
 124      8C3EB299 
 124      6753A9B9 
ARM GAS  /tmp/ccZjsTj3.s 			page 9


 125 0150 A9BA05A9 		.ascii	"\251\272\005\251\211{sob\026\245\320\221\267\027Q\374"
 125      897B736F 
 125      6216A5D0 
 125      91B71751 
 125      FC
 126 0161 0F4C88CD 		.ascii	"\017L\210\315\0150L\243\037\2629(;\033\225\277\223Y"
 126      0D304CA3 
 126      1FB23928 
 126      3B1B95BF 
 126      9359
 127 0173 9D4A55A3 		.ascii	"\235JU\243Bl\210]\311\336\204p9\226\271\213Y\237\202"
 127      426C885D 
 127      C9DE8470 
 127      3996B98B 
 127      599F82
 128 0186 43E944E5 		.ascii	"C\351D\3452\230\251_\277\243\223\227o2\300\016\261\177"
 128      3298A95F 
 128      BFA39397 
 128      6F32C00E 
 128      B17F
 129 0198 653994AE 		.ascii	"e9\224\256A\270!v5{\227\334ZJn\015?e\224\347\035\257"
 129      41B82176 
 129      357B97DC 
 129      5A4A6E0D 
 129      3F6594E7 
 130 01ae 4E63D28F 		.ascii	"Nc\322\217\254;\230:\304L\365\274\324D\237\031_\350"
 130      AC3B983A 
 130      C44CF5BC 
 130      D4449F19 
 130      5FE8
 131 01c0 47966E3E 		.ascii	"G\226n>\305\221\346\363\030,\242\361\254)\231\206r!"
 131      C591E6F3 
 131      182CA2F1 
 131      AC299986 
 131      7221
 132 01d2 760390F9 		.ascii	"v\003\220\371\272)\231\257Sd\266\374\334\015\225\267"
 132      BA2999AF 
 132      5364B6FC 
 132      DC0D95B7 
 133 01e2 317F062A 		.ascii	"1\177\006*\027 \034)\300,\324~\321H\311#\224x\014\235"
 133      17201C29 
 133      C02CD47E 
 133      D148C923 
 133      94780C9D 
 134 01f6 F1161B40 		.ascii	"\361\026\033@\034Ld\225\246\257?\377\325\247A\271\301"
 134      1C4C6495 
 134      A6AF3FFF 
 134      D5A741B9 
 134      C1
 135 0207 10EB0DD0 		.ascii	"\020\353\015\320\004\300\275\\J\006\226\177Vs\330z\007"
 135      04C0BD5C 
 135      4A06967F 
 135      5673D87A 
 135      07
 136 0218 5BB5886B 		.ascii	"[\265\210k\277\311\336\0069\036\224\012=x \233\341\225"
 136      BFC9DE06 
 136      391E940A 
ARM GAS  /tmp/ccZjsTj3.s 			page 10


 136      3D78209B 
 136      E195
 137 022a 1B1D430A 		.ascii	"\033\035C\012\017G\3274\016\255\245x\310\"\210\254\216"
 137      0F47D734 
 137      0EADA578 
 137      C82288AC 
 137      8E
 138 023b 07523C65 		.ascii	"\007R<eS<\304\276\303\336\211RV\317\002KX\3009lX\034"
 138      533CC4BE 
 138      C3DE8952 
 138      56CF024B 
 138      58C0396C 
 139 0251 B3815585 		.ascii	"\263\201U\205\261\241f\033\253\362\316\032d\341\010"
 139      B1A1661B 
 139      ABF2CE1A 
 139      64E108
 140 0260 642D886D 		.ascii	"d-\210ml\266\206D\244\361\026@\204\330bE\361m\000\336"
 140      6CB68644 
 140      A4F11640 
 140      84D86245 
 140      F16D00DE 
 141 0274 D0003866 		.ascii	"\320\0008f-\307*JU\277~\367\355\346\225\324\274\036"
 141      2DC72A4A 
 141      55BF7EF7 
 141      EDE695D4 
 141      BC1E
 142 0286 583932D2 		.ascii	"X92\322+\231>k\222\0322\355\334\020\273\335\026\350"
 142      2B993E6B 
 142      921A32ED 
 142      DC10BBDD 
 142      16E8
 143 0298 BDFE0A67 		.ascii	"\275\376\012g7-\234\215D8\0265\314%\223\347B2\240~)"
 143      372D9C8D 
 143      44381635 
 143      CC2593E7 
 143      4232A07E 
 144 02ad 1716D70C 		.ascii	"\027\026\327\014\026\267\231S\265\354\370\332\335{\356"
 144      16B79953 
 144      B5ECF8DA 
 144      DD7BEE
 145 02bc 971B748D 		.ascii	"\227\033t\215\265\017\260~\3404\215}w\317\010UE}\006"
 145      B50FB07E 
 145      E0348D7D 
 145      77CF0855 
 145      457D06
 146 02cf 95F5E955 		.ascii	"\225\365\351U\026\377\214[\273\214-\227\355U\017V\375"
 146      16FF8C5B 
 146      BB8C2D97 
 146      ED550F56 
 146      FD
 147 02e0 0D866366 		.ascii	"\015\206cf  \254;k\217\211\332p\344f{\346\275\376!\335"
 147      2020AC3B 
 147      6B8F89DA 
 147      70E4667B 
 147      E6BDFE21 
 148 02f5 EBFFE7C2 		.ascii	"\353\377\347\302$\262\372a\022\315\266\232\274\337\204"
 148      24B2FA61 
ARM GAS  /tmp/ccZjsTj3.s 			page 11


 148      12CDB69A 
 148      BCDF84
 149 0304 37362366 		.ascii	"76#fZ\0213\252\230\201\241+\231\252q\226\001y\340\270"
 149      5A1133AA 
 149      9881A12B 
 149      99AA7196 
 149      0179E0B8 
 150 0318 396463E0 		.ascii	"9dc\340jO)\267\212CN-H\015_Gi\361\020\202\311\031\264"
 150      6A4F29B7 
 150      8A434E2D 
 150      480D5F47 
 150      69F11082 
 151 032f F82BD0E2 		.ascii	"\370+\320\342\036\242\305\015[\267\354\273\213\262\010"
 151      1EA2C50D 
 151      5BB7ECBB 
 151      8BB208
 152 033e 3758DF00 		.ascii	"7X\337\000\326F^\263\210\257?\344U\365\345\015\026\301"
 152      D6465EB3 
 152      88AF3FE4 
 152      55F5E50D 
 152      16C1
 153 0350 EBD59927 		.ascii	"\353\325\231'N\234\007\345\345\031\367\3053\352\340"
 153      4E9C07E5 
 153      E519F7C5 
 153      33EAE0
 154 035f 83B4B6BE 		.ascii	"\203\264\266\276\315g\256\255C~4m\355\260\265\304\257"
 154      CD67AEAD 
 154      437E346D 
 154      EDB0B5C4 
 154      AF
 155 0370 32B7C413 		.ascii	"2\267\304\0234o;\371\014\025w\210\001\325\015c\366#"
 155      346F3BF9 
 155      0C157788 
 155      01D50D63 
 155      F623
 156 0382 D31913C6 		.ascii	"\323\031\023\306<\344F\036\213\015\343L_\330>M\263\335"
 156      3CE4461E 
 156      8B0DE34C 
 156      5FD83E4D 
 156      B3DD
 157 0394 9829DB43 		.ascii	"\230)\333C\373\321\237\366l_\260e\373\275\201b\373<"
 157      FBD19FF6 
 157      6C5FB065 
 157      FBBD8162 
 157      FB3C
 158 03a6 CD7673DF 		.ascii	"\315vs\337\330\316c\350C\265\260\254\020\273\221\275"
 158      D8CE63E8 
 158      43B5B0AC 
 158      10BB91BD 
 159 03b6 03DDEE82 		.ascii	"\003\335\356\202\264\011\322\317!\375\002\322\343\220"
 159      B409D2CF 
 159      21FD02D2 
 159      E390
 160 03c4 7E07E939 		.ascii	"~\007\3519\224:\322\272\216\246\365\023\240\025O\016"
 160      943AD2BA 
 160      8EA6F513 
 160      A0154F0E 
ARM GAS  /tmp/ccZjsTj3.s 			page 12


 161 03d4 BA5E7D8D 		.ascii	"\272^}\215\353k\330\224\202^R\347\011\276\314\006\355"
 161      EB6BD894 
 161      825E52E7 
 161      09BECC06 
 161      ED
 162 03e5 AB30FF69 		.ascii	"\2530\377i%.jU\303\216=\372\331\216\035\022\307\314"
 162      252E6A55 
 162      C38E3DFA 
 162      D98E1D12 
 162      C7CC
 163 03f7 F3E09A3D 		.ascii	"\363\340\232=\246\323\210\036j\032\321\264t\025\313"
 163      A6D3881E 
 163      6A1AD1B4 
 163      7415CB
 164 0406 A41FACC3 		.ascii	"\244\037\254\303tG?\207au&J\2631\227\303lT{T6:/\015"
 164      74473F87 
 164      6175264A 
 164      B33197C3 
 164      6C547B54 
 165 041e D6316187 		.ascii	"\3261a\207\3031+\241\336S\234\031\023\370\251\312D["
 165      C3312BA1 
 165      DE539C19 
 165      13F8A9CA 
 165      445B
 166 0430 8DCF8407 		.ascii	"\215\317\204\007\017\305C\210}\222C\276\212y\213 \266"
 166      0FC54388 
 166      7D9243BE 
 166      8A798B20 
 166      B6
 167 0441 1FCA1DC0 		.ascii	"\037\312\035\3008\330\214\235:\017\301*\000v\266C\343"
 167      38D88C9D 
 167      3A0FC12A 
 167      0076B643 
 167      E3
 168 0452 CF9BB2F3 		.ascii	"\317\233\262\363<\305\316\365\346M\327\027\362\351\014"
 168      3CC5CEF5 
 168      E64DD717 
 168      F2E90C
 169 0461 3137E938 		.ascii	"17\3518z\0168:J@\333^=\303\366\217%\025\363\024\301"
 169      7A0E383A 
 169      4A40DB5E 
 169      3DC3F68F 
 169      2515F314 
 170 0476 EC18D6BF 		.ascii	"\354\030\326\277\220\330\365T\363e\016\017\315g=Z\340"
 170      90D8F554 
 170      F3650E0F 
 170      CD673D5A 
 170      E0
 171 0487 BB5317F8 		.ascii	"\273S\027\370\272\301\252\001\254K\036m\230o\335C\346"
 171      BAC1AA01 
 171      AC4B1E6D 
 171      986FDD43 
 171      E6
 172 0498 AD7EC330 		.ascii	"\255~\3030\357\327\217\333~2n\373\003d\336\352\272\002"
 172      EFD78FDB 
 172      7E326EFB 
 172      0364DEEA 
ARM GAS  /tmp/ccZjsTj3.s 			page 13


 172      BA02
 173 04aa C7F41251 		.ascii	"\307\364\022Q^on\355\255\365\3675\320\314\330\211p\314"
 173      5E6F6EED 
 173      ADF5F735 
 173      D0CCD889 
 173      70CC
 174 04bc 022F6E72 		.ascii	"\002/nr\205\251\232\255\240\324\254a\353\241\217\207"
 174      85A99AAD 
 174      A0D4AC61 
 174      EBA18F87 
 175 04cc 9A68992B 		.ascii	"\232h\231+\333\257\323\326/~\011\255\277\010\255\257"
 175      DBAFD3D6 
 175      2F7E09AD 
 175      BF08ADAF 
 176 04dc 346D7D25 		.ascii	"4m}%\325\372\231/6]3\363<\001\253\326C\354\375\267f"
 176      D5FA992F 
 176      365D33F3 
 176      3C01ABD6 
 176      43ECFDB7 
 177 04f1 D0E96B40 		.ascii	"\320\351k@\203\233\274Z\234\370\356\276aj\237=\220M"
 177      839BBC5A 
 177      9CF8EEBE 
 177      616A9F3D 
 177      904D
 178 0503 3705F7BA 		.ascii	"7\005\367\272\030\372\023B\374\231/\026\275\266\314"
 178      18FA1342 
 178      FC992F16 
 178      BDB6CC
 179 0512 DB5F7392 		.ascii	"\333_s\222\211\371\234\240\266L\352\2379\251\210\007"
 179      89F99CA0 
 179      B64CEA9F 
 179      39A98807 
 180 0522 08629B03 		.ascii	"\010b\233\003\242\323\324EE<H\020\333]!Z\323x\230 v"
 180      A2D3D445 
 180      453C4810 
 180      DB5D215A 
 180      D3789820 
 181 0537 38203A05 		.ascii	"8 :\005\254*b;A\354t\205hM\343\021\202\330\345\200\350"
 181      AC2A623B 
 181      41EC7485 
 181      684DE311 
 181      82D8E580 
 182 054c 1484A988 		.ascii	"\024\204\251\210'\010b\267+Dk\032O\021\304\246\337\332"
 182      270862B7 
 182      2B446B1A 
 182      4F11C4A6 
 182      DFDA
 183 055e 23E699D1 		.ascii	"#\346\231\321\230\246S\306\210\247\216\243\"\2363\304"
 183      98A653C6 
 183      88A78EA3 
 183      229E33C4 
 184 056e 77346C3D 		.ascii	"w4l=\374q\260\017\372O\240\316z5\317w\336\245\3473\223"
 184      FC71B00F 
 184      FA4FA0CE 
 184      7A35CF77 
 184      DEA5E733 
 185 0583 863C3475 		.ascii	"\206<4u\021\324\226uN\303\235\263^\311\230\335\004\263"
ARM GAS  /tmp/ccZjsTj3.s 			page 14


 185      11D49675 
 185      4EC39DB3 
 185      5EC998DD 
 185      04B3
 186 0595 6DF800CE 		.ascii	"m\370\000\316@2_\242L\031\226(\207Z\225\016\261\357"
 186      40325FA2 
 186      4C199628 
 186      875A950E 
 186      B1EF
 187 05a7 737885F2 		.ascii	"sx\205\362\003.@(Q\362$+/P\316\367\341\362f\016\326"
 187      032E4028 
 187      51F2242B 
 187      2F50CEF7 
 187      E1F2660E 
 188 05bc B9B6B5AE 		.ascii	"\271\266\265\2564\322\272\362\214\217t\305\257\372l"
 188      34D2BAF2 
 188      8C8F74C5 
 188      AFFA6C
 189 05cb 3CE7E6A6 		.ascii	"<\347\346\246\206\3722Z\235\325-\217\301\310^\355\323"
 189      86FA325A 
 189      9DD52D8F 
 189      C1C85EED 
 189      D3
 190 05dc A2846D6A 		.ascii	"\242\204mj\224\240\2563P\374f\260\236\273\324\247)\353"
 190      94A0AE33 
 190      50FC66B0 
 190      9EBBD4A7 
 190      29EB
 191 05ee A2D797FA 		.ascii	"\242\327\227\372\315I\310\300t\373\306O\013\360\263"
 191      CD49C8C0 
 191      74FBC64F 
 191      0BF0B3
 192 05fd 92E2674B 		.ascii	"\222\342gK\377\370YO\363\363\206;~\206\367\237\237V"
 192      FFF8594F 
 192      F3F3863B 
 192      7E86F79F 
 192      9F56
 193 060f E06713C5 		.ascii	"\340g\023\305\317;\375\343g\007\305\317\2467\335\361"
 193      CF3BFDE3 
 193      6707C5CF 
 193      A637DDF1 
 194 061f 338AE247 		.ascii	"3\212\342G\016\243nf\026;\205Q\260\002\303\335\314\244"
 194      0EA36E66 
 194      163B8551 
 194      B002C3DD 
 194      CCA4
 195 0631 0731F829 		.ascii	"\0071\370)y\011\363F\256\211\205y\250\246\324\245\334"
 195      7909F346 
 195      AE898579 
 195      A8A6D4A5 
 195      DC
 196 0642 466000D7 		.ascii	"F`\000\327mz\363\333>\207\351z\314f\202\331\335\027"
 196      6D7AF3DB 
 196      3E87E97A 
 196      CC6682D9 
 196      DD17
 197 0654 4FADF384 		.ascii	"O\255\363\204\017@\240B\000\273\266\367w.\341:Z?\002"
ARM GAS  /tmp/ccZjsTj3.s 			page 15


 197      0F40A042 
 197      00BBB6F7 
 197      772EE13A 
 197      5A3F02
 198 0667 3A7388D2 		.ascii	":s\210\322\231VMgj\270>\204\353h4&\014!\2659\265\324"
 198      99564D67 
 198      6AB83E84 
 198      EB683426 
 198      0C21B539 
 199 067d 610C3265 		.ascii	"a\0142eI9\320\320HT\260\373\327}\030\207\373\276\024"
 199      4939D0D0 
 199      4854B0FB 
 199      D77D1887 
 199      FBBE14
 200 0690 7012E6D0 		.ascii	"p\022\346\320g\211`:\227+J\227\001\016\026\325w\246"
 200      6789603A 
 200      972B4A97 
 200      010E16D5 
 200      77A6
 201 06a2 B1F87754 		.ascii	"\261\370wT,\336\276\274\324D\215\331\264\2412\304Vs"
 201      2CDEBEBC 
 201      D4448DD9 
 201      B4A132C4 
 201      5673
 202 06b4 9C82D8B1 		.ascii	"\234\202\330\261\274O\032\222~\320\004\206\330\323h"
 202      BC4F1A92 
 202      7ED00486 
 202      D8D368
 203 06c3 7C43D49D 		.ascii	"|C\324\235\341\310Z\015\307\364\020\311w\324;\331\216"
 203      E1C85A0D 
 203      C7F410C9 
 203      77D43BD9 
 203      8E
 204 06d4 5EF6793A 		.ascii	"^\366y:\331\247(\331?H\313\354A]\030B\313\376\007\220"
 204      D9A728D9 
 204      3F48CBEC 
 204      415D1842 
 204      CBFE0790 
 205 06e8 FDD37E55 		.ascii	"\375\323~U\366]\313\014\262\267\301\301\254\2353\225"
 205      F65DCB0C 
 205      B2B7C1C1 
 205      AC9D3395 
 206 06f8 FD395AF6 		.ascii	"\3759Z\366\313\314d\317Y\312\036\327\355X603\375\020"
 206      CBCC64CF 
 206      59CA1ED7 
 206      ED583630 
 206      33FD10
 207 070b BB986076 		.ascii	"\273\230`v\376\324\015b\236uo\236\243z\363<\352M.\304"
 207      FED40D62 
 207      9E756F9E 
 207      A37AF33C 
 207      EA4D2EC4 
 208 071f 5EE0F0FA 		.ascii	"^\340\360\372\333E\272Ok\374$\346\332\251\365\251^\200"
 208      DB45BA4F 
 208      6BFC24E6 
 208      DAA9F5A9 
 208      5E80
ARM GAS  /tmp/ccZjsTj3.s 			page 16


 209 0731 6A7EB825 		.ascii	"j~\270%3z\177\270\212`v\375\233=3\243\034\305#{\243"
 209      337A7FB8 
 209      8A6076FD 
 209      9B3D33A3 
 209      1CC5237B 
 210 0746 7504B1E3 		.ascii	"u\004\261\343>7\210yi\210n\027\3218f\013\264}\315T\201"
 210      3E378879 
 210      69886E17 
 210      D138660B 
 210      B47DCD54 
 211 075b AE510AF4 		.ascii	"\256Q\012\364\355\337[\2771\233\306\363\224\326\253"
 211      EDDF5BBF 
 211      319BC6F3 
 211      94D6AB
 212 076a 8A7C9860 		.ascii	"\212|\230`\266\277\223k/\364\3144\210c\216\021\310N"
 212      B6BF936B 
 212      2FF4CC34 
 212      88638E11 
 212      C84E
 213 077c A7153557 		.ascii	"\247\0255W\257\321\\.4\316\3471\177\247\211\241v\036"
 213      AFD15C2E 
 213      34CEE731 
 213      7FA789A1 
 213      761E
 214 078e CC561552 		.ascii	"\314V\025R\026\026\245\241\327(\015\355A\032\312\207"
 214      1616A5A1 
 214      D7280DED 
 214      411ACA87 
 215 079e D8EBA0A1 		.ascii	"\330\353\240\241)\036\247s\371\014\326\211\347\361T"
 215      291EA773 
 215      F90CD689 
 215      E7F154
 216 07ad 247C9EC8 		.ascii	"$|\236\310\240\333\235\014\362t=f\335\332U:\356\276"
 216      A0DB9D0C 
 216      F2743D66 
 216      DDDA553A 
 216      EEBE
 217 07bf ECA72656 		.ascii	"\354\247&V\227\034\034\301x\307n\224W\334\346f\221"
 217      971C1CC1 
 217      78C76E94 
 217      57DCE666 
 217      91
 218 07d0 D16DB793 		.ascii	"\321m\267\223\217\035o\2406\035\023\242\211\027\010"
 218      8F1D6FA0 
 218      361D13A2 
 218      891708
 219 07df 64678393 		.ascii	"dg\203\223\277z\320\214LG\261\310>\214Z\277\371s\226"
 219      BF7AD08C 
 219      4C47B1C8 
 219      3E8C5ABF 
 219      F97396
 220 07f2 BABCBBAA 		.ascii	"\272\274\273\252\241\307\225\2134\343B\366\001+\011"
 220      A1C7958B 
 220      34E342F6 
 220      012B09
 221 0801 6653AD93 		.ascii	"fS\255\223d\2344\334uP\264\210\307$\254\317\322\202"
 221      649C34DC 
ARM GAS  /tmp/ccZjsTj3.s 			page 17


 221      7550B488 
 221      C724ACCF 
 221      D282
 222 0813 A203FD0E 		.ascii	"\242\003\375\016\212\336\246\204\264d\217C,c\247\257"
 222      8ADEA684 
 222      B4648F43 
 222      2C63A7AF 
 223 0823 BAB69FA2 		.ascii	"\272\266\237\242\214\352idT\236\020\273\020\214\352"
 223      8CEA6964 
 223      549E10BB 
 223      108CEA
 224 0832 59485F04 		.ascii	"YH_\004\323\252\316\304\264\236\244\225\375\335,\365"
 224      D3AACEC4 
 224      B49EA495 
 224      FDDD2CF5 
 225 0842 3D46CBD2 		.ascii	"=F\313\322\001\0138\264\327\"!\266\227\205\200#E\017"
 225      010B38B4 
 225      D72221B6 
 225      97858023 
 225      450F
 226 0854 4ECD59EA 		.ascii	"N\315Y\352{\237\372+\357\272\332.\243S#\230;\371\231"
 226      7B9FFA2B 
 226      EFBADA2E 
 226      A3532398 
 226      3BF999
 227 0867 0530777A 		.ascii	"\0050wzjn\206s\247Z\336\217W\"I\227w\376\243\214\231"
 227      6A6E8673 
 227      A75ADE8F 
 227      57224997 
 227      77FEA38C 
 228 087c 1110E66E 		.ascii	"\021\020\346n9\002H\0372\360S2mY\376'\023\271\300\253"
 228      3902481F 
 228      32F05332 
 228      6D59FE27 
 228      13B9C0AB 
 229 0890 3D148167 		.ascii	"=\024\201g\311^\326\003\314q\312\323c\324SV+|\232z\314"
 229      C95ED603 
 229      CC71CAD3 
 229      63D45356 
 229      2B7C9A7A 
 230 08a5 A982489F 		.ascii	"\251\202H\237\300\351\244\257\321\027bW\360x9\343\025"
 230      C0E9A4AF 
 230      D1176257 
 230      F07839E3 
 230      15
 231 08b6 9EB79CF9 		.ascii	"\236\267\234\371] }\321\375j\2569\323\316\326\247\213"
 231      5D207DD1 
 231      FD6AAE39 
 231      D3CED6A7 
 231      8B
 232 08c7 FDECD6AF 		.ascii	"\375\354\326\257u+\3110\244\\&\035Q\337\266\371\342"
 232      752BC930 
 232      A45C261D 
 232      51DFB6F9 
 232      E2
 233 08d8 5EAF8CEA 		.ascii	"^\257\214\352\022j\035@\255\017\250P\330\223d\014\304"
 233      126A1D40 
ARM GAS  /tmp/ccZjsTj3.s 			page 18


 233      AD0FA850 
 233      D893640C 
 233      C4
 234 08e9 315BA1E2 		.ascii	"1[\241\342\353\274\351\236@^\013\005\272\226Zo]\324"
 234      EBBCE99E 
 234      405E0B05 
 234      BA965A6F 
 234      5DD4
 235 08fb 0702BB09 		.ascii	"\007\002\273\011b\367R\247\360K\257\341\264XUG)\357"
 235      62F752A7 
 235      F04BAFE1 
 235      B4585547 
 235      29EF
 236 090d 0F6C2698 		.ascii	"\017l&\230M\016\261\244\363\2424~\367\3141\255\004\261"
 236      4D0EB1A4 
 236      F3A2347E 
 236      F7CC31AD 
 236      04B1
 237 091f C531E275 		.ascii	"\3051\342u^@\2241\277$\230m\016T:/\037\312\210G\011"
 237      5E409431 
 237      BF24986D 
 237      0E543A2F 
 237      1FCA8847 
 238 0934 62872B44 		.ascii	"b\207+Dk\032\277#\210NQy\177\366\006X\276N\301\352\264"
 238      6B1ABF23 
 238      884E5179 
 238      7FF60658 
 238      BE4EC1EA 
 239 0949 8BD76D0D 		.ascii	"\213\327m\0150\274\211\301\372l]\267A\213\215\234\367"
 239      30BC89C1 
 239      FA6C5DB7 
 239      418B8D9C 
 239      F7
 240 095a 32D166B2 		.ascii	"2\321f\262\223\307\334\237#f\322^\253\276\2346\264\217"
 240      93C7DC9F 
 240      2366D25E 
 240      ABBE9C36 
 240      B48F
 241 096c A9B36EFF 		.ascii	"\251\263n\377=^\027\026PG\332o\034s\225\310\272k\231"
 241      3D5E1716 
 241      5047DA6F 
 241      1C7395C8 
 241      BA6B99
 242 097f D3F0EEBC 		.ascii	"\323\360\356\274d\017\201\317\274A\304\270\034\3256"
 242      640F81CF 
 242      BC41C4B8 
 242      1CD536
 243 098e CFAC03D3 		.ascii	"\317\254\003\323\017\332\372C\354F\3445\263B\354\033"
 243      0FDAFA43 
 243      EC46E435 
 243      B342EC1B 
 244 099e 30A6BE05 		.ascii	"0\246\276\005\351fH\267B\3726\244\333!\255\207\364\003"
 244      E96648B7 
 244      42FA36A4 
 244      DB21AD87 
 244      F403
 245 09b0 6DDCFD51 		.ascii	"m\334\375Q@9\346\331AfC\246\301\2239\333j\237\034u3"
ARM GAS  /tmp/ccZjsTj3.s 			page 19


 245      4039E6D9 
 245      416643A6 
 245      C19339DB 
 245      6A9F1C75 
 246 09c5 78D74583 		.ascii	"x\327E\2034G\275\377\252\352\250e]\375\221\230\256s"
 246      3447BDFF 
 246      AAEAA865 
 246      5DFD9198 
 246      AE73
 247 09d7 C3B4F59C 		.ascii	"\303\264\365\234\023\3631\324w#S\015L\327\032\266\277"
 247      13F331D4 
 247      7723530D 
 247      4CD71AB6 
 247      BF
 248 09e8 1A263D98 		.ascii	"\032&=\230\203\026\376F\310\351\266\202B\021k\243\370"
 248      8316FE46 
 248      C8E9B682 
 248      42116BA3 
 248      F8
 249 09f9 44D9D7A6 		.ascii	"D\331\327\246yu57\230\360\263\226\360c\325\272\232\177"
 249      79753537 
 249      98F0B396 
 249      F063D5BA 
 249      9A7F
 250 0a0b DCB60787 		.ascii	"\334\266\007\207\372d\0329fC\306\210\177\264D\264\231"
 250      FA641A39 
 250      6643C688 
 250      7FB444B4 
 250      99
 251 0a1c 1CD2DBFD 		.ascii	"\034\322\333\375\216j\270\267\033\024\344\000(\310F"
 251      8E6AB8B7 
 251      1B14E400 
 251      28C846
 252 0a2b A220674F 		.ascii	"\242 gO\355\277p\253\334B\006H\260\024l:\366\036\244"
 252      EDBF70AB 
 252      DC420648 
 252      B0146C3A 
 252      F61EA4
 253 0a3e C6DEB6FA 		.ascii	"\306\336\266\372\2239&6\226\213Y\230?/5/5\\\216\376"
 253      93392636 
 253      968B5998 
 253      3F2F352F 
 253      355C8EFE 
 254 0a52 E739EC53 		.ascii	"\3479\354SD\323\016\330\204\356\274\217\020\005e\300"
 254      44D30ED8 
 254      84EEBC8F 
 254      100565C0 
 255 0a62 11A6A2A3 		.ascii	"\021\246\242\243\376\344-\346x\031\214\342@\234\272"
 255      FEE42DE6 
 255      78198CE2 
 255      409CBA
 256 0a71 2BB28360 		.ascii	"+\262\203`v\326\237\314u\2039D\303T\030\016\261\207"
 256      76D69FCC 
 256      75833944 
 256      C354180E 
 256      B187
 257 0a83 61FE7296 		.ascii	"a\376r\226`v\271\2443\317\222\316\363\004\263\333%\235"
ARM GAS  /tmp/ccZjsTj3.s 			page 20


 257      6076B9A4 
 257      33CF92CE 
 257      F304B3DB 
 257      259D
 258 0a95 A32CE9BC 		.ascii	"\243,\351\274F0\233v:\321i\023\303\350\350\354%\230"
 258      46309B76 
 258      3AD16913 
 258      C3E8E8EC 
 258      2598
 259 0aa7 2D3B9DE8 		.ascii	"-;\235\350\324cZ\313\363\231l\025\263\315%\235\326\362"
 259      D4635ACB 
 259      F3996C15 
 259      B3CD259D 
 259      D6F2
 260 0ab9 7C8160B6 		.ascii	"|\201`\266\273\244\323Z\2365\004\263\303\221N\233hK"
 260      BBA4D35A 
 260      9E3504B3 
 260      C3914E9B 
 260      684B
 261 0acb 47E77282 		.ascii	"G\347r\202\331\351H\247\036\323Z\236k\010f\227K:\255"
 261      D9E948A7 
 261      1ED35A9E 
 261      6B086697 
 261      4B3AAD
 262 0ade E5B99E60 		.ascii	"\345\271\236`v\273\244\323Z\236[\010f\323.':m\"C\035"
 262      76BBA4D3 
 262      5A9E5B08 
 262      66D32E27 
 262      3A6D2243 
 263 0af3 9DDB0966 		.ascii	"\235\333\011f\313.':\365\230C\030\213\203v\227!\366"
 263      CB2E273A 
 263      F5984318 
 263      8B837697 
 263      21F6
 264 0b05 101A62D1 		.ascii	"\020\032b\321\340\364\2770|~\005\351\327\220\036\201"
 264      E0F4BF30 
 264      7C7E05E9 
 264      D7901E81 
 265 0b15 F418A427 		.ascii	"\364\030\244' =\011\351)HOC\372=\244?@\3727H\317Cz1"
 265      203D09E9 
 265      29484F43 
 265      FA3DA43F 
 265      40FA3748 
 266 0b2d 938584FD 		.ascii	"\223\205\204\375\364\032\335\373\331\231\317\351\023"
 266      F41ADDFB 
 266      D999CFE9 
 266      13
 267 0b3a 667D6CC6 		.ascii	"f}l\306\347\032j!\3415\026B\211\265,\246\357\012\244"
 267      E71A6A21 
 267      E1351642 
 267      89B52CA6 
 267      EF0AA4
 268 0b4d 3540EB6A 		.ascii	"5@\353jH\367@\3721\244\237A\332\232\011\017u\332~T\335"
 268      48F740FA 
 268      31A49F41 
 268      DA9A090F 
 268      75DA7E54 
ARM GAS  /tmp/ccZjsTj3.s 			page 21


 269 0b62 08A8460B 		.ascii	"\010\250F\013\013O\250\033\007\032\027\244\026\262O"
 269      0B4FA81B 
 269      071A17A4 
 269      16B24F
 270 0b71 6EBA5D43 		.ascii	"n\272]C\323O\347\350\001\3612\250\323\336lu@l\330z\304"
 270      D34FE7E8 
 270      01F132A8 
 270      D3DE6C75 
 270      406CD87A 
 271 0b86 B099DE0D 		.ascii	"\260\231\336\015\3325@;@\3206\324\234o\276O\025Q@\027"
 271      DA35403B 
 271      40D036D4 
 271      9C6FBE4F 
 271      15514017 
 272 0b9a D6C23D3D 		.ascii	"\326\302==\256\005\310\270\026\010\310kT\362\327!L\037"
 272      AE05C8B8 
 272      1608C86B 
 272      54F2D721 
 272      4C1F
 273 0bac 6BA9D436 		.ascii	"k\251\3246\336B\310\335\313) \177\357C\330t\3352l\032"
 273      DE42C8DD 
 273      CB29207F 
 273      EF43D874 
 273      DD326C1A 
 274 0bc0 EED87797 		.ascii	"\356\330w\227x\363\276\263\370d\360\217\004 G'`\263"
 274      78F3BEB3 
 274      F864F08F 
 274      04204727 
 274      60B3
 275 0bd2 68585F36 		.ascii	"hX_6\304>\351\271\323t)A_\016\026\256=f\221\014~\252"
 275      C43EE9B9 
 275      D3742941 
 275      5F0E16AE 
 275      3D66910C 
 276 0be8 4632177A 		.ascii	"F2\027z.|\277\324l\373\251~C\255\274\273rq\016\253\200"
 276      2E7CBFD4 
 276      6CFBA97E 
 276      43ADBCBB 
 276      72710EAB 
 277 0bfd B6EF745A 		.ascii	"\266\357tZ\213\326\313K9L\\R-\301l\"o]\372\027,\254"
 277      8BD6CB4B 
 277      394C5C52 
 277      2DC16C22 
 277      6F5DFA17 
 278 0c13 20881DAE 		.ascii	" \210\035\256\020GY\"\326i4\336\337\207@\201(\266\354"
 278      10475922 
 278      D66934DE 
 278      DF874081 
 278      28B6EC
 279 0c26 3BE67B60 		.ascii	";\346{`\301\364)\017\366\013OC\372\014\244\317y\250"
 279      C1F4290F 
 279      F60B4F43 
 279      FA0CA4CF 
 279      79A8
 280 0c38 E9C6EA1C 		.ascii	"\351\306\352\034\325\302Zv\347\252\000r\317Q\210Z\007"
 280      D5C25A76 
 280      E7AA0072 
ARM GAS  /tmp/ccZjsTj3.s 			page 22


 280      CF51885A 
 280      07
 281 0c49 338E98D6 		.ascii	"3\216\230\326\272\333\253\351\3560\346/\251\306+\270"
 281      BADBABE9 
 281      EE30E62F 
 281      A9C62BB8 
 282 0c59 D72FF7F6 		.ascii	"\327/\367\366\372\345o\2268f\023!\346\333\346-\237*"
 282      FAE56F96 
 282      38661321 
 282      E6DBE62D 
 282      9F2A
 283 0c6b 2FA07EC9 		.ascii	"/\240~\311\3745\225Z\214\213*S\341\367\240\324\213\236"
 283      FC35955A 
 283      8C8B2A53 
 283      E1F7A0D4 
 283      8B9E
 284 0c7d 61966DC9 		.ascii	"a\226m\311\2332\377\231Y\203\247\016\037\314\235(\277"
 284      9B32FF99 
 284      5983A70E 
 284      1FCC9D28 
 284      BF
 285 0c8e CC631C6A 		.ascii	"\314c\034j\3115_\362\350\2768\306\204\326\035S\0115"
 285      C9355FF2 
 285      E8BE38C6 
 285      84D61D53 
 285      0935
 286 0ca0 AC7678EC 		.ascii	"\254vx\354\254\374e\317mJ\256\230|\0074\225S\205\275"
 286      ACFC65CF 
 286      6D4AAE98 
 286      7C073495 
 286      5385BD
 287 0cb3 8D78239A 		.ascii	"\215x#\232L\217L\345\022G*\247\246\021y\264\272z^\235"
 287      4C8F4CE5 
 287      12472AA7 
 287      A61179B4 
 287      BA7A5E9D 
 288 0cc7 1991B64B 		.ascii	"\031\221\266K25\036\303\327\032\370\023\014z\201\205"
 288      32351EC3 
 288      D71AF813 
 288      0C7A8185 
 289 0cd7 633E249D 		.ascii	"c>$\235\262\352\223-\275\317\350\2148\304.M\027\227"
 289      B2EA932D 
 289      BDCFE88C 
 289      38C42E4D 
 289      1797
 290 0ce9 4689DAAF 		.ascii	"F\211\332\257]\004\342\372g\007\316\324\032 \226\333"
 290      5D04E2FA 
 290      6707CED4 
 290      1A2096DB 
 291 0cf9 411898C1 		.ascii	"A\030\230\301og\254\271y\305\310\015R\003\257\325\307"
 291      6F67ACB9 
 291      79C5C80D 
 291      5203AFD5 
 291      C7
 292 0d0a 262F73D4 		.ascii	"&/s\324\255a-\010\223m\336\014=F\255\362`u\254\275A"
 292      AD612D08 
 292      936DDE0C 
ARM GAS  /tmp/ccZjsTj3.s 			page 23


 292      3D46ADF2 
 292      6075ACBD 
 293 0d1f 93CF924B 		.ascii	"\223\317\222K\265d\215\240\2255l\0146|]\247'S\367\331"
 293      B5648DA0 
 293      95356C0C 
 293      367C5DA7 
 293      2753F7D9 
 294 0d33 0B720504 		.ascii	"\013r\005\004\264\251a\246\036\3465\027\342\262\355"
 294      B4A961A6 
 294      1EE63517 
 294      E2B2ED
 295 0d42 FB754669 		.ascii	"\373uFi\341\270@\373\364J\266V\035U\233\011U\365\037"
 295      E1B840FB 
 295      F44AB656 
 295      1D559B09 
 295      55F51F
 296 0d55 2DFF5037 		.ascii	"-\377P7\236\206\330\327\007\212\256\215i\206\3031\365"
 296      9E86D8D7 
 296      078AAE8D 
 296      6986C331 
 296      F5
 297 0d66 A4E5CDED 		.ascii	"\244\345\315\355\007.\032Z~\303^\0071\036\232\203\022"
 297      072E1A5A 
 297      7EC35E07 
 297      311E9A83 
 297      12
 298 0d77 840BDF1C 		.ascii	"\204\013\337\0340\210\364-=\300/\230\225\030 U71u\264"
 298      3088F42D 
 298      3DC02F98 
 298      95182055 
 298      373175B4 
 299 0d8b B77798FA 		.ascii	"\267w\230\372\217\003\236\313%\010=\3737|I6r\033\376"
 299      8F039ECB 
 299      25083DFB 
 299      377C4936 
 299      721BFE
 300 0d9e 2B0006DC 		.ascii	"+\000\006\334\254\001b\260\306\317\221\306,\344S\251"
 300      AC0162B0 
 300      C6CF91C6 
 300      2CE453A9 
 301 0dae 6E34C996 		.ascii	"n4\311\226c\006\216y)WsvK>\035j\027dl\325\303Q\264\231"
 301      63068E79 
 301      29577376 
 301      4B3E1D6A 
 301      17646CD5 
 302 0dc6 8DCF47B5 		.ascii	"\215\317G\265\265\242\273\031\275\306\276\355\301\214"
 302      B5A2BB19 
 302      BDC6BEED 
 302      C18C
 303 0dd4 2C252D5F 		.ascii	",%-_o\336t\361_e\340\014\220\320\244\006j\3560\035\356"
 303      6FDE74F1 
 303      5F65E00C 
 303      90D0A406 
 303      6AEE301D 
 304 0de9 7750C37D 		.ascii	"wP\303}\327\247\246_\000\361\016\353q6\313-\273\201"
 304      D7A7A65F 
 304      00F10EEB 
ARM GAS  /tmp/ccZjsTj3.s 			page 24


 304      7136CB2D 
 304      BB81
 305 0dfb F23709E5 		.ascii	"\3627\011\345-\177\311\265\241;}\261\245\321\224\346"
 305      2D7FC9B5 
 305      A13B7DB1 
 305      A5D194E6 
 306 0e0b 468AE68E 		.ascii	"F\212\346\216\025f\233f|&/:v\001\025\270n\347\212\376"
 306      15669B66 
 306      7C262F3A 
 306      760115B8 
 306      6EE78AFE 
 307 0e1f BFE890DF 		.ascii	"\277\350\220\337\2257\021\314\256>\1778\254\356\\Y\001"
 307      953711CC 
 307      AE3E7F38 
 307      ACEE5C59 
 307      01
 308 0e30 547E4C10 		.ascii	"T~L\020\233~\346\0061\317\204Fy[F+Al\177e\240\366I\037"
 308      9B7EE606 
 308      31CF8446 
 308      795B462B 
 308      416C7F65 
 309 0e48 26981D0E 		.ascii	"&\230\035\016T:\277\350P6\217\020\304n\007D\323\351"
 309      543ABFE8 
 309      50368F10 
 309      C46E0744 
 309      D3E9
 310 0e5a 6CFA412B 		.ascii	"l\372A+O\210}\017\205U\250\255\367!\354i\202t\017\244"
 310      4F887D0F 
 310      8555A8AD 
 310      F721EC69 
 310      82740FA4 
 311 0e6e 7B21DD07 		.ascii	"{!\335\007i\013\035b}O\214\246\3553M]\014:\352\254/"
 311      690B1D62 
 311      7D4F8CA6 
 311      ED334D5D 
 311      0C3AEAAC 
 312 0e83 D6666315 		.ascii	"\326fc\025\344\207\330\317\301j\316\023\253\351\376"
 312      E487D8CF 
 312      C16ACE13 
 312      ABE9FE
 313 0e92 C4C66AD2 		.ascii	"\304\306j\322\343\372\003\246Fs\2002\232\356\217\315"
 313      E3FA03A6 
 313      46738032 
 313      9AEE8FCD 
 314 0ea2 8C860EEA 		.ascii	"\214\206\016\352\235\277\366\321\004q\213\201\374C@"
 314      9DBFF6D1 
 314      04718B81 
 314      FC4340
 315 0eb1 FED383C9 		.ascii	"\376\323\203\311X\370\321U\273W\234z \216\251\201\212"
 315      58F8D155 
 315      BB579C7A 
 315      208EA981 
 315      8A
 316 0ec2 5F9A32F1 		.ascii	"_\2322\361%\315\304Gf\2578\275:\335:\010c\375\032\202"
 316      25CDC447 
 316      66AF38BD 
 316      3ADD3A08 
ARM GAS  /tmp/ccZjsTj3.s 			page 25


 316      63FD1A82 
 317 0ed6 D8B4AFFF 		.ascii	"\330\264\257\377\333\345d\314\215\004\263\305\341[\014"
 317      DBE564CC 
 317      8D04B3C5 
 317      E15B0C
 318 0ee5 3DA2CE02 		.ascii	"=\242\316\002\224y\204\374A\3736\202\330\266OS8\327"
 318      947984FC 
 318      41FB3682 
 318      D8B64F53 
 318      38D7
 319 0ef7 4B8EFD7B 		.ascii	"K\216\375{\331w\322$\026s\367\346\256\003\304\323@z"
 319      D977D224 
 319      1673F7E6 
 319      AE03C4D3 
 319      407A
 320 0f09 BF7DAFC5 		.ascii	"\277}\257\305\233;\334\2245!\247=\326o\356\014\277q"
 320      9B3BDC94 
 320      3521A73D 
 320      D66FEE0C 
 320      BF71
 321 0f1b 4C33115D 		.ascii	"L3\021]\373>w\033st\335A\277\271\373\214@v:\352\214"
 321      FB3E771B 
 321      7374DD41 
 321      BFB9FB8C 
 321      40763AEA 
 322 0f30 A9D74C3F 		.ascii	"\251\327L?h\245\016\261\355\310#yC\354\327\340y\216"
 322      68A50EB1 
 322      EDC82379 
 322      43ECD7E0 
 322      798E
 323 0f42 407A0CD2 		.ascii	"@z\014\322\023\220~\237\311\324\014\253\"\001\377\306"
 323      13907E9F 
 323      C9D40CAB 
 323      2201FFC6 
 324 0f52 C329C6DF 		.ascii	"\303)\306\3374y t<\304\036%\210m\256\020uB\245t<\304"
 324      34792074 
 324      3CC41E25 
 324      886DAE10 
 324      7542A574 
 325 0f68 1E27881D 		.ascii	"\036'\210\035-\375\320q\235\335\034\204\236\002\314"
 325      2DFDD071 
 325      9DDD1C84 
 325      9E02CC
 326 0f77 296E106D 		.ascii	")n\020m\026-\017P\375\324&O\310\277\200^\371\001\322"
 326      162D0F50 
 326      FDD4264F 
 326      C8BF805E 
 326      F901D2
 327 0f8a B390FE8D 		.ascii	"\263\220\376\215\036-\216\017VG\213\256\307\314=\263"
 327      1E2D8E0F 
 327      56478BAE 
 327      C7CC3DB3 
 328 0f9a F9F095AE 		.ascii	"\371\360\225\256\177\256"
 328      7FAE
 329 0fa0 37865DF4 		.ascii	"7\206]\364`)\234&\006w|\355+\375\336\030v\236\260s\275"
 329      60299C26 
 329      06777CED 
ARM GAS  /tmp/ccZjsTj3.s 			page 26


 329      2BFDDE18 
 329      769EB073 
 330 0fb5 F9FCF165 		.ascii	"\371\374\361e\016\273\345Mw\345\232\311u\007%\327\235"
 330      0EBBE54D 
 330      77E59AC9 
 330      750725D7 
 330      9D
 331 0fc6 1ED86EB9 		.ascii	"\036\330n\271\013d\371\031\244\027h\211\316\037B\202"
 331      0B64F919 
 331      A4176889 
 331      CE1F4282 
 332 0fd6 C6D39BB5 		.ascii	"\306\323\233\265\361W\037\333\302Z\236\026f\233\255"
 332      F1571FDB 
 332      C25A9E16 
 332      669BAD
 333 0fe5 8BD63D88 		.ascii	"\213\326=\210_\243\342/\232\314C>\014q\305\343~9\360"
 333      5FA3E22F 
 333      9ACC433E 
 333      0C71C5E3 
 333      7E39F0
 334 0ff8 AABC2B8A 		.ascii	"\252\274+\2122\0015\247"
 334      320135A7 
 335 1000 FE171CEB 		.ascii	"\376\027\034\353\272\227=\346\313\201r\250o]\357\232"
 335      BA973DE6 
 335      CB8172A8 
 335      6F5DEF9A 
 336 1010 564F7983 		.ascii	"VOy\203h\257&!\266\026>\022\313\244\323]F\366=\362 "
 336      68AF2621 
 336      B6163E12 
 336      CBA4D35D 
 336      46F63DF2 
 337 1025 4F3AE9EC 		.ascii	"O:\351\354\251\375W_R8\3170\270Oy\315\206x\374\224\354"
 337      A9FD575F 
 337      5238CF30 
 337      B84F79CD 
 337      8678FC94 
 338 103a 4EEB3961 		.ascii	"N\3539a\366&\325/\277\020Q|U7\350\377\313@\011\256\334"
 338      F626D52F 
 338      BF10517C 
 338      5537E8FF 
 338      CB4009AE 
 339 104f DE73E216 		.ascii	"\336s\342\026{}\325w\217r\230`\326\022\314\216\036\276"
 339      7B7DD577 
 339      8F729860 
 339      D612CC8E 
 339      1EBE
 340 1061 8F0ED000 		.ascii	"\217\016\320\000\271\202@v:AZ\372?\003d\035\201\354"
 340      B9824076 
 340      3A415AFA 
 340      3F03641D 
 340      81EC
 341 1073 7207694D 		.ascii	"r\007iM\345j\002\331\355\004i9c\320A\"\317\317s\012"
 341      E56A02D9 
 341      ED046939 
 341      63D04122 
 341      CFCF730A 
 342 1087 64D37557 		.ascii	"d\323uW\220\326T\256'T\2668Af<g\320t2\304>\351\275\223"
ARM GAS  /tmp/ccZjsTj3.s 			page 27


 342      90D654AE 
 342      2754B638 
 342      41663C67 
 342      D07432C4 
 343 109f F187D8B9 		.ascii	"\361\207\330\271^\354\233\346C\272\000\322\205\220>"
 343      5EEC9BE6 
 343      43BA00D2 
 343      85903E
 344 10ae 0BE9F390 		.ascii	"\013\351\363\220\276\340%\236\313`\320=\266\006\375"
 344      BEE0259E 
 344      CB60D03D 
 344      B606FD
 345 10bd 925717C9 		.ascii	"\222W\027\311\030\352\326\330FH\325^+'\262\321\266\336"
 345      18EAD6D8 
 345      4648D55E 
 345      2B27B2D1 
 345      B6DE
 346 10cf 22CB7AEB 		.ascii	"\"\313z\353l\353-\266\254\367\212m\275%Z=&\247H\020"
 346      6CEB2DB6 
 346      ACF78A6D 
 346      BD255A3D 
 346      26A74810 
 347 10e3 6391F202 		.ascii	"c\221\362\00216S\020}\217<:5o\002s\307\310\221A\371"
 347      31365310 
 347      7D8F3C3A 
 347      356F0273 
 347      C7C89141 
 348 10f8 2F9E0C96 		.ascii	"/\236\014\226E\312\203\261\312hyU\211\020LB\331\221"
 348      45CA83B1 
 348      CA687955 
 348      89104C42 
 348      D991
 349 110a 65CC60BA 		.ascii	"e\314`\272\326\357\246\024\373\222\261?\011a\351\017"
 349      D6EFA614 
 349      FB92B13F 
 349      0961E90F 
 350 111a C178420A 		.ascii	"\301xB\012>T8%8=\032\035\021\021+FT\306+\205\021BdZ"
 350      3E543825 
 350      383D1A1D 
 350      11112B46 
 350      54C62B85 
 351 1132 6CC4D8F0 		.ascii	"l\304\330\360\275#F\217\312\0373cLpZ\254\022\203\227"
 351      BD23468F 
 351      CA1F3363 
 351      4C705AAC 
 351      128397
 352 1145 C7A6E172 		.ascii	"\307\246\341rA]\271\340\330\221\367\216\034\253\265"
 352      415DB9E0 
 352      D891F78E 
 352      1CABB5
 353 1154 28959408 		.ascii	"(\225\224\010\245\250E\177U\254R\032\037\226\244\001"
 353      A5A8457F 
 353      55AC521A 
 353      1F96A401 
 354 1164 6B823089 		.ascii	"k\2020\211\376\364\277S\215\243FQ\343\336YbL\022<\242"
 354      FEF4BF53 
 354      8DA34651 
ARM GAS  /tmp/ccZjsTj3.s 			page 28


 354      E3DE5962 
 354      4C123CA2 
 355 1178 1029F156 		.ascii	"\020)\361V$\247\207\245\261\264\204D)\230\210\213R\022"
 355      24A787A5 
 355      B1B48444 
 355      2998888B 
 355      5212
 356 118a 533561CA 		.ascii	"S5a\312\354`4^\221\210\225\013b2\370\310\204\011\301"
 356      EC60345E 
 356      9188950B 
 356      6232F8C8 
 356      8409C1
 357 119d 68993427 		.ascii	"h\2314'!$1\013\010l\314\350\260\304'\252$~\272 \005"
 357      2124310B 
 357      086CCCE8 
 357      B0C427AA 
 357      247EBA20 
 358 11b2 92739252 		.ascii	"\222s\222R\254\002\311\355N[\270\262h\\\024P\375,,\202"
 358      AC02C9ED 
 358      4E5BB8B2 
 358      685C1450 
 358      FD2C2C82 
 359 11c6 FC7161C9 		.ascii	"\374qa\311\203\000$\017B\220|@\230\344\305\224I\374"
 359      8300240F 
 359      42907C40 
 359      98E4C594 
 359      49FC
 360 11d8 CC0A2957 		.ascii	"\314\012)W\230)TJ\341d\274J\214\"\340_\030\200U\316"
 360      9829544A 
 360      E164BC4A 
 360      8C22E05F 
 360      188055CE 
 361 11ec A265500E 		.ascii	"\242eP\016S\225C\327\030\"\337\224\307\222\222P)\210"
 361      539543D7 
 361      1822DF94 
 361      C7929250 
 361      2988
 362 11fe 61154F7D 		.ascii	"a\025O}\340\027\312\303\225\302l\311'\225\341&\363,"
 362      E017CAC3 
 362      95C26CC9 
 362      2795E126 
 362      F32C
 363 1210 E193D1B2 		.ascii	"\341\223\321\262\022\004\356K\310\305\023\341\204(\314"
 363      1204EE4B 
 363      C8C513E1 
 363      8428CC
 364 121f F44B0931 		.ascii	"\364K\0111\026\017K\300\010\226\004<\217\305\375\321"
 364      160F4BC0 
 364      0896043C 
 364      8FC5FDD1 
 365 122f 78A5848A 		.ascii	"x\245\204\212ec\276\303\350\267\2504\373W\316\"\011"
 365      6563BEC3 
 365      E8B7A834 
 365      FB57CE22 
 365      09
 366 1240 CFBCB702 		.ascii	"\317\274\267\002\213E\024\246\243\376\013K\2348\226"
 366      8B4514A6 
ARM GAS  /tmp/ccZjsTj3.s 			page 29


 366      A3FE0B4B 
 366      9C3896
 367 124f 13EFE1C4 		.ascii	"\023\357\341\304q\234x/'\216\347\304_\363b\376(t\346"
 367      719C782F 
 367      278EE7C4 
 367      5FF362FE 
 367      2874E6
 368 1262 73E522BA 		.ascii	"s\345\"\272\214\361&\302\010\331\217i\232\205xI\204"
 368      8CF126C2 
 368      08D98F69 
 368      9A857849 
 368      84
 369 1273 E3E52582 		.ascii	"\343\345%\202\350\211\226EDLh\244B\310\222\222RDB\202"
 369      E8899645 
 369      444C68A4 
 369      42C89292 
 369      52444282 
 370 1287 433F42CE 		.ascii	"C?B\316/U\304K\344\373\322\362\310\364\244_\022\205"
 370      2F55C44B 
 370      E4FBD2F2 
 370      C8F4A45F 
 370      1285
 371 1299 D224508E 		.ascii	"\322$P\2163>\261d\016R\210,avL\212\242\202\276YR|\332"
 371      333EB164 
 371      0E52882C 
 371      61764C8A 
 371      A282BE59 
 372 12b0 7F26B241 		.ascii	"\177&\262Aj\025\221\344\023\250\2440\013g\370D\270*"
 372      6A1591E4 
 372      13A8A430 
 372      0B67F844 
 372      B82A
 373 12c2 57965A12 		.ascii	"W\226Z\022\304\031\226\002\211\360\254HL\212UN\037\254"
 373      C4199602 
 373      89F0AC48 
 373      4C8A554E 
 373      1FAC
 374 12d4 FE30A34A 		.ascii	"\3760\243J\250B\255\015J\204\021*\334x!\213\036\010"
 374      A842AD0D 
 374      4A84112A 
 374      DC78218B 
 374      1E08
 375 12e6 09A112A9 		.ascii	"\011\241\022\251\343toE\025\222\3250K\311WH\263\261"
 375      E3746F45 
 375      1592D530 
 375      4BC95748 
 375      B3B1
 376 12f8 AE55C858 		.ascii	"\256U\310X\350\032\237\205;\016j!j*\240CP\323\250\034"
 376      E81A9F85 
 376      3B0E6A21 
 376      6A2AA043 
 376      50D3A81C 
 377 130c 26631066 		.ascii	"&c\020f$R\016\335\200\036&\342\361\362l\324\311t\207"
 377      24520EDD 
 377      801E26E2 
 377      F1F26CD4 
 377      C97487
ARM GAS  /tmp/ccZjsTj3.s 			page 30


 378 131f 63F2652D 		.ascii	"c\362e-\001\021\240\376C\017ei\010I\200\363\302\257"
 378      0111A0FE 
 378      430F6569 
 378      084980F3 
 378      C2AF
 379 1331 81648922 		.ascii	"\201d\211\"\275@QAx\352\243\223\036\235T\354G\271\242"
 379      BD405141 
 379      78EAA393 
 379      1E9D54EC 
 379      47B9A2
 380 1344 E2C71ECF 		.ascii	"\342\307\036\317B\327\302\207\037*\370\275\027\212\334"
 380      42D7C287 
 380      1F2AF8BD 
 380      178ADC
 381 1353 10AB443A 		.ascii	"\020\253D:\254\262k\255\245P\000k\351 \2447J\351,5\033"
 381      ACB26BAD 
 381      A550006B 
 381      E920A437 
 381      4AE92C35 
 382 1368 98A1CA0F 		.ascii	"\230\241\312\017\345\242\361*\244Cb\326\214\360\264"
 382      E5A2F12A 
 382      A44362D6 
 382      8CF0B4
 383 1377 AAD25241 		.ascii	"\252\322RA\364\316\010K\361\204\037\025\021\023\222"
 383      F4CE084B 
 383      F1841F15 
 383      111392
 384 1386 88AE6209 		.ascii	"\210\256b\011\272\006fT\306\245X\351\034\2042#,g}3\020"
 384      BA066654 
 384      C6A558E9 
 384      1C843223 
 384      2C677D33 
 385 139b B3954FF8 		.ascii	"\263\225O\370b\200\231\033\257\222(\312|q\310p\261i"
 385      6280991B 
 385      AF9228CA 
 385      7C71C870 
 385      B169
 386 13ad 5C7CDA0D 		.ascii	"\\|\332\015S\213\036*,\016\027#s.\020Ju6\213d\020\234"
 386      538B1E2A 
 386      2C0E1723 
 386      732E104A 
 386      75368B64 
 387 13c3 30A56852 		.ascii	"0\245hRQ\260\250\030\271\215\2121\243K\363G\341~\340"
 387      51B0A818 
 387      B98D8A31 
 387      A34BF347 
 387      E17EE0
 388 13d6 8A0A0385 		.ascii	"\212\012\003\205\017\027=\\\370\273\207\013Fq\005\332"
 388      0F173D5C 
 388      F8BB870B 
 388      467105DA 
 389 13e6 4D3EFF9B 		.ascii	"M>\377\233B\355n4?\2410\237\334\215Aw\243\311\335Xt"
 389      42ED6E34 
 389      3FA1309F 
 389      DC8D4177 
 389      A3C9DD58 
 390 13fb 3786DCDD 		.ascii	"7\206\334\335\343y\244\370q\255\3428oU2\"J\203\222\322"
ARM GAS  /tmp/ccZjsTj3.s 			page 31


 390      E379A4F8 
 390      71ADE238 
 390      6F553222 
 390      4A8392D2 
 391 140f 1391F2D8 		.ascii	"\023\221\362\330\364J\305\270\306\215\015K\367\030\275"
 391      F44AC5B8 
 391      C68D0D4B 
 391      F718BD
 392 141e B86C4245 		.ascii	"\270lBE\305S\306\214\016N\236\\\020\004vf\346+^=\\^"
 392      C553C68C 
 392      0E4E9E5C 
 392      10047666 
 392      E62B5E3D 
 393 1434 8E2DD69B 		.ascii	"\216-\326\233L\010B\011\037\025\363\3219\032\235c\224"
 393      4C084209 
 393      1F15F3D1 
 393      391A9D63 
 393      94
 394 1445 116242BC 		.ascii	"\021bB\274\26246\335_\014\232\232\357\257\210\304*G"
 394      B23436DD 
 394      5F0C9A9A 
 394      EFAF88C4 
 394      2A47
 395 1457 46193E22 		.ascii	"F\031>\"N\037\024-+.+)*\027\204\304?Y\366\244\242\341"
 395      4E1F142D 
 395      2B2E2B29 
 395      2A1784C4 
 395      3F59F6A4 
 396 146d B82B8B85 		.ascii	"\270+\213\205\244$\303\014%\305%\364\014W\300W\254\276"
 396      A424C30C 
 396      25C525F4 
 396      0C57C057 
 396      ACBE
 397 147f 52695565 		.ascii	"RiUe4,\335\010\320\023PYI(B\212\023\213\372\223%(#J"
 397      342CDD08 
 397      D0135059 
 397      4928428A 
 397      138BFA93 
 398 1497 816859D1 		.ascii	"\201hY\321\234\344\244\312\230dm\012\310\277b,\304;"
 398      9CE4A4CA 
 398      98646D0A 
 398      C8BF622C 
 398      C43B
 399 14a9 2EF773AB 		.ascii	".\367s\253Q\255\014\2064\276\250`t`VD\341/;Z\026\306"
 399      51AD0C86 
 399      34BEA860 
 399      74605644 
 399      E12F3B5A 
 400 14bf EE59407E 		.ascii	"\356Y@~%@\3629\370\2679\212\371\372EYK|\"81\257\010"
 400      2540F239 
 400      F8B7398A 
 400      F9FA4559 
 400      4B7C2238 
 401 14d6 CE45549C 		.ascii	"\316ET\234\213(;\227\000zZ%\212\310:\274\"\256v\353"
 401      8B283B97 
 401      007A5A25 
 401      8AC83ABC 
ARM GAS  /tmp/ccZjsTj3.s 			page 32


 401      22AE76EB 
 402 14ea CC982855 		.ascii	"\314\230(U!ic\307/\252\236`\260\356iX\272Aw\357\237"
 402      216963C7 
 402      2FAA9E60 
 402      B0EE6958 
 402      BA4177EF 
 403 14ff 298195E1 		.ascii	")\201\225\341+v\243Y\350Z\"\224K\021\224\221\305\204"
 403      2B76A359 
 403      E85A2294 
 403      4B119491 
 403      C584
 404 1511 7FC1391F 		.ascii	"\177\3019\037.\021\021\263\321\245<\222\224pm\364\010"
 404      2E1111B3 
 404      D1A53C92 
 404      94706DF4 
 404      08
 405 1522 B7E117A5 		.ascii	"\267\341\027\245(\362\343\322M\025B$Y%\012\025\330\253"
 405      28F2E3D2 
 405      4D154224 
 405      59250A15 
 405      D8AB
 406 1534 C74B4B93 		.ascii	"\307KK\223\202\304E\313r\036y|\322c\252b#u\233\214\316"
 406      82C445CB 
 406      721E797C 
 406      D263AA62 
 406      23759B8C 
 407 1549 89FCA482 		.ascii	"\211\374\244\202B\376\261\202B\317o\212\012\013=\223"
 407      42FEB182 
 407      42CF6F8A 
 407      0A0B3D93 
 408 1559 27FC47E1 		.ascii	"'\374G\341\377\003\211\234\251T"
 408      FF03899C 
 408      A954
 409              		.text
 410              		.section	.gnu.lto_.symtab.eb64cc3320801bb0,"",%progbits
 411 0000 6D61696E 		.ascii	"main\000\000\000\000\000\000\000\000\000\000\000\000"
 411      00000000 
 411      00000000 
 411      00000000 
 412 0010 13020000 		.ascii	"\023\002\000\000chThdSleep\000\000\002\000\000\000\000"
 412      63685468 
 412      64536C65 
 412      65700000 
 412      02000000 
 413 0025 00000000 		.ascii	"\000\000\000\000\000\026\002\000\000TestThread\000\000"
 413      00160200 
 413      00546573 
 413      74546872 
 413      65616400 
 414 003a 02000000 		.ascii	"\002\000\000\000\000\000\000\000\000\000\032\002\000"
 414      00000000 
 414      00001A02 
 414      00
 415 0047 00636854 		.ascii	"\000chThdCreateStatic\000\000\002\000\000\000\000\000"
 415      68644372 
 415      65617465 
 415      53746174 
ARM GAS  /tmp/ccZjsTj3.s 			page 33


 415      69630000 
 416 0061 00000000 		.ascii	"\000\000\000\000\034\002\000\000sdStart\000\000\002"
 416      1C020000 
 416      73645374 
 416      61727400 
 416      0002
 417 0073 00000000 		.ascii	"\000\000\000\000\000\000\000\000\000'\002\000\000ch"
 417      00000000 
 417      00270200 
 417      006368
 418 0082 53797349 		.ascii	"SysInit\000\000\002\000\000\000\000\000\000\000\000"
 418      6E697400 
 418      00020000 
 418      00000000 
 418      0000
 419 0094 002C0200 		.ascii	"\000,\002\000\000halInit\000\000\002\000\000\000\000"
 419      0068616C 
 419      496E6974 
 419      00000200 
 419      000000
 420 00a7 00000000 		.ascii	"\000\000\000\000\000/\002\000\000ch\000\000\002\000"
 420      002F0200 
 420      00636800 
 420      000200
 421 00b6 00000000 		.ascii	"\000\000\000\000\000\000\000\0005\002\000\000SD2\000"
 421      00000000 
 421      35020000 
 421      53443200 
 422 00c6 00020000 		.ascii	"\000\002\000\000\000\000\000\000\000\000\0001\002\000"
 422      00000000 
 422      00000031 
 422      0200
 423 00d4 00       		.ascii	"\000"
 424              		.text
 425              		.section	.gnu.lto_.opts,"",%progbits
 426 0000 272D6D63 		.ascii	"'-mcpu=cortex-m3''-mno-thumb-interwork''-mthumb''-g"
 426      70753D63 
 426      6F727465 
 426      782D6D33 
 426      27272D6D 
 427 0033 67646227 		.ascii	"gdb''-O2''-fomit-frame-pointer''-falign-functions=1"
 427      272D4F32 
 427      27272D66 
 427      6F6D6974 
 427      2D667261 
 428 0066 3627272D 		.ascii	"6''-ffunction-sections''-fdata-sections''-fno-commo"
 428      6666756E 
 428      6374696F 
 428      6E2D7365 
 428      6374696F 
 429 0099 6E27272D 		.ascii	"n''-flto'\000"
 429      666C746F 
 429      2700
 430              		.text
 431              		.cfi_sections	.debug_frame
 432              		.section	.text.Thread1,"ax",%progbits
 433              		.align	2
ARM GAS  /tmp/ccZjsTj3.s 			page 34


 434              		.p2align 4,,15
 435              		.thumb
 436              		.thumb_func
 437              		.type	Thread1, %function
 438              	Thread1:
 439              	.LFB194:
 440              		.file 1 "main.c"
 441              		.loc 1 25 0
 442              		.cfi_startproc
 443              		@ args = 0, pretend = 0, frame = 0
 444              		@ frame_needed = 0, uses_anonymous_args = 0
 445              	.LVL0:
 446              	.LBB4:
 447              	.LBB5:
 448              		.file 2 "../../../os/rt/include/chregistry.h"
 449              		.loc 2 133 0
 450 0000 0A4B     		ldr	r3, .L4
 451              	.LBE5:
 452              	.LBE4:
 453              		.loc 1 25 0
 454 0002 70B5     		push	{r4, r5, r6, lr}
 455              	.LCFI0:
 456              		.cfi_def_cfa_offset 16
 457              		.cfi_offset 4, -16
 458              		.cfi_offset 5, -12
 459              		.cfi_offset 6, -8
 460              		.cfi_offset 14, -4
 461              	.LBB9:
 462              	.LBB6:
 463              		.loc 2 133 0
 464 0004 9869     		ldr	r0, [r3, #24]
 465              	.LVL1:
 466              	.LBE6:
 467              	.LBE9:
 468              		.loc 1 31 0
 469 0006 4FF48054 		mov	r4, #4096
 470              	.LBB10:
 471              	.LBB7:
 472              		.loc 2 133 0
 473 000a 094A     		ldr	r2, .L4+4
 474              	.LBE7:
 475              	.LBE10:
 476              		.loc 1 31 0
 477 000c 2546     		mov	r5, r4
 478              	.LBB11:
 479              	.LBB8:
 480              		.loc 2 133 0
 481 000e 8261     		str	r2, [r0, #24]
 482              	.LBE8:
 483              	.LBE11:
 484              		.loc 1 31 0
 485 0010 C4F20104 		movt	r4, 16385
 486 0014 2E46     		mov	r6, r5
 487              	.L2:
 488              		.loc 1 31 0 is_stmt 0 discriminator 1
 489 0016 2661     		str	r6, [r4, #16]
 490              		.loc 1 32 0 is_stmt 1 discriminator 1
ARM GAS  /tmp/ccZjsTj3.s 			page 35


 491 0018 41F28830 		movw	r0, #5000
 492 001c FFF7FEFF 		bl	chThdSleep
 493              	.LVL2:
 494              		.loc 1 33 0 discriminator 1
 495 0020 6561     		str	r5, [r4, #20]
 496              		.loc 1 34 0 discriminator 1
 497 0022 41F28830 		movw	r0, #5000
 498 0026 FFF7FEFF 		bl	chThdSleep
 499              	.LVL3:
 500 002a F4E7     		b	.L2
 501              	.L5:
 502              		.align	2
 503              	.L4:
 504 002c 00000000 		.word	ch
 505 0030 00000000 		.word	.LC0
 506              		.cfi_endproc
 507              	.LFE194:
 508              		.size	Thread1, .-Thread1
 509 0034 AFF30080 		.section	.text.startup.main,"ax",%progbits
 509      AFF30080 
 509      AFF30080 
 510              		.align	2
 511              		.p2align 4,,15
 512              		.global	main
 513              		.thumb
 514              		.thumb_func
 515              		.type	main, %function
 516              	main:
 517              	.LFB195:
 518              		.loc 1 41 0
 519              		.cfi_startproc
 520              		@ args = 0, pretend = 0, frame = 0
 521              		@ frame_needed = 0, uses_anonymous_args = 0
 522 0000 10B5     		push	{r4, lr}
 523              	.LCFI1:
 524              		.cfi_def_cfa_offset 8
 525              		.cfi_offset 4, -8
 526              		.cfi_offset 14, -4
 527 0002 82B0     		sub	sp, sp, #8
 528              	.LCFI2:
 529              		.cfi_def_cfa_offset 16
 530              		.loc 1 50 0
 531 0004 FFF7FEFF 		bl	halInit
 532              	.LVL4:
 533              		.loc 1 51 0
 534 0008 FFF7FEFF 		bl	chSysInit
 535              	.LVL5:
 536              		.loc 1 57 0
 537 000c 0E48     		ldr	r0, .L12
 538 000e 0021     		movs	r1, #0
 539 0010 FFF7FEFF 		bl	sdStart
 540              	.LVL6:
 541              		.loc 1 62 0
 542 0014 0023     		movs	r3, #0
 543 0016 0093     		str	r3, [sp, #0]
 544 0018 0C48     		ldr	r0, .L12+4
 545 001a 4FF4A471 		mov	r1, #328
ARM GAS  /tmp/ccZjsTj3.s 			page 36


 546 001e 4122     		movs	r2, #65
 547 0020 0B4B     		ldr	r3, .L12+8
 548              		.loc 1 70 0
 549 0022 4FF40064 		mov	r4, #2048
 550              		.loc 1 62 0
 551 0026 FFF7FEFF 		bl	chThdCreateStatic
 552              	.LVL7:
 553              		.loc 1 70 0
 554 002a C4F20104 		movt	r4, 16385
 555 002e 03E0     		b	.L8
 556              	.L7:
 557              		.loc 1 72 0
 558 0030 41F28830 		movw	r0, #5000
 559 0034 FFF7FEFF 		bl	chThdSleep
 560              	.LVL8:
 561              	.L8:
 562              		.loc 1 70 0
 563 0038 A068     		ldr	r0, [r4, #8]
 564 003a C307     		lsls	r3, r0, #31
 565 003c F8D5     		bpl	.L7
 566              		.loc 1 71 0
 567 003e 0248     		ldr	r0, .L12
 568 0040 FFF7FEFF 		bl	TestThread
 569              	.LVL9:
 570 0044 F4E7     		b	.L7
 571              	.L13:
 572 0046 00BF     		.align	2
 573              	.L12:
 574 0048 00000000 		.word	SD2
 575 004c 00000000 		.word	.LANCHOR0
 576 0050 00000000 		.word	Thread1
 577              		.cfi_endproc
 578              	.LFE195:
 579              		.size	main, .-main
 580 0054 AFF30080 		.section	.bss.waThread1,"aw",%nobits
 580      AFF30080 
 580      AFF30080 
 581              		.align	3
 582              		.set	.LANCHOR0,. + 0
 583              		.type	waThread1, %object
 584              		.size	waThread1, 328
 585              	waThread1:
 586 0000 00000000 		.space	328
 586      00000000 
 586      00000000 
 586      00000000 
 586      00000000 
 587              		.section	.rodata.str1.4,"aMS",%progbits,1
 588              		.align	2
 589              	.LC0:
 590 0000 626C696E 		.ascii	"blinker\000"
 590      6B657200 
 591              		.text
 592              	.Letext0:
 593              		.file 3 "../../../os/rt/include/chschd.h"
 594              		.file 4 "/opt/ARM/gcc-arm-none-eabi-4_7-2013q3/bin/../lib/gcc/arm-none-eabi/4.7.4/include/stddef.h
 595              		.file 5 "/opt/ARM/gcc-arm-none-eabi-4_7-2013q3/bin/../lib/gcc/arm-none-eabi/4.7.4/../../../../arm-
ARM GAS  /tmp/ccZjsTj3.s 			page 37


 596              		.file 6 "../../../os/rt/ports/ARMCMx/compilers/GCC/chtypes.h"
 597              		.file 7 "../../../os/ext/CMSIS/ST/stm32f10x.h"
 598              		.file 8 "../../../os/rt/ports/ARMCMx/chcore.h"
 599              		.file 9 "../../../os/rt/ports/ARMCMx/chcore_v7m.h"
 600              		.file 10 "../../../os/rt/include/chmtx.h"
 601              		.file 11 "../../../os/rt/include/chthreads.h"
 602              		.file 12 "../../../os/rt/include/chevents.h"
 603              		.file 13 "../../../os/rt/include/chqueues.h"
 604              		.file 14 "../../../os/hal/ports/STM32/LLD/GPIOv1/pal_lld.h"
 605              		.file 15 "../../../os/hal/include/serial.h"
 606              		.file 16 "../../../os/hal/ports/STM32/LLD/USARTv1/serial_lld.h"
 607              		.file 17 "../../../os/hal/include/hal.h"
 608              		.file 18 "../../../os/rt/include/chsys.h"
 609              		.file 19 "../../../test/rt/test.h"
 610              		.file 20 "../../../os/ext/CMSIS/include/core_cm3.h"