ARM GAS  /tmp/ccQGEYF0.s 			page 1


   1              		.syntax unified
   2              		.cpu cortex-m3
   3              		.fpu softvfp
   4              		.eabi_attribute 20, 1
   5              		.eabi_attribute 21, 1
   6              		.eabi_attribute 23, 3
   7              		.eabi_attribute 24, 1
   8              		.eabi_attribute 25, 1
   9              		.eabi_attribute 26, 1
  10              		.eabi_attribute 30, 2
  11              		.eabi_attribute 34, 1
  12              		.eabi_attribute 18, 4
  13              		.thumb
  14              		.file	"nvic.c"
  15              		.text
  16              	.Ltext0:
  17              		.section	.gnu.lto_.jmpfuncs.4397aaa1ec4c42cd,"",%progbits
  18 0000 789C6362 		.ascii	"x\234cb`d`g\300\0168\24043\0033##\0233\003\000\002\205"
  18      60646067 
  18      C00E38A0 
  18      34330333 
  18      23231333 
  19 0018 0020     		.ascii	"\000 "
  20              		.text
  21              		.section	.gnu.lto_.inline.4397aaa1ec4c42cd,"",%progbits
  22 0000 789C6362 		.ascii	"x\234cb`d\340e\300\016\302\24043\003\003\027'#\023#"
  22      6064E065 
  22      C00EC2A0 
  22      34330303 
  22      17272313 
  23 0015 23900DC4 		.ascii	"#\220\015\304,l\037\364\030\330\026\310310]\340ga\000"
  23      2C6C1FF4 
  23      18D816C8 
  23      3331305D 
  23      E0676100 
  24 0029 F23880C2 		.ascii	"\3628\200\302\034\354@y\240,3\313\002y\210,P\202\205"
  24      1CEC4079 
  24      A02C33CB 
  24      0279882C 
  24      508285
  25 003c 81898195 		.ascii	"\201\211\201\225\205\221\021\244\225\031\250\032I\033"
  25      859111A4 
  25      9519A81A 
  25      491B
  26 004a 0300A17F 		.ascii	"\003\000\241\177\011\352"
  26      09EA
  27              		.text
  28              		.section	.gnu.lto_.pureconst.4397aaa1ec4c42cd,"",%progbits
  29 0000 789C6362 		.ascii	"x\234cb`d`f```g\200\000f\006)F)&)\000\002\003\000b"
  29      60646066 
  29      60606067 
  29      80006606 
  29      29462926 
  30              		.text
  31              		.section	.gnu.lto_nvicEnableVector.4397aaa1ec4c42cd,"",%progbits
  32 0000 789CAD92 		.ascii	"x\234\255\222\277k\024A\024\307\277of6\233\273\005\021"
  32      BF6B1441 
ARM GAS  /tmp/ccQGEYF0.s 			page 2


  32      14C7BF6F 
  32      66369BBB 
  32      0511
  33 0012 0B313609 		.ascii	"\01316\011\301.\260\213\"\304Vlb\221\"\001\313Sd\011"
  33      C12EB08B 
  33      22C4566C 
  33      62912201 
  33      CB536409 
  34 0026 1830B721 		.ascii	"\0300\267!\021Iw\353^\376\200#M0E\310\017\022\217\030"
  34      114977EB 
  34      5EFE8023 
  34      4D3045C8 
  34      0F128F18 
  35 003a 52AB8D72 		.ascii	"R\253\215r6r\204\264\261\260Ha\021!\205\305u\026\347"
  35      367284B4 
  35      B1B04861 
  35      112185C5 
  35      7516E7
  36 004d 7BB3BB1A 		.ascii	"{\263\273\032\356.\222\004\347n\370\316\2747\237\367"
  36      EE2E9204 
  36      E76EF8CE 
  36      BC379FF7 
  37 005d 63761488 		.ascii	"cv\024\210\177\335c\200\347\252\001\356\261\222\006"
  37      7FDD6380 
  37      E7AA01EE 
  37      B19206
  38 006c A9DA01F0 		.ascii	"\251\332\001\360jH\021\311\202\221\212\242\312#K\026"
  38      6A4811C9 
  38      82918AA2 
  38      CA234B16 
  39 007c 86B11EC7 		.ascii	"\206\261\036\307K?\033\311\215\344\250\335\036\234\022"
  39      4B3F1BC9 
  39      8DE4A8DD 
  39      1E9C12
  40 008b EB1342F3 		.ascii	"\353\023B\363\327\007\032\300\024\021\372!\252:\023"
  40      D7071AC0 
  40      1411FA21 
  40      AA3A13
  41 009a 9DC1E11C 		.ascii	"\235\301\341\034P\355s2\226A\332B\337\227\213)6\224"
  41      50ED7332 
  41      9641DA42 
  41      DF978B29 
  41      3694
  42 00ac 61A60756 		.ascii	"a\246\007V;\205\031\005\237\204\254\273\027\004O\027"
  42      3B851905 
  42      9F84ACBB 
  42      17044F17 
  43 00bc F9DFA1EE 		.ascii	"\371\337\241\356\316\216\235\213Q\216\245Z+}\227\301"
  43      CE8E9D8B 
  43      518EA55A 
  43      2B7D97C1 
  44 00cc FE5DE1FE 		.ascii	"\376]\341\376\341\315\326\350G\365\351\250]\271\205"
  44      E1CDD6E8 
  44      47F5E9A8 
  44      5DB985
  45 00db 4DE1ABF1 		.ascii	"M\341\253\361\030\243\012w\354U\356/_\353\346\251\343"
  45      18A30A77 
ARM GAS  /tmp/ccQGEYF0.s 			page 3


  45      EC55EE2F 
  45      5FEBE6A9 
  45      E3
  46 00ec E85D7BF4 		.ascii	"\350]{\364\213\327#\223T!\363:\241Du\032\206\242\022"
  46      8BD72393 
  46      5421F33A 
  46      A144751A 
  46      86A212
  47 00ff ED7200CD 		.ascii	"\355r\000\315\3735\336\033\326uV\207\355;lwy\277\301"
  47      FB35DE1B 
  47      D6755687 
  47      ED3B6C77 
  47      79BFC1
  48 0112 FB02EB16 		.ascii	"\373\002\353\026k\221u\233\325c}\303\312\303\301b\034"
  48      6B91759B 
  48      D5637DC3 
  48      CAC3C162 
  48      1C
  49 0123 5FB5BDC9 		.ascii	"_\265\275\311\230\020\225'<\311Ie\241\233H~\350o\207"
  49      98109527 
  49      3CC94965 
  49      A19B487E 
  49      E86F87
  50 0136 5E89F638 		.ascii	"^\211\3668uH:\024O\023\325\267\2225\265\0316K\235}\266"
  50      75483A14 
  50      4F13D5B7 
  50      9235B519 
  50      364B9D7D 
  51 014b CE261A0F 		.ascii	"\316&\032\0173W\200\275x\221\330aF\260cW\256^\301k\326"
  51      335780BD 
  51      7891D861 
  51      46B06357 
  51      AE5EC16B 
  52 0160 7E254001 		.ascii	"~%@\001q\243\032_A\272\006\026x>\316_t(\227\016\274"
  52      71A31A5F 
  52      41BA0616 
  52      783ECE5F 
  52      7428970E 
  53 0175 D3766D6C 		.ascii	"\323vml\322]\315/9O\353\362\011!\015\034\233\266\372"
  53      D25DCD2F 
  53      394FEBF2 
  53      09210D1C 
  53      9BB6FA
  54 0188 5ED75D39 		.ascii	"^\327]9K\231\303\301\240u$'\177k-\260\273\263\376b\032"
  54      4B99C3C1 
  54      A0752427 
  54      7F6B2DB0 
  54      BBB3FE62 
  55 019d 85C49D9D 		.ascii	"\205\304\235\235?vr\247\307\376\236M\025\3774\345\235"
  55      3F7672A7 
  55      C7FE9E4D 
  55      15FF34E5 
  55      9D
  56 01ae A329CA9B 		.ascii	"\243)\312\233rE\276\246Myi\340\223\374z/\027Z\235\021"
  56      7245BEA6 
  56      4D7969E0 
  56      93FC7A2F 
ARM GAS  /tmp/ccQGEYF0.s 			page 4


  56      175A9D11 
  57 01c2 FA00D41A 		.ascii	"\372\000\324\032M\003\347cB\352\340\317*\310\210\357"
  57      4D03E763 
  57      42EAE0CF 
  57      2AC888EF 
  58 01d2 07E93F9A 		.ascii	"\007\351?\232\017\236=}\036\314Fs/\346\2030\232\231"
  58      0F9E3D7D 
  58      1ECC4673 
  58      2FE68330 
  58      9A99
  59 01e4 89CAC1FD 		.ascii	"\211\312\301\375\311\361\007\343\013A\371\345t\350\207"
  59      C9F107E3 
  59      0B41F9E5 
  59      74E887
  60 01f3 D065FF36 		.ascii	"\320e\3776\225\315\354\334t\364\033U \363("
  60      95CDECDC 
  60      74F41B55 
  60      20F328
  61              		.text
  62              		.section	.gnu.lto_nvicDisableVector.4397aaa1ec4c42cd,"",%progbits
  63 0000 789CB552 		.ascii	"x\234\265R=,\004A\024\376\336\314\355\256\023\021\205"
  63      3D2C0441 
  63      14FEDECC 
  63      EDAE1311 
  63      85
  64 0011 46454427 		.ascii	"FED'\331\025\012Z\321P(H\224\210l.!qw\202\210\356\326"
  64      D9150A5A 
  64      D1502848 
  64      94886C2E 
  64      21717782 
  65 0028 9DDE4575 		.ascii	"\235\336Eu\247\302\371'\012\025\032\202\352\"W+\225"
  65      A7C2F927 
  65      0A151A82 
  65      EA22572B 
  65      95
  66 0039 8A2B9592 		.ascii	"\212+\225\222\363\336\354\235\237\020\2410\273\223\357"
  66      F3DEEC9D 
  66      9F10A130 
  66      BB93EF
  67 0048 CDFBDEF7 		.ascii	"\315\373\336\367\275\335\231Q ~\276\216\026\236\275"
  67      BDDD9951 
  67      207EBE8E 
  67      169EBD
  68 0057 1AE86124 		.ascii	"\032\350a$\015R\331\022\260\322\246\210$`IJQj\314(\355"
  68      0D52D912 
  68      B0D2A688 
  68      2460494A 
  68      516ACC28 
  69 006c 766C05C1 		.ascii	"vl\005\301z\3666=\230~\254TZc\222\235$\024\327\012\315"
  69      7AF6363D 
  69      987EAC54 
  69      5A63929D 
  69      2414D70A 
  70 0081 2D8811A1 		.ascii	"-\210\021\241\015\202\012\221\317=\214.\373A\247\025"
  70      0D820A91 
  70      CF3D8C2E 
  70      FB41A715 
ARM GAS  /tmp/ccQGEYF0.s 			page 5


  71 0091 5C12E981 		.ascii	"\\\022\351\201\363G\241i\210\177\022}\375\265'\353o"
  71      F347A169 
  71      887F127D 
  71      FDB527EB 
  71      6F
  72 00a2 AA88513D 		.ascii	"\252\210Q=o\330?\312\312\2713u\237\267\257\324\365c"
  72      6FD83FCA 
  72      CAB93375 
  72      9FB7AFD4 
  72      F563
  73 00b4 25D58182 		.ascii	"%\325\201\202xd\202A\226+t\233})\347\366\3247\026\322"
  73      78648241 
  73      962B749B 
  73      7D29E7F6 
  73      D43716D2 
  74 00c8 A081304E 		.ascii	"\240\2010N{\324\016E\343\264O\035\320\274\336\344\265"
  74      7BD40E45 
  74      E3B44F1D 
  74      D0BCDEE4 
  74      B5
  75 00d9 C55860B4 		.ascii	"\305X`\264\031w\030\035\306]F\036\026V\203\240\311\354"
  75      1977181D 
  75      C65D461E 
  75      165683A0 
  75      C9EC
  76 00eb 828C1141 		.ascii	"\202\214\021A9\336Q6\226@\027\2219\321/\271m\266<$\013"
  76      39DE5136 
  76      96401791 
  76      39D12FB9 
  76      6DB63C24 
  77 0100 3E699FCC 		.ascii	">i\237\314\007h\326\002L_\350\003\007LP\225\210\240"
  77      0768D602 
  77      4C5FE803 
  77      074C5095 
  77      88A0
  78 0112 D510E9B2 		.ascii	"\325\020\351\262\364\017E\026\323\246\370\370=g\207"
  78      F40F4516 
  78      D3A6F8F8 
  78      3D6787
  79 0121 2E2474B5 		.ascii	".$t\265\376\311\252\221\016\363\222\274\031\252\326"
  79      FEC9AA91 
  79      0EF392BC 
  79      19AAD6
  80 0130 7B380D56 		.ascii	"{8\015V)FV\244\023G&\262\365\006\362\214\216\351Z\207"
  80      294656A4 
  80      134726B2 
  80      F506F28C 
  80      8EE95A87 
  81 0144 E0261334 		.ascii	"\340&\0234\"\214\201e\236\023\265k\355\313I\003\017"
  81      228C8165 
  81      9E13B56B 
  81      EDCB4903 
  81      0F
  82 0155 DAC48E31 		.ascii	"\332\304\2161\356\273\313_\322g\357\350\233w\375/\274"
  82      EEBBCB5F 
  82      D267EFE8 
  82      9B77FD2F 
ARM GAS  /tmp/ccQGEYF0.s 			page 6


  82      BC
  83 0166 A9E6AD04 		.ascii	"\251\346\255\004\3165\302\213\0245\331\022\210\3171"
  83      CE35C28B 
  83      1435D912 
  83      88CF31
  84 0175 B4AF8D11 		.ascii	"\264\257\215\021\221\360\236J}\247\353z\341\233\\\360"
  84      91F09E4A 
  84      7DA7EB7A 
  84      E19B5CF0 
  85 0185 A6A766BD 		.ascii	"\246\247f\275\271\344\374\342\202\347'\343\361d\302"
  85      B9E4FCE2 
  85      82E727E3 
  85      F164C2
  86 0194 EB1F1D1E 		.ascii	"\353\037\035\036\030^\366\022K3\276\353C'\334.J\274"
  86      185EF612 
  86      4B33BEEB 
  86      4327DC2E 
  86      4ABC
  87 01a6 02627DAF 		.ascii	"\002b}\257\001"
  87      01
  88              		.text
  89              		.section	.gnu.lto_nvicSetSystemHandlerPriority.4397aaa1ec4c42cd,"",%progbits
  90 0000 789C7D50 		.ascii	"x\234}P1K\303P\020\276{/i;\210:\211\235,\305\255\220"
  90      314BC350 
  90      10BE7B2F 
  90      693B883A 
  90      899D2CC5 
  91 0016 B739B889 		.ascii	"\2679\270\211\213\016\035Zp\214Rb\240\2056)\255\210"
  91      8B0E1D5A 
  91      708C5262 
  91      A0853629 
  91      AD88
  92 0028 5B9F6D7F 		.ascii	"[\237m\177@q3\223UqPtp\0207\245c(\035\034\235\012.\012"
  92      40713393 
  92      55715074 
  92      701037A5 
  92      63281D1C 
  93 0040 0E22EEF5 		.ascii	"\016\"\356\365\336K\273\264\350%\307}\334w\337\227\313"
  93      DE4BBBB4 
  93      E825C77D 
  93      DC77DF97 
  93      CB
  94 0051 31407A66 		.ascii	"1@zf#I\371B\304:U\344\200\2543\0008N1D\005H\322`\330"
  94      2349F942 
  94      C43A55E4 
  94      80AC3300 
  94      384E3144 
  95 006a D8D14A96 		.ascii	"\330\321J\226\206\256\224'_\275\346rs8\032\255\270\252"
  95      86AE9427 
  95      5FBDE672 
  95      73381AAD 
  95      B8AA
  96 007c BB8710DE 		.ascii	"\273\207\020\336\276-%\301E\204\004\250\312\246?\364"
  96      BE2D25C1 
  96      458404A8 
  96      CAA63FF4 
  97 008c 870EFE15 		.ascii	"\207\016\376\025\365\203\373\271\237 \366\304\236\207"
ARM GAS  /tmp/ccQGEYF0.s 			page 7


  97      F583FBB9 
  97      9F20F6C4 
  97      9E87
  98 009a A3C62A5C 		.ascii	"\243\306*\\\220C\247%\267\\\344\014,T\372~\360\315\""
  98      9043A725 
  98      B75CE40C 
  98      2C54FA7E 
  98      F0CD22
  99 00ad 8BD4D8C2 		.ascii	"\213\324\330\302P\033O\315\256\351\331\367\205\331I"
  99      501B4FCD 
  99      AEE9D9F7 
  99      85D949
 100 00bc 025C6782 		.ascii	"\002\\g\202\241\215\227$\344`\343\031\246\211\265\261"
 100      A18D9724 
 100      E460E319 
 100      A689B5B1 
 101 00cc 4BD5A4FE 		.ascii	"K\325\244\3769\365)LhK\271\210%\355\246#\247\252:R\236"
 101      39F5294C 
 101      684BB988 
 101      25EDA623 
 101      A7AA3A52 
 102 00e1 FC14E021 		.ascii	"\374\024\340!4?\370g\360@\252+4\301A\356(*\204\326\215"
 102      343FF867 
 102      F040AA2B 
 102      34C141EE 
 102      282A84D6 
 103 00f6 728E7A06 		.ascii	"r\216z\006\265\325\016\206\336!\204\336\366\230\022"
 103      B5D50E86 
 103      DE2184DE 
 103      F69812
 104 0105 7027DB48 		.ascii	"p'\333H\204\221\201k\215L\036\300)\325\230\376\3158"
 104      8491816B 
 104      8D4C1EC0 
 104      29D598FE 
 104      CD38
 105 0117 C8D7969C 		.ascii	"\310\327\226\234\207\010\003\024)w'Gs\310\200\342\221"
 105      87080314 
 105      29772747 
 105      73C880E2 
 105      91
 106 0128 6B4CCE03 		.ascii	"kL\316\003@\272^\344<\211\034\035@-J;A\306\262D\364"
 106      40BA5EE4 
 106      3C891C1D 
 106      402D4A3B 
 106      41C6B244 
 107 013d FA75512C 		.ascii	"\372uQ,\224E\325\257\035\324\205\343W*\276'6\362\331"
 107      9445D5AF 
 107      1DD485E3 
 107      572ABE27 
 107      36F2D9
 108 0150 CDEC91F0 		.ascii	"\315\354\221\360\016K\216\345@\274X\360\366\313n\315"
 108      0E4B8EE5 
 108      40BC58F0 
 108      F6CB6ECD 
 109 0160 A8D64AFE 		.ascii	"\250\326J\376/j\022p\034"
 109      2F6A1270 
 109      1C
ARM GAS  /tmp/ccQGEYF0.s 			page 8


 110              		.text
 111              		.section	.gnu.lto_.cgraph.4397aaa1ec4c42cd,"",%progbits
 112 0000 789C6362 		.ascii	"x\234cb`d`f``\320a\200\002\246C\214\365\014\014\023"
 112      60646066 
 112      6060D061 
 112      8002A643 
 112      8CF50C0C 
 113 0015 CE31D4D7 		.ascii	"\3161\324\327\317\353`d:\314X\317\210\340\035a\254g"
 113      CFEB6064 
 113      3ACC58CF 
 113      88E01D61 
 113      AC67
 114 0027 82F31800 		.ascii	"\202\363\030\000D\350\016\216"
 114      44E80E8E 
 115              		.text
 116              		.section	.gnu.lto_.vars.4397aaa1ec4c42cd,"",%progbits
 117 0000 789C6362 		.ascii	"x\234cb`d`f`\000\222P\000\000\000r\000\010"
 117      60646066 
 117      60009250 
 117      00000072 
 117      0008
 118              		.text
 119              		.section	.gnu.lto_.refs.4397aaa1ec4c42cd,"",%progbits
 120 0000 789C6362 		.ascii	"x\234cb`d`f```b\200\001\000\000\204\000\011"
 120      60646066 
 120      60606062 
 120      80010000 
 120      840009
 121              		.text
 122              		.section	.gnu.lto_.statics.4397aaa1ec4c42cd,"",%progbits
 123 0000 789C6362 		.ascii	"x\234cb`d`b\300\016@\342\214\020&\000\000\375\000\011"
 123      60646062 
 123      C00E40E2 
 123      8C102600 
 123      00FD0009 
 124              		.text
 125              		.section	.gnu.lto_.decls.4397aaa1ec4c42cd,"",%progbits
 126 0000 789CAD59 		.ascii	"x\234\255Yml\024E\030\236\331\333~\234\205\362\021\300"
 126      6D6C1445 
 126      189ED9DB 
 126      7E9C85F2 
 126      11C0
 127 0012 4A6A2846 		.ascii	"Jj(FP1\355\001-\037\177H8\256\305\273\037\255\315]i"
 127      5031ED01 
 127      2D1F7F48 
 127      38AEC5BB 
 127      1FADCD5D 
 128 0027 22CDE668 		.ascii	"\"\315\346h\217\303^\322\336\325\353a\340\337\332\022"
 128      8FC35ED2 
 128      DED5EB61 
 128      E0DFDA12 
 129 0037 AC404CC5 		.ascii	"\254@L\3056\342G\3105\005\"Uk\324\362CD,\261\224*\255"
 129      36E247C8 
 129      35052255 
 129      6BD4F243 
 129      442CB194 
 130 004d 3688CA97 		.ascii	"6\210\312\227ri\300\020\250E\240!\210\015ufvwv\367\356"
ARM GAS  /tmp/ccQGEYF0.s 			page 9


 130      7269C010 
 130      A845A021 
 130      880D7566 
 130      767776F7 
 131 0062 E6F6EEC2 		.ascii	"\346\366\356\302\246\363\336\354\356;\317<\363\314\274"
 131      A6F3DEEC 
 131      EE3BCF3C 
 131      F3CCBC
 132 0071 B3EF6E39 		.ascii	"\263\357n9\000\001>J\320\3174:\226,\004`1\007\000\217"
 132      00013E4A 
 132      D0CF343A 
 132      962C0460 
 132      3107008F 
 133 0085 AEAD03EA 		.ascii	"\256\255\003\352aB%\214J/*} \366\300\367f\240\202\321"
 133      6142258C 
 133      4A2F2A7D 
 133      20F6C0F7 
 133      66A082D1 
 134 0099 72E57A16 		.ascii	"r\345z\026\220p\272Q9\216\312ITN\241r\023\225!T\316"
 134      9070BA51 
 134      398ECA49 
 134      544EA172 
 134      13952154 
 135 00ae C8B863A8 		.ascii	"\310\270c\250\\@ePn\037\216\203\217\373\315\2211\025"
 135      5C406550 
 135      6E1F8E83 
 135      8FFBCD91 
 135      3115
 136 00c0 7C055BC1 		.ascii	"|\005[\301R\260\225\276\3200\300\250\214\017e\214\350"
 136      52B095BE 
 136      D030C0A8 
 136      8C0F658C 
 136      E8
 137 00d1 038F253B 		.ascii	"\003\217%;\212\267\302\367\026*\023\250,\205\322} \377"
 137      8AB7C2F7 
 137      162A13A8 
 137      2C85D27D 
 137      20FF
 138 00e3 F6C9FECF 		.ascii	"\366\311\376\317A=\326\"pP\014G\332[E\373\203\351\351"
 138      413DD622 
 138      70500C47 
 138      DA5B45FB 
 138      83E9E9
 139 00f6 AC05A053 		.ascii	"\254\005\240SDGx\267(\302\220\000\327\315\007O\001\001"
 139      444778B7 
 139      28C29000 
 139      D7CD074F 
 139      0101
 140 0108 E69A0128 		.ascii	"\346\232\001( \265\031fi\004\000\325\273\340\002Ye\314"
 140      20B51966 
 140      690400D5 
 140      BBE00259 
 140      65CC
 141 011a 1998419B 		.ascii	"\031\230A\233(\266\340\246\366!D*~\273%\340\220(\266"
 141      28B6E0A6 
 141      F621442A 
 141      7EBB25E0 
ARM GAS  /tmp/ccQGEYF0.s 			page 10


 141      9028B6
 142 012d A31EA000 		.ascii	"\243\036\240\000\273\241\031\265\344 X\006\216\212\344"
 142      BBA119B5 
 142      E4205806 
 142      8E8AE4
 143 013c 90A9C93F 		.ascii	"\220\251\311?9\240\347\255cS\034\220\273\3132ki\223"
 143      39A0E7AD 
 143      63531C90 
 143      BBCB326B 
 143      6993
 144 014e 73011E81 		.ascii	"s\001\036\201\313\200\324\227t[\251\341U1\013\211)s"
 144      CB80D497 
 144      745BA9E1 
 144      55310B89 
 144      2973
 145 0160 933AC3BF 		.ascii	"\223:\303\277U&\031\200\003oB(#\214u\336[%]}\026t\213"
 145      55261980 
 145      036F4228 
 145      238C75DE 
 145      5B255D7D 
 146 0177 E27EAC86 		.ascii	"\342~\254\206\302o\200x\205\341\"\320f\216?&\030\333"
 146      C26F8078 
 146      85E122D0 
 146      668E3F26 
 146      18DB
 147 0189 6890361A 		.ascii	"h\2206\032\312a\010(S\222\177\226\202\303X\200\376\226"
 147      CA610828 
 147      53927F96 
 147      82C35880 
 147      FE96
 148 019b 3C223A90 		.ascii	"<\":\220[\327\353F\3741\344\036\317\314}\256\2379\211"
 148      5BD7EB46 
 148      FC31E41E 
 148      CFCC7DAE 
 148      9F3989
 149 01ae 03D48973 		.ascii	"\003\324\211s\226\2123\236\027_\032\001\366 >\002\354"
 149      968A339E 
 149      175F1A01 
 149      F6203E02 
 149      EC
 150 01bf 453C0F30 		.ascii	"E<\0170\244I0\274\336\230\341}\221hx\322r\343\300\037"
 150      A44930BC 
 150      DE98E17D 
 150      916878D2 
 150      72E3C01F 
 151 01d3 94D7F042 		.ascii	"\224\327\360B\326\224=$>}\011\324\217\2312\001~J\006"
 151      D6943D24 
 151      3E7D09D4 
 151      8F993201 
 151      7E4A06
 152 01e6 831BDD98 		.ascii	"\203\033\335\230\225\356\224\365\305\214\351\230~L$"
 152      95EE94F5 
 152      C58CE998 
 152      7E4C24
 153 01f5 465AC5C8 		.ascii	"FZ\305\310a1\357\200&F\262i?P\027#rH%v\027\3407p\011"
 153      6131EF80 
 153      2646B269 
ARM GAS  /tmp/ccQGEYF0.s 			page 11


 153      3F501723 
 153      72482576 
 154 020e B2501F0F 		.ascii	"\262P\037\017\220\306\003\256MC<\251-\234\"^\317\321"
 154      90C603AE 
 154      4D433CA9 
 154      2D9C225E 
 154      CFD1
 155 0220 5B4F2A1C 		.ascii	"[O*\034aT`\031\002\315\001\230\235Xp W\200\307\321E"
 155      61546019 
 155      02CD0198 
 155      9D587020 
 155      5780C7D1 
 156 0235 8597388B 		.ascii	"\205\2278\213\022\373G\212a\255\347\211\204\236\002"
 156      12FB478A 
 156      61ADE789 
 156      849E02
 157 0244 FC0ECE51 		.ascii	"\374\016\316Q5\022\345}\204\370\260\027r\277\314]\271"
 157      3512E57D 
 157      84F8B017 
 157      72BFCC5D 
 157      B9
 158 0255 AED66E43 		.ascii	"\256\326nC\335\230\024G0\027\274C\030i\267\250p\004"
 158      DD981447 
 158      3017BC43 
 158      1869B7A8 
 158      7004
 159 0267 D276BBF2 		.ascii	"\322v\273\362\201~\227:\005\347\"\345\366P\345\276<"
 159      817E973A 
 159      05E722E5 
 159      F650E5BE 
 159      3C
 160 0278 7CF5173E 		.ascii	"|\365\027>\005,\334\373\000\302\220Z\023dQB\306W\201"
 160      052CDCFB 
 160      00C2905A 
 160      13645142 
 160      C65781
 161 028b 7C7D6064 		.ascii	"|}`d\033\210=f.\006aq\327\033\210\211=S\221r(W^D\211"
 161      1B883D66 
 161      2E066171 
 161      D71B8889 
 161      3D539172 
 162 02a4 375A011E 		.ascii	"7Z\001\036\"\253\"\231]\222\316\012G!\012t\323\207\347"
 162      22AB2299 
 162      5D92CE0A 
 162      47210A74 
 162      D387E7
 163 02b7 A15B3B7D 		.ascii	"\241[;}\321\216\002\374!\215\331\373\2219{Y\272\311"
 163      D18E02FC 
 163      218DD9FB 
 163      91397B59 
 163      BAC9
 164 02c9 53FCD03C 		.ascii	"S\374\320<\234$\363\200\225;?r\0042\370\250x\012f\256"
 164      9C24F380 
 164      953B3F72 
 164      0432F8A8 
 164      780A66AE 
 165 02dd BAC4B1A4 		.ascii	"\272\304\261\244dr\265\222F\015/\223Bl\221)\214\244"
ARM GAS  /tmp/ccQGEYF0.s 			page 12


 165      6472B592 
 165      460D2F93 
 165      426C9129 
 165      8CA4
 166 02ef 31BC9F98 		.ascii	"1\274\237\230\303\223C\017\215\347{:\236+\345\214\356"
 166      C393430F 
 166      8DE77B3A 
 166      9E2BE58C 
 166      EE
 167 0300 F54AC719 		.ascii	"\365J\307\031\215\274@\004x\006\221\344\300\010\205"
 167      8DBC4004 
 167      780691E4 
 167      C00885
 168 030f BC566E20 		.ascii	"\274Vn \220\374\300e+$\015\234\003\347(\346\270\021"
 168      90FCC065 
 168      2B240D9C 
 168      03E728E6 
 168      B811
 169 0321 CD301333 		.ascii	"\3150\0233\212\347e\2129i\310\223K\222g\204bN\031\362"
 169      8AE7658A 
 169      3969C893 
 169      4B926784 
 169      624E19F2 
 170 0335 646246F1 		.ascii	"dbF\361\274I1\007*\214x\232\222\344y\233b\016W\030\361"
 170      BC493107 
 170      2A8C789A 
 170      92E4799B 
 170      620E5718 
 171 034a 646246F1 		.ascii	"dbF\361\374W\015\015C\236|\272\221\221K1\"\312\276}"
 171      FC570D0D 
 171      439E7CBA 
 171      91914B31 
 171      22CABE7D 
 172 035e 358DD088 		.ascii	"5\215\320\2100Cc\015\015\215GjhT\260\372\247\"1\007"
 172      3043630D 
 172      0D8D476A 
 172      6854B0FA 
 172      A7223107 
 173 0372 4444CA43 		.ascii	"DD\312C\"\235$\"\265\231hp\250\240Q\017#\252Rf\272*"
 173      229D2422 
 173      B5996870 
 173      A8A0510F 
 173      23AA5266 
 174 0388 75A9CF80 		.ascii	"u\251\317\200\366y\362\220\257\247!\323_L\231Z3\250"
 174      F679F290 
 174      AFA721D3 
 174      5F4C995A 
 174      33A8
 175 039a 4E7BE990 		.ascii	"N{\351\220\306+\230\014\350\000\263\230B\265\342l\010"
 175      C62B980C 
 175      E800B398 
 175      42B5E26C 
 175      08
 176 03ab 09354472 		.ascii	"\0115Dr\250N\212:Y\021\237 \225)?\036d\354\241}\014"
 176      A84E8A3A 
 176      59119F20 
 176      95293F1E 
ARM GAS  /tmp/ccQGEYF0.s 			page 13


 176      64ECA17D 
 177 03c0 0AF0347A 		.ascii	"\012\3604z:\315\024\340 \\\214N\206\211\035%\366\034"
 177      3ACD14E0 
 177      205C8C4E 
 177      86891D25 
 177      F61C
 178 03d2 B1E789FD 		.ascii	"\261\347\211\375\215\330\013\304^\"\366\012\261\177"
 178      8DD80BC4 
 178      5E22F60A 
 178      B17F
 179 03e0 123B46EC 		.ascii	"\022;F\3545bo +\0379`\217\372\036\"=\277\331\012\337"
 179      35626F20 
 179      2B1F3960 
 179      8FFA1E22 
 179      3DBFD90A 
 180 03f5 84394A3B 		.ascii	"\2049J;VV\263\2056\232\021\343w\"\201\237\000\307\323"
 180      5656B385 
 180      369A11E3 
 180      7722819F 
 180      00C7D3
 181 0408 98F2BF99 		.ascii	"\230\362\277\231SN\211\352\374\342&!\0215C\334\247\317"
 181      534E89EA 
 181      FCE22621 
 181      113543DC 
 181      A7CF
 182 041a 28053841 		.ascii	"(\0058A\362\231\017LJ>3u97y \334\363\235\270\311\314"
 182      F2990F4C 
 182      4A3E3375 
 182      39377920 
 182      DCF39DB8 
 183 0430 1D6D3273 		.ascii	"\035m2s1^23\037\257\262\016i\225\321\024\246\3771\245"
 183      315E3233 
 183      1FAFB20E 
 183      6995D114 
 183      A6FF31A5 
 184 0444 301CE826 		.ascii	"0\034\350&#\3024\316_T3\203\370K\026$\031\004G)\346"
 184      23C234CE 
 184      5F543383 
 184      F84B1624 
 184      19044729 
 185 0459 95575241 		.ascii	"\225WRA,`\"\366R\304k\006\210\331Ir\374\212\"\216\247"
 185      2C6022F6 
 185      52C46B06 
 185      88D94972 
 185      FC8A228E 
 186 046e 84C8E6F8 		.ascii	"\204\310\346\3705E\2344@\234\235$\307o)\342TJ\210Z\216"
 186      35459C34 
 186      409C9D24 
 186      C76F29E2 
 186      544A885A 
 187 0483 CA3E7E8B 		.ascii	"\312>~\213\354\343\247(\342\300\346\370\001\250\324"
 187      ECE3A728 
 187      E2C0E6F8 
 187      01A8D4
 188 0492 F392E478 		.ascii	"\363\222\344x\232\"\016oN\314\261 I\035\317\252+\322"
 188      9A220E6F 
 188      4ECCB120 
ARM GAS  /tmp/ccQGEYF0.s 			page 14


 188      491DCFAA 
 188      2BD2
 189 04a4 00F1F924 		.ascii	"\000\361\371$9\216\252\3531%D6\307_\325\365h\200\270"
 189      398EAAEB 
 189      31254436 
 189      C75FD5F5 
 189      6880B8
 190 04b7 3C498E97 		.ascii	"<I\216\227\324\365\230\022\"\233cD]\217\006\210k\223"
 190      D4F59812 
 190      229B6344 
 190      5D8F0688 
 190      6B93
 191 04c9 E4785D5D 		.ascii	"\344x]]\217)!j8v\350\336\312\302\353\361\306>\251y\032"
 191      8F29216A 
 191      3876E8DE 
 191      CAC2EBF1 
 191      C63EA979 
 192 04de AC8F0A3B 		.ascii	"\254\217\012;\235cw\002G\001\356\347R\177l\274\313\261"
 192      9D637702 
 192      4701EEE7 
 192      527F6CBC 
 192      CBB1
 193 04f0 1E1BFAF7 		.ascii	"\036\033\372\367`\305\017\347\265j\010\325\304'\243"
 193      60C50FE7 
 193      B56A08D5 
 193      C427A3
 194 04ff D4D7B364 		.ascii	"\324\327\263d\355Pd\235$\262N\250!T\223XV{\222\210w"
 194      ED50649D 
 194      24B24EA8 
 194      21549358 
 194      567B9288 
 195 0514 D5104A09 		.ascii	"\325\020J\011\2219Q\005\321\363$\252\211\322l\355D\305"
 195      91395105 
 195      D1F324AA 
 195      89D26CED 
 195      44C5
 196 0526 2675D18E 		.ascii	"&u\321\216\002\3740\215\211\372\2109Q\312\2677\275\037"
 196      02FC308D 
 196      89FA8839 
 196      51CAB737 
 196      BD1F
 197 0538 12E1BE1A 		.ascii	"\022\341\276\032\3655\0146J\275\222\251kb\025\302*\334"
 197      F5350C36 
 197      4ABD92A9 
 197      6B6215C2 
 197      2ADC
 198 054a BC842AC4 		.ascii	"\274\204*\3048\0120\234\206\012]L\025x\235\012]\252"
 198      380A309C 
 198      860A5D4C 
 198      15789D0A 
 198      5DAA
 199 055c 0AFFA93B 		.ascii	"\012\377\251;U\015\203\215R\337\302R\201\276\205a\316"
 199      550D838D 
 199      52DFC252 
 199      81BE8561 
 199      CE
 200 056d 02FC997C 		.ascii	"\002\374\231|\362#[\225\021d\023kyE\355,\"O\367*\203"
ARM GAS  /tmp/ccQGEYF0.s 			page 15


 200      F2235B95 
 200      1164136B 
 200      7945ED2C 
 200      224FF72A 
 201 0582 05DB16F7 		.ascii	"\005\333\026\367=9\366\320&\\\002\274\2132\242\371\002"
 201      3D39F6D0 
 201      265C02BC 
 201      8B32A2F9 
 201      02
 202 0593 BC4792DE 		.ascii	"\274G\222\336\373\304> \366!\261S\304>\"V\344\260m!"
 202      FBC43E20 
 202      F621B153 
 202      C43E2256 
 202      E4B06D21 
 203 05a7 7617B1BB 		.ascii	"v\027\261\273\211m#v\017\261\373\210}\233\330vb;\211"
 203      896D2376 
 203      0FB1FB88 
 203      7D9BD876 
 203      623B89
 204 05ba 7D8FD8F7 		.ascii	"}\217\330\367\211=Hl7\261\2078V\232=\2210\315>\302\321"
 204      893D486C 
 204      37B18738 
 204      569A3D91 
 204      30CD3EC2 
 205 05cf ECF519D0 		.ascii	"\354\365\031\320%\216\216\266\213-y-\221\351\351Ej6"
 205      258E8EB6 
 205      8B2D792D 
 205      91E9E945 
 205      6A36
 206 05e1 4D3F76F6 		.ascii	"M?v\366\033}\033\025\243\276\215\346\261\274\005\330"
 206      1B7D1B15 
 206      A3BE8DE6 
 206      B1BC05D8 
 207 05f1 C3E10CF2 		.ascii	"\303\341\014\362\023\315r\223\353\264*}\031\335\315"
 207      13CD7293 
 207      EBB42A7D 
 207      19DDCD
 208 0600 63FFA87F 		.ascii	"c\377\250\177\215\310\344\215Z+}\337P\227\316\323\272"
 208      8DC8E48D 
 208      5A2B7DDF 
 208      5097CED3 
 208      BA
 209 0611 20C26F0A 		.ascii	" \302o\012\330\233\351(\300\317\322\010\242^f\020\345"
 209      D89BE928 
 209      C0CFD208 
 209      A25E6610 
 209      E5
 210 0622 EBF8F7AA 		.ascii	"\353\370\367\252A\264\227W\276\214\217u\376>hb\022\342"
 210      41B49757 
 210      BE8C8F75 
 210      FE3E6862 
 210      12E2
 211 0634 4007AFE4 		.ascii	"@\007\257\344\373O\340J\366v\237?T\274\322\035\312|"
 211      FB4FE04A 
 211      F6769F3F 
 211      54BCD21D 
 211      CA7C
ARM GAS  /tmp/ccQGEYF0.s 			page 16


 212 0646 A9625381 		.ascii	"\251bS\201\015\204,\201\246\220\305\352,\267\274\352"
 212      0D842C81 
 212      A690C5EA 
 212      2CB7BCEA 
 213 0656 F114D606 		.ascii	"\361\024\326\006\033\013\375\001\277\267\320[[\347+"
 213      1B0BFD01 
 213      BFB7D05B 
 213      5BE72B
 214 0665 2C71AF29 		.ascii	",q\257)\\\271|E\361k\305\226:\237\337RTdi\360\325a?"
 214      5CB97C45 
 214      F16BC596 
 214      3A9FDF52 
 214      546469F0 
 215 067c 8BCECF52 		.ascii	"\213\316\317RR\264\246\250\004\337\246\177\372\373>"
 215      52B4A6A8 
 215      04DFA67F 
 215      FAFB3E
 216 068b BFA761FB 		.ascii	"\277\247a\373V\257\2459\264\025u^T\017f\373_\367y\312"
 216      56AFA539 
 216      B415755E 
 216      540F66FB 
 216      5FF779CA 
 217 069f FCB5750D 		.ascii	"\374\265u\015\336j\257'\024\010\276H[\006\232-\365\265"
 217      DE6AAF27 
 217      1408BE48 
 217      5B069A2D 
 217      F5B5
 218 06b1 0D96A640 		.ascii	"\015\226\246@0\324l\361\004\032\033\003~\314\316V\276"
 218      30D46CF1 
 218      041A1B03 
 218      7ECCCE56 
 218      BE
 219 06c2 C3821B15 		.ascii	"\303\202\033\025y\000\364\363MA_`\016>-\3655\253 \371"
 219      7900F4F3 
 219      4D415F60 
 219      0E3E2DF5 
 219      35AB20F9 
 220 06d6 F88ACB1B 		.ascii	"\370\212\313\033r\355l\016y\033\355\265\376\255\015"
 220      72ED6C0E 
 220      791BEDB5 
 220      FEAD0D
 221 06e5 DE602572 		.ascii	"\336`%r\015\372B;\263\352\245\363,<\376\265\356\220"
 221      0DFA423B 
 221      B3EAA5F3 
 221      2C3CFEB5 
 221      EE90
 222 06f7 B9A2DA61 		.ascii	"\271\242\332asW\355l\362\276\240\355\333\273#d\261\225"
 222      7357ED6C 
 222      F2BEA0ED 
 222      DBBB2364 
 222      B195
 223 0709 BB1C2E4A 		.ascii	"\273\034.J\332\023\010z\335\236\306bD\233w\270\312\234"
 223      DA13087A 
 223      DD9EC662 
 223      449B77B8 
 223      CA9C
 224 071b 666719B2 		.ascii	"fg\031\262\325e\245\313y\207\255\314\231\355\224\316"
ARM GAS  /tmp/ccQGEYF0.s 			page 17


 224      D565A5CB 
 224      7987ADCC 
 224      99ED94CE 
 225 072b 56A09B95 		.ascii	"V\240\233\225\352\315\225\350\246\346\264\230wX7\250"
 225      EACD95E8 
 225      A6E6B498 
 225      775837A8 
 226 073b A7259CA3 		.ascii	"\247%\234\243\222\236\254\342]U\016g\266\313\266\201"
 226      929EACE2 
 226      5D550E67 
 226      B6CBB681 
 227 074b D0C9B055 		.ascii	"\320\311\260Unr\224\242\346.'_]\365\2623\303\352p\332"
 227      6E7294A2 
 227      E62E275F 
 227      5DF5B233 
 227      C3EA70DA 
 228 075f 9C26172A 		.ascii	"\234&\027*6\374k\257\314p\331\361M\333Fd\354\330\224"
 228      36FC6BAF 
 228      CC70D9F1 
 228      4DDB4664 
 228      ECD894
 229 0772 2293515E 		.ascii	"\"\223Q^\276\321\352\3447`cE\347\246\312\215NS)*\326"
 229      BED1EAE4 
 229      37606345 
 229      E7A6CA8D 
 229      4E53292A 
 230 0787 52278FEE 		.ascii	"R'\217\3569\021?\253\023\201[mN\336S_\033\314v\273\267"
 230      39113FAB 
 230      13815B6D 
 230      4EDE535F 
 230      1BCC76BB 
 231 079c 6DF77BDC 		.ascii	"m\367{\334\356\231J\245hu\311\352\222\377\001\026N\261"
 231      EE994AA5 
 231      6875C9EA 
 231      92FF0116 
 231      4EB1
 232 07ae 14       		.ascii	"\024"
 233              		.text
 234              		.section	.gnu.lto_.symtab.4397aaa1ec4c42cd,"",%progbits
 235 0000 6E766963 		.ascii	"nvicEnableVector\000\000\000\000\000\000\000\000\000"
 235      456E6162 
 235      6C655665 
 235      63746F72 
 235      00000000 
 236 0019 000000A0 		.ascii	"\000\000\000\240\000\000\000nvicDisableVector\000\000"
 236      0000006E 
 236      76696344 
 236      69736162 
 236      6C655665 
 237 0033 00000000 		.ascii	"\000\000\000\000\000\000\000\000\000\000\256\000\000"
 237      00000000 
 237      0000AE00 
 237      00
 238 0040 006E7669 		.ascii	"\000nvicSetSystemHandlerPriority\000\000\000\000\000"
 238      63536574 
 238      53797374 
 238      656D4861 
ARM GAS  /tmp/ccQGEYF0.s 			page 18


 238      6E646C65 
 239 0062 00000000 		.ascii	"\000\000\000\000\000\000\000\264\000\000\000"
 239      000000B4 
 239      000000
 240              		.text
 241              		.section	.gnu.lto_.opts,"",%progbits
 242 0000 272D6D63 		.ascii	"'-mcpu=cortex-m3''-mno-thumb-interwork''-mthumb''-g"
 242      70753D63 
 242      6F727465 
 242      782D6D33 
 242      27272D6D 
 243 0033 67646227 		.ascii	"gdb''-O2''-fomit-frame-pointer''-falign-functions=1"
 243      272D4F32 
 243      27272D66 
 243      6F6D6974 
 243      2D667261 
 244 0066 3627272D 		.ascii	"6''-ffunction-sections''-fdata-sections''-fno-commo"
 244      6666756E 
 244      6374696F 
 244      6E2D7365 
 244      6374696F 
 245 0099 6E27272D 		.ascii	"n''-flto'\000"
 245      666C746F 
 245      2700
 246              		.text
 247              		.cfi_sections	.debug_frame
 248              		.section	.text.nvicEnableVector,"ax",%progbits
 249              		.align	2
 250              		.p2align 4,,15
 251              		.global	nvicEnableVector
 252              		.thumb
 253              		.thumb_func
 254              		.type	nvicEnableVector, %function
 255              	nvicEnableVector:
 256              	.LFB194:
 257              		.file 1 "../../../os/hal/ports/common/ARMCMx/nvic.c"
 258              		.loc 1 57 0
 259              		.cfi_startproc
 260              		@ args = 0, pretend = 0, frame = 0
 261              		@ frame_needed = 0, uses_anonymous_args = 0
 262              		@ link register save eliminated.
 263              	.LVL0:
 264 0000 30B4     		push	{r4, r5}
 265              	.LCFI0:
 266              		.cfi_def_cfa_offset 8
 267              		.cfi_offset 4, -8
 268              		.cfi_offset 5, -4
 269              		.loc 1 60 0
 270 0002 00F01F03 		and	r3, r0, #31
 271 0006 0124     		movs	r4, #1
 272 0008 04FA03F4 		lsl	r4, r4, r3
 273              		.loc 1 59 0
 274 000c 4FF46143 		mov	r3, #57600
 275 0010 CEF20003 		movt	r3, 57344
 276              		.loc 1 60 0
 277 0014 4209     		lsrs	r2, r0, #5
 278              		.loc 1 59 0
ARM GAS  /tmp/ccQGEYF0.s 			page 19


 279 0016 0901     		lsls	r1, r1, #4
 280              	.LVL1:
 281 0018 C9B2     		uxtb	r1, r1
 282 001a 1818     		adds	r0, r3, r0
 283              	.LVL2:
 284              		.loc 1 60 0
 285 001c 02F16005 		add	r5, r2, #96
 286              		.loc 1 59 0
 287 0020 80F80013 		strb	r1, [r0, #768]
 288              		.loc 1 60 0
 289 0024 43F82540 		str	r4, [r3, r5, lsl #2]
 290              		.loc 1 61 0
 291 0028 43F82240 		str	r4, [r3, r2, lsl #2]
 292              		.loc 1 62 0
 293 002c 30BC     		pop	{r4, r5}
 294 002e 7047     		bx	lr
 295              		.cfi_endproc
 296              	.LFE194:
 297              		.size	nvicEnableVector, .-nvicEnableVector
 298              		.section	.text.nvicDisableVector,"ax",%progbits
 299              		.align	2
 300              		.p2align 4,,15
 301              		.global	nvicDisableVector
 302              		.thumb
 303              		.thumb_func
 304              		.type	nvicDisableVector, %function
 305              	nvicDisableVector:
 306              	.LFB195:
 307              		.loc 1 69 0
 308              		.cfi_startproc
 309              		@ args = 0, pretend = 0, frame = 0
 310              		@ frame_needed = 0, uses_anonymous_args = 0
 311              		@ link register save eliminated.
 312              	.LVL3:
 313              		.loc 1 71 0
 314 0000 00F01F03 		and	r3, r0, #31
 315 0004 0121     		movs	r1, #1
 316 0006 01FA03F1 		lsl	r1, r1, r3
 317 000a 4209     		lsrs	r2, r0, #5
 318 000c 4FF46143 		mov	r3, #57600
 319 0010 CEF20003 		movt	r3, 57344
 320 0014 2032     		adds	r2, r2, #32
 321 0016 43F82210 		str	r1, [r3, r2, lsl #2]
 322              		.loc 1 72 0
 323 001a 1818     		adds	r0, r3, r0
 324              	.LVL4:
 325 001c 0021     		movs	r1, #0
 326 001e 80F80013 		strb	r1, [r0, #768]
 327 0022 7047     		bx	lr
 328              		.cfi_endproc
 329              	.LFE195:
 330              		.size	nvicDisableVector, .-nvicDisableVector
 331 0024 AFF30080 		.section	.text.nvicSetSystemHandlerPriority,"ax",%progbits
 331      AFF30080 
 331      AFF30080 
 332              		.align	2
 333              		.p2align 4,,15
ARM GAS  /tmp/ccQGEYF0.s 			page 20


 334              		.global	nvicSetSystemHandlerPriority
 335              		.thumb
 336              		.thumb_func
 337              		.type	nvicSetSystemHandlerPriority, %function
 338              	nvicSetSystemHandlerPriority:
 339              	.LFB196:
 340              		.loc 1 81 0
 341              		.cfi_startproc
 342              		@ args = 0, pretend = 0, frame = 0
 343              		@ frame_needed = 0, uses_anonymous_args = 0
 344              		@ link register save eliminated.
 345              	.LVL5:
 346              		.loc 1 85 0
 347 0000 0901     		lsls	r1, r1, #4
 348              	.LVL6:
 349 0002 00F16040 		add	r0, r0, #-536870912
 350              	.LVL7:
 351 0006 CAB2     		uxtb	r2, r1
 352 0008 00F56D43 		add	r3, r0, #60672
 353 000c 1A76     		strb	r2, [r3, #24]
 354 000e 7047     		bx	lr
 355              		.cfi_endproc
 356              	.LFE196:
 357              		.size	nvicSetSystemHandlerPriority, .-nvicSetSystemHandlerPriority
 358              		.text
 359              	.Letext0:
 360              		.file 2 "/opt/ARM/gcc-arm-none-eabi-4_7-2013q3/bin/../lib/gcc/arm-none-eabi/4.7.4/../../../../arm-
 361              		.file 3 "../../../os/rt/include/chschd.h"
 362              		.file 4 "../../../os/rt/ports/ARMCMx/compilers/GCC/chtypes.h"
 363              		.file 5 "../../../os/ext/CMSIS/include/core_cm3.h"
 364              		.file 6 "../../../os/rt/ports/ARMCMx/chcore.h"
 365              		.file 7 "../../../os/rt/ports/ARMCMx/chcore_v7m.h"
 366              		.file 8 "../../../os/rt/include/chmtx.h"