ARM GAS  /tmp/ccQGEYF0.s 			page 1


   1              		.syntax unified
   2              		.cpu cortex-m3
   3              		.fpu softvfp
   4              		.eabi_attribute 20, 1
   5              		.eabi_attribute 21, 1
   6              		.eabi_attribute 23, 3
   7              		.eabi_attribute 24, 1
   8              		.eabi_attribute 25, 1
   9              		.eabi_attribute 26, 1
  10              		.eabi_attribute 30, 2
  11              		.eabi_attribute 34, 1
  12              		.eabi_attribute 18, 4
  13              		.thumb
  14              		.file	"nvic.c"
  15              		.text
  16              	.Ltext0:
  17              		.section	.gnu.lto_.jmpfuncs.4397aaa1ec4c42cd,"",%progbits
  18 0000 789C6362 		.ascii	"x\234cb`d`g\300\0168\24043\0033##\0233\003\000\002\205"
  18      60646067 
  18      C00E38A0 
  18      34330333 
  18      23231333 
  19 0018 0020     		.ascii	"\000 "
  20              		.text
  21              		.section	.gnu.lto_.inline.4397aaa1ec4c42cd,"",%progbits
  22 0000 789C6362 		.ascii	"x\234cb`d\340e\300\016\302\24043\003\003\027'#\023#"
  22      6064E065 
  22      C00EC2A0 
  22      34330303 
  22      17272313 
  23 0015 23900DC4 		.ascii	"#\220\015\304,l\037\364\030\330\026\310310]\340ga\000"
  23      2C6C1FF4 
  23      18D816C8 
  23      3331305D 
  23      E0676100 
  24 0029 F23880C2 		.ascii	"\3628\200\302\034\354@y\240,3\313\002y\210,P\202\205"
  24      1CEC4079 
  24      A02C33CB 
  24      0279882C 
  24      508285
  25 003c 81898195 		.ascii	"\201\211\201\225\205\221\021\244\225\031\250\032I\033"
  25      859111A4 
  25      9519A81A 
  25      491B
  26 004a 0300A17F 		.ascii	"\003\000\241\177\011\352"
  26      09EA
  27              		.text
  28              		.section	.gnu.lto_.pureconst.4397aaa1ec4c42cd,"",%progbits
  29 0000 789C6362 		.ascii	"x\234cb`d`f```g\200\000f\006)F)&)\000\002\003\000b"
  29      60646066 
  29      60606067 
  29      80006606 
  29      29462926 
  30              		.text
  31              		.section	.gnu.lto_nvicEnableVector.4397aaa1ec4c42cd,"",%progbits
  32 0000 789CAD92 		.ascii	"x\234\255\222\277k\024A\024\307\277of6\233\273\005\021"
  32      BF6B1441 
ARM GAS  /tmp/ccQGEYF0.s 			page 2


  32      14C7BF6F 
  32      66369BBB 
  32      0511
  33 0012 0B313609 		.ascii	"\01316\011\301.\260\213\"\304Vlb\221\"\001\313Sd\011"
  33      C12EB08B 
  33      22C4566C 
  33      62912201 
  33      CB536409 
  34 0026 1830B721 		.ascii	"\0300\267!\021Iw\353^\376\200#M0E\310\017\022\217\030"
  34      114977EB 
  34      5EFE8023 
  34      4D3045C8 
  34      0F128F18 
  35 003a 52AB8D72 		.ascii	"R\253\215r6r\204\264\261\260Ha\021!\205\305u\026\347"
  35      367284B4 
  35      B1B04861 
  35      112185C5 
  35      7516E7
  36 004d 7BB3BB1A 		.ascii	"{\263\273\032\356.\222\004\347n\370\316\2747\237\367"
  36      EE2E9204 
  36      E76EF8CE 
  36      BC379FF7 
  37 005d 63761488 		.ascii	"cv\024\210\177\335c\200\347\252\001\356\261\222\006"
  37      7FDD6380 
  37      E7AA01EE 
  37      B19206
  38 006c A9DA01F0 		.ascii	"\251\332\001\360jH\021\311\202\221\212\242\312#K\026"
  38      6A4811C9 
  38      82918AA2 
  38      CA234B16 
  39 007c 86B11EC7 		.ascii	"\206\261\036\307K?\033\311\215\344\250\335\036\234\022"
  39      4B3F1BC9 
  39      8DE4A8DD 
  39      1E9C12
  40 008b EB1342F3 		.ascii	"\353\023B\363\327\007\032\300\024\021\372!\252:\023"
  40      D7071AC0 
  40      1411FA21 
  40      AA3A13
  41 009a 9DC1E11C 		.ascii	"\235\301\341\034P\355s2\226A\332B\337\227\213)6\224"
  41      50ED7332 
  41      9641DA42 
  41      DF978B29 
  41      3694
  42 00ac 61A60756 		.ascii	"a\246\007V;\205\031\005\237\204\254\273\027\004O\027"
  42      3B851905 
  42      9F84ACBB 
  42      17044F17 
  43 00bc F9DFA1EE 		.ascii	"\371\337\241\356\316\216\235\213Q\216\245Z+}\227\301"
  43      CE8E9D8B 
  43      518EA55A 
  43      2B7D97C1 
  44 00cc FE5DE1FE 		.ascii	"\376]\341\376\341\315\326\350G\365\351\250]\271\205"
  44      E1CDD6E8 
  44      47F5E9A8 
  44      5DB985
  45 00db 4DE1ABF1 		.ascii	"M\341\253\361\030\243\012w\354U\356/_\353\346\251\343"
  45      18A30A77 
ARM GAS  /tmp/ccQGEYF0.s 			page 3


  45      EC55EE2F 
  45      5FEBE6A9 
  45      E3
  46 00ec E85D7BF4 		.ascii	"\350]{\364\213\327#\223T!\363:\241Du\032\206\242\022"
  46      8BD72393 
  46      5421F33A 
  46      A144751A 
  46      86A212
  47 00ff ED7200CD 		.ascii	"\355r\000\315\3735\336\033\326uV\207\355;lwy\277\301"
  47      FB35DE1B 
  47      D6755687 
  47      ED3B6C77 
  47      79BFC1
  48 0112 FB02EB16 		.ascii	"\373\002\353\026k\221u\233\325c}\303\312\303\301b\034"
  48      6B91759B 
  48      D5637DC3 
  48      CAC3C162 
  48      1C
  49 0123 5FB5BDC9 		.ascii	"_\265\275\311\230\020\225'<\311Ie\241\233H~\350o\207"
  49      98109527 
  49      3CC94965 
  49      A19B487E 
  49      E86F87
  50 0136 5E89F638 		.ascii	"^\211\3668uH:\024O\023\325\267\2225\265\0316K\235}\266"
  50      75483A14 
  50      4F13D5B7 
  50      9235B519 
  50      364B9D7D 
  51 014b CE261A0F 		.ascii	"\316&\032\0173W\200\275x\221\330aF\260cW\256^\301k\326"
  51      335780BD 
  51      7891D861 
  51      46B06357 
  51      AE5EC16B 
  52 0160 7E254001 		.ascii	"~%@\001q\243\032_A\272\006\026x>\316_t(\227\016\274"
  52      71A31A5F 
  52      41BA0616 
  52      783ECE5F 
  52      7428970E 
  53 0175 D3766D6C 		.ascii	"\323vml\322]\315/9O\353\362\011!\015\034\233\266\372"
  53      D25DCD2F 
  53      394FEBF2 
  53      09210D1C 
  53      9BB6FA
  54 0188 5ED75D39 		.ascii	"^\327]9K\231\303\301\240u$'\177k-\260\273\263\376b\032"
  54      4B99C3C1 
  54      A0752427 
  54      7F6B2DB0 
  54      BBB3FE62 
  55 019d 85C49D9D 		.ascii	"\205\304\235\235?vr\247\307\376\236M\025\3774\345\235"
  55      3F7672A7 
  55      C7FE9E4D 
  55      15FF34E5 
  55      9D
  56 01ae A329CA9B 		.ascii	"\243)\312\233rE\276\246Myi\340\223\374z/\027Z\235\021"
  56      7245BEA6 
  56      4D7969E0 
  56      93FC7A2F 
ARM GAS  /tmp/ccQGEYF0.s 			page 4


  56      175A9D11 
  57 01c2 FA00D41A 		.ascii	"\372\000\324\032M\003\347cB\352\340\317*\310\210\357"
  57      4D03E763 
  57      42EAE0CF 
  57      2AC888EF 
  58 01d2 07E93F9A 		.ascii	"\007\351?\232\017\236=}\036\314Fs/\346\2030\232\231"
  58      0F9E3D7D 
  58      1ECC4673 
  58      2FE68330 
  58      9A99
  59 01e4 89CAC1FD 		.ascii	"\211\312\301\375\311\361\007\343\013A\371\345t\350\207"
  59      C9F107E3 
  59      0B41F9E5 
  59      74E887
  60 01f3 D065FF36 		.ascii	"\320e\3776\225\315\354\334t\364\033U \363("
  60      95CDECDC 
  60      74F41B55 
  60      20F328
  61              		.text
  62              		.section	.gnu.lto_nvicDisableVector.4397aaa1ec4c42cd,"",%progbits
  63 0000 789CB552 		.ascii	"x\234\265R=,\004A\024\376\336\314\355\256\023\021\205"
  63      3D2C0441 
  63      14FEDECC 
  63      EDAE1311 
  63      85
  64 0011 46454427 		.ascii	"FED'\331\025\012Z\321P(H\224\210l.!qw\202\210\356\326"
  64      D9150A5A 
  64      D1502848 
  64      94886C2E 
  64      21717782 
  65 0028 9DDE4575 		.ascii	"\235\336Eu\247\302\371'\012\025\032\202\352\"W+\225"
  65      A7C2F927 
  65      0A151A82 
  65      EA22572B 
  65      95
  66 0039 8A2B9592 		.ascii	"\212+\225\222\363\336\354\235\237\020\2410\273\223\357"
  66      F3DEEC9D 
  66      9F10A130 
  66      BB93EF
  67 0048 CDFBDEF7 		.ascii	"\315\373\336\367\275\335\231Q ~\276\216\026\236\275"
  67      BDDD9951 
  67      207EBE8E 
  67      169EBD
  68 0057 1AE86124 		.ascii	"\032\350a$\015R\331\022\260\322\246\210$`IJQj\314(\355"
  68      0D52D912 
  68      B0D2A688 
  68      2460494A 
  68      516ACC28 
  69 006c 766C05C1 		.ascii	"vl\005\301z\3666=\230~\254TZc\222\235$\024\327\012\315"
  69      7AF6363D 
  69      987EAC54 
  69      5A63929D 
  69      2414D70A 
  70 0081 2D8811A1 		.ascii	"-\210\021\241\015\202\012\221\317=\214.\373A\247\025"
  70      0D820A91 
  70      CF3D8C2E 
  70      FB41A715 
ARM GAS  /tmp/ccQGEYF0.s 			page 5


  71 0091 5C12E981 		.ascii	"\\\022\351\201\363G\241i\210\177\022}\375\265'\353o"
  71      F347A169 
  71      887F127D 
  71      FDB527EB 
  71      6F
  72 00a2 AA88513D 		.ascii	"\252\210Q=o\330?\312\312\2713u\237\267\257\324\365c"
  72      6FD83FCA 
  72      CAB93375 
  72      9FB7AFD4 
  72      F563
  73 00b4 25D58182 		.ascii	"%\325\201\202xd\202A\226+t\233})\347\366\3247\026\322"
  73      78648241 
  73      962B749B 
  73      7D29E7F6 
  73      D43716D2 
  74 00c8 A081304E 		.ascii	"\240\2010N{\324\016E\343\264O\035\320\274\336\344\265"
  74      7BD40E45 
  74      E3B44F1D 
  74      D0BCDEE4 
  74      B5
  75 00d9 C55860B4 		.ascii	"\305X`\264\031w\030\035\306]F\036\026V\203\240\311\354"
  75      1977181D 
  75      C65D461E 
  75      165683A0 
  75      C9EC
  76 00eb 828C1141 		.ascii	"\202\214\021A9\336Q6\226@\027\2219\321/\271m\266<$\013"
  76      39DE5136 
  76      96401791 
  76      39D12FB9 
  76      6DB63C24 
  77 0100 3E699FCC 		.ascii	">i\237\314\007h\326\002L_\350\003\007LP\225\210\240"
  77      0768D602 
  77      4C5FE803 
  77      074C5095 
  77      88A0
  78 0112 D510E9B2 		.ascii	"\325\020\351\262\364\017E\026\323\246\370\370=g\207"
  78      F40F4516 
  78      D3A6F8F8 
  78      3D6787
  79 0121 2E2474B5 		.ascii	".$t\265\376\311\252\221\016\363\222\274\031\252\326"
  79      FEC9AA91 
  79      0EF392BC 
  79      19AAD6
  80 0130 7B380D56 		.ascii	"{8\015V)FV\244\023G&\262\365\006\362\214\216\351Z\207"
  80      294656A4 
  80      134726B2 
  80      F506F28C 
  80      8EE95A87 
  81 0144 E0261334 		.ascii	"\340&\0234\"\214\201e\236\023\265k\355\313I\003\017"
  81      228C8165 
  81      9E13B56B 
  81      EDCB4903 
  81      0F
  82 0155 DAC48E31 		.ascii	"\332\304\2161\356\273\313_\322g\357\350\233w\375/\274"
  82      EEBBCB5F 
  82      D267EFE8 
  82      9B77FD2F 
ARM GAS  /tmp/ccQGEYF0.s 			page 6


  82      BC
  83 0166 A9E6AD04 		.ascii	"\251\346\255\004\3165\302\213\0245\331\022\210\3171"
  83      CE35C28B 
  83      1435D912 
  83      88CF31
  84 0175 B4AF8D11 		.ascii	"\264\257\215\021\221\360\236J}\247\353z\341\233\\\360"
  84      91F09E4A 
  84      7DA7EB7A 
  84      E19B5CF0 
  85 0185 A6A766BD 		.ascii	"\246\247f\275\271\344\374\342\202\347'\343\361d\302"
  85      B9E4FCE2 
  85      82E727E3 
  85      F164C2
  86 0194 EB1F1D1E 		.ascii	"\353\037\035\036\030^\366\022K3\276\353C'\334.J\274"
  86      185EF612 
  86      4B33BEEB 
  86      4327DC2E 
  86      4ABC
  87 01a6 02627DAF 		.ascii	"\002b}\257\001"
  87      01
  88              		.text
  89              		.section	.gnu.lto_nvicSetSystemHandlerPriority.4397aaa1ec4c42cd,"",%progbits
  90 0000 789C7D50 		.ascii	"x\234}P1K\303P\020\276{/i;\210:\211\235,\305\255\220"
  90      314BC350 
  90      10BE7B2F 
  90      693B883A 
  90      899D2CC5 
  91 0016 B739B889 		.ascii	"\2679\270\211\213\016\035Zp\214Rb\240\2056)\255\210"
  91      8B0E1D5A 
  91      708C5262 
  91      A0853629 
  91      AD88
  92 0028 5B9F6D7F 		.ascii	"[\237m\177@q3\223UqPtp\0207\245c(\035\034\235\012.\012"
  92      40713393 
  92      55715074 
  92      701037A5 
  92      63281D1C 
  93 0040 0E22EEF5 		.ascii	"\016\"\356\365\336K\273\264\350%\307}\334w\337\227\313"
  93      DE4BBBB4 
  93      E825C77D 
  93      DC77DF97 
  93      CB
  94 0051 31407A66 		.ascii	"1@zf#I\371B\304:U\344\200\2543\0008N1D\005H\322`\330"
  94      2349F942 
  94      C43A55E4 
  94      80AC3300 
  94      384E3144 
  95 006a D8D14A96 		.ascii	"\330\321J\226\206\256\224'_\275\346rs8\032\255\270\252"
  95      86AE9427 
  95      5FBDE672 
  95      73381AAD 
  95      B8AA
  96 007c BB8710DE 		.ascii	"\273\207\020\336\276-%\301E\204\004\250\312\246?\364"
  96      BE2D25C1 
  96      458404A8 
  96      CAA63FF4 
  97 008c 870EFE15 		.ascii	"\207\016\376\025\365\203\373\271\237 \366\304\236\207"
ARM GAS  /tmp/ccQGEYF0.s 			page 7


  97      F583FBB9 
  97      9F20F6C4 
  97      9E87
  98 009a A3C62A5C 		.ascii	"\243\306*\\\220C\247%\267\\\344\014,T\372~\360\315\""
  98      9043A725 
  98      B75CE40C 
  98      2C54FA7E 
  98      F0CD22
  99 00ad 8BD4D8C2 		.ascii	"\213\324\330\302P\033O\315\256\351\331\367\205\331I"
  99      501B4FCD 
  99      AEE9D9F7 
  99      85D949
 100 00bc 025C6782 		.ascii	"\002\\g\202\241\215\227$\344`\343\031\246\211\265\261"
 100      A18D9724 
 100      E460E319 
 100      A689B5B1 
 101 00cc 4BD5A4FE 		.ascii	"K\325\244\3769\365)LhK\271\210%\355\246#\247\252:R\236"
 101      39F5294C 
 101      684BB988 
 101      25EDA623 
 101      A7AA3A52 
 102 00e1 FC14E021 		.ascii	"\374\024\340!4?\370g\360@\252+4\301A\356(*\204\326\215"
 102      343FF867 
 102      F040AA2B 
 102      34C141EE 
 102      282A84D6 
 103 00f6 728E7A06 		.ascii	"r\216z\006\265\325\016\206\336!\204\336\366\230\022"
 103      B5D50E86 
 103      DE2184DE 
 103      F69812
 104 0105 7027DB48 		.ascii	"p'\333H\204\221\201k\215L\036\300)\325\230\376\3158"
 104      8491816B 
 104      8D4C1EC0 
 104      29D598FE 
 104      CD38
 105 0117 C8D7969C 		.ascii	"\310\327\226\234\207\010\003\024)w'Gs\310\200\342\221"
 105      87080314 
 105      29772747 
 105      73C880E2 
 105      91
 106 0128 6B4CCE03 		.ascii	"kL\316\003@\272^\344<\211\034\035@-J;A\306\262D\364"
 106      40BA5EE4 
 106      3C891C1D 
 106      402D4A3B 
 106      41C6B244 
 107 013d FA75512C 		.ascii	"\372uQ,\224E\325\257\035\324\205\343W*\276'6\362\331"
 107      9445D5AF 
 107      1DD485E3 
 107      572ABE27 
 107      36F2D9
 108 0150 CDEC91F0 		.ascii	"\315\354\221\360\016K\216\345@\274X\360\366\313n\315"
 108      0E4B8EE5 
 108      40BC58F0 
 108      F6CB6ECD 
 109 0160 A8D64AFE 		.ascii	"\250\326J\376/j\022p\034"
 109      2F6A1270 
 109      1C
ARM GAS  /tmp/ccQGEYF0.s 			page 8


 110              		.text
 111              		.section	.gnu.lto_.cgraph.4397aaa1ec4c42cd,"",%progbits
 112 0000 789C6362 		.ascii	"x\234cb`d`f``\320a\200\002\246C\214\365\014\014\023"
 112      60646066 
 112      6060D061 
 112      8002A643 
 112      8CF50C0C 
 113 0015 CE31D4D7 		.ascii	"\3161\324\327\317\353`d:\314X\317\210\340\035a\254g"
 113      CFEB6064 
 113      3ACC58CF 
 113      88E01D61 
 113      AC67
 114 0027 82F31800 		.ascii	"\202\363\030\000D\350\016\216"
 114      44E80E8E 
 115              		.text
 116              		.section	.gnu.lto_.vars.4397aaa1ec4c42cd,"",%progbits
 117 0000 789C6362 		.ascii	"x\234cb`d`f`\000\222P\000\000\000r\000\010"
 117      60646066 
 117      60009250 
 117      00000072 
 117      0008
 118              		.text
 119              		.section	.gnu.lto_.refs.4397aaa1ec4c42cd,"",%progbits
 120 0000 789C6362 		.ascii	"x\234cb`d`f```b\200\001\000\000\204\000\011"
 120      60646066 
 120      60606062 
 120      80010000 
 120      840009
 121              		.text
 122              		.section	.gnu.lto_.statics.4397aaa1ec4c42cd,"",%progbits
 123 0000 789C6362 		.ascii	"x\234cb`d`b\300\016@\342\214\020&\000\000\375\000\011"
 123      60646062 
 123      C00E40E2 
 123      8C102600 
 123      00FD0009 
 124              		.text
 125              		.section	.gnu.lto_.decls.4397aaa1ec4c42cd,"",%progbits
 126 0000 789CAD59 		.ascii	"x\234\255Yml\024E\030\236\331\333~\234\205\362\021\300"
 126      6D6C1445 
 126      189ED9DB 
 126      7E9C85F2 
 126      11C0
 127 0012 4A6A2846 		.ascii	"Jj(FP1\355\001-\037\177H8\256\305\273\037\255\315]i"
 127      5031ED01 
 127      2D1F7F48 
 127      38AEC5BB 
 127      1FADCD5D 
 128 0027 22CDE668 		.ascii	"\"\315\346h\217\303^\322\336\325\353a\340\337\332\022"
 128      8FC35ED2 
 128      DED5EB61 
 128      E0DFDA12 
 129 0037 AC404CC5 		.ascii	"\254@L\3056\342G\3105\005\"Uk\324\362CD,\261\224*\255"
 129      36E247C8 
 129      35052255 
 129      6BD4F243 
 129      442CB194 
 130 004d 3688CA97 		.ascii	"6\210\312\227ri\300\020\250E\240!\210\015ufvwv\367\356"
ARM GAS  /tmp/ccQGEYF0.s 			page 9


 130      7269C010 
 130      A845A021 
 130      880D7566 
 130      767776F7 
 131 0062 E6F6EEC2 		.ascii	"\346\366\356\302\246\363\336\354\356;\317<\363\314\274"
 131      A6F3DEEC 
 131      EE3BCF3C 
 131      F3CCBC
 132 0071 B3EF6E39 		.ascii	"\263\357n9\000\001>J\320\3174:\226,\004`1\007\000\217"
 132      00013E4A 
 132      D0CF343A 
 132      962C0460 
 132      3107008F 
 133 0085 AEAD03EA 		.ascii	"\256\255\003\352aB%\214J/*} \366\300\367f\240\202\321"
 133      6142258C 
 133      4A2F2A7D 
 133      20F6C0F7 
 133      66A082D1 
 134 0099 72E57A16 		.ascii	"r\345z\026\220p\272Q9\216\312ITN\241r\023\225!T\316"
 134      9070BA51 
 134      398ECA49 
 134      544EA172 
 134      13952154 
 135 00ae C8B863A8 		.ascii	"\310\270c\250\\@ePn\037\216\203\217\373\315\2211\025"
 135      5C406550 
 135      6E1F8E83 
 135      8FFBCD91 
 135      3115
 136 00c0 7C055BC1 		.ascii	"|\005[\301R\260\225\276\3200\300\250\214\017e\214\350"
 136      52B095BE 
 136      D030C0A8 
 136      8C0F658C 
 136      E8
 137 00d1 038F253B 		.ascii	"\003\217%;\212\267\302\367\026*\023\250,\205\322} \377"
 137      8AB7C2F7 
 137      162A13A8 
 137      2C85D27D 
 137      20FF
 138 00e3 F6C9FECF 		.ascii	"\366\311\376\317A=\326\"pP\014G\332[E\373\203\351\351"
 138      413DD622 
 138      70500C47 
 138      DA5B45FB 
 138      83E9E9
 139 00f6 AC05A053 		.ascii	"\254\005\240SDGx\267(\302\220\000\327\315\007O\001\001"
 139      444778B7 
 139      28C29000 
 139      D7CD074F 
 139      0101
 140 0108 E69A0128 		.ascii	"\346\232\001( \265\031fi\004\000\325\273\340\002Ye\314"
 140      20B51966 
 140      690400D5 
 140      BBE00259 
 140      65CC
 141 011a 1998419B 		.ascii	"\031\230A\233(\266\340\246\366!D*~\273%\340\220(\266"
 141      28B6E0A6 
 141      F621442A 
 141      7EBB25E0 
ARM GAS  /tmp/ccQGEYF0.s 			page 10


 141      9028B6
 142 012d A31EA000 		.ascii	"\243\036\240\000\273\241\031\265\344 X\006\216\212\344"
 142      BBA119B5 
 142      E4205806 
 142      8E8AE4
 143 013c 90A9C93F 		.ascii	"\220\251\311?9\240\347\255cS\034\220\273\3132ki\223"
 143      39A0E7AD 
 143      63531C90 
 143      BBCB326B 
 143      6993
 144 014e 73011E81 		.ascii	"s\001\036\201\313\200\324\227t[\251\341U1\013\211)s"
 144      CB80D497 
 144      745BA9E1 
 144      55310B89 
 144      2973
 145 0160 933AC3BF 		.ascii	"\223:\303\277U&\031\200\003oB(#\214u\336[%]}\026t\213"
 145      55261980 
 145      036F4228 
 145      238C75DE 
 145      5B255D7D 
 146 0177 E27EAC86 		.ascii	"\342~\254\206\302o\200x\205\341\"\320f\216?&\030\333"
 146      C26F8078 
 146      85E122D0 
 146      668E3F26 
 146      18DB
 147 0189 6890361A 		.ascii	"h\2206\032\312a\010(S\222\177\226\202\303X\200\376\226"
 147      CA610828 
 147      53927F96 
 147      82C35880 
 147      FE96
 148 019b 3C223A90 		.ascii	"<\":\220[\327\353F\3741\344\036\317\314}\256\2379\211"
 148      5BD7EB46 
 148      FC31E41E 
 148      CFCC7DAE 
 148      9F3989
 149 01ae 03D48973 		.ascii	"\003\324\211s\226\2123\236\027_\032\001\366 >\002\354"
 149      968A339E 
 149      175F1A01 
 149      F6203E02 
 149      EC
 150 01bf 453C0F30 		.ascii	"E<\0170\244I0\274\336\230\341}\221hx\322r\343\300\037"
 150      A44930BC 
 150      DE98E17D 
 150      916878D2 
 150      72E3C01F 
 151 01d3 94D7F042 		.ascii	"\224\327\360B\326\224=$>}\011\324\217\2312\001~J\006"
 151      D6943D24 
 151      3E7D09D4 
 151      8F993201 
 151      7E4A06
 152 01e6 831BDD98 		.ascii	"\203\033\335\230\225\356\224\365\305\214\351\230~L$"
 152      95EE94F5 
 152      C58CE998 
 152      7E4C24
 153 01f5 465AC5C8 		.ascii	"FZ\305\310a1\357\200&F\262i?P\027#rH%v\027\3407p\011"
 153      6131EF80 
 153      2646B269 
ARM GAS  /tmp/ccQGEYF0.s 			page 11


 153      3F501723 
 153      72482576 
 154 020e B2501F0F 		.ascii	"\262P\037\017\220\306\003\256MC<\251-\234\"^\317\321"
 154      90C603AE 
 154      4D433CA9 
 154      2D9C225E 
 154      CFD1
 155 0220 5B4F2A1C 		.ascii	"[O*\034aT`\031\002\315\001\230\235Xp W\200\307\321E"
 155      61546019 
 155      02CD0198 
 155      9D587020 
 155      5780C7D1 
 156 0235 8597388B 		.ascii	"\205\2278\213\022\373G\212a\255\347\211\204\236\002"
 156      12FB478A 
 156      61ADE789 
 156      849E02
 157 0244 FC0ECE51 		.ascii	"\374\016\316Q5\022\345}\204\370\260\027r\277\314]\271"
 157      3512E57D 
 157      84F8B017 
 157      72BFCC5D 
 157      B9
 158 0255 AED66E43 		.ascii	"\256\326nC\335\230\024G0\027\274C\030i\267\250p\004"
 158      DD981447 
 158      3017BC43 
 158      1869B7A8 
 158      7004
 159 0267 D276BBF2 		.ascii	"\322v\273\362\201~\227:\005\347\"\345\366P\345\276<"
 159      817E973A 
 159      05E722E5 
 159      F650E5BE 
 159      3C
 160 0278 7CF5173E 		.ascii	"|\365\027>\005,\334\373\000\302\220Z\023dQB\306W\201"
 160      052CDCFB 
 160      00C2905A 
 160      13645142 
 160      C65781
 161 028b 7C7D6064 		.ascii	"|}`d\033\210=f.\006aq\327\033\210\211=S\221r(W^D\211"
 161      1B883D66 
 161      2E066171 
 161      D71B8889 
 161      3D539172 
 162 02a4 375A011E 		.ascii	"7Z\001\036\"\253\"\231]\222\316\012G!\012t\323\207\347"
 162      22AB2299 
 162      5D92CE0A 
 162      47210A74 
 162      D387E7
 163 02b7 A15B3B7D 		.ascii	"\241[;}\321\216\002\374!\215\331\373\2219{Y\272\311"
 163      D18E02FC 
 163      218DD9FB 
 163      91397B59 
 163      BAC9
 164 02c9 53FCD03C 		.ascii	"S\374\320<\234$\363\200\225;?r\0042\370\250x\012f\256"
 164      9C24F380 
 164      953B3F72 
 164      0432F8A8 
 164      780A66AE 
 165 02dd BAC4B1A4 		.ascii	"\272\304\261\244dr\265\222F\015/\223Bl\221)\214\244"
ARM GAS  /tmp/ccQGEYF0.s 			page 12


 165      6472B592 
 165      460D2F93 
 165      426C9129 
 165      8CA4
 166 02ef 31BC9F98 		.ascii	"1\274\237\230\303\223C\017\215\347{:\236+\345\214\356"
 166      C393430F 
 166      8DE77B3A 
 166      9E2BE58C 
 166      EE
 167 0300 F54AC719 		.ascii	"\365J\307\031\215\274@\004x\006\221\344\300\010\205"
 167      8DBC4004 
 167      780691E4 
 167      C00885
 168 030f BC566E20 		.ascii	"\274Vn \220\374\300e+$\015\234\003\347(\346\270\021"
 168      90FCC065 
 168      2B240D9C 
 168      03E728E6 
 168      B811
 169 0321 CD301333 		.ascii	"\3150\0233\212\347e\2129i\310\223K\222g\204bN\031\362"
 169      8AE7658A 
 169      3969C893 
 169      4B926784 
 169      624E19F2 
 170 0335 646246F1 		.ascii	"dbF\361\274I1\007*\214x\232\222\344y\233b\016W\030\361"
 170      BC493107 
 170      2A8C789A 
 170      92E4799B 
 170      620E5718 
 171 034a 646246F1 		.ascii	"dbF\361\374W\015\015C\236|\272\221\221K1\"\312\276}"
 171      FC570D0D 
 171      439E7CBA 
 171      91914B31 
 171      22CABE7D 
 172 035e 358DD088 		.ascii	"5\215\320\2100Cc\015\015\215GjhT\260\372\247\"1\007"
 172      3043630D 
 172      0D8D476A 
 172      6854B0FA 
 172      A7223107 
 173 0372 4444CA43 		.ascii	"DD\312C\"\235$\"\265\231hp\250\240Q\017#\252Rf\272*"
 173      229D2422 
 173      B5996870 
 173      A8A0510F 
 173      23AA5266 
 174 0388 75A9CF80 		.ascii	"u\251\317\200\366y\362\220\257\247!\323_L\231Z3\250"
 174      F679F290 
 174      AFA721D3 
 174      5F4C995A 
 174      33A8
 175 039a 4E7BE990 		.ascii	"N{\351\220\306+\230\014\350\000\263\230B\265\342l\010"
 175      C62B980C 
 175      E800B398 
 175      42B5E26C 
 175      08
 176 03ab 09354472 		.ascii	"\0115Dr\250N\212:Y\021\237 \225)?\036d\354\241}\014"
 176      A84E8A3A 
 176      59119F20 
 176      95293F1E 
ARM GAS  /tmp/ccQGEYF0.s 			page 13


 176      64ECA17D 
 177 03c0 0AF0347A 		.ascii	"\012\3604z:\315\024\340 \\\214N\206\211\035%\366\034"
 177      3ACD14E0 
 177      205C8C4E 
 177      86891D25 
 177      F61C
 178 03d2 B1E789FD 		.ascii	"\261\347\211\375\215\330\013\304^\"\366\012\261\177"
 178      8DD80BC4 
 178      5E22F60A 
 178      B17F
 179 03e0 123B46EC 		.ascii	"\022;F\3545bo +\0379`\217\372\036\"=\277\331\012\337"
 179      35626F20 
 179      2B1F3960 
 179      8FFA1E22 
 179      3DBFD90A 
 180 03f5 84394A3B 		.ascii	"\2049J;VV\263\2056\232\021\343w\"\201\237\000\307\323"
 180      5656B385 
 180      369A11E3 
 180      7722819F 
 180      00C7D3
 181 0408 98F2BF99 		.ascii	"\230\362\277\231SN\211\352\374\342&!\0215C\334\247\317"
 181      534E89EA 
 181      FCE22621 
 181      113543DC 
 181      A7CF
 182 041a 28053841 		.ascii	"(\0058A\362\231\017LJ>3u97y \334\363\235\270\311\314"
 182      F2990F4C 
 182      4A3E3375 
 182      39377920 
 182      DCF39DB8 
 183 0430 1D6D3273 		.ascii	"\035m2s1^23\037\257\262\016i\225\321\024\246\3771\245"
 183      315E3233 
 183      1FAFB20E 
 183      6995D114 
 183      A6FF31A5 
 184 0444 301CE826 		.ascii	"0\034\350&#\3024\316_T3\203\370K\026$\031\004G)\346"
 184      23C234CE 
 184      5F543383 
 184      F84B1624 
 184      19044729 
 185 0459 95575241 		.ascii	"\225WRA,`\"\366R\304k\006\210\331Ir\374\212\"\216\247"
 185      2C6022F6 
 185      52C46B06 
 185      88D94972 
 185      FC8A228E 
 186 046e 84C8E6F8 		.ascii	"\204\310\346\3705E\2344@\234\235$\307o)\342TJ\210Z\216"
 186      35459C34 
 186      409C9D24 
 186      C76F29E2 
 186      544A885A 
 187 0483 CA3E7E8B 		.ascii	"\312>~\213\354\343\247(\342\300\346\370\001\250\324"
 187      ECE3A728 
 187      E2C0E6F8 
 187      01A8D4
 188 0492 F392E478 		.ascii	"\363\222\344x\232\"\016oN\314\261 I\035\317\252+\322"
 188      9A220E6F 
 188      4ECCB120 
ARM GAS  /tmp/ccQGEYF0.s 			page 14


 188      491DCFAA 
 188      2BD2
 189 04a4 00F1F924 		.ascii	"\000\361\371$9\216\252\3531%D6\307_\325\365h\200\270"
 189      398EAAEB 
 189      31254436 
 189      C75FD5F5 
 189      6880B8
 190 04b7 3C498E97 		.ascii	"<I\216\227\324\365\230\022\"\233cD]\217\006\210k\223"
 190      D4F59812 
 190      229B6344 
 190      5D8F0688 
 190      6B93
 191 04c9 E4785D5D 		.ascii	"\344x]]\217)!j8v\350\336\312\302\353\361\306>\251y\032"
 191      8F29216A 
 191      3876E8DE 
 191      CAC2EBF1 
 191      C63EA979 
 192 04de AC8F0A3B 		.ascii	"\254\217\012;\235cw\002G\001\356\347R\177l\274\313\261"
 192      9D637702 
 192      4701EEE7 
 192      527F6CBC 
 192      CBB1
 193 04f0 1E1BFAF7 		.ascii	"\036\033\372\367`\305\017\347\265j\010\325\304'\243"
 193      60C50FE7 
 193      B56A08D5 
 193      C427A3
 194 04ff D4D7B364 		.ascii	"\324\327\263d\355Pd\235$\262N\250!T\223XV{\222\210w"
 194      ED50649D 
 194      24B24EA8 
 194      21549358 
 194      567B9288 
 195 0514 D5104A09 		.ascii	"\325\020J\011\2219Q\005\321\363$\252\211\322l\355D\305"
 195      91395105 
 195      D1F324AA 
 195      89D26CED 
 195      44C5
 196 0526 2675D18E 		.ascii	"&u\321\216\002\3740\215\211\372\2109Q\312\2677\275\037"
 196      02FC308D 
 196      89FA8839 
 196      51CAB737 
 196      BD1F
 197 0538 12E1BE1A 		.ascii	"\022\341\276\032\3655\0146J\275\222\251kb\025\302*\334"
 197      F5350C36 
 197      4ABD92A9 
 197      6B6215C2 
 197      2ADC
 198 054a BC842AC4 		.ascii	"\274\204*\3048\0120\234\206\012]L\025x\235\012]\252"
 198      380A309C 
 198      860A5D4C 
 198      15789D0A 
 198      5DAA
 199 055c 0AFFA93B 		.ascii	"\012\377\251;U\015\203\215R\337\302R\201\276\205a\316"
 199      550D838D 
 199      52DFC252 
 199      81BE8561 
 199      CE
 200 056d 02FC997C 		.ascii	"\002\374\231|\362#[\225\021d\023kyE\355,\"O\367*\203"
ARM GAS  /tmp/ccQGEYF0.s 			page 15


 200      F2235B95 
 200      1164136B 
 200      7945ED2C 
 200      224FF72A 
 201 0582 05DB16F7 		.ascii	"\005\333\026\367=9\366\320&\\\002\274\2132\242\371\002"
 201      3D39F6D0 
 201      265C02BC 
 201      8B32A2F9 
 201      02
 202 0593 BC4792DE 		.ascii	"\274G\222\336\373\304> \366!\261S\304>\"V\344\260m!"
 202      FBC43E20 
 202      F621B153 
 202      C43E2256 
 202      E4B06D21 
 203 05a7 7617B1BB 		.ascii	"v\027\261\273\211m#v\017\261\373\210}\233\330vb;\211"
 203      896D2376 
 203      0FB1FB88 
 203      7D9BD876 
 203      623B89
 204 05ba 7D8FD8F7 		.ascii	"}\217\330\367\211=Hl7\261\2078V\232=\2210\315>\302\321"
 204      893D486C 
 204      37B18738 
 204      569A3D91 
 204      30CD3EC2 
 205 05cf ECF519D0 		.ascii	"\354\365\031\320%\216\216\266\213-y-\221\351\351Ej6"
 205      258E8EB6 
 205      8B2D792D 
 205      91E9E945 
 205      6A36
 206 05e1 4D3F76F6 		.ascii	"M?v\366\033}\033\025\243\276\215\346\261\274\005\330"
 206      1B7D1B15 
 206      A3BE8DE6 
 206      B1BC05D8 
 207 05f1 C3E10CF2 		.ascii	"\303\341\014\362\023\315r\223\353\264*}\031\335\315"
 207      13CD7293 
 207      EBB42A7D 
 207      19DDCD
 208 0600 63FFA87F 		.ascii	"c\377\250\177\215\310\344\215Z+}\337P\227\316\323\272"
 208      8DC8E48D 
 208      5A2B7DDF 
 208      5097CED3 
 208      BA
 209 0611 20C26F0A 		.ascii	" \302o\012\330\233\351(\300\317\322\010\242^f\020\345"
 209      D89BE928 
 209      C0CFD208 
 209      A25E6610 
 209      E5
 210 0622 EBF8F7AA 		.ascii	"\353\370\367\252A\264\227W\276\214\217u\376>hb\022\342"
 210      41B49757 
 210      BE8C8F75 
 210      FE3E6862 
 210      12E2
 211 0634 4007AFE4 		.ascii	"@\007\257\344\373O\340J\366v\237?T\274\322\035\312|"
 211      FB4FE04A 
 211      F6769F3F 
 211      54BCD21D 
 211      CA7C
ARM GAS  /tmp/ccQGEYF0.s 			page 16


 212 0646 A9625381 		.ascii	"\251bS\201\015\204,\201\246\220\305\352,\267\274\352"
 212      0D842C81 
 212      A690C5EA 
 212      2CB7BCEA 
 213 0656 F114D606 		.ascii	"\361\024\326\006\033\013\375\001\277\267\320[[\347+"
 213      1B0BFD01 
 213      BFB7D05B 
 213      5BE72B
 214 0665 2C71AF29 		.ascii	",q\257)\\\271|E\361k\305\226:\237\337RTdi\360\325a?"
 214      5CB97C45 
 214      F16BC596 
 214      3A9FDF52 
 214      546469F0 
 215 067c 8BCECF52 		.ascii	"\213\316\317RR\264\246\250\004\337\246\177\372\373>"
 215      52B4A6A8 
 215      04DFA67F 
 215      FAFB3E
 216 068b BFA761FB 		.ascii	"\277\247a\373V\257\2459\264\025u^T\017f\373_\367y\312"
 216      56AFA539 
 216      B415755E 
 216      540F66FB 
 216      5FF779CA 
 217 069f FCB5750D 		.ascii	"\374\265u\015\336j\257'\024\010\276H[\006\232-\365\265"
 217      DE6AAF27 
 217      1408BE48 
 217      5B069A2D 
 217      F5B5
 218 06b1 0D96A640 		.ascii	"\015\226\246@0\324l\361\004\032\033\003~\314\316V\276"
 218      30D46CF1 
 218      041A1B03 
 218      7ECCCE56 
 218      BE
 219 06c2 C3821B15 		.ascii	"\303\202\033\025y\000\364\363MA_`\016>-\3655\253 \371"
 219      7900F4F3 
 219      4D415F60 
 219      0E3E2DF5 
 219      35AB20F9 
 220 06d6 F88ACB1B 		.ascii	"\370\212\313\033r\355l\016y\033\355\265\376\255\015"
 220      72ED6C0E 
 220      791BEDB5 
 220      FEAD0D
 221 06e5 DE602572 		.ascii	"\336`%r\015\372B;\263\352\245\363,<\376\265\356\220"
 221      0DFA423B 
 221      B3EAA5F3 
 221      2C3CFEB5 
 221      EE90
 222 06f7 B9A2DA61 		.ascii	"\271\242\332asW\355l\362\276\240\355\333\273#d\261\225"
 222      7357ED6C 
 222      F2BEA0ED 
 222      DBBB2364 
 222      B195
 223 0709 BB1C2E4A 		.ascii	"\273\034.J\332\023\010z\335\236\306bD\233w\270\312\234"
 223      DA13087A 
 223      DD9EC662 
 223      449B77B8 
 223      CA9C
 224 071b 666719B2 		.ascii	"fg\031\262\325e\245\313y\207\255\314\231\355\224\316"
ARM GAS  /tmp/ccQGEYF0.s 			page 17


 224      D565A5CB 
 224      7987ADCC 
 224      99ED94CE 
 225 072b 56A09B95 		.ascii	"V\240\233\225\352\315\225\350\246\346\264\230wX7\250"
 225      EACD95E8 
 225      A6E6B498 
 225      775837A8 
 226 073b A7259CA3 		.ascii	"\247%\234\243\222\236\254\342]U\016g\266\313\266\201"
 226      929EACE2 
 226      5D550E67 
 226      B6CBB681 
 227 074b D0C9B055 		.ascii	"\320\311\260Unr\224\242\346.'_]\365\2623\303\352p\332"
 227      6E7294A2 
 227      E62E275F 
 227      5DF5B233 
 227      C3EA70DA 
 228 075f 9C26172A 		.ascii	"\234&\027*6\374k\257\314p\331\361M\333Fd\354\330\224"
 228      36FC6BAF 
 228      CC70D9F1 
 228      4DDB4664 
 228      ECD894
 229 0772 2293515E 		.ascii	"\"\223Q^\276\321\352\3447`cE\347\246\312\215NS)*\326"
 229      BED1EAE4 
 229      37606345 
 229      E7A6CA8D 
 229      4E53292A 
 230 0787 52278FEE 		.ascii	"R'\217\3569\021?\253\023\201[mN\336S_\033\314v\273\267"
 230      39113FAB 
 230      13815B6D 
 230      4EDE535F 
 230      1BCC76BB 
 231 079c 6DF77BDC 		.ascii	"m\367{\334\356\231J\245hu\311\352\222\377\001\026N\261"
 231      EE994AA5 
 231      6875C9EA 
 231      92FF0116 
 231      4EB1
 232 07ae 14       		.ascii	"\024"
 233              		.text
 234              		.section	.gnu.lto_.symtab.4397aaa1ec4c42cd,"",%progbits
 235 0000 6E766963 		.ascii	"nvicEnableVector\000\000\000\000\000\000\000\000\000"
 235      456E6162 
 235      6C655665 
 235      63746F72 
 235      00000000 
 236 0019 000000A0 		.ascii	"\000\000\000\240\000\000\000nvicDisableVector\000\000"
 236      0000006E 
 236      76696344 
 236      69736162 
 236      6C655665 
 237 0033 00000000 		.ascii	"\000\000\000\000\000\000\000\000\000\000\256\000\000"
 237      00000000 
 237      0000AE00 
 237      00
 238 0040 006E7669 		.ascii	"\000nvicSetSystemHandlerPriority\000\000\000\000\000"
 238      63536574 
 238      53797374 
 238      656D4861 
ARM GAS  /tmp/ccQGEYF0.s 			page 18


 238      6E646C65 
 239 0062 00000000 		.ascii	"\000\000\000\000\000\000\000\264\000\000\000"
 239      000000B4 
 239      000000
 240              		.text
 241              		.section	.gnu.lto_.opts,"",%progbits
 242 0000 272D6D63 		.ascii	"'-mcpu=cortex-m3''-mno-thumb-interwork''-mthumb''-g"
 242      70753D63 
 242      6F727465 
 242      782D6D33 
 242      27272D6D 
 243 0033 67646227 		.ascii	"gdb''-O2''-fomit-frame-pointer''-falign-functions=1"
 243      272D4F32 
 243      27272D66 
 243      6F6D6974 
 243      2D667261 
 244 0066 3627272D 		.ascii	"6''-ffunction-sections''-fdata-sections''-fno-commo"
 244      6666756E 
 244      6374696F 
 244      6E2D7365 
 244      6374696F 
 245 0099 6E27272D 		.ascii	"n''-flto'\000"
 245      666C746F 
 245      2700
 246              		.text
 247              		.cfi_sections	.debug_frame
 248              		.section	.text.nvicEnableVector,"ax",%progbits
 249              		.align	2
 250              		.p2align 4,,15
 251              		.global	nvicEnableVector
 252              		.thumb
 253              		.thumb_func
 254              		.type	nvicEnableVector, %function
 255              	nvicEnableVector:
 256              	.LFB194:
 257              		.file 1 "../../../os/hal/ports/common/ARMCMx/nvic.c"
 258              		.loc 1 57 0
 259              		.cfi_startproc
 260              		@ args = 0, pretend = 0, frame = 0
 261              		@ frame_needed = 0, uses_anonymous_args = 0
 262              		@ link register save eliminated.
 263              	.LVL0:
 264 0000 30B4     		push	{r4, r5}
 265              	.LCFI0:
 266              		.cfi_def_cfa_offset 8
 267              		.cfi_offset 4, -8
 268              		.cfi_offset 5, -4
 269              		.loc 1 60 0
 270 0002 00F01F03 		and	r3, r0, #31
 271 0006 0124     		movs	r4, #1
 272 0008 04FA03F4 		lsl	r4, r4, r3
 273              		.loc 1 59 0
 274 000c 4FF46143 		mov	r3, #57600
 275 0010 CEF20003 		movt	r3, 57344
 276              		.loc 1 60 0
 277 0014 4209     		lsrs	r2, r0, #5
 278              		.loc 1 59 0
ARM GAS  /tmp/ccQGEYF0.s 			page 19


 279 0016 0901     		lsls	r1, r1, #4
 280              	.LVL1:
 281 0018 C9B2     		uxtb	r1, r1
 282 001a 1818     		adds	r0, r3, r0
 283              	.LVL2:
 284              		.loc 1 60 0
 285 001c 02F16005 		add	r5, r2, #96
 286              		.loc 1 59 0
 287 0020 80F80013 		strb	r1, [r0, #768]
 288              		.loc 1 60 0
 289 0024 43F82540 		str	r4, [r3, r5, lsl #2]
 290              		.loc 1 61 0
 291 0028 43F82240 		str	r4, [r3, r2, lsl #2]
 292              		.loc 1 62 0
 293 002c 30BC     		pop	{r4, r5}
 294 002e 7047     		bx	lr
 295              		.cfi_endproc
 296              	.LFE194:
 297              		.size	nvicEnableVector, .-nvicEnableVector
 298              		.section	.text.nvicDisableVector,"ax",%progbits
 299              		.align	2
 300              		.p2align 4,,15
 301              		.global	nvicDisableVector
 302              		.thumb
 303              		.thumb_func
 304              		.type	nvicDisableVector, %function
 305              	nvicDisableVector:
 306              	.LFB195:
 307              		.loc 1 69 0
 308              		.cfi_startproc
 309              		@ args = 0, pretend = 0, frame = 0
 310              		@ frame_needed = 0, uses_anonymous_args = 0
 311              		@ link register save eliminated.
 312              	.LVL3:
 313              		.loc 1 71 0
 314 0000 00F01F03 		and	r3, r0, #31
 315 0004 0121     		movs	r1, #1
 316 0006 01FA03F1 		lsl	r1, r1, r3
 317 000a 4209     		lsrs	r2, r0, #5
 318 000c 4FF46143 		mov	r3, #57600
 319 0010 CEF20003 		movt	r3, 57344
 320 0014 2032     		adds	r2, r2, #32
 321 0016 43F82210 		str	r1, [r3, r2, lsl #2]
 322              		.loc 1 72 0
 323 001a 1818     		adds	r0, r3, r0
 324              	.LVL4:
 325 001c 0021     		movs	r1, #0
 326 001e 80F80013 		strb	r1, [r0, #768]
 327 0022 7047     		bx	lr
 328              		.cfi_endproc
 329              	.LFE195:
 330              		.size	nvicDisableVector, .-nvicDisableVector
 331 0024 AFF30080 		.section	.text.nvicSetSystemHandlerPriority,"ax",%progbits
 331      AFF30080 
 331      AFF30080 
 332              		.align	2
 333              		.p2align 4,,15
ARM GAS  /tmp/ccQGEYF0.s 			page 20


 334              		.global	nvicSetSystemHandlerPriority
 335              		.thumb
 336              		.thumb_func
 337              		.type	nvicSetSystemHandlerPriority, %function
 338              	nvicSetSystemHandlerPriority:
 339              	.LFB196:
 340              		.loc 1 81 0
 341              		.cfi_startproc
 342              		@ args = 0, pretend = 0, frame = 0
 343              		@ frame_needed = 0, uses_anonymous_args = 0
 344              		@ link register save eliminated.
 345              	.LVL5:
 346              		.loc 1 85 0
 347 0000 0901     		lsls	r1, r1, #4
 348              	.LVL6:
 349 0002 00F16040 		add	r0, r0, #-536870912
 350              	.LVL7:
 351 0006 CAB2     		uxtb	r2, r1
 352 0008 00F56D43 		add	r3, r0, #60672
 353 000c 1A76     		strb	r2, [r3, #24]
 354 000e 7047     		bx	lr
 355              		.cfi_endproc
 356              	.LFE196:
 357              		.size	nvicSetSystemHandlerPriority, .-nvicSetSystemHandlerPriority
 358              		.text
 359              	.Letext0:
 360              		.file 2 "/opt/ARM/gcc-arm-none-eabi-4_7-2013q3/bin/../lib/gcc/arm-none-eabi/4.7.4/../../../../arm-
 361              		.file 3 "../../../os/rt/include/chschd.h"
 362              		.file 4 "../../../os/rt/ports/ARMCMx/compilers/GCC/chtypes.h"
 363              		.file 5 "../../../os/ext/CMSIS/include/core_cm3.h"
 364              		.file 6 "../../../os/rt/ports/ARMCMx/chcore.h"
 365              		.file 7 "../../../os/rt/ports/ARMCMx/chcore_v7m.h"
 366              		.file 8 "../../../os/rt/include/chmtx.h"
 367              		.section	.debug_info,"",%progbits
 368              	.Ldebug_info0:
 369 0000 20090000 		.4byte	0x920
 370 0004 0200     		.2byte	0x2
 371 0006 00000000 		.4byte	.Ldebug_abbrev0
 372 000a 04       		.byte	0x4
 373 000b 01       		.uleb128 0x1
 374 000c D1000000 		.4byte	.LASF112
 375 0010 01       		.byte	0x1
 376 0011 20040000 		.4byte	.LASF113
 377 0015 B7030000 		.4byte	.LASF114
 378 0019 00000000 		.4byte	.Ldebug_ranges0+0
 379 001d 00000000 		.4byte	0
 380 0021 00000000 		.4byte	0
 381 0025 00000000 		.4byte	.Ldebug_line0
 382 0029 02       		.uleb128 0x2
 383 002a 04       		.byte	0x4
 384 002b 05       		.byte	0x5
 385 002c 696E7400 		.ascii	"int\000"
 386 0030 03       		.uleb128 0x3
 387 0031 04       		.byte	0x4
 388 0032 07       		.byte	0x7
 389 0033 82010000 		.4byte	.LASF0
 390 0037 03       		.uleb128 0x3
ARM GAS  /tmp/ccQGEYF0.s 			page 21


 391 0038 01       		.byte	0x1
 392 0039 06       		.byte	0x6
 393 003a B5000000 		.4byte	.LASF1
 394 003e 04       		.uleb128 0x4
 395 003f 95040000 		.4byte	.LASF4
 396 0043 02       		.byte	0x2
 397 0044 2A       		.byte	0x2a
 398 0045 49000000 		.4byte	0x49
 399 0049 03       		.uleb128 0x3
 400 004a 01       		.byte	0x1
 401 004b 08       		.byte	0x8
 402 004c A9020000 		.4byte	.LASF2
 403 0050 03       		.uleb128 0x3
 404 0051 02       		.byte	0x2
 405 0052 05       		.byte	0x5
 406 0053 DC020000 		.4byte	.LASF3
 407 0057 04       		.uleb128 0x4
 408 0058 3D010000 		.4byte	.LASF5
 409 005c 02       		.byte	0x2
 410 005d 36       		.byte	0x36
 411 005e 62000000 		.4byte	0x62
 412 0062 03       		.uleb128 0x3
 413 0063 02       		.byte	0x2
 414 0064 07       		.byte	0x7
 415 0065 2F030000 		.4byte	.LASF6
 416 0069 04       		.uleb128 0x4
 417 006a A1020000 		.4byte	.LASF7
 418 006e 02       		.byte	0x2
 419 006f 4F       		.byte	0x4f
 420 0070 74000000 		.4byte	0x74
 421 0074 03       		.uleb128 0x3
 422 0075 04       		.byte	0x4
 423 0076 05       		.byte	0x5
 424 0077 24010000 		.4byte	.LASF8
 425 007b 04       		.uleb128 0x4
 426 007c 57030000 		.4byte	.LASF9
 427 0080 02       		.byte	0x2
 428 0081 50       		.byte	0x50
 429 0082 86000000 		.4byte	0x86
 430 0086 03       		.uleb128 0x3
 431 0087 04       		.byte	0x4
 432 0088 07       		.byte	0x7
 433 0089 71030000 		.4byte	.LASF10
 434 008d 03       		.uleb128 0x3
 435 008e 08       		.byte	0x8
 436 008f 05       		.byte	0x5
 437 0090 A7000000 		.4byte	.LASF11
 438 0094 03       		.uleb128 0x3
 439 0095 08       		.byte	0x8
 440 0096 07       		.byte	0x7
 441 0097 49000000 		.4byte	.LASF12
 442 009b 05       		.uleb128 0x5
 443 009c 36010000 		.4byte	.LASF68
 444 00a0 44       		.byte	0x44
 445 00a1 03       		.byte	0x3
 446 00a2 79       		.byte	0x79
 447 00a3 A4010000 		.4byte	0x1a4
ARM GAS  /tmp/ccQGEYF0.s 			page 22


 448 00a7 06       		.uleb128 0x6
 449 00a8 20030000 		.4byte	.LASF13
 450 00ac 03       		.byte	0x3
 451 00ad 7A       		.byte	0x7a
 452 00ae FA050000 		.4byte	0x5fa
 453 00b2 02       		.byte	0x2
 454 00b3 23       		.byte	0x23
 455 00b4 00       		.uleb128 0
 456 00b5 06       		.uleb128 0x6
 457 00b6 86020000 		.4byte	.LASF14
 458 00ba 03       		.byte	0x3
 459 00bb 7C       		.byte	0x7c
 460 00bc FA050000 		.4byte	0x5fa
 461 00c0 02       		.byte	0x2
 462 00c1 23       		.byte	0x23
 463 00c2 04       		.uleb128 0x4
 464 00c3 06       		.uleb128 0x6
 465 00c4 8A000000 		.4byte	.LASF15
 466 00c8 03       		.byte	0x3
 467 00c9 7E       		.byte	0x7e
 468 00ca DA010000 		.4byte	0x1da
 469 00ce 02       		.byte	0x2
 470 00cf 23       		.byte	0x23
 471 00d0 08       		.uleb128 0x8
 472 00d1 06       		.uleb128 0x6
 473 00d2 D2040000 		.4byte	.LASF16
 474 00d6 03       		.byte	0x3
 475 00d7 7F       		.byte	0x7f
 476 00d8 27050000 		.4byte	0x527
 477 00dc 02       		.byte	0x2
 478 00dd 23       		.byte	0x23
 479 00de 0C       		.uleb128 0xc
 480 00df 06       		.uleb128 0x6
 481 00e0 46010000 		.4byte	.LASF17
 482 00e4 03       		.byte	0x3
 483 00e5 81       		.byte	0x81
 484 00e6 FA050000 		.4byte	0x5fa
 485 00ea 02       		.byte	0x2
 486 00eb 23       		.byte	0x23
 487 00ec 10       		.uleb128 0x10
 488 00ed 06       		.uleb128 0x6
 489 00ee 36020000 		.4byte	.LASF18
 490 00f2 03       		.byte	0x3
 491 00f3 82       		.byte	0x82
 492 00f4 FA050000 		.4byte	0x5fa
 493 00f8 02       		.byte	0x2
 494 00f9 23       		.byte	0x23
 495 00fa 14       		.uleb128 0x14
 496 00fb 06       		.uleb128 0x6
 497 00fc B2040000 		.4byte	.LASF19
 498 0100 03       		.byte	0x3
 499 0101 89       		.byte	0x89
 500 0102 CA060000 		.4byte	0x6ca
 501 0106 02       		.byte	0x2
 502 0107 23       		.byte	0x23
 503 0108 18       		.uleb128 0x18
 504 0109 06       		.uleb128 0x6
ARM GAS  /tmp/ccQGEYF0.s 			page 23


 505 010a CA020000 		.4byte	.LASF20
 506 010e 03       		.byte	0x3
 507 010f 94       		.byte	0x94
 508 0110 C4010000 		.4byte	0x1c4
 509 0114 02       		.byte	0x2
 510 0115 23       		.byte	0x23
 511 0116 1C       		.uleb128 0x1c
 512 0117 06       		.uleb128 0x6
 513 0118 27030000 		.4byte	.LASF21
 514 011c 03       		.byte	0x3
 515 011d 98       		.byte	0x98
 516 011e B9010000 		.4byte	0x1b9
 517 0122 02       		.byte	0x2
 518 0123 23       		.byte	0x23
 519 0124 1D       		.uleb128 0x1d
 520 0125 06       		.uleb128 0x6
 521 0126 83040000 		.4byte	.LASF22
 522 012a 03       		.byte	0x3
 523 012b 9D       		.byte	0x9d
 524 012c CF010000 		.4byte	0x1cf
 525 0130 02       		.byte	0x2
 526 0131 23       		.byte	0x23
 527 0132 1E       		.uleb128 0x1e
 528 0133 07       		.uleb128 0x7
 529 0134 705F7500 		.ascii	"p_u\000"
 530 0138 03       		.byte	0x3
 531 0139 CF       		.byte	0xcf
 532 013a 95060000 		.4byte	0x695
 533 013e 02       		.byte	0x2
 534 013f 23       		.byte	0x23
 535 0140 20       		.uleb128 0x20
 536 0141 06       		.uleb128 0x6
 537 0142 0D020000 		.4byte	.LASF23
 538 0146 03       		.byte	0x3
 539 0147 D4       		.byte	0xd4
 540 0148 22060000 		.4byte	0x622
 541 014c 02       		.byte	0x2
 542 014d 23       		.byte	0x23
 543 014e 24       		.uleb128 0x24
 544 014f 06       		.uleb128 0x6
 545 0150 A9010000 		.4byte	.LASF24
 546 0154 03       		.byte	0x3
 547 0155 DA       		.byte	0xda
 548 0156 00060000 		.4byte	0x600
 549 015a 02       		.byte	0x2
 550 015b 23       		.byte	0x23
 551 015c 28       		.uleb128 0x28
 552 015d 06       		.uleb128 0x6
 553 015e B9040000 		.4byte	.LASF25
 554 0162 03       		.byte	0x3
 555 0163 DE       		.byte	0xde
 556 0164 E5010000 		.4byte	0x1e5
 557 0168 02       		.byte	0x2
 558 0169 23       		.byte	0x23
 559 016a 30       		.uleb128 0x30
 560 016b 06       		.uleb128 0x6
 561 016c 42030000 		.4byte	.LASF26
ARM GAS  /tmp/ccQGEYF0.s 			page 24


 562 0170 03       		.byte	0x3
 563 0171 E4       		.byte	0xe4
 564 0172 F0010000 		.4byte	0x1f0
 565 0176 02       		.byte	0x2
 566 0177 23       		.byte	0x23
 567 0178 34       		.uleb128 0x34
 568 0179 06       		.uleb128 0x6
 569 017a D2020000 		.4byte	.LASF27
 570 017e 03       		.byte	0x3
 571 017f EB       		.byte	0xeb
 572 0180 13070000 		.4byte	0x713
 573 0184 02       		.byte	0x2
 574 0185 23       		.byte	0x23
 575 0186 38       		.uleb128 0x38
 576 0187 06       		.uleb128 0x6
 577 0188 A3030000 		.4byte	.LASF28
 578 018c 03       		.byte	0x3
 579 018d EF       		.byte	0xef
 580 018e DA010000 		.4byte	0x1da
 581 0192 02       		.byte	0x2
 582 0193 23       		.byte	0x23
 583 0194 3C       		.uleb128 0x3c
 584 0195 06       		.uleb128 0x6
 585 0196 C1000000 		.4byte	.LASF29
 586 019a 03       		.byte	0x3
 587 019b F5       		.byte	0xf5
 588 019c 25050000 		.4byte	0x525
 589 01a0 02       		.byte	0x2
 590 01a1 23       		.byte	0x23
 591 01a2 40       		.uleb128 0x40
 592 01a3 00       		.byte	0
 593 01a4 08       		.uleb128 0x8
 594 01a5 69000000 		.4byte	0x69
 595 01a9 08       		.uleb128 0x8
 596 01aa 7B000000 		.4byte	0x7b
 597 01ae 04       		.uleb128 0x4
 598 01af 18040000 		.4byte	.LASF30
 599 01b3 04       		.byte	0x4
 600 01b4 46       		.byte	0x46
 601 01b5 7B000000 		.4byte	0x7b
 602 01b9 04       		.uleb128 0x4
 603 01ba E1010000 		.4byte	.LASF31
 604 01be 04       		.byte	0x4
 605 01bf 49       		.byte	0x49
 606 01c0 3E000000 		.4byte	0x3e
 607 01c4 04       		.uleb128 0x4
 608 01c5 2D010000 		.4byte	.LASF32
 609 01c9 04       		.byte	0x4
 610 01ca 4A       		.byte	0x4a
 611 01cb 3E000000 		.4byte	0x3e
 612 01cf 04       		.uleb128 0x4
 613 01d0 56020000 		.4byte	.LASF33
 614 01d4 04       		.byte	0x4
 615 01d5 4B       		.byte	0x4b
 616 01d6 3E000000 		.4byte	0x3e
 617 01da 04       		.uleb128 0x4
 618 01db 8D020000 		.4byte	.LASF34
ARM GAS  /tmp/ccQGEYF0.s 			page 25


 619 01df 04       		.byte	0x4
 620 01e0 4D       		.byte	0x4d
 621 01e1 7B000000 		.4byte	0x7b
 622 01e5 04       		.uleb128 0x4
 623 01e6 BE010000 		.4byte	.LASF35
 624 01ea 04       		.byte	0x4
 625 01eb 4E       		.byte	0x4e
 626 01ec 69000000 		.4byte	0x69
 627 01f0 04       		.uleb128 0x4
 628 01f1 E9010000 		.4byte	.LASF36
 629 01f5 04       		.byte	0x4
 630 01f6 50       		.byte	0x50
 631 01f7 7B000000 		.4byte	0x7b
 632 01fb 09       		.uleb128 0x9
 633 01fc 040E     		.2byte	0xe04
 634 01fe 05       		.byte	0x5
 635 01ff 2801     		.2byte	0x128
 636 0201 D3020000 		.4byte	0x2d3
 637 0205 0A       		.uleb128 0xa
 638 0206 E6020000 		.4byte	.LASF37
 639 020a 05       		.byte	0x5
 640 020b 2A01     		.2byte	0x12a
 641 020d EA020000 		.4byte	0x2ea
 642 0211 02       		.byte	0x2
 643 0212 23       		.byte	0x23
 644 0213 00       		.uleb128 0
 645 0214 0A       		.uleb128 0xa
 646 0215 5E020000 		.4byte	.LASF38
 647 0219 05       		.byte	0x5
 648 021a 2B01     		.2byte	0x12b
 649 021c EF020000 		.4byte	0x2ef
 650 0220 02       		.byte	0x2
 651 0221 23       		.byte	0x23
 652 0222 20       		.uleb128 0x20
 653 0223 0A       		.uleb128 0xa
 654 0224 44020000 		.4byte	.LASF39
 655 0228 05       		.byte	0x5
 656 0229 2C01     		.2byte	0x12c
 657 022b FF020000 		.4byte	0x2ff
 658 022f 03       		.byte	0x3
 659 0230 23       		.byte	0x23
 660 0231 8001     		.uleb128 0x80
 661 0233 0A       		.uleb128 0xa
 662 0234 9D040000 		.4byte	.LASF40
 663 0238 05       		.byte	0x5
 664 0239 2D01     		.2byte	0x12d
 665 023b EF020000 		.4byte	0x2ef
 666 023f 03       		.byte	0x3
 667 0240 23       		.byte	0x23
 668 0241 A001     		.uleb128 0xa0
 669 0243 0A       		.uleb128 0xa
 670 0244 85000000 		.4byte	.LASF41
 671 0248 05       		.byte	0x5
 672 0249 2E01     		.2byte	0x12e
 673 024b 04030000 		.4byte	0x304
 674 024f 03       		.byte	0x3
 675 0250 23       		.byte	0x23
ARM GAS  /tmp/ccQGEYF0.s 			page 26


 676 0251 8002     		.uleb128 0x100
 677 0253 0A       		.uleb128 0xa
 678 0254 68020000 		.4byte	.LASF42
 679 0258 05       		.byte	0x5
 680 0259 2F01     		.2byte	0x12f
 681 025b EF020000 		.4byte	0x2ef
 682 025f 03       		.byte	0x3
 683 0260 23       		.byte	0x23
 684 0261 A002     		.uleb128 0x120
 685 0263 0A       		.uleb128 0xa
 686 0264 0F000000 		.4byte	.LASF43
 687 0268 05       		.byte	0x5
 688 0269 3001     		.2byte	0x130
 689 026b 09030000 		.4byte	0x309
 690 026f 03       		.byte	0x3
 691 0270 23       		.byte	0x23
 692 0271 8003     		.uleb128 0x180
 693 0273 0A       		.uleb128 0xa
 694 0274 72020000 		.4byte	.LASF44
 695 0278 05       		.byte	0x5
 696 0279 3101     		.2byte	0x131
 697 027b EF020000 		.4byte	0x2ef
 698 027f 03       		.byte	0x3
 699 0280 23       		.byte	0x23
 700 0281 A003     		.uleb128 0x1a0
 701 0283 0A       		.uleb128 0xa
 702 0284 25020000 		.4byte	.LASF45
 703 0288 05       		.byte	0x5
 704 0289 3201     		.2byte	0x132
 705 028b 0E030000 		.4byte	0x30e
 706 028f 03       		.byte	0x3
 707 0290 23       		.byte	0x23
 708 0291 8004     		.uleb128 0x200
 709 0293 0A       		.uleb128 0xa
 710 0294 7C020000 		.4byte	.LASF46
 711 0298 05       		.byte	0x5
 712 0299 3301     		.2byte	0x133
 713 029b 13030000 		.4byte	0x313
 714 029f 03       		.byte	0x3
 715 02a0 23       		.byte	0x23
 716 02a1 A004     		.uleb128 0x220
 717 02a3 0B       		.uleb128 0xb
 718 02a4 495000   		.ascii	"IP\000"
 719 02a7 05       		.byte	0x5
 720 02a8 3401     		.2byte	0x134
 721 02aa 33030000 		.4byte	0x333
 722 02ae 03       		.byte	0x3
 723 02af 23       		.byte	0x23
 724 02b0 8006     		.uleb128 0x300
 725 02b2 0A       		.uleb128 0xa
 726 02b3 4D030000 		.4byte	.LASF47
 727 02b7 05       		.byte	0x5
 728 02b8 3501     		.2byte	0x135
 729 02ba 38030000 		.4byte	0x338
 730 02be 03       		.byte	0x3
 731 02bf 23       		.byte	0x23
 732 02c0 F007     		.uleb128 0x3f0
ARM GAS  /tmp/ccQGEYF0.s 			page 27


 733 02c2 0A       		.uleb128 0xa
 734 02c3 A6040000 		.4byte	.LASF48
 735 02c7 05       		.byte	0x5
 736 02c8 3601     		.2byte	0x136
 737 02ca A9010000 		.4byte	0x1a9
 738 02ce 03       		.byte	0x3
 739 02cf 23       		.byte	0x23
 740 02d0 801C     		.uleb128 0xe00
 741 02d2 00       		.byte	0
 742 02d3 0C       		.uleb128 0xc
 743 02d4 7B000000 		.4byte	0x7b
 744 02d8 E3020000 		.4byte	0x2e3
 745 02dc 0D       		.uleb128 0xd
 746 02dd E3020000 		.4byte	0x2e3
 747 02e1 07       		.byte	0x7
 748 02e2 00       		.byte	0
 749 02e3 03       		.uleb128 0x3
 750 02e4 04       		.byte	0x4
 751 02e5 07       		.byte	0x7
 752 02e6 17020000 		.4byte	.LASF49
 753 02ea 08       		.uleb128 0x8
 754 02eb D3020000 		.4byte	0x2d3
 755 02ef 0C       		.uleb128 0xc
 756 02f0 7B000000 		.4byte	0x7b
 757 02f4 FF020000 		.4byte	0x2ff
 758 02f8 0D       		.uleb128 0xd
 759 02f9 E3020000 		.4byte	0x2e3
 760 02fd 17       		.byte	0x17
 761 02fe 00       		.byte	0
 762 02ff 08       		.uleb128 0x8
 763 0300 D3020000 		.4byte	0x2d3
 764 0304 08       		.uleb128 0x8
 765 0305 D3020000 		.4byte	0x2d3
 766 0309 08       		.uleb128 0x8
 767 030a D3020000 		.4byte	0x2d3
 768 030e 08       		.uleb128 0x8
 769 030f D3020000 		.4byte	0x2d3
 770 0313 0C       		.uleb128 0xc
 771 0314 7B000000 		.4byte	0x7b
 772 0318 23030000 		.4byte	0x323
 773 031c 0D       		.uleb128 0xd
 774 031d E3020000 		.4byte	0x2e3
 775 0321 37       		.byte	0x37
 776 0322 00       		.byte	0
 777 0323 0C       		.uleb128 0xc
 778 0324 3E000000 		.4byte	0x3e
 779 0328 33030000 		.4byte	0x333
 780 032c 0D       		.uleb128 0xd
 781 032d E3020000 		.4byte	0x2e3
 782 0331 EF       		.byte	0xef
 783 0332 00       		.byte	0
 784 0333 08       		.uleb128 0x8
 785 0334 23030000 		.4byte	0x323
 786 0338 0C       		.uleb128 0xc
 787 0339 7B000000 		.4byte	0x7b
 788 033d 49030000 		.4byte	0x349
 789 0341 0E       		.uleb128 0xe
ARM GAS  /tmp/ccQGEYF0.s 			page 28


 790 0342 E3020000 		.4byte	0x2e3
 791 0346 8302     		.2byte	0x283
 792 0348 00       		.byte	0
 793 0349 0F       		.uleb128 0xf
 794 034a EB020000 		.4byte	.LASF50
 795 034e 05       		.byte	0x5
 796 034f 3701     		.2byte	0x137
 797 0351 FB010000 		.4byte	0x1fb
 798 0355 10       		.uleb128 0x10
 799 0356 8C       		.byte	0x8c
 800 0357 05       		.byte	0x5
 801 0358 4801     		.2byte	0x148
 802 035a 9B040000 		.4byte	0x49b
 803 035e 0A       		.uleb128 0xa
 804 035f 7F000000 		.4byte	.LASF51
 805 0363 05       		.byte	0x5
 806 0364 4A01     		.2byte	0x14a
 807 0366 9B040000 		.4byte	0x49b
 808 036a 02       		.byte	0x2
 809 036b 23       		.byte	0x23
 810 036c 00       		.uleb128 0
 811 036d 0A       		.uleb128 0xa
 812 036e B9010000 		.4byte	.LASF52
 813 0372 05       		.byte	0x5
 814 0373 4B01     		.2byte	0x14b
 815 0375 A9010000 		.4byte	0x1a9
 816 0379 02       		.byte	0x2
 817 037a 23       		.byte	0x23
 818 037b 04       		.uleb128 0x4
 819 037c 0A       		.uleb128 0xa
 820 037d B4010000 		.4byte	.LASF53
 821 0381 05       		.byte	0x5
 822 0382 4C01     		.2byte	0x14c
 823 0384 A9010000 		.4byte	0x1a9
 824 0388 02       		.byte	0x2
 825 0389 23       		.byte	0x23
 826 038a 08       		.uleb128 0x8
 827 038b 0A       		.uleb128 0xa
 828 038c C4010000 		.4byte	.LASF54
 829 0390 05       		.byte	0x5
 830 0391 4D01     		.2byte	0x14d
 831 0393 A9010000 		.4byte	0x1a9
 832 0397 02       		.byte	0x2
 833 0398 23       		.byte	0x23
 834 0399 0C       		.uleb128 0xc
 835 039a 0B       		.uleb128 0xb
 836 039b 53435200 		.ascii	"SCR\000"
 837 039f 05       		.byte	0x5
 838 03a0 4E01     		.2byte	0x14e
 839 03a2 A9010000 		.4byte	0x1a9
 840 03a6 02       		.byte	0x2
 841 03a7 23       		.byte	0x23
 842 03a8 10       		.uleb128 0x10
 843 03a9 0B       		.uleb128 0xb
 844 03aa 43435200 		.ascii	"CCR\000"
 845 03ae 05       		.byte	0x5
 846 03af 4F01     		.2byte	0x14f
ARM GAS  /tmp/ccQGEYF0.s 			page 29


 847 03b1 A9010000 		.4byte	0x1a9
 848 03b5 02       		.byte	0x2
 849 03b6 23       		.byte	0x23
 850 03b7 14       		.uleb128 0x14
 851 03b8 0B       		.uleb128 0xb
 852 03b9 53485000 		.ascii	"SHP\000"
 853 03bd 05       		.byte	0x5
 854 03be 5001     		.2byte	0x150
 855 03c0 B0040000 		.4byte	0x4b0
 856 03c4 02       		.byte	0x2
 857 03c5 23       		.byte	0x23
 858 03c6 18       		.uleb128 0x18
 859 03c7 0A       		.uleb128 0xa
 860 03c8 B7020000 		.4byte	.LASF55
 861 03cc 05       		.byte	0x5
 862 03cd 5101     		.2byte	0x151
 863 03cf A9010000 		.4byte	0x1a9
 864 03d3 02       		.byte	0x2
 865 03d4 23       		.byte	0x23
 866 03d5 24       		.uleb128 0x24
 867 03d6 0A       		.uleb128 0xa
 868 03d7 20020000 		.4byte	.LASF56
 869 03db 05       		.byte	0x5
 870 03dc 5201     		.2byte	0x152
 871 03de A9010000 		.4byte	0x1a9
 872 03e2 02       		.byte	0x2
 873 03e3 23       		.byte	0x23
 874 03e4 28       		.uleb128 0x28
 875 03e5 0A       		.uleb128 0xa
 876 03e6 C5040000 		.4byte	.LASF57
 877 03ea 05       		.byte	0x5
 878 03eb 5301     		.2byte	0x153
 879 03ed A9010000 		.4byte	0x1a9
 880 03f1 02       		.byte	0x2
 881 03f2 23       		.byte	0x23
 882 03f3 2C       		.uleb128 0x2c
 883 03f4 0A       		.uleb128 0xa
 884 03f5 CA010000 		.4byte	.LASF58
 885 03f9 05       		.byte	0x5
 886 03fa 5401     		.2byte	0x154
 887 03fc A9010000 		.4byte	0x1a9
 888 0400 02       		.byte	0x2
 889 0401 23       		.byte	0x23
 890 0402 30       		.uleb128 0x30
 891 0403 0A       		.uleb128 0xa
 892 0404 CF010000 		.4byte	.LASF59
 893 0408 05       		.byte	0x5
 894 0409 5501     		.2byte	0x155
 895 040b A9010000 		.4byte	0x1a9
 896 040f 02       		.byte	0x2
 897 0410 23       		.byte	0x23
 898 0411 34       		.uleb128 0x34
 899 0412 0A       		.uleb128 0xa
 900 0413 4E010000 		.4byte	.LASF60
 901 0417 05       		.byte	0x5
 902 0418 5601     		.2byte	0x156
 903 041a A9010000 		.4byte	0x1a9
ARM GAS  /tmp/ccQGEYF0.s 			page 30


 904 041e 02       		.byte	0x2
 905 041f 23       		.byte	0x23
 906 0420 38       		.uleb128 0x38
 907 0421 0A       		.uleb128 0xa
 908 0422 53010000 		.4byte	.LASF61
 909 0426 05       		.byte	0x5
 910 0427 5701     		.2byte	0x157
 911 0429 A9010000 		.4byte	0x1a9
 912 042d 02       		.byte	0x2
 913 042e 23       		.byte	0x23
 914 042f 3C       		.uleb128 0x3c
 915 0430 0B       		.uleb128 0xb
 916 0431 50465200 		.ascii	"PFR\000"
 917 0435 05       		.byte	0x5
 918 0436 5801     		.2byte	0x158
 919 0438 C5040000 		.4byte	0x4c5
 920 043c 02       		.byte	0x2
 921 043d 23       		.byte	0x23
 922 043e 40       		.uleb128 0x40
 923 043f 0B       		.uleb128 0xb
 924 0440 44465200 		.ascii	"DFR\000"
 925 0444 05       		.byte	0x5
 926 0445 5901     		.2byte	0x159
 927 0447 9B040000 		.4byte	0x49b
 928 044b 02       		.byte	0x2
 929 044c 23       		.byte	0x23
 930 044d 48       		.uleb128 0x48
 931 044e 0B       		.uleb128 0xb
 932 044f 41445200 		.ascii	"ADR\000"
 933 0453 05       		.byte	0x5
 934 0454 5A01     		.2byte	0x15a
 935 0456 9B040000 		.4byte	0x49b
 936 045a 02       		.byte	0x2
 937 045b 23       		.byte	0x23
 938 045c 4C       		.uleb128 0x4c
 939 045d 0A       		.uleb128 0xa
 940 045e 8A040000 		.4byte	.LASF62
 941 0462 05       		.byte	0x5
 942 0463 5B01     		.2byte	0x15b
 943 0465 DF040000 		.4byte	0x4df
 944 0469 02       		.byte	0x2
 945 046a 23       		.byte	0x23
 946 046b 50       		.uleb128 0x50
 947 046c 0A       		.uleb128 0xa
 948 046d A2000000 		.4byte	.LASF63
 949 0471 05       		.byte	0x5
 950 0472 5C01     		.2byte	0x15c
 951 0474 F9040000 		.4byte	0x4f9
 952 0478 02       		.byte	0x2
 953 0479 23       		.byte	0x23
 954 047a 60       		.uleb128 0x60
 955 047b 0A       		.uleb128 0xa
 956 047c 5E020000 		.4byte	.LASF38
 957 0480 05       		.byte	0x5
 958 0481 5D01     		.2byte	0x15d
 959 0483 E9040000 		.4byte	0x4e9
 960 0487 02       		.byte	0x2
ARM GAS  /tmp/ccQGEYF0.s 			page 31


 961 0488 23       		.byte	0x23
 962 0489 74       		.uleb128 0x74
 963 048a 0A       		.uleb128 0xa
 964 048b BF040000 		.4byte	.LASF64
 965 048f 05       		.byte	0x5
 966 0490 5E01     		.2byte	0x15e
 967 0492 A9010000 		.4byte	0x1a9
 968 0496 03       		.byte	0x3
 969 0497 23       		.byte	0x23
 970 0498 8801     		.uleb128 0x88
 971 049a 00       		.byte	0
 972 049b 11       		.uleb128 0x11
 973 049c A9010000 		.4byte	0x1a9
 974 04a0 0C       		.uleb128 0xc
 975 04a1 3E000000 		.4byte	0x3e
 976 04a5 B0040000 		.4byte	0x4b0
 977 04a9 0D       		.uleb128 0xd
 978 04aa E3020000 		.4byte	0x2e3
 979 04ae 0B       		.byte	0xb
 980 04af 00       		.byte	0
 981 04b0 08       		.uleb128 0x8
 982 04b1 A0040000 		.4byte	0x4a0
 983 04b5 0C       		.uleb128 0xc
 984 04b6 7B000000 		.4byte	0x7b
 985 04ba C5040000 		.4byte	0x4c5
 986 04be 0D       		.uleb128 0xd
 987 04bf E3020000 		.4byte	0x2e3
 988 04c3 01       		.byte	0x1
 989 04c4 00       		.byte	0
 990 04c5 11       		.uleb128 0x11
 991 04c6 CA040000 		.4byte	0x4ca
 992 04ca 08       		.uleb128 0x8
 993 04cb B5040000 		.4byte	0x4b5
 994 04cf 0C       		.uleb128 0xc
 995 04d0 7B000000 		.4byte	0x7b
 996 04d4 DF040000 		.4byte	0x4df
 997 04d8 0D       		.uleb128 0xd
 998 04d9 E3020000 		.4byte	0x2e3
 999 04dd 03       		.byte	0x3
 1000 04de 00       		.byte	0
 1001 04df 11       		.uleb128 0x11
 1002 04e0 E4040000 		.4byte	0x4e4
 1003 04e4 08       		.uleb128 0x8
 1004 04e5 CF040000 		.4byte	0x4cf
 1005 04e9 0C       		.uleb128 0xc
 1006 04ea 7B000000 		.4byte	0x7b
 1007 04ee F9040000 		.4byte	0x4f9
 1008 04f2 0D       		.uleb128 0xd
 1009 04f3 E3020000 		.4byte	0x2e3
 1010 04f7 04       		.byte	0x4
 1011 04f8 00       		.byte	0
 1012 04f9 11       		.uleb128 0x11
 1013 04fa FE040000 		.4byte	0x4fe
 1014 04fe 08       		.uleb128 0x8
 1015 04ff E9040000 		.4byte	0x4e9
 1016 0503 0F       		.uleb128 0xf
 1017 0504 71010000 		.4byte	.LASF65
ARM GAS  /tmp/ccQGEYF0.s 			page 32


 1018 0508 05       		.byte	0x5
 1019 0509 5F01     		.2byte	0x15f
 1020 050b 55030000 		.4byte	0x355
 1021 050f 04       		.uleb128 0x4
 1022 0510 99030000 		.4byte	.LASF66
 1023 0514 06       		.byte	0x6
 1024 0515 89       		.byte	0x89
 1025 0516 57000000 		.4byte	0x57
 1026 051a 04       		.uleb128 0x4
 1027 051b 60010000 		.4byte	.LASF67
 1028 051f 06       		.byte	0x6
 1029 0520 8F       		.byte	0x8f
 1030 0521 25050000 		.4byte	0x525
 1031 0525 12       		.uleb128 0x12
 1032 0526 04       		.byte	0x4
 1033 0527 05       		.uleb128 0x5
 1034 0528 10040000 		.4byte	.LASF69
 1035 052c 04       		.byte	0x4
 1036 052d 06       		.byte	0x6
 1037 052e B3       		.byte	0xb3
 1038 052f 42050000 		.4byte	0x542
 1039 0533 07       		.uleb128 0x7
 1040 0534 72313300 		.ascii	"r13\000"
 1041 0538 06       		.byte	0x6
 1042 0539 B4       		.byte	0xb4
 1043 053a CF050000 		.4byte	0x5cf
 1044 053e 02       		.byte	0x2
 1045 053f 23       		.byte	0x23
 1046 0540 00       		.uleb128 0
 1047 0541 00       		.byte	0
 1048 0542 05       		.uleb128 0x5
 1049 0543 36000000 		.4byte	.LASF70
 1050 0547 24       		.byte	0x24
 1051 0548 07       		.byte	0x7
 1052 0549 F5       		.byte	0xf5
 1053 054a CF050000 		.4byte	0x5cf
 1054 054e 0B       		.uleb128 0xb
 1055 054f 723400   		.ascii	"r4\000"
 1056 0552 07       		.byte	0x7
 1057 0553 0801     		.2byte	0x108
 1058 0555 1A050000 		.4byte	0x51a
 1059 0559 02       		.byte	0x2
 1060 055a 23       		.byte	0x23
 1061 055b 00       		.uleb128 0
 1062 055c 0B       		.uleb128 0xb
 1063 055d 723500   		.ascii	"r5\000"
 1064 0560 07       		.byte	0x7
 1065 0561 0901     		.2byte	0x109
 1066 0563 1A050000 		.4byte	0x51a
 1067 0567 02       		.byte	0x2
 1068 0568 23       		.byte	0x23
 1069 0569 04       		.uleb128 0x4
 1070 056a 0B       		.uleb128 0xb
 1071 056b 723600   		.ascii	"r6\000"
 1072 056e 07       		.byte	0x7
 1073 056f 0A01     		.2byte	0x10a
 1074 0571 1A050000 		.4byte	0x51a
ARM GAS  /tmp/ccQGEYF0.s 			page 33


 1075 0575 02       		.byte	0x2
 1076 0576 23       		.byte	0x23
 1077 0577 08       		.uleb128 0x8
 1078 0578 0B       		.uleb128 0xb
 1079 0579 723700   		.ascii	"r7\000"
 1080 057c 07       		.byte	0x7
 1081 057d 0B01     		.2byte	0x10b
 1082 057f 1A050000 		.4byte	0x51a
 1083 0583 02       		.byte	0x2
 1084 0584 23       		.byte	0x23
 1085 0585 0C       		.uleb128 0xc
 1086 0586 0B       		.uleb128 0xb
 1087 0587 723800   		.ascii	"r8\000"
 1088 058a 07       		.byte	0x7
 1089 058b 0C01     		.2byte	0x10c
 1090 058d 1A050000 		.4byte	0x51a
 1091 0591 02       		.byte	0x2
 1092 0592 23       		.byte	0x23
 1093 0593 10       		.uleb128 0x10
 1094 0594 0B       		.uleb128 0xb
 1095 0595 723900   		.ascii	"r9\000"
 1096 0598 07       		.byte	0x7
 1097 0599 0D01     		.2byte	0x10d
 1098 059b 1A050000 		.4byte	0x51a
 1099 059f 02       		.byte	0x2
 1100 05a0 23       		.byte	0x23
 1101 05a1 14       		.uleb128 0x14
 1102 05a2 0B       		.uleb128 0xb
 1103 05a3 72313000 		.ascii	"r10\000"
 1104 05a7 07       		.byte	0x7
 1105 05a8 0E01     		.2byte	0x10e
 1106 05aa 1A050000 		.4byte	0x51a
 1107 05ae 02       		.byte	0x2
 1108 05af 23       		.byte	0x23
 1109 05b0 18       		.uleb128 0x18
 1110 05b1 0B       		.uleb128 0xb
 1111 05b2 72313100 		.ascii	"r11\000"
 1112 05b6 07       		.byte	0x7
 1113 05b7 0F01     		.2byte	0x10f
 1114 05b9 1A050000 		.4byte	0x51a
 1115 05bd 02       		.byte	0x2
 1116 05be 23       		.byte	0x23
 1117 05bf 1C       		.uleb128 0x1c
 1118 05c0 0B       		.uleb128 0xb
 1119 05c1 6C7200   		.ascii	"lr\000"
 1120 05c4 07       		.byte	0x7
 1121 05c5 1001     		.2byte	0x110
 1122 05c7 1A050000 		.4byte	0x51a
 1123 05cb 02       		.byte	0x2
 1124 05cc 23       		.byte	0x23
 1125 05cd 20       		.uleb128 0x20
 1126 05ce 00       		.byte	0
 1127 05cf 13       		.uleb128 0x13
 1128 05d0 04       		.byte	0x4
 1129 05d1 42050000 		.4byte	0x542
 1130 05d5 14       		.uleb128 0x14
 1131 05d6 08       		.byte	0x8
ARM GAS  /tmp/ccQGEYF0.s 			page 34


 1132 05d7 03       		.byte	0x3
 1133 05d8 53       		.byte	0x53
 1134 05d9 FA050000 		.4byte	0x5fa
 1135 05dd 06       		.uleb128 0x6
 1136 05de 20030000 		.4byte	.LASF13
 1137 05e2 03       		.byte	0x3
 1138 05e3 54       		.byte	0x54
 1139 05e4 FA050000 		.4byte	0x5fa
 1140 05e8 02       		.byte	0x2
 1141 05e9 23       		.byte	0x23
 1142 05ea 00       		.uleb128 0
 1143 05eb 06       		.uleb128 0x6
 1144 05ec 86020000 		.4byte	.LASF14
 1145 05f0 03       		.byte	0x3
 1146 05f1 55       		.byte	0x55
 1147 05f2 FA050000 		.4byte	0x5fa
 1148 05f6 02       		.byte	0x2
 1149 05f7 23       		.byte	0x23
 1150 05f8 04       		.uleb128 0x4
 1151 05f9 00       		.byte	0
 1152 05fa 13       		.uleb128 0x13
 1153 05fb 04       		.byte	0x4
 1154 05fc 9B000000 		.4byte	0x9b
 1155 0600 04       		.uleb128 0x4
 1156 0601 73040000 		.4byte	.LASF71
 1157 0605 03       		.byte	0x3
 1158 0606 56       		.byte	0x56
 1159 0607 D5050000 		.4byte	0x5d5
 1160 060b 14       		.uleb128 0x14
 1161 060c 04       		.byte	0x4
 1162 060d 03       		.byte	0x3
 1163 060e 5B       		.byte	0x5b
 1164 060f 22060000 		.4byte	0x622
 1165 0613 06       		.uleb128 0x6
 1166 0614 20030000 		.4byte	.LASF13
 1167 0618 03       		.byte	0x3
 1168 0619 5C       		.byte	0x5c
 1169 061a FA050000 		.4byte	0x5fa
 1170 061e 02       		.byte	0x2
 1171 061f 23       		.byte	0x23
 1172 0620 00       		.uleb128 0
 1173 0621 00       		.byte	0
 1174 0622 04       		.uleb128 0x4
 1175 0623 00000000 		.4byte	.LASF72
 1176 0627 03       		.byte	0x3
 1177 0628 5D       		.byte	0x5d
 1178 0629 0B060000 		.4byte	0x60b
 1179 062d 14       		.uleb128 0x14
 1180 062e 1C       		.byte	0x1c
 1181 062f 03       		.byte	0x3
 1182 0630 64       		.byte	0x64
 1183 0631 8A060000 		.4byte	0x68a
 1184 0635 06       		.uleb128 0x6
 1185 0636 60030000 		.4byte	.LASF73
 1186 063a 03       		.byte	0x3
 1187 063b 65       		.byte	0x65
 1188 063c 00060000 		.4byte	0x600
ARM GAS  /tmp/ccQGEYF0.s 			page 35


 1189 0640 02       		.byte	0x2
 1190 0641 23       		.byte	0x23
 1191 0642 00       		.uleb128 0
 1192 0643 06       		.uleb128 0x6
 1193 0644 12030000 		.4byte	.LASF74
 1194 0648 03       		.byte	0x3
 1195 0649 66       		.byte	0x66
 1196 064a DA010000 		.4byte	0x1da
 1197 064e 02       		.byte	0x2
 1198 064f 23       		.byte	0x23
 1199 0650 08       		.uleb128 0x8
 1200 0651 06       		.uleb128 0x6
 1201 0652 3E020000 		.4byte	.LASF75
 1202 0656 03       		.byte	0x3
 1203 0657 68       		.byte	0x68
 1204 0658 27050000 		.4byte	0x527
 1205 065c 02       		.byte	0x2
 1206 065d 23       		.byte	0x23
 1207 065e 0C       		.uleb128 0xc
 1208 065f 06       		.uleb128 0x6
 1209 0660 58010000 		.4byte	.LASF76
 1210 0664 03       		.byte	0x3
 1211 0665 6B       		.byte	0x6b
 1212 0666 FA050000 		.4byte	0x5fa
 1213 066a 02       		.byte	0x2
 1214 066b 23       		.byte	0x23
 1215 066c 10       		.uleb128 0x10
 1216 066d 06       		.uleb128 0x6
 1217 066e 4E020000 		.4byte	.LASF77
 1218 0672 03       		.byte	0x3
 1219 0673 6C       		.byte	0x6c
 1220 0674 FA050000 		.4byte	0x5fa
 1221 0678 02       		.byte	0x2
 1222 0679 23       		.byte	0x23
 1223 067a 14       		.uleb128 0x14
 1224 067b 06       		.uleb128 0x6
 1225 067c 83030000 		.4byte	.LASF78
 1226 0680 03       		.byte	0x3
 1227 0681 6F       		.byte	0x6f
 1228 0682 FA050000 		.4byte	0x5fa
 1229 0686 02       		.byte	0x2
 1230 0687 23       		.byte	0x23
 1231 0688 18       		.uleb128 0x18
 1232 0689 00       		.byte	0
 1233 068a 04       		.uleb128 0x4
 1234 068b 14000000 		.4byte	.LASF79
 1235 068f 03       		.byte	0x3
 1236 0690 71       		.byte	0x71
 1237 0691 2D060000 		.4byte	0x62d
 1238 0695 15       		.uleb128 0x15
 1239 0696 04       		.byte	0x4
 1240 0697 03       		.byte	0x3
 1241 0698 B1       		.byte	0xb1
 1242 0699 CA060000 		.4byte	0x6ca
 1243 069d 16       		.uleb128 0x16
 1244 069e 21000000 		.4byte	.LASF80
 1245 06a2 03       		.byte	0x3
ARM GAS  /tmp/ccQGEYF0.s 			page 36


 1246 06a3 B8       		.byte	0xb8
 1247 06a4 E5010000 		.4byte	0x1e5
 1248 06a8 16       		.uleb128 0x16
 1249 06a9 60000000 		.4byte	.LASF81
 1250 06ad 03       		.byte	0x3
 1251 06ae BF       		.byte	0xbf
 1252 06af E5010000 		.4byte	0x1e5
 1253 06b3 16       		.uleb128 0x16
 1254 06b4 AB040000 		.4byte	.LASF82
 1255 06b8 03       		.byte	0x3
 1256 06b9 C6       		.byte	0xc6
 1257 06ba 25050000 		.4byte	0x525
 1258 06be 16       		.uleb128 0x16
 1259 06bf 19030000 		.4byte	.LASF83
 1260 06c3 03       		.byte	0x3
 1261 06c4 CD       		.byte	0xcd
 1262 06c5 F0010000 		.4byte	0x1f0
 1263 06c9 00       		.byte	0
 1264 06ca 13       		.uleb128 0x13
 1265 06cb 04       		.byte	0x4
 1266 06cc D0060000 		.4byte	0x6d0
 1267 06d0 11       		.uleb128 0x11
 1268 06d1 D5060000 		.4byte	0x6d5
 1269 06d5 03       		.uleb128 0x3
 1270 06d6 01       		.byte	0x1
 1271 06d7 08       		.byte	0x8
 1272 06d8 8D030000 		.4byte	.LASF84
 1273 06dc 05       		.uleb128 0x5
 1274 06dd 95020000 		.4byte	.LASF85
 1275 06e1 10       		.byte	0x10
 1276 06e2 08       		.byte	0x8
 1277 06e3 3A       		.byte	0x3a
 1278 06e4 13070000 		.4byte	0x713
 1279 06e8 06       		.uleb128 0x6
 1280 06e9 C9000000 		.4byte	.LASF86
 1281 06ed 08       		.byte	0x8
 1282 06ee 3B       		.byte	0x3b
 1283 06ef 00060000 		.4byte	0x600
 1284 06f3 02       		.byte	0x2
 1285 06f4 23       		.byte	0x23
 1286 06f5 00       		.uleb128 0
 1287 06f6 06       		.uleb128 0x6
 1288 06f7 CA040000 		.4byte	.LASF87
 1289 06fb 08       		.byte	0x8
 1290 06fc 3D       		.byte	0x3d
 1291 06fd FA050000 		.4byte	0x5fa
 1292 0701 02       		.byte	0x2
 1293 0702 23       		.byte	0x23
 1294 0703 08       		.uleb128 0x8
 1295 0704 06       		.uleb128 0x6
 1296 0705 92030000 		.4byte	.LASF88
 1297 0709 08       		.byte	0x8
 1298 070a 3F       		.byte	0x3f
 1299 070b 46080000 		.4byte	0x846
 1300 070f 02       		.byte	0x2
 1301 0710 23       		.byte	0x23
 1302 0711 0C       		.uleb128 0xc
ARM GAS  /tmp/ccQGEYF0.s 			page 37


 1303 0712 00       		.byte	0
 1304 0713 13       		.uleb128 0x13
 1305 0714 04       		.byte	0x4
 1306 0715 DC060000 		.4byte	0x6dc
 1307 0719 0F       		.uleb128 0xf
 1308 071a AE030000 		.4byte	.LASF89
 1309 071e 03       		.byte	0x3
 1310 071f 0301     		.2byte	0x103
 1311 0721 25070000 		.4byte	0x725
 1312 0725 13       		.uleb128 0x13
 1313 0726 04       		.byte	0x4
 1314 0727 2B070000 		.4byte	0x72b
 1315 072b 17       		.uleb128 0x17
 1316 072c 01       		.byte	0x1
 1317 072d 37070000 		.4byte	0x737
 1318 0731 18       		.uleb128 0x18
 1319 0732 25050000 		.4byte	0x525
 1320 0736 00       		.byte	0
 1321 0737 0F       		.uleb128 0xf
 1322 0738 FD010000 		.4byte	.LASF90
 1323 073c 03       		.byte	0x3
 1324 073d 0801     		.2byte	0x108
 1325 073f 43070000 		.4byte	0x743
 1326 0743 19       		.uleb128 0x19
 1327 0744 4B040000 		.4byte	.LASF91
 1328 0748 14       		.byte	0x14
 1329 0749 03       		.byte	0x3
 1330 074a 0F01     		.2byte	0x10f
 1331 074c 9C070000 		.4byte	0x79c
 1332 0750 0A       		.uleb128 0xa
 1333 0751 8F010000 		.4byte	.LASF92
 1334 0755 03       		.byte	0x3
 1335 0756 1001     		.2byte	0x110
 1336 0758 9C070000 		.4byte	0x79c
 1337 075c 02       		.byte	0x2
 1338 075d 23       		.byte	0x23
 1339 075e 00       		.uleb128 0
 1340 075f 0A       		.uleb128 0xa
 1341 0760 69010000 		.4byte	.LASF93
 1342 0764 03       		.byte	0x3
 1343 0765 1101     		.2byte	0x111
 1344 0767 9C070000 		.4byte	0x79c
 1345 076b 02       		.byte	0x2
 1346 076c 23       		.byte	0x23
 1347 076d 04       		.uleb128 0x4
 1348 076e 0A       		.uleb128 0xa
 1349 076f 68030000 		.4byte	.LASF94
 1350 0773 03       		.byte	0x3
 1351 0774 1201     		.2byte	0x112
 1352 0776 0F050000 		.4byte	0x50f
 1353 077a 02       		.byte	0x2
 1354 077b 23       		.byte	0x23
 1355 077c 08       		.uleb128 0x8
 1356 077d 0A       		.uleb128 0xa
 1357 077e D8040000 		.4byte	.LASF95
 1358 0782 03       		.byte	0x3
 1359 0783 1301     		.2byte	0x113
ARM GAS  /tmp/ccQGEYF0.s 			page 38


 1360 0785 19070000 		.4byte	0x719
 1361 0789 02       		.byte	0x2
 1362 078a 23       		.byte	0x23
 1363 078b 0C       		.uleb128 0xc
 1364 078c 0A       		.uleb128 0xa
 1365 078d 59040000 		.4byte	.LASF96
 1366 0791 03       		.byte	0x3
 1367 0792 1501     		.2byte	0x115
 1368 0794 25050000 		.4byte	0x525
 1369 0798 02       		.byte	0x2
 1370 0799 23       		.byte	0x23
 1371 079a 10       		.uleb128 0x10
 1372 079b 00       		.byte	0
 1373 079c 13       		.uleb128 0x13
 1374 079d 04       		.byte	0x4
 1375 079e 37070000 		.4byte	0x737
 1376 07a2 10       		.uleb128 0x10
 1377 07a3 0C       		.byte	0xc
 1378 07a4 03       		.byte	0x3
 1379 07a5 1F01     		.2byte	0x11f
 1380 07a7 E8070000 		.4byte	0x7e8
 1381 07ab 0A       		.uleb128 0xa
 1382 07ac 8F010000 		.4byte	.LASF92
 1383 07b0 03       		.byte	0x3
 1384 07b1 2001     		.2byte	0x120
 1385 07b3 9C070000 		.4byte	0x79c
 1386 07b7 02       		.byte	0x2
 1387 07b8 23       		.byte	0x23
 1388 07b9 00       		.uleb128 0
 1389 07ba 0A       		.uleb128 0xa
 1390 07bb 69010000 		.4byte	.LASF93
 1391 07bf 03       		.byte	0x3
 1392 07c0 2201     		.2byte	0x122
 1393 07c2 9C070000 		.4byte	0x79c
 1394 07c6 02       		.byte	0x2
 1395 07c7 23       		.byte	0x23
 1396 07c8 04       		.uleb128 0x4
 1397 07c9 0A       		.uleb128 0xa
 1398 07ca 68030000 		.4byte	.LASF94
 1399 07ce 03       		.byte	0x3
 1400 07cf 2401     		.2byte	0x124
 1401 07d1 0F050000 		.4byte	0x50f
 1402 07d5 02       		.byte	0x2
 1403 07d6 23       		.byte	0x23
 1404 07d7 08       		.uleb128 0x8
 1405 07d8 0A       		.uleb128 0xa
 1406 07d9 2A020000 		.4byte	.LASF97
 1407 07dd 03       		.byte	0x3
 1408 07de 2C01     		.2byte	0x12c
 1409 07e0 0F050000 		.4byte	0x50f
 1410 07e4 02       		.byte	0x2
 1411 07e5 23       		.byte	0x23
 1412 07e6 0A       		.uleb128 0xa
 1413 07e7 00       		.byte	0
 1414 07e8 0F       		.uleb128 0xf
 1415 07e9 69000000 		.4byte	.LASF98
 1416 07ed 03       		.byte	0x3
ARM GAS  /tmp/ccQGEYF0.s 			page 39


 1417 07ee 2F01     		.2byte	0x12f
 1418 07f0 A2070000 		.4byte	0x7a2
 1419 07f4 19       		.uleb128 0x19
 1420 07f5 1A010000 		.4byte	.LASF99
 1421 07f9 2C       		.byte	0x2c
 1422 07fa 03       		.byte	0x3
 1423 07fb 3601     		.2byte	0x136
 1424 07fd 2F080000 		.4byte	0x82f
 1425 0801 0A       		.uleb128 0xa
 1426 0802 8F040000 		.4byte	.LASF100
 1427 0806 03       		.byte	0x3
 1428 0807 3A01     		.2byte	0x13a
 1429 0809 8A060000 		.4byte	0x68a
 1430 080d 02       		.byte	0x2
 1431 080e 23       		.byte	0x23
 1432 080f 00       		.uleb128 0
 1433 0810 0A       		.uleb128 0xa
 1434 0811 42000000 		.4byte	.LASF101
 1435 0815 03       		.byte	0x3
 1436 0816 3E01     		.2byte	0x13e
 1437 0818 E8070000 		.4byte	0x7e8
 1438 081c 02       		.byte	0x2
 1439 081d 23       		.byte	0x23
 1440 081e 1C       		.uleb128 0x1c
 1441 081f 0A       		.uleb128 0xa
 1442 0820 60040000 		.4byte	.LASF102
 1443 0824 03       		.byte	0x3
 1444 0825 4301     		.2byte	0x143
 1445 0827 AE010000 		.4byte	0x1ae
 1446 082b 02       		.byte	0x2
 1447 082c 23       		.byte	0x23
 1448 082d 28       		.uleb128 0x28
 1449 082e 00       		.byte	0
 1450 082f 0F       		.uleb128 0xf
 1451 0830 D5010000 		.4byte	.LASF103
 1452 0834 03       		.byte	0x3
 1453 0835 6501     		.2byte	0x165
 1454 0837 F4070000 		.4byte	0x7f4
 1455 083b 04       		.uleb128 0x4
 1456 083c 7A010000 		.4byte	.LASF104
 1457 0840 08       		.byte	0x8
 1458 0841 35       		.byte	0x35
 1459 0842 DC060000 		.4byte	0x6dc
 1460 0846 13       		.uleb128 0x13
 1461 0847 04       		.byte	0x4
 1462 0848 3B080000 		.4byte	0x83b
 1463 084c 03       		.uleb128 0x3
 1464 084d 01       		.byte	0x1
 1465 084e 02       		.byte	0x2
 1466 084f 9B020000 		.4byte	.LASF105
 1467 0853 1A       		.uleb128 0x1a
 1468 0854 01       		.byte	0x1
 1469 0855 91000000 		.4byte	.LASF107
 1470 0859 01       		.byte	0x1
 1471 085a 39       		.byte	0x39
 1472 085b 01       		.byte	0x1
 1473 085c 00000000 		.4byte	.LFB194
ARM GAS  /tmp/ccQGEYF0.s 			page 40


 1474 0860 30000000 		.4byte	.LFE194
 1475 0864 00000000 		.4byte	.LLST0
 1476 0868 01       		.byte	0x1
 1477 0869 8A080000 		.4byte	0x88a
 1478 086d 1B       		.uleb128 0x1b
 1479 086e 6E00     		.ascii	"n\000"
 1480 0870 01       		.byte	0x1
 1481 0871 39       		.byte	0x39
 1482 0872 7B000000 		.4byte	0x7b
 1483 0876 20000000 		.4byte	.LLST1
 1484 087a 1C       		.uleb128 0x1c
 1485 087b 49020000 		.4byte	.LASF106
 1486 087f 01       		.byte	0x1
 1487 0880 39       		.byte	0x39
 1488 0881 7B000000 		.4byte	0x7b
 1489 0885 41000000 		.4byte	.LLST2
 1490 0889 00       		.byte	0
 1491 088a 1D       		.uleb128 0x1d
 1492 088b 01       		.byte	0x1
 1493 088c 97010000 		.4byte	.LASF108
 1494 0890 01       		.byte	0x1
 1495 0891 45       		.byte	0x45
 1496 0892 01       		.byte	0x1
 1497 0893 00000000 		.4byte	.LFB195
 1498 0897 24000000 		.4byte	.LFE195
 1499 089b 02       		.byte	0x2
 1500 089c 7D       		.byte	0x7d
 1501 089d 00       		.sleb128 0
 1502 089e 01       		.byte	0x1
 1503 089f B1080000 		.4byte	0x8b1
 1504 08a3 1B       		.uleb128 0x1b
 1505 08a4 6E00     		.ascii	"n\000"
 1506 08a6 01       		.byte	0x1
 1507 08a7 45       		.byte	0x45
 1508 08a8 7B000000 		.4byte	0x7b
 1509 08ac 62000000 		.4byte	.LLST3
 1510 08b0 00       		.byte	0
 1511 08b1 1D       		.uleb128 0x1d
 1512 08b2 01       		.byte	0x1
 1513 08b3 F5020000 		.4byte	.LASF109
 1514 08b7 01       		.byte	0x1
 1515 08b8 51       		.byte	0x51
 1516 08b9 01       		.byte	0x1
 1517 08ba 00000000 		.4byte	.LFB196
 1518 08be 10000000 		.4byte	.LFE196
 1519 08c2 02       		.byte	0x2
 1520 08c3 7D       		.byte	0x7d
 1521 08c4 00       		.sleb128 0
 1522 08c5 01       		.byte	0x1
 1523 08c6 F3080000 		.4byte	0x8f3
 1524 08ca 1C       		.uleb128 0x1c
 1525 08cb F5010000 		.4byte	.LASF110
 1526 08cf 01       		.byte	0x1
 1527 08d0 51       		.byte	0x51
 1528 08d1 7B000000 		.4byte	0x7b
 1529 08d5 83000000 		.4byte	.LLST4
 1530 08d9 1C       		.uleb128 0x1c
ARM GAS  /tmp/ccQGEYF0.s 			page 41


 1531 08da 49020000 		.4byte	.LASF106
 1532 08de 01       		.byte	0x1
 1533 08df 51       		.byte	0x51
 1534 08e0 7B000000 		.4byte	0x7b
 1535 08e4 A7000000 		.4byte	.LLST5
 1536 08e8 1E       		.uleb128 0x1e
 1537 08e9 28000000 		.4byte	.LASF115
 1538 08ed 03090000 		.4byte	0x903
 1539 08f1 01       		.byte	0x1
 1540 08f2 00       		.byte	0
 1541 08f3 0C       		.uleb128 0xc
 1542 08f4 D5060000 		.4byte	0x6d5
 1543 08f8 03090000 		.4byte	0x903
 1544 08fc 0D       		.uleb128 0xd
 1545 08fd E3020000 		.4byte	0x2e3
 1546 0901 1C       		.byte	0x1c
 1547 0902 00       		.byte	0
 1548 0903 11       		.uleb128 0x11
 1549 0904 F3080000 		.4byte	0x8f3
 1550 0908 1F       		.uleb128 0x1f
 1551 0909 BD020000 		.4byte	.LASF111
 1552 090d 05       		.byte	0x5
 1553 090e 1606     		.2byte	0x616
 1554 0910 A4010000 		.4byte	0x1a4
 1555 0914 01       		.byte	0x1
 1556 0915 01       		.byte	0x1
 1557 0916 20       		.uleb128 0x20
 1558 0917 636800   		.ascii	"ch\000"
 1559 091a 03       		.byte	0x3
 1560 091b 8901     		.2byte	0x189
 1561 091d 2F080000 		.4byte	0x82f
 1562 0921 01       		.byte	0x1
 1563 0922 01       		.byte	0x1
 1564 0923 00       		.byte	0
 1565              		.section	.debug_abbrev,"",%progbits
 1566              	.Ldebug_abbrev0:
 1567 0000 01       		.uleb128 0x1
 1568 0001 11       		.uleb128 0x11
 1569 0002 01       		.byte	0x1
 1570 0003 25       		.uleb128 0x25
 1571 0004 0E       		.uleb128 0xe
 1572 0005 13       		.uleb128 0x13
 1573 0006 0B       		.uleb128 0xb
 1574 0007 03       		.uleb128 0x3
 1575 0008 0E       		.uleb128 0xe
 1576 0009 1B       		.uleb128 0x1b
 1577 000a 0E       		.uleb128 0xe
 1578 000b 55       		.uleb128 0x55
 1579 000c 06       		.uleb128 0x6
 1580 000d 11       		.uleb128 0x11
 1581 000e 01       		.uleb128 0x1
 1582 000f 52       		.uleb128 0x52
 1583 0010 01       		.uleb128 0x1
 1584 0011 10       		.uleb128 0x10
 1585 0012 06       		.uleb128 0x6
 1586 0013 00       		.byte	0
 1587 0014 00       		.byte	0
ARM GAS  /tmp/ccQGEYF0.s 			page 42


 1588 0015 02       		.uleb128 0x2
 1589 0016 24       		.uleb128 0x24
 1590 0017 00       		.byte	0
 1591 0018 0B       		.uleb128 0xb
 1592 0019 0B       		.uleb128 0xb
 1593 001a 3E       		.uleb128 0x3e
 1594 001b 0B       		.uleb128 0xb
 1595 001c 03       		.uleb128 0x3
 1596 001d 08       		.uleb128 0x8
 1597 001e 00       		.byte	0
 1598 001f 00       		.byte	0
 1599 0020 03       		.uleb128 0x3
 1600 0021 24       		.uleb128 0x24
 1601 0022 00       		.byte	0
 1602 0023 0B       		.uleb128 0xb
 1603 0024 0B       		.uleb128 0xb
 1604 0025 3E       		.uleb128 0x3e
 1605 0026 0B       		.uleb128 0xb
 1606 0027 03       		.uleb128 0x3
 1607 0028 0E       		.uleb128 0xe
 1608 0029 00       		.byte	0
 1609 002a 00       		.byte	0
 1610 002b 04       		.uleb128 0x4
 1611 002c 16       		.uleb128 0x16
 1612 002d 00       		.byte	0
 1613 002e 03       		.uleb128 0x3
 1614 002f 0E       		.uleb128 0xe
 1615 0030 3A       		.uleb128 0x3a
 1616 0031 0B       		.uleb128 0xb
 1617 0032 3B       		.uleb128 0x3b
 1618 0033 0B       		.uleb128 0xb
 1619 0034 49       		.uleb128 0x49
 1620 0035 13       		.uleb128 0x13
 1621 0036 00       		.byte	0
 1622 0037 00       		.byte	0
 1623 0038 05       		.uleb128 0x5
 1624 0039 13       		.uleb128 0x13
 1625 003a 01       		.byte	0x1
 1626 003b 03       		.uleb128 0x3
 1627 003c 0E       		.uleb128 0xe
 1628 003d 0B       		.uleb128 0xb
 1629 003e 0B       		.uleb128 0xb
 1630 003f 3A       		.uleb128 0x3a
 1631 0040 0B       		.uleb128 0xb
 1632 0041 3B       		.uleb128 0x3b
 1633 0042 0B       		.uleb128 0xb
 1634 0043 01       		.uleb128 0x1
 1635 0044 13       		.uleb128 0x13
 1636 0045 00       		.byte	0
 1637 0046 00       		.byte	0
 1638 0047 06       		.uleb128 0x6
 1639 0048 0D       		.uleb128 0xd
 1640 0049 00       		.byte	0
 1641 004a 03       		.uleb128 0x3
 1642 004b 0E       		.uleb128 0xe
 1643 004c 3A       		.uleb128 0x3a
 1644 004d 0B       		.uleb128 0xb
ARM GAS  /tmp/ccQGEYF0.s 			page 43


 1645 004e 3B       		.uleb128 0x3b
 1646 004f 0B       		.uleb128 0xb
 1647 0050 49       		.uleb128 0x49
 1648 0051 13       		.uleb128 0x13
 1649 0052 38       		.uleb128 0x38
 1650 0053 0A       		.uleb128 0xa
 1651 0054 00       		.byte	0
 1652 0055 00       		.byte	0
 1653 0056 07       		.uleb128 0x7
 1654 0057 0D       		.uleb128 0xd
 1655 0058 00       		.byte	0
 1656 0059 03       		.uleb128 0x3
 1657 005a 08       		.uleb128 0x8
 1658 005b 3A       		.uleb128 0x3a
 1659 005c 0B       		.uleb128 0xb
 1660 005d 3B       		.uleb128 0x3b
 1661 005e 0B       		.uleb128 0xb
 1662 005f 49       		.uleb128 0x49
 1663 0060 13       		.uleb128 0x13
 1664 0061 38       		.uleb128 0x38
 1665 0062 0A       		.uleb128 0xa
 1666 0063 00       		.byte	0
 1667 0064 00       		.byte	0
 1668 0065 08       		.uleb128 0x8
 1669 0066 35       		.uleb128 0x35
 1670 0067 00       		.byte	0
 1671 0068 49       		.uleb128 0x49
 1672 0069 13       		.uleb128 0x13
 1673 006a 00       		.byte	0
 1674 006b 00       		.byte	0
 1675 006c 09       		.uleb128 0x9
 1676 006d 13       		.uleb128 0x13
 1677 006e 01       		.byte	0x1
 1678 006f 0B       		.uleb128 0xb
 1679 0070 05       		.uleb128 0x5
 1680 0071 3A       		.uleb128 0x3a
 1681 0072 0B       		.uleb128 0xb
 1682 0073 3B       		.uleb128 0x3b
 1683 0074 05       		.uleb128 0x5
 1684 0075 01       		.uleb128 0x1
 1685 0076 13       		.uleb128 0x13
 1686 0077 00       		.byte	0
 1687 0078 00       		.byte	0
 1688 0079 0A       		.uleb128 0xa
 1689 007a 0D       		.uleb128 0xd
 1690 007b 00       		.byte	0
 1691 007c 03       		.uleb128 0x3
 1692 007d 0E       		.uleb128 0xe
 1693 007e 3A       		.uleb128 0x3a
 1694 007f 0B       		.uleb128 0xb
 1695 0080 3B       		.uleb128 0x3b
 1696 0081 05       		.uleb128 0x5
 1697 0082 49       		.uleb128 0x49
 1698 0083 13       		.uleb128 0x13
 1699 0084 38       		.uleb128 0x38
 1700 0085 0A       		.uleb128 0xa
 1701 0086 00       		.byte	0
ARM GAS  /tmp/ccQGEYF0.s 			page 44


 1702 0087 00       		.byte	0
 1703 0088 0B       		.uleb128 0xb
 1704 0089 0D       		.uleb128 0xd
 1705 008a 00       		.byte	0
 1706 008b 03       		.uleb128 0x3
 1707 008c 08       		.uleb128 0x8
 1708 008d 3A       		.uleb128 0x3a
 1709 008e 0B       		.uleb128 0xb
 1710 008f 3B       		.uleb128 0x3b
 1711 0090 05       		.uleb128 0x5
 1712 0091 49       		.uleb128 0x49
 1713 0092 13       		.uleb128 0x13
 1714 0093 38       		.uleb128 0x38
 1715 0094 0A       		.uleb128 0xa
 1716 0095 00       		.byte	0
 1717 0096 00       		.byte	0
 1718 0097 0C       		.uleb128 0xc
 1719 0098 01       		.uleb128 0x1
 1720 0099 01       		.byte	0x1
 1721 009a 49       		.uleb128 0x49
 1722 009b 13       		.uleb128 0x13
 1723 009c 01       		.uleb128 0x1
 1724 009d 13       		.uleb128 0x13
 1725 009e 00       		.byte	0
 1726 009f 00       		.byte	0
 1727 00a0 0D       		.uleb128 0xd
 1728 00a1 21       		.uleb128 0x21
 1729 00a2 00       		.byte	0
 1730 00a3 49       		.uleb128 0x49
 1731 00a4 13       		.uleb128 0x13
 1732 00a5 2F       		.uleb128 0x2f
 1733 00a6 0B       		.uleb128 0xb
 1734 00a7 00       		.byte	0
 1735 00a8 00       		.byte	0
 1736 00a9 0E       		.uleb128 0xe
 1737 00aa 21       		.uleb128 0x21
 1738 00ab 00       		.byte	0
 1739 00ac 49       		.uleb128 0x49
 1740 00ad 13       		.uleb128 0x13
 1741 00ae 2F       		.uleb128 0x2f
 1742 00af 05       		.uleb128 0x5
 1743 00b0 00       		.byte	0
 1744 00b1 00       		.byte	0
 1745 00b2 0F       		.uleb128 0xf
 1746 00b3 16       		.uleb128 0x16
 1747 00b4 00       		.byte	0
 1748 00b5 03       		.uleb128 0x3
 1749 00b6 0E       		.uleb128 0xe
 1750 00b7 3A       		.uleb128 0x3a
 1751 00b8 0B       		.uleb128 0xb
 1752 00b9 3B       		.uleb128 0x3b
 1753 00ba 05       		.uleb128 0x5
 1754 00bb 49       		.uleb128 0x49
 1755 00bc 13       		.uleb128 0x13
 1756 00bd 00       		.byte	0
 1757 00be 00       		.byte	0
 1758 00bf 10       		.uleb128 0x10
ARM GAS  /tmp/ccQGEYF0.s 			page 45


 1759 00c0 13       		.uleb128 0x13
 1760 00c1 01       		.byte	0x1
 1761 00c2 0B       		.uleb128 0xb
 1762 00c3 0B       		.uleb128 0xb
 1763 00c4 3A       		.uleb128 0x3a
 1764 00c5 0B       		.uleb128 0xb
 1765 00c6 3B       		.uleb128 0x3b
 1766 00c7 05       		.uleb128 0x5
 1767 00c8 01       		.uleb128 0x1
 1768 00c9 13       		.uleb128 0x13
 1769 00ca 00       		.byte	0
 1770 00cb 00       		.byte	0
 1771 00cc 11       		.uleb128 0x11
 1772 00cd 26       		.uleb128 0x26
 1773 00ce 00       		.byte	0
 1774 00cf 49       		.uleb128 0x49
 1775 00d0 13       		.uleb128 0x13
 1776 00d1 00       		.byte	0
 1777 00d2 00       		.byte	0
 1778 00d3 12       		.uleb128 0x12
 1779 00d4 0F       		.uleb128 0xf
 1780 00d5 00       		.byte	0
 1781 00d6 0B       		.uleb128 0xb
 1782 00d7 0B       		.uleb128 0xb
 1783 00d8 00       		.byte	0
 1784 00d9 00       		.byte	0
 1785 00da 13       		.uleb128 0x13
 1786 00db 0F       		.uleb128 0xf
 1787 00dc 00       		.byte	0
 1788 00dd 0B       		.uleb128 0xb
 1789 00de 0B       		.uleb128 0xb
 1790 00df 49       		.uleb128 0x49
 1791 00e0 13       		.uleb128 0x13
 1792 00e1 00       		.byte	0
 1793 00e2 00       		.byte	0
 1794 00e3 14       		.uleb128 0x14
 1795 00e4 13       		.uleb128 0x13
 1796 00e5 01       		.byte	0x1
 1797 00e6 0B       		.uleb128 0xb
 1798 00e7 0B       		.uleb128 0xb
 1799 00e8 3A       		.uleb128 0x3a
 1800 00e9 0B       		.uleb128 0xb
 1801 00ea 3B       		.uleb128 0x3b
 1802 00eb 0B       		.uleb128 0xb
 1803 00ec 01       		.uleb128 0x1
 1804 00ed 13       		.uleb128 0x13
 1805 00ee 00       		.byte	0
 1806 00ef 00       		.byte	0
 1807 00f0 15       		.uleb128 0x15
 1808 00f1 17       		.uleb128 0x17
 1809 00f2 01       		.byte	0x1
 1810 00f3 0B       		.uleb128 0xb
 1811 00f4 0B       		.uleb128 0xb
 1812 00f5 3A       		.uleb128 0x3a
 1813 00f6 0B       		.uleb128 0xb
 1814 00f7 3B       		.uleb128 0x3b
 1815 00f8 0B       		.uleb128 0xb
ARM GAS  /tmp/ccQGEYF0.s 			page 46


 1816 00f9 01       		.uleb128 0x1
 1817 00fa 13       		.uleb128 0x13
 1818 00fb 00       		.byte	0
 1819 00fc 00       		.byte	0
 1820 00fd 16       		.uleb128 0x16
 1821 00fe 0D       		.uleb128 0xd
 1822 00ff 00       		.byte	0
 1823 0100 03       		.uleb128 0x3
 1824 0101 0E       		.uleb128 0xe
 1825 0102 3A       		.uleb128 0x3a
 1826 0103 0B       		.uleb128 0xb
 1827 0104 3B       		.uleb128 0x3b
 1828 0105 0B       		.uleb128 0xb
 1829 0106 49       		.uleb128 0x49
 1830 0107 13       		.uleb128 0x13
 1831 0108 00       		.byte	0
 1832 0109 00       		.byte	0
 1833 010a 17       		.uleb128 0x17
 1834 010b 15       		.uleb128 0x15
 1835 010c 01       		.byte	0x1
 1836 010d 27       		.uleb128 0x27
 1837 010e 0C       		.uleb128 0xc
 1838 010f 01       		.uleb128 0x1
 1839 0110 13       		.uleb128 0x13
 1840 0111 00       		.byte	0
 1841 0112 00       		.byte	0
 1842 0113 18       		.uleb128 0x18
 1843 0114 05       		.uleb128 0x5
 1844 0115 00       		.byte	0
 1845 0116 49       		.uleb128 0x49
 1846 0117 13       		.uleb128 0x13
 1847 0118 00       		.byte	0
 1848 0119 00       		.byte	0
 1849 011a 19       		.uleb128 0x19
 1850 011b 13       		.uleb128 0x13
 1851 011c 01       		.byte	0x1
 1852 011d 03       		.uleb128 0x3
 1853 011e 0E       		.uleb128 0xe
 1854 011f 0B       		.uleb128 0xb
 1855 0120 0B       		.uleb128 0xb
 1856 0121 3A       		.uleb128 0x3a
 1857 0122 0B       		.uleb128 0xb
 1858 0123 3B       		.uleb128 0x3b
 1859 0124 05       		.uleb128 0x5
 1860 0125 01       		.uleb128 0x1
 1861 0126 13       		.uleb128 0x13
 1862 0127 00       		.byte	0
 1863 0128 00       		.byte	0
 1864 0129 1A       		.uleb128 0x1a
 1865 012a 2E       		.uleb128 0x2e
 1866 012b 01       		.byte	0x1
 1867 012c 3F       		.uleb128 0x3f
 1868 012d 0C       		.uleb128 0xc
 1869 012e 03       		.uleb128 0x3
 1870 012f 0E       		.uleb128 0xe
 1871 0130 3A       		.uleb128 0x3a
 1872 0131 0B       		.uleb128 0xb
ARM GAS  /tmp/ccQGEYF0.s 			page 47


 1873 0132 3B       		.uleb128 0x3b
 1874 0133 0B       		.uleb128 0xb
 1875 0134 27       		.uleb128 0x27
 1876 0135 0C       		.uleb128 0xc
 1877 0136 11       		.uleb128 0x11
 1878 0137 01       		.uleb128 0x1
 1879 0138 12       		.uleb128 0x12
 1880 0139 01       		.uleb128 0x1
 1881 013a 40       		.uleb128 0x40
 1882 013b 06       		.uleb128 0x6
 1883 013c 9742     		.uleb128 0x2117
 1884 013e 0C       		.uleb128 0xc
 1885 013f 01       		.uleb128 0x1
 1886 0140 13       		.uleb128 0x13
 1887 0141 00       		.byte	0
 1888 0142 00       		.byte	0
 1889 0143 1B       		.uleb128 0x1b
 1890 0144 05       		.uleb128 0x5
 1891 0145 00       		.byte	0
 1892 0146 03       		.uleb128 0x3
 1893 0147 08       		.uleb128 0x8
 1894 0148 3A       		.uleb128 0x3a
 1895 0149 0B       		.uleb128 0xb
 1896 014a 3B       		.uleb128 0x3b
 1897 014b 0B       		.uleb128 0xb
 1898 014c 49       		.uleb128 0x49
 1899 014d 13       		.uleb128 0x13
 1900 014e 02       		.uleb128 0x2
 1901 014f 06       		.uleb128 0x6
 1902 0150 00       		.byte	0
 1903 0151 00       		.byte	0
 1904 0152 1C       		.uleb128 0x1c
 1905 0153 05       		.uleb128 0x5
 1906 0154 00       		.byte	0
 1907 0155 03       		.uleb128 0x3
 1908 0156 0E       		.uleb128 0xe
 1909 0157 3A       		.uleb128 0x3a
 1910 0158 0B       		.uleb128 0xb
 1911 0159 3B       		.uleb128 0x3b
 1912 015a 0B       		.uleb128 0xb
 1913 015b 49       		.uleb128 0x49
 1914 015c 13       		.uleb128 0x13
 1915 015d 02       		.uleb128 0x2
 1916 015e 06       		.uleb128 0x6
 1917 015f 00       		.byte	0
 1918 0160 00       		.byte	0
 1919 0161 1D       		.uleb128 0x1d
 1920 0162 2E       		.uleb128 0x2e
 1921 0163 01       		.byte	0x1
 1922 0164 3F       		.uleb128 0x3f
 1923 0165 0C       		.uleb128 0xc
 1924 0166 03       		.uleb128 0x3
 1925 0167 0E       		.uleb128 0xe
 1926 0168 3A       		.uleb128 0x3a
 1927 0169 0B       		.uleb128 0xb
 1928 016a 3B       		.uleb128 0x3b
 1929 016b 0B       		.uleb128 0xb
ARM GAS  /tmp/ccQGEYF0.s 			page 48


 1930 016c 27       		.uleb128 0x27
 1931 016d 0C       		.uleb128 0xc
 1932 016e 11       		.uleb128 0x11
 1933 016f 01       		.uleb128 0x1
 1934 0170 12       		.uleb128 0x12
 1935 0171 01       		.uleb128 0x1
 1936 0172 40       		.uleb128 0x40
 1937 0173 0A       		.uleb128 0xa
 1938 0174 9742     		.uleb128 0x2117
 1939 0176 0C       		.uleb128 0xc
 1940 0177 01       		.uleb128 0x1
 1941 0178 13       		.uleb128 0x13
 1942 0179 00       		.byte	0
 1943 017a 00       		.byte	0
 1944 017b 1E       		.uleb128 0x1e
 1945 017c 34       		.uleb128 0x34
 1946 017d 00       		.byte	0
 1947 017e 03       		.uleb128 0x3
 1948 017f 0E       		.uleb128 0xe
 1949 0180 49       		.uleb128 0x49
 1950 0181 13       		.uleb128 0x13
 1951 0182 34       		.uleb128 0x34
 1952 0183 0C       		.uleb128 0xc
 1953 0184 00       		.byte	0
 1954 0185 00       		.byte	0
 1955 0186 1F       		.uleb128 0x1f
 1956 0187 34       		.uleb128 0x34
 1957 0188 00       		.byte	0
 1958 0189 03       		.uleb128 0x3
 1959 018a 0E       		.uleb128 0xe
 1960 018b 3A       		.uleb128 0x3a
 1961 018c 0B       		.uleb128 0xb
 1962 018d 3B       		.uleb128 0x3b
 1963 018e 05       		.uleb128 0x5
 1964 018f 49       		.uleb128 0x49
 1965 0190 13       		.uleb128 0x13
 1966 0191 3F       		.uleb128 0x3f
 1967 0192 0C       		.uleb128 0xc
 1968 0193 3C       		.uleb128 0x3c
 1969 0194 0C       		.uleb128 0xc
 1970 0195 00       		.byte	0
 1971 0196 00       		.byte	0
 1972 0197 20       		.uleb128 0x20
 1973 0198 34       		.uleb128 0x34
 1974 0199 00       		.byte	0
 1975 019a 03       		.uleb128 0x3
 1976 019b 08       		.uleb128 0x8
 1977 019c 3A       		.uleb128 0x3a
 1978 019d 0B       		.uleb128 0xb
 1979 019e 3B       		.uleb128 0x3b
 1980 019f 05       		.uleb128 0x5
 1981 01a0 49       		.uleb128 0x49
 1982 01a1 13       		.uleb128 0x13
 1983 01a2 3F       		.uleb128 0x3f
 1984 01a3 0C       		.uleb128 0xc
 1985 01a4 3C       		.uleb128 0x3c
 1986 01a5 0C       		.uleb128 0xc
ARM GAS  /tmp/ccQGEYF0.s 			page 49


 1987 01a6 00       		.byte	0
 1988 01a7 00       		.byte	0
 1989 01a8 00       		.byte	0
 1990              		.section	.debug_loc,"",%progbits
 1991              	.Ldebug_loc0:
 1992              	.LLST0:
 1993 0000 00000000 		.4byte	.LFB194
 1994 0004 02000000 		.4byte	.LCFI0
 1995 0008 0200     		.2byte	0x2
 1996 000a 7D       		.byte	0x7d
 1997 000b 00       		.sleb128 0
 1998 000c 02000000 		.4byte	.LCFI0
 1999 0010 30000000 		.4byte	.LFE194
 2000 0014 0200     		.2byte	0x2
 2001 0016 7D       		.byte	0x7d
 2002 0017 08       		.sleb128 8
 2003 0018 00000000 		.4byte	0
 2004 001c 00000000 		.4byte	0
 2005              	.LLST1:
 2006 0020 00000000 		.4byte	.LVL0
 2007 0024 1C000000 		.4byte	.LVL2
 2008 0028 0100     		.2byte	0x1
 2009 002a 50       		.byte	0x50
 2010 002b 1C000000 		.4byte	.LVL2
 2011 002f 30000000 		.4byte	.LFE194
 2012 0033 0400     		.2byte	0x4
 2013 0035 F3       		.byte	0xf3
 2014 0036 01       		.uleb128 0x1
 2015 0037 50       		.byte	0x50
 2016 0038 9F       		.byte	0x9f
 2017 0039 00000000 		.4byte	0
 2018 003d 00000000 		.4byte	0
 2019              	.LLST2:
 2020 0041 00000000 		.4byte	.LVL0
 2021 0045 18000000 		.4byte	.LVL1
 2022 0049 0100     		.2byte	0x1
 2023 004b 51       		.byte	0x51
 2024 004c 18000000 		.4byte	.LVL1
 2025 0050 30000000 		.4byte	.LFE194
 2026 0054 0400     		.2byte	0x4
 2027 0056 F3       		.byte	0xf3
 2028 0057 01       		.uleb128 0x1
 2029 0058 51       		.byte	0x51
 2030 0059 9F       		.byte	0x9f
 2031 005a 00000000 		.4byte	0
 2032 005e 00000000 		.4byte	0
 2033              	.LLST3:
 2034 0062 00000000 		.4byte	.LVL3
 2035 0066 1C000000 		.4byte	.LVL4
 2036 006a 0100     		.2byte	0x1
 2037 006c 50       		.byte	0x50
 2038 006d 1C000000 		.4byte	.LVL4
 2039 0071 24000000 		.4byte	.LFE195
 2040 0075 0400     		.2byte	0x4
 2041 0077 F3       		.byte	0xf3
 2042 0078 01       		.uleb128 0x1
 2043 0079 50       		.byte	0x50
ARM GAS  /tmp/ccQGEYF0.s 			page 50


 2044 007a 9F       		.byte	0x9f
 2045 007b 00000000 		.4byte	0
 2046 007f 00000000 		.4byte	0
 2047              	.LLST4:
 2048 0083 00000000 		.4byte	.LVL5
 2049 0087 06000000 		.4byte	.LVL7
 2050 008b 0100     		.2byte	0x1
 2051 008d 50       		.byte	0x50
 2052 008e 06000000 		.4byte	.LVL7
 2053 0092 10000000 		.4byte	.LFE196
 2054 0096 0700     		.2byte	0x7
 2055 0098 70       		.byte	0x70
 2056 0099 80808080 		.sleb128 536870912
 2056      02
 2057 009e 9F       		.byte	0x9f
 2058 009f 00000000 		.4byte	0
 2059 00a3 00000000 		.4byte	0
 2060              	.LLST5:
 2061 00a7 00000000 		.4byte	.LVL5
 2062 00ab 02000000 		.4byte	.LVL6
 2063 00af 0100     		.2byte	0x1
 2064 00b1 51       		.byte	0x51
 2065 00b2 02000000 		.4byte	.LVL6
 2066 00b6 10000000 		.4byte	.LFE196
 2067 00ba 0400     		.2byte	0x4
 2068 00bc F3       		.byte	0xf3
 2069 00bd 01       		.uleb128 0x1
 2070 00be 51       		.byte	0x51
 2071 00bf 9F       		.byte	0x9f
 2072 00c0 00000000 		.4byte	0
 2073 00c4 00000000 		.4byte	0
 2074              		.section	.debug_aranges,"",%progbits
 2075 0000 2C000000 		.4byte	0x2c
 2076 0004 0200     		.2byte	0x2
 2077 0006 00000000 		.4byte	.Ldebug_info0
 2078 000a 04       		.byte	0x4
 2079 000b 00       		.byte	0
 2080 000c 0000     		.2byte	0
 2081 000e 0000     		.2byte	0
 2082 0010 00000000 		.4byte	.LFB194
 2083 0014 30000000 		.4byte	.LFE194-.LFB194
 2084 0018 00000000 		.4byte	.LFB195
 2085 001c 24000000 		.4byte	.LFE195-.LFB195
 2086 0020 00000000 		.4byte	.LFB196
 2087 0024 10000000 		.4byte	.LFE196-.LFB196
 2088 0028 00000000 		.4byte	0
 2089 002c 00000000 		.4byte	0
 2090              		.section	.debug_ranges,"",%progbits
 2091              	.Ldebug_ranges0:
 2092 0000 00000000 		.4byte	.LFB194
 2093 0004 30000000 		.4byte	.LFE194
 2094 0008 00000000 		.4byte	.LFB195
 2095 000c 24000000 		.4byte	.LFE195
 2096 0010 00000000 		.4byte	.LFB196
 2097 0014 10000000 		.4byte	.LFE196
 2098 0018 00000000 		.4byte	0
 2099 001c 00000000 		.4byte	0
ARM GAS  /tmp/ccQGEYF0.s 			page 51


 2100              		.section	.debug_line,"",%progbits
 2101              	.Ldebug_line0:
 2102 0000 C2010000 		.section	.debug_str,"MS",%progbits,1
 2102      02008101 
 2102      00000201 
 2102      FB0E0D00 
 2102      01010101 
 2103              	.LASF72:
 2104 0000 74687265 		.ascii	"threads_list_t\000"
 2104      6164735F 
 2104      6C697374 
 2104      5F7400
 2105              	.LASF43:
 2106 000f 49435052 		.ascii	"ICPR\000"
 2106      00
 2107              	.LASF79:
 2108 0014 72656164 		.ascii	"ready_list_t\000"
 2108      795F6C69 
 2108      73745F74 
 2108      00
 2109              	.LASF80:
 2110 0021 7264796D 		.ascii	"rdymsg\000"
 2110      736700
 2111              	.LASF115:
 2112 0028 5F5F6675 		.ascii	"__func__.6464\000"
 2112      6E635F5F 
 2112      2E363436 
 2112      3400
 2113              	.LASF70:
 2114 0036 706F7274 		.ascii	"port_intctx\000"
 2114      5F696E74 
 2114      63747800 
 2115              	.LASF101:
 2116 0042 76746C69 		.ascii	"vtlist\000"
 2116      737400
 2117              	.LASF12:
 2118 0049 6C6F6E67 		.ascii	"long long unsigned int\000"
 2118      206C6F6E 
 2118      6720756E 
 2118      7369676E 
 2118      65642069 
 2119              	.LASF81:
 2120 0060 65786974 		.ascii	"exitcode\000"
 2120      636F6465 
 2120      00
 2121              	.LASF98:
 2122 0069 76697274 		.ascii	"virtual_timers_list_t\000"
 2122      75616C5F 
 2122      74696D65 
 2122      72735F6C 
 2122      6973745F 
 2123              	.LASF51:
 2124 007f 43505549 		.ascii	"CPUID\000"
 2124      4400
 2125              	.LASF41:
 2126 0085 49535052 		.ascii	"ISPR\000"
 2126      00
ARM GAS  /tmp/ccQGEYF0.s 			page 52


 2127              	.LASF15:
 2128 008a 705F7072 		.ascii	"p_prio\000"
 2128      696F00
 2129              	.LASF107:
 2130 0091 6E766963 		.ascii	"nvicEnableVector\000"
 2130      456E6162 
 2130      6C655665 
 2130      63746F72 
 2130      00
 2131              	.LASF63:
 2132 00a2 49534152 		.ascii	"ISAR\000"
 2132      00
 2133              	.LASF11:
 2134 00a7 6C6F6E67 		.ascii	"long long int\000"
 2134      206C6F6E 
 2134      6720696E 
 2134      7400
 2135              	.LASF1:
 2136 00b5 7369676E 		.ascii	"signed char\000"
 2136      65642063 
 2136      68617200 
 2137              	.LASF29:
 2138 00c1 705F6D70 		.ascii	"p_mpool\000"
 2138      6F6F6C00 
 2139              	.LASF86:
 2140 00c9 6D5F7175 		.ascii	"m_queue\000"
 2140      65756500 
 2141              	.LASF112:
 2142 00d1 474E5520 		.ascii	"GNU C 4.7.4 20130913 (release) [ARM/embedded-4_7-br"
 2142      4320342E 
 2142      372E3420 
 2142      32303133 
 2142      30393133 
 2143 0104 616E6368 		.ascii	"anch revision 202601]\000"
 2143      20726576 
 2143      6973696F 
 2143      6E203230 
 2143      32363031 
 2144              	.LASF99:
 2145 011a 63685F73 		.ascii	"ch_system\000"
 2145      79737465 
 2145      6D00
 2146              	.LASF8:
 2147 0124 6C6F6E67 		.ascii	"long int\000"
 2147      20696E74 
 2147      00
 2148              	.LASF32:
 2149 012d 74737461 		.ascii	"tstate_t\000"
 2149      74655F74 
 2149      00
 2150              	.LASF68:
 2151 0136 74687265 		.ascii	"thread\000"
 2151      616400
 2152              	.LASF5:
 2153 013d 75696E74 		.ascii	"uint16_t\000"
 2153      31365F74 
 2153      00
ARM GAS  /tmp/ccQGEYF0.s 			page 53


 2154              	.LASF17:
 2155 0146 705F6E65 		.ascii	"p_newer\000"
 2155      77657200 
 2156              	.LASF60:
 2157 014e 42464152 		.ascii	"BFAR\000"
 2157      00
 2158              	.LASF61:
 2159 0153 41465352 		.ascii	"AFSR\000"
 2159      00
 2160              	.LASF76:
 2161 0158 725F6E65 		.ascii	"r_newer\000"
 2161      77657200 
 2162              	.LASF67:
 2163 0160 72656761 		.ascii	"regarm_t\000"
 2163      726D5F74 
 2163      00
 2164              	.LASF93:
 2165 0169 76745F70 		.ascii	"vt_prev\000"
 2165      72657600 
 2166              	.LASF65:
 2167 0171 5343425F 		.ascii	"SCB_Type\000"
 2167      54797065 
 2167      00
 2168              	.LASF104:
 2169 017a 6D757465 		.ascii	"mutex_t\000"
 2169      785F7400 
 2170              	.LASF0:
 2171 0182 756E7369 		.ascii	"unsigned int\000"
 2171      676E6564 
 2171      20696E74 
 2171      00
 2172              	.LASF92:
 2173 018f 76745F6E 		.ascii	"vt_next\000"
 2173      65787400 
 2174              	.LASF108:
 2175 0197 6E766963 		.ascii	"nvicDisableVector\000"
 2175      44697361 
 2175      626C6556 
 2175      6563746F 
 2175      7200
 2176              	.LASF24:
 2177 01a9 705F6D73 		.ascii	"p_msgqueue\000"
 2177      67717565 
 2177      756500
 2178              	.LASF53:
 2179 01b4 56544F52 		.ascii	"VTOR\000"
 2179      00
 2180              	.LASF52:
 2181 01b9 49435352 		.ascii	"ICSR\000"
 2181      00
 2182              	.LASF35:
 2183 01be 6D73675F 		.ascii	"msg_t\000"
 2183      7400
 2184              	.LASF54:
 2185 01c4 41495243 		.ascii	"AIRCR\000"
 2185      5200
 2186              	.LASF58:
ARM GAS  /tmp/ccQGEYF0.s 			page 54


 2187 01ca 44465352 		.ascii	"DFSR\000"
 2187      00
 2188              	.LASF59:
 2189 01cf 4D4D4641 		.ascii	"MMFAR\000"
 2189      5200
 2190              	.LASF103:
 2191 01d5 63685F73 		.ascii	"ch_system_t\000"
 2191      79737465 
 2191      6D5F7400 
 2192              	.LASF31:
 2193 01e1 746D6F64 		.ascii	"tmode_t\000"
 2193      655F7400 
 2194              	.LASF36:
 2195 01e9 6576656E 		.ascii	"eventmask_t\000"
 2195      746D6173 
 2195      6B5F7400 
 2196              	.LASF110:
 2197 01f5 68616E64 		.ascii	"handler\000"
 2197      6C657200 
 2198              	.LASF90:
 2199 01fd 76697274 		.ascii	"virtual_timer_t\000"
 2199      75616C5F 
 2199      74696D65 
 2199      725F7400 
 2200              	.LASF23:
 2201 020d 705F7761 		.ascii	"p_waiting\000"
 2201      6974696E 
 2201      6700
 2202              	.LASF49:
 2203 0217 73697A65 		.ascii	"sizetype\000"
 2203      74797065 
 2203      00
 2204              	.LASF56:
 2205 0220 43465352 		.ascii	"CFSR\000"
 2205      00
 2206              	.LASF45:
 2207 0225 49414252 		.ascii	"IABR\000"
 2207      00
 2208              	.LASF97:
 2209 022a 76745F6C 		.ascii	"vt_lasttime\000"
 2209      61737474 
 2209      696D6500 
 2210              	.LASF18:
 2211 0236 705F6F6C 		.ascii	"p_older\000"
 2211      64657200 
 2212              	.LASF75:
 2213 023e 725F6374 		.ascii	"r_ctx\000"
 2213      7800
 2214              	.LASF39:
 2215 0244 49434552 		.ascii	"ICER\000"
 2215      00
 2216              	.LASF106:
 2217 0249 7072696F 		.ascii	"prio\000"
 2217      00
 2218              	.LASF77:
 2219 024e 725F6F6C 		.ascii	"r_older\000"
 2219      64657200 
ARM GAS  /tmp/ccQGEYF0.s 			page 55


 2220              	.LASF33:
 2221 0256 74726566 		.ascii	"trefs_t\000"
 2221      735F7400 
 2222              	.LASF38:
 2223 025e 52455345 		.ascii	"RESERVED0\000"
 2223      52564544 
 2223      3000
 2224              	.LASF42:
 2225 0268 52455345 		.ascii	"RESERVED2\000"
 2225      52564544 
 2225      3200
 2226              	.LASF44:
 2227 0272 52455345 		.ascii	"RESERVED3\000"
 2227      52564544 
 2227      3300
 2228              	.LASF46:
 2229 027c 52455345 		.ascii	"RESERVED4\000"
 2229      52564544 
 2229      3400
 2230              	.LASF14:
 2231 0286 705F7072 		.ascii	"p_prev\000"
 2231      657600
 2232              	.LASF34:
 2233 028d 74707269 		.ascii	"tprio_t\000"
 2233      6F5F7400 
 2234              	.LASF85:
 2235 0295 6D757465 		.ascii	"mutex\000"
 2235      7800
 2236              	.LASF105:
 2237 029b 5F426F6F 		.ascii	"_Bool\000"
 2237      6C00
 2238              	.LASF7:
 2239 02a1 696E7433 		.ascii	"int32_t\000"
 2239      325F7400 
 2240              	.LASF2:
 2241 02a9 756E7369 		.ascii	"unsigned char\000"
 2241      676E6564 
 2241      20636861 
 2241      7200
 2242              	.LASF55:
 2243 02b7 53484353 		.ascii	"SHCSR\000"
 2243      5200
 2244              	.LASF111:
 2245 02bd 49544D5F 		.ascii	"ITM_RxBuffer\000"
 2245      52784275 
 2245      66666572 
 2245      00
 2246              	.LASF20:
 2247 02ca 705F7374 		.ascii	"p_state\000"
 2247      61746500 
 2248              	.LASF27:
 2249 02d2 705F6D74 		.ascii	"p_mtxlist\000"
 2249      786C6973 
 2249      7400
 2250              	.LASF3:
 2251 02dc 73686F72 		.ascii	"short int\000"
 2251      7420696E 
ARM GAS  /tmp/ccQGEYF0.s 			page 56


 2251      7400
 2252              	.LASF37:
 2253 02e6 49534552 		.ascii	"ISER\000"
 2253      00
 2254              	.LASF50:
 2255 02eb 4E564943 		.ascii	"NVIC_Type\000"
 2255      5F547970 
 2255      6500
 2256              	.LASF109:
 2257 02f5 6E766963 		.ascii	"nvicSetSystemHandlerPriority\000"
 2257      53657453 
 2257      79737465 
 2257      6D48616E 
 2257      646C6572 
 2258              	.LASF74:
 2259 0312 725F7072 		.ascii	"r_prio\000"
 2259      696F00
 2260              	.LASF83:
 2261 0319 65776D61 		.ascii	"ewmask\000"
 2261      736B00
 2262              	.LASF13:
 2263 0320 705F6E65 		.ascii	"p_next\000"
 2263      787400
 2264              	.LASF21:
 2265 0327 705F666C 		.ascii	"p_flags\000"
 2265      61677300 
 2266              	.LASF6:
 2267 032f 73686F72 		.ascii	"short unsigned int\000"
 2267      7420756E 
 2267      7369676E 
 2267      65642069 
 2267      6E7400
 2268              	.LASF26:
 2269 0342 705F6570 		.ascii	"p_epending\000"
 2269      656E6469 
 2269      6E6700
 2270              	.LASF47:
 2271 034d 52455345 		.ascii	"RESERVED5\000"
 2271      52564544 
 2271      3500
 2272              	.LASF9:
 2273 0357 75696E74 		.ascii	"uint32_t\000"
 2273      33325F74 
 2273      00
 2274              	.LASF73:
 2275 0360 725F7175 		.ascii	"r_queue\000"
 2275      65756500 
 2276              	.LASF94:
 2277 0368 76745F64 		.ascii	"vt_delta\000"
 2277      656C7461 
 2277      00
 2278              	.LASF10:
 2279 0371 6C6F6E67 		.ascii	"long unsigned int\000"
 2279      20756E73 
 2279      69676E65 
 2279      6420696E 
 2279      7400
ARM GAS  /tmp/ccQGEYF0.s 			page 57


 2280              	.LASF78:
 2281 0383 725F6375 		.ascii	"r_current\000"
 2281      7272656E 
 2281      7400
 2282              	.LASF84:
 2283 038d 63686172 		.ascii	"char\000"
 2283      00
 2284              	.LASF88:
 2285 0392 6D5F6E65 		.ascii	"m_next\000"
 2285      787400
 2286              	.LASF66:
 2287 0399 73797374 		.ascii	"systime_t\000"
 2287      696D655F 
 2287      7400
 2288              	.LASF28:
 2289 03a3 705F7265 		.ascii	"p_realprio\000"
 2289      616C7072 
 2289      696F00
 2290              	.LASF89:
 2291 03ae 76746675 		.ascii	"vtfunc_t\000"
 2291      6E635F74 
 2291      00
 2292              	.LASF114:
 2293 03b7 2F686F6D 		.ascii	"/home/joerg/repos/chibios-projects/ChibiOS-RT/demos"
 2293      652F6A6F 
 2293      6572672F 
 2293      7265706F 
 2293      732F6368 
 2294 03ea 2F53544D 		.ascii	"/STM32/RT-STM32F103-OLIMEX_STM32_P103\000"
 2294      33322F52 
 2294      542D5354 
 2294      4D333246 
 2294      3130332D 
 2295              	.LASF69:
 2296 0410 636F6E74 		.ascii	"context\000"
 2296      65787400 
 2297              	.LASF30:
 2298 0418 7274636E 		.ascii	"rtcnt_t\000"
 2298      745F7400 
 2299              	.LASF113:
 2300 0420 2E2E2F2E 		.ascii	"../../../os/hal/ports/common/ARMCMx/nvic.c\000"
 2300      2E2F2E2E 
 2300      2F6F732F 
 2300      68616C2F 
 2300      706F7274 
 2301              	.LASF91:
 2302 044b 76697274 		.ascii	"virtual_timer\000"
 2302      75616C5F 
 2302      74696D65 
 2302      7200
 2303              	.LASF96:
 2304 0459 76745F70 		.ascii	"vt_par\000"
 2304      617200
 2305              	.LASF102:
 2306 0460 6D656173 		.ascii	"measurement_offset\000"
 2306      7572656D 
 2306      656E745F 
ARM GAS  /tmp/ccQGEYF0.s 			page 58


 2306      6F666673 
 2306      657400
 2307              	.LASF71:
 2308 0473 74687265 		.ascii	"threads_queue_t\000"
 2308      6164735F 
 2308      71756575 
 2308      655F7400 
 2309              	.LASF22:
 2310 0483 705F7265 		.ascii	"p_refs\000"
 2310      667300
 2311              	.LASF62:
 2312 048a 4D4D4652 		.ascii	"MMFR\000"
 2312      00
 2313              	.LASF100:
 2314 048f 726C6973 		.ascii	"rlist\000"
 2314      7400
 2315              	.LASF4:
 2316 0495 75696E74 		.ascii	"uint8_t\000"
 2316      385F7400 
 2317              	.LASF40:
 2318 049d 52534552 		.ascii	"RSERVED1\000"
 2318      56454431 
 2318      00
 2319              	.LASF48:
 2320 04a6 53544952 		.ascii	"STIR\000"
 2320      00
 2321              	.LASF82:
 2322 04ab 77746F62 		.ascii	"wtobjp\000"
 2322      6A7000
 2323              	.LASF19:
 2324 04b2 705F6E61 		.ascii	"p_name\000"
 2324      6D6500
 2325              	.LASF25:
 2326 04b9 705F6D73 		.ascii	"p_msg\000"
 2326      6700
 2327              	.LASF64:
 2328 04bf 43504143 		.ascii	"CPACR\000"
 2328      5200
 2329              	.LASF57:
 2330 04c5 48465352 		.ascii	"HFSR\000"
 2330      00
 2331              	.LASF87:
 2332 04ca 6D5F6F77 		.ascii	"m_owner\000"
 2332      6E657200 
 2333              	.LASF16:
 2334 04d2 705F6374 		.ascii	"p_ctx\000"
 2334      7800
 2335              	.LASF95:
 2336 04d8 76745F66 		.ascii	"vt_func\000"
 2336      756E6300 
 2337              		.comm	__gnu_lto_v1,1,1
 2338              		.ident	"GCC: (GNU Tools for ARM Embedded Processors) 4.7.4 20130913 (release) [ARM/embedded-4_7-br
ARM GAS  /tmp/ccQGEYF0.s 			page 59


DEFINED SYMBOLS
                            *ABS*:00000000 nvic.c
     /tmp/ccQGEYF0.s:249    .text.nvicEnableVector:00000000 $t
     /tmp/ccQGEYF0.s:255    .text.nvicEnableVector:00000000 nvicEnableVector
     /tmp/ccQGEYF0.s:299    .text.nvicDisableVector:00000000 $t
     /tmp/ccQGEYF0.s:305    .text.nvicDisableVector:00000000 nvicDisableVector
     /tmp/ccQGEYF0.s:332    .text.nvicSetSystemHandlerPriority:00000000 $t
     /tmp/ccQGEYF0.s:338    .text.nvicSetSystemHandlerPriority:00000000 nvicSetSystemHandlerPriority
                            *COM*:00000001 __gnu_lto_v1
                     .debug_frame:00000010 $d

NO UNDEFINED SYMBOLS
