ARM GAS  /tmp/ccdKYX3q.s 			page 1


   1              		.syntax unified
   2              		.cpu cortex-m3
   3              		.fpu softvfp
   4              		.eabi_attribute 20, 1
   5              		.eabi_attribute 21, 1
   6              		.eabi_attribute 23, 3
   7              		.eabi_attribute 24, 1
   8              		.eabi_attribute 25, 1
   9              		.eabi_attribute 26, 1
  10              		.eabi_attribute 30, 2
  11              		.eabi_attribute 34, 1
  12              		.eabi_attribute 18, 4
  13              		.thumb
  14              		.file	"pal.c"
  15              		.text
  16              	.Ltext0:
  17              		.section	.gnu.lto_.jmpfuncs.7f28e2965fb67ca0,"",%progbits
  18 0000 789C6362 		.ascii	"x\234cb`d`g\300\016\004\24043\003##3\02333\003\003\013"
  18      60646067 
  18      C00E04A0 
  18      34330323 
  18      23331333 
  19 0018 03036309 		.ascii	"\003\003c\011\003\000\005_\000\244"
  19      0300055F 
  19      00A4
  20              		.text
  21              		.section	.gnu.lto_.inline.7f28e2965fb67ca0,"",%progbits
  22 0000 789C6362 		.ascii	"x\234cb`d\340e\300\016\334\24143\003\003'\007#\003\023"
  22      6064E065 
  22      C00EDCA1 
  22      34330303 
  22      27072303 
  23 0015 E70A3706 		.ascii	"\347\0127\006\316\033fL@-|\274\214@\000\224\022|\321"
  23      CE1B664C 
  23      402D7CBC 
  23      8C400094 
  23      127CD1
  24 0028 C2081164 		.ascii	"\302\010\021d\272\300\317\302\300\304\300-\014T\311"
  24      BAC0CFC2 
  24      C0C4C02D 
  24      0C54C9
  25 0037 DAA10E11 		.ascii	"\332\241\016\021d\001\232\315<\301\017\004\031\000W"
  25      64019ACD 
  25      3CC10F04 
  25      190057
  26 0046 C80ABC   		.ascii	"\310\012\274"
  27              		.text
  28              		.section	.gnu.lto_.pureconst.7f28e2965fb67ca0,"",%progbits
  29 0000 789C6362 		.ascii	"x\234cb`d`f```g\200\000f\006)F)&I\000\002\002\000a"
  29      60646066 
  29      60606067 
  29      80006606 
  29      29462926 
  30              		.text
  31              		.section	.gnu.lto_palReadBus.7f28e2965fb67ca0,"",%progbits
  32 0000 789C9D93 		.ascii	"x\234\235\223MK\002A\030\307\237\347\231}\313:t5\210"
  32      4D4B0241 
ARM GAS  /tmp/ccdKYX3q.s 			page 2


  32      18C79FE7 
  32      997DCB3A 
  32      743588
  33 0013 443C25B8 		.ascii	"D<%\270\327>\202\327\202.\201\205m\013\025B\221tv[\375"
  33      D73E82D7 
  33      822E8185 
  33      6D0B1542 
  33      9174765B 
  34 0028 00D2C9F5 		.ascii	"\000\322\311\365\224\332;\235\203NE\335\226\360\324"
  34      94DA3B9D 
  34      834E45DD 
  34      96F0D4
  35 0037 0710BAFA 		.ascii	"\007\020\272\372\035\354\231I]\245\004uv\227\3370\354"
  35      1DEC9949 
  35      5DA50475 
  35      7697DF30 
  35      EC
  36 0048 6FFE33B3 		.ascii	"o\3763\263\317\022 _\177[\234\237\003\001\220`\242\000"
  36      CF12205F 
  36      7F5B9C9F 
  36      03019060 
  36      A200
  37 005a A46A1BE0 		.ascii	"\244j\033\340\"A\210\262\303J\211\260\264\255L3\011"
  37      224188B2 
  37      C34A89B0 
  37      B4AD4C33 
  37      09
  38 006b 0DCFAB57 		.ascii	"\015\317\253W?\374\254\337\351\365\326\\9\272\207\020"
  38      3FFCACDF 
  38      E9F5D65C 
  38      39BA8710 
  39 007b 06DF1807 		.ascii	"\006\337\030\007\027\221'\221$\320\3063\224w9\342\011"
  39      17912791 
  39      24D0C633 
  39      947739E2 
  39      09
  40 008c E5DD8BD9 		.ascii	"\345\335\213\331,MY0\233\244O+UG$c\236\244\271\2267"
  40      2C4D5930 
  40      9BA44F2B 
  40      55472463 
  40      9EA4B996 
  41 00a1 8DD4AD3D 		.ascii	"\215\324\255=\323W`\274\322[\247WJAK\316P\366\262.\232"
  41      D35760BC 
  41      D25BA757 
  41      4A414BCE 
  41      50F6B22E 
  42 00b6 04AB28FD 		.ascii	"\004\253(\375n\255I\377L\301o@\0141\207w\230\002\202"
  42      6EAD49FF 
  42      4CC16F40 
  42      0C318777 
  42      980282
  43 00c9 1C363009 		.ascii	"\03460\011\202\331dj\314\026Sg^3\015\346\015\323d\336"
  43      82D9646A 
  43      CC165367 
  43      5E330DE6 
  43      0DD364DE 
  44 00dd 322DE615 		.ascii	"2-\346\025\223\233\016\025\317[\306#\225\245\332\246"
ARM GAS  /tmp/ccdKYX3q.s 			page 3


  44      939B0E15 
  44      CF5BC623 
  44      95A5DAA6 
  45 00ed A42C902D 		.ascii	"\244,\220-\316\222\035\021\202\277\363\031\034\347\360"
  45      CE921D11 
  45      82BFF319 
  45      1CE7F0
  46 00fc 818FDC41 		.ascii	"\201\217\334AJ\303\272\213\226\250C\200..\220\203\252"
  46      4AC3BA8B 
  46      96A84380 
  46      2E2E9083 
  46      AA
  47 010d 44CCFE96 		.ascii	"D\314\376\226v\243R\014\341}\007\006\232H\303\243Wa"
  47      76A3520C 
  47      E17D0706 
  47      9A48C3A3 
  47      5761
  48 011f 23D63717 		.ascii	"#\3267\027\331T[\263\206&F\246\037\231\232\012\\\232"
  48      D9545BB3 
  48      862646A6 
  48      1F999A0A 
  48      5C9A
  49 0131 1C48235A 		.ascii	"\034H#ZW\014=\335\221\337 \204\362S4f\360B\034Y9c\011"
  49      570C3DDD 
  49      91DF2084 
  49      F2533466 
  49      F0421C59 
  50 0148 A64A80C9 		.ascii	"\246J\200\311\011\"J(\277\210\215\201g\251\011\371\265"
  50      09224A28 
  50      BF888D81 
  50      67A909F9 
  50      B5
  51 0159 36FF4DC3 		.ascii	"6\377M\303\301\3019\242:>\271\270\225L\306\376\275O"
  51      C1C139A2 
  51      3A3EB9B8 
  51      954CC6FE 
  51      BD4F
  52 016b 8AF661BE 		.ascii	"\212\366a\276`\027\317\034\3734_\3108 \366\317\213?"
  52      6017CF1C 
  52      FB345FC8 
  52      3820F6CF 
  52      8B3F
  53 017d 8C93A58E 		.ascii	"\214\223\245\216"
  54              		.text
  55              		.section	.gnu.lto_palWriteBus.7f28e2965fb67ca0,"",%progbits
  56 0000 789CCD93 		.ascii	"x\234\315\223;K\003A\024\205\357\235\331\335<\014I\300"
  56      3B4B0341 
  56      1485EF9D 
  56      D9DD3C0C 
  56      49C0
  57 0012 2A82F840 		.ascii	"*\202\370@\033\003\311\337\320R\305F\210\242\313\202"
  57      1B03C9DF 
  57      D052C546 
  57      88A2CB82 
  58 0022 82A018AD 		.ascii	"\202\240\030\255\263F\177@\260\323X\370\214O\324Rm\024"
  58      B3467F40 
  58      B0D358F8 
ARM GAS  /tmp/ccdKYX3q.s 			page 4


  58      8C4FD452 
  58      6D14
  59 0034 ED525859 		.ascii	"\355RXYZ\010\202\225\245}<3yl\314\243\0242\311\362\315"
  59      5A088295 
  59      A57D3C33 
  59      796CCCA3 
  59      1432C9F2 
  60 0049 DC9D73E6 		.ascii	"\334\235s\346\336\273\273\202\030\277\346\021\3035i"
  60      DEBBBB82 
  60      18BFE611 
  60      C33569
  61 0058 120D832C 		.ascii	"\022\015\203,\211E\356\225h\243_0\253\011$\031\301\231"
  61      8945EE95 
  61      68A35F30 
  61      AB092419 
  61      C199
  62 006a 29AD0C0D 		.ascii	")\255\014\015\322\201\353n\347^\262\243\331\217R\251"
  62      D281EB6E 
  62      E75EB2A3 
  62      D98F52A9 
  63 007a CF51D159 		.ascii	"\317Q\321Y\246b\361\223c\3440S?)\0122\376\236\321\244"
  63      A662F193 
  63      63E43053 
  63      3F290A32 
  63      FE9ED1A4 
  64 008e 935A479D 		.ascii	"\223ZG\235*2\376U\224\253\023\231\235\327\210\316M\357"
  64      2A32FE55 
  64      94AB1399 
  64      9DD788CE 
  64      4DEF
  65 00a0 275F90EF 		.ascii	"'_\220\357{\326\243x\372(e\206\350H9l\272\243\016[\202"
  65      7BD6A378 
  65      FA286586 
  65      E848396C 
  65      BAA30E5B 
  66 00b5 7A59E97F 		.ascii	"zY\351\177\362_-\336D\256\337\353\0234\240\367\336u"
  66      F25F2DDE 
  66      44AEDFEB 
  66      1334A0F7 
  66      DE75
  67 00c7 B5380CF7 		.ascii	"\2658\014\367qY\324\315\234\342+\010\005\245x\237\007"
  67      7159D4CD 
  67      9CE22B08 
  67      05A5789F 
  67      07
  68 00d8 49627D8D 		.ascii	"Ib}\215\265\201\365\001\326&x\010Z\340\021\350\003\217"
  68      B581F501 
  68      D6267808 
  68      5AE011E8 
  68      038F
  69 00ea 413F7802 		.ascii	"A?x\002\006\300\002\030\004O\301\020x\006\206\301s0"
  69      06C00218 
  69      044FC110 
  69      780686C1 
  69      7330
  70 00fc 025E8051 		.ascii	"\002^\200Q\360\022\3040i\313u\243\274\250\263\323c\\"
  70      F012C430 
ARM GAS  /tmp/ccdKYX3q.s 			page 5


  70      69CB75A3 
  70      BCA8B3D3 
  70      635C
  71 010e 517D8613 		.ascii	"Q}\206\023\310OMd\221\262\323o{\341\024\337\342\331"
  71      C84F4D64 
  71      91B2D36F 
  71      7BE114DF 
  71      E2D9
  72 0120 D82CE234 		.ascii	"\330,\3424\342\260_\356\322\016;\034\0206\353\362\255"
  72      E2B05FEE 
  72      D20E3B1C 
  72      1036EBF2 
  72      AD
  73 0131 4AC366BC 		.ascii	"J\303f\274\017\036\302\007IU\235a\253\206+\263Z\310"
  73      0F1EC207 
  73      49559D61 
  73      AB862BB3 
  73      5AC8
  74 0143 D456BEF6 		.ascii	"\324V\276\366V\354Ym\336{V\226v3\033\334|\332-\330\336"
  74      56EC596D 
  74      DE7B5696 
  74      76331BDC 
  74      7CDA2DD8 
  75 0158 4DD4B965 		.ascii	"M\324\271ej2?\224j_\020}\321\216\337\336A\001\334\326"
  75      6A323F94 
  75      6A5F107D 
  75      D18EDFDE 
  75      4101DCD6 
  76 016c DB2FBD58 		.ascii	"\333/\275XP\237\037h\314)\204\362\2529\3259\204\341"
  76      509F1F68 
  76      CC2984F2 
  76      AA39D539 
  76      84E1
  77 017e DEE810D1 		.ascii	"\336\350\020\321\273\303:|\343\205\243\332;\242\302"
  77      BBC33A7C 
  77      E385A3DA 
  77      3BA2C2
  78 018d CF639568 		.ascii	"\317c\225h\234.\334-T\323U\251*\204\252\204\312\326"
  78      9C2EDC2D 
  78      54D355A9 
  78      2A84AA84 
  78      CAD6
  79 019f 5FAB4A96 		.ascii	"_\253J\226'\320\023\275\022\343e-K\253c\\u\021\317Q"
  79      27D013BD 
  79      12E3652D 
  79      4BAB635C 
  79      7511CF51 
  80 01b3 55DF9348 		.ascii	"U\337\223H$\313\377\345tran)\231^\265\223+sK\011\233"
  80      24CBFFE5 
  80      7472616E 
  80      29995EB5 
  80      932B734B 
  81 01c9 E4FC7ADA 		.ascii	"\344\374z\332\230_\\K\377\002\031\344\001\256"
  81      985F5C4B 
  81      FF0219E4 
  81      01AE
  82              		.text
ARM GAS  /tmp/ccdKYX3q.s 			page 6


  83              		.section	.gnu.lto_palSetBusMode.7f28e2965fb67ca0,"",%progbits
  84 0000 789C9D92 		.ascii	"x\234\235\222\317K\002A\024\307\277ofw5\255\350j\020"
  84      CF4B0241 
  84      14C7BF6F 
  84      667735AD 
  84      E86A10
  85 0013 99D4A540 		.ascii	"\231\324\245@\377\015\257\005]\002\023\333\006\012\014"
  85      FF0DAF05 
  85      5D0213DB 
  85      060A0C
  86 0022 23E9D2C5 		.ascii	"#\351\322\305M\373\003\244Su\320\314\"\242?\242\240"
  86      4DFB03A4 
  86      5375D0CC 
  86      22A23FA2 
  86      A0
  87 0033 9B88A7FE 		.ascii	"\233\210\247\376\000\241\253t\227 {3i\032*X\263;|\207"
  87      00A1AB74 
  87      97207B33 
  87      691A2A58 
  87      B33B7C87 
  88 0047 B7EFB3EF 		.ascii	"\267\357\263\357\327\010\020?\303+\304\373C\000+\254"
  88      D708103F 
  88      C32BC4FB 
  88      43002BAC 
  89 0057 2441A2D8 		.ascii	"$A\242\330\000N\303\202H\037\030\311\011\312m\032\322"
  89      004EC382 
  89      481F18C9 
  89      09CA6D1A 
  89      D2
  90 0068 8EA0E279 		.ascii	"\216\240\342y\347\305\227|<\337\354t\026\225\266&\011"
  90      E7C5977C 
  90      3CDFEC74 
  90      1695B626 
  90      09
  91 0079 B5F61B85 		.ascii	"\265\366\033\205\240\210\020\206V\001\353w\214!N\032"
  91      A0881086 
  91      5601EB77 
  91      8C214E1A 
  92 0089 0E7F83AC 		.ascii	"\016\177\203\254I\241\342\000d\377'\322$\351\265J\237"
  92      49A1E200 
  92      64FF27D2 
  92      24E9B54A 
  92      9F
  93 009a E2B5EC3C 		.ascii	"\342\265\354<\211\347f'\267\214\252\376C\301\213+r\004"
  93      89E76627 
  93      B78CAAFE 
  93      43C18B2B 
  93      7204
  94 00ac 1648F3AD 		.ascii	"\026H\363\255\322\373\210\266\320\240\257O`\311\370"
  94      D2FB88B6 
  94      D0A0AF4F 
  94      60C9F8
  95 00bb 5E044704 		.ascii	"^\004G\004\343\357\274\035\004\210\022t\307\240@\202"
  95      E3EFBC1D 
  95      04881274 
  95      C7A04082 
  96 00cb AE2902C9 		.ascii	"\256)\002\311Za\265XoXm\326*\253\303z\313\352c\377{"
ARM GAS  /tmp/ccdKYX3q.s 			page 7


  96      5A61B558 
  96      6F586DD6 
  96      2AABC37A 
  96      CBEA63FF 
  97 00e0 F6D733C3 		.ascii	"\366\3273\303\231\347\315\321\276\211b\326\272V=\333"
  97      99E7CDD1 
  97      BE8962D6 
  97      BA563DDB 
  98 00f0 0D8EA30F 		.ascii	"\015\216\243\017\262\206\374V\275<\233\240\007n\227"
  98      B286FC56 
  98      BD3C9BA0 
  98      076E97
  99 00ff 4B620DAB 		.ascii	"Kb\015\253\212\374\362\012\227\244hJ\270d\312p\272\205"
  99      8AFCF20A 
  99      97A4684A 
  99      B864CA70 
  99      BA85
 100 0111 6FF76F91 		.ascii	"o\367o\221\006\321\303\244\301\002\3431\032\211Y\006"
 100      06D1C3A4 
 100      C102E331 
 100      1A895906 
 101 0121 0B8EC7C4 		.ascii	"\013\216\307\304\000\326\222?\234\355\352\013QC\341"
 101      00D6923F 
 101      9CEDEA0B 
 101      5143E1
 102 0130 B16F7338 		.ascii	"\261os8\013W\217\274nZ\241\215\300\011\332\236_\321"
 102      0B578FBC 
 102      6E5AA18D 
 102      C009DA9E 
 102      5FD1
 103 0142 3425A99B 		.ascii	"4%\251\233\002\227h|}\212f\200\006\210\347\330\363\356"
 103      0297687C 
 103      7D8A6680 
 103      0688E7D8 
 103      F3EE
 104 0154 F5884C6B 		.ascii	"\365\210Lkt\354\371h4\366\375f\262\261\275T:\226=rc"
 104      74ECF968 
 104      34F6FD66 
 104      B2B1BD54 
 104      3A963D72 
 105 0169 87A974D4 		.ascii	"\207\251t\324\205\3349\316Z\007\231]\365\005:\210\224"
 105      85DC39CE 
 105      5A07995D 
 105      F5053A88 
 105      94
 106 017a 75       		.ascii	"u"
 107              		.text
 108              		.section	.gnu.lto_.cgraph.7f28e2965fb67ca0,"",%progbits
 109 0000 789C45C7 		.ascii	"x\234E\307\271\015\200@\024C\301g\377\312\250\314\033"
 109      B90D8040 
 109      1443C167 
 109      FFCAA8CC 
 109      1B
 110 0011 12520109 		.ascii	"\022R\001\011\235p\244\333\003\215 $\204`\2621\242\200"
 110      9D70A4DB 
 110      038D2024 
 110      8460B231 
ARM GAS  /tmp/ccdKYX3q.s 			page 8


 110      A280
 111 0023 81975705 		.ascii	"\201\227W\005\246N2\217\362\246\350\337\256\370\233"
 111      A64E328F 
 111      F2A6E8DF 
 111      AEF89B
 112 0032 0EA59EB5 		.ascii	"\016\245\236\265\246r\261\234\227\270\001\307\216\025"
 112      A672B19C 
 112      97B801C7 
 112      8E15
 113 0040 55       		.ascii	"U"
 114              		.text
 115              		.section	.gnu.lto_.vars.7f28e2965fb67ca0,"",%progbits
 116 0000 789C6362 		.ascii	"x\234cb`d`f`\000\222P\000\000\000r\000\010"
 116      60646066 
 116      60009250 
 116      00000072 
 116      0008
 117              		.text
 118              		.section	.gnu.lto_.refs.7f28e2965fb67ca0,"",%progbits
 119 0000 789C6362 		.ascii	"x\234cb`d`f```b\200\001\000\000\204\000\011"
 119      60646066 
 119      60606062 
 119      80010000 
 119      840009
 120              		.text
 121              		.section	.gnu.lto_.statics.7f28e2965fb67ca0,"",%progbits
 122 0000 789C6362 		.ascii	"x\234cb`d`b\300\016@\342\214\020&\000\000\375\000\011"
 122      60646062 
 122      C00E40E2 
 122      8C102600 
 122      00FD0009 
 123              		.text
 124              		.section	.gnu.lto_.decls.7f28e2965fb67ca0,"",%progbits
 125 0000 789CAD57 		.ascii	"x\234\255WmH\034G\030\236\331=\243\247\247\371\240\011"
 125      6D481C47 
 125      189ED93D 
 125      A3A7A7F9 
 125      A009
 126 0012 260435A5 		.ascii	"&\0045\245)4\240\033?j\354\217\374h\024\242T\233r\246"
 126      2934A01B 
 126      3F6AEC8F 
 126      FC6814A2 
 126      549B72A6 
 127 0026 B47F96ED 		.ascii	"\264\177\226\355y\336\305\243\352Yo-)\364\307\242\245"
 127      79DEC5A3 
 127      EA596F2D 
 127      29F4C7A2 
 127      A5
 128 0037 8442C014 		.ascii	"\204B\300\024\002B\322hl\265D!\211)i4ISi\255\021kJB"
 128      0242D268 
 128      6CB54421 
 128      89296934 
 128      495369AD 
 129 004f 6221B458 		.ascii	"b!\264X1--M\241!\2256\024\315\365\235\331\331\271\335"
 129      312D2D4D 
 129      A1219536 
 129      14CDF59D 
ARM GAS  /tmp/ccdKYX3q.s 			page 9


 129      D9D9B9DD 
 130 0063 BDDB3B2F 		.ascii	"\275\333;/t\270wof\367\235\347}\336\217\231\331\025"
 130      74B8776F 
 130      66F79DE7 
 130      7DDE8F99 
 130      D915
 131 0075 1046A4BD 		.ascii	"\020F\244\275\013\177Qh\2337 \224# \344\202{{Q\254\221"
 131      0B7F5168 
 131      9B372094 
 131      2320E482 
 131      7B7B51AC 
 132 008a F100C83C 		.ascii	"\361\000\310<\310\002\310\357(\276\221\347\271 \203"
 132      C802C8EF 
 132      28BE91E7 
 132      B92083
 133 0099 2079201E 		.ascii	" y \036\220\031\220L\220\014\2061\0022\0062\0122\016"
 133      9019904C 
 133      900C8631 
 133      02320632 
 133      0A320E
 134 00ac 7201E406 		.ascii	"r\001\344\006{v\036\344*\310\034\310,\010f\230\344\377"
 134      7B761EE4 
 134      2AC81CC8 
 134      2C086698 
 134      E4FF
 135 00be 81CDD63C 		.ascii	"\201\315\326<\2635c\262e\2673h\262u\303d\317\2605\313"
 135      B33563B2 
 135      65B73368 
 135      B275C364 
 135      CFB035CB 
 136 00d2 6C4D321B 		.ascii	"lM2\033\363\354\377_\233\255\005f#\231\255%\223\255"
 136      F3ECFF5F 
 136      9BAD0566 
 136      2399AD25 
 136      93AD
 137 00e4 41662F0A 		.ascii	"Af/\012r\037D\264\331\023L1\244\321\307V{\205\350\224"
 137      721F44B4 
 137      D9134C31 
 137      A4D1C756 
 137      7B85E894 
 138 00f8 36B0D8DB 		.ascii	"6\260\330\333\243\325>\212F3\267\240\343\032\264\201"
 138      A3D53E8A 
 138      4633B7A0 
 138      E31AB481 
 139 0108 F7350DAB 		.ascii	"\3675\015\253ntD\323\272\311\240v\006\250lE2\316s#T"
 139      6E7444D3 
 139      BAC9A076 
 139      06A86C45 
 139      32CE7323 
 140 011d 447B1EB7 		.ascii	"D{\036\267\316g'\372D\323za\016\226\361 v\203=\001\243"
 140      CE6727FA 
 140      44D37A61 
 140      0E96F120 
 140      76833D01 
 141 0132 5DE88C46 		.ascii	"]\350\214F\0333\306\376\326\243\313w\257\334\021\364"
 141      1B33C6FE 
 141      D6A3CB77 
ARM GAS  /tmp/ccdKYX3q.s 			page 10


 141      AFDC11F4 
 142 0142 41DAE8C3 		.ascii	"A\332\350\303\024\275\026\303\343!\274\013\015\037\275"
 142      14BD16C3 
 142      E321BC0B 
 142      0D1FBD
 143 0151 352DE950 		.ascii	"5-\351P2\316t\233}\242c]K\007\326\037\033=Rz\353Q\372"
 143      32CE749B 
 143      7DA2635D 
 143      4B07D61F 
 143      1B3D527A 
 144 0168 13125324 		.ascii	"\023\022S$\263O\343-\264'\322p\243\034\364A\314\265"
 144      B34FE32D 
 144      B427D270 
 144      A31CF441 
 144      CCB5
 145 017a 4DE81889 		.ascii	"M\350\030\211D\221\331\31178\202\307\346\344(\336\004"
 145      4491D9C9 
 145      373882C7 
 145      E6E428DE 
 145      04
 146 018b 18D3D8F0 		.ascii	"\030\323\330\360\362\341\311+\263\242N25\020\241r\026"
 146      F2E1C92B 
 146      B3A24E32 
 146      3510A172 
 146      16
 147 019c 00F4A914 		.ascii	"\000\364\251\024V\323a\311]\304\356/\367\007Q|\023w"
 147      56D361C9 
 147      5DC4EE2F 
 147      F707517C 
 147      1377
 148 01ae A001204D 		.ascii	"\240\001 M\012a]J\376\213\230\333\335ns\340\002u\340"
 148      0A615D4A 
 148      FE8B98DB 
 148      DD6E73E0 
 148      0275E0
 149 01c1 3E7760A9 		.ascii	">w`\251\177>Z\345\354\200\015\211p\274\230\320\203\213"
 149      7F3E5AE5 
 149      EC800D89 
 149      70BC98D0 
 149      838B
 150 01d3 260FE656 		.ascii	"&\017\346V\357y\022\270\220I\\x\257\207\272@\253\253"
 150      EF7912B8 
 150      90495C78 
 150      AF87BA40 
 150      ABAB
 151 01e5 274575C9 		.ascii	"'Eu\311\370S\274s\215\311\027\320)\0013v?\256\336{*"
 151      F853BC73 
 151      8DC917D0 
 151      29013376 
 151      3FAEDE7B 
 152 01fa 31A2D1D7 		.ascii	"1\242\321\327\233\241\303\232\211\236\214\307i5\017"
 152      9BA1C39A 
 152      899E8CC7 
 152      69350F
 153 0209 72CC9F57 		.ascii	"r\314\237W\305t \213\034!\2079\344\037\251 \263\326"
 153      C574208B 
 153      1C218739 
ARM GAS  /tmp/ccdKYX3q.s 			page 11


 153      E41FA920 
 153      B3D6
 154 021b C8728443 		.ascii	"\310r\204C.\247\007\351\314\362,\207\\I\005\271a\215"
 154      2EA707E9 
 154      CCF22C87 
 154      5C4905B9 
 154      618D
 155 022d 2C3FE390 		.ascii	",?\343\220S\217\323\202tfy\211C\316\245\202\314O\304"
 155      538FD382 
 155      74667989 
 155      43CEA582 
 155      CC4FC4
 156 0240 32BE99CB 		.ascii	"2\276\231\313[\306\237C\371e\312\370\022\336\001\203"
 156      5BC69F43 
 156      F965CAF8 
 156      12DE0183 
 157 0250 CBF47A95 		.ascii	"\313\364z\225^\257\321\353$\275~E\257Sp\215\253\001"
 157      5EAFD1EB 
 157      24BD7E45 
 157      AF53708D 
 157      AB01
 158 0262 A7AD720C 		.ascii	"\247\255r\014\347\000\373\253\202\261\010/\237\371r"
 158      E700FBAB 
 158      82B1082F 
 158      9FF972
 159 0271 8AED2296 		.ascii	"\212\355\"\226\265\255/W\347}m\006p\214\225a\367\303"
 159      B5AD2F57 
 159      E77D6D06 
 159      708C9561 
 159      F7C3
 160 0283 F64C40D7 		.ascii	"\366L@\327\2519\262\323<<y|\366\205'\\ l\0132\016\223"
 160      A939B2D3 
 160      3C3C797C 
 160      F685275C 
 160      206C0B32 
 161 0299 EF38E8D4 		.ascii	"\3578\350\324sO\270>\030b\332\347\315\015J\340\266\020"
 161      734FB83E 
 161      1862DAE7 
 161      CD0D4AE0 
 161      B610
 162 02ab 3B708E7D 		.ascii	";p\216}[ex\237a;p2\254[H\006\337B2\314[\310\242)D\023"
 162      5B65789F 
 162      613B7032 
 162      AC5B4806 
 162      DF4232CC 
 163 02c5 A9429470 		.ascii	"\251B\224pu&\252\250\263\246\212:\007\025%\312\370<"
 163      7526AAA8 
 163      B3A68A3A 
 163      071525CA 
 163      F83C
 164 02d7 AD99597A 		.ascii	"\255\231Yz\235KU9\004c\004\262\311\032\270~\220\025"
 164      9D4B5539 
 164      046304B2 
 164      C91AB87E 
 164      9015
 165 02e9 0B50FE95 		.ascii	"\013P\376\225\373?r\356\304t\201~\373\031\364\261\246"
 165      FB3F72EE 
ARM GAS  /tmp/ccdKYX3q.s 			page 12


 165      C474817E 
 165      FB19F4B1 
 165      A6
 166 02fa 7D48C2AA 		.ascii	"}H\302\252\317\024\320Q\221\250\015\340Bt\304\355`\205"
 166      CF14D051 
 166      91A80DE0 
 166      4274C4ED 
 166      6085
 167 030c 1979160D 		.ascii	"\031y\026\015\221\224|\335]\253\347\030\261y\2779,0"
 167      91947CDD 
 167      5DABE718 
 167      B179BF39 
 167      2C30
 168 031e 46F01616 		.ascii	"F\360\026\026\314^'ym\221\361\336\315I<\375\336zV3\007"
 168      CC5E2779 
 168      6D91F1DE 
 168      CD493CFD 
 168      DE7A5633 
 169 0333 F8C8A064 		.ascii	"\370\310\240d\012\3011\321\010\301\362\211m\211\003"
 169      0AC131D1 
 169      08C1F289 
 169      6D8903
 170 0342 20E3DBC0 		.ascii	" \343\333\300O\306\363\340H_fb\343\330<I\257\356\217"
 170      4FC6F3E0 
 170      485F6662 
 170      E3D83C49 
 170      AFEE8F
 171 0355 28329934 		.ascii	"(2\2314\236\343\0305\312\310\034<M\233\354\316\247^"
 171      9EE31835 
 171      CAC81C3C 
 171      4D9BECCE 
 171      A75E
 172 0367 2236BBC5 		.ascii	"\"6\273\305R\017w\377\257P\375\224,Ti\257\247%\375\304"
 172      520F77FF 
 172      AF50FD94 
 172      2C5469AF 
 172      A725FDC4 
 173 037b 13639BD2 		.ascii	"\023c\233\322\027\306\273\240\376rgqbmop\226<\215\212"
 173      17C6BBA0 
 173      FE726771 
 173      626D6F70 
 173      963C8D8A 
 174 038f B152FDE1 		.ascii	"\261R\375\341\372\272\344\231Z A_K\246t\332\023\024"
 174      FABAE499 
 174      5A20415F 
 174      4BA674DA 
 174      1314
 175 03a1 9B4CEA73 		.ascii	"\233L\352s\316\324R\362L-\304e\352\227\370L-\366\366"
 175      CED452F2 
 175      4C2DC465 
 175      EA97F84C 
 175      2DF6F6
 176 03b4 F60CA49D 		.ascii	"\366\014\244\235\251\373\366L\221\023@\264\0255\037"
 176      A9FBF64C 
 176      911340B4 
 176      15351F
 177 03c3 2EC5D7F8 		.ascii	".\305\327\370\265XZ&\306\276\261|#\310\370O+\315\247"
ARM GAS  /tmp/ccdKYX3q.s 			page 13


 177      B5585A26 
 177      C6BEB17C 
 177      23C8F84F 
 177      2BCDA7
 178 03d6 D169EDE6 		.ascii	"\321i\355\346\315^\255;\277{1\032-\334\210z\351k]_\036"
 178      CD5EAD3B 
 178      BF7B311A 
 178      2DDC887A 
 178      E96B5D5F 
 179 03eb 2B89C5A1 		.ascii	"+\211\305\241\311\374>SIdq\272\330(\011\372R\307\325"
 179      C9FC3E53 
 179      496471BA 
 179      D82809FA 
 179      52C7D5
 180 03fe B5FC7C27 		.ascii	"\265\374|'m\031\377E_\321\226Y}l\215\365y7\212\211\007"
 180      6D19FF45 
 180      5FD19659 
 180      7D6C8DF5 
 180      79378A89 
 181 0413 7744A26F 		.ascii	"wD\242o\373\272a\016\244\232m\330~\235\333\326w\303"
 181      FBBA610E 
 181      A49A6DD8 
 181      7E9DDBD6 
 181      77C3
 182 0425 986BBAB2 		.ascii	"\230k\272\262\223\236\214\377\306\033i\217\372\244\361"
 182      939E8CFF 
 182      C61B698F 
 182      FAA4F1
 183 0434 E3D5E34E 		.ascii	"\343\325\343N\222\264\177L\254<ns/\333\302\336\320\003"
 183      92B47F4C 
 183      AC3C6E73 
 183      2FDBC2DE 
 183      D003
 184 0446 27EFF26D 		.ascii	"'\357\362mv\344\\\377\264\350\304G@K\"f\263\263q\222"
 184      76E45CFF 
 184      B4E8C447 
 184      404B2266 
 184      B3B37192 
 185 045a 8CC9F8A1 		.ascii	"\214\311\370\241\311-\373\327\204\223\373\361_\035+"
 185      C92DFBD7 
 185      8493FBF1 
 185      5F1D2B
 186 0469 4FE0FEAA 		.ascii	"O\340\376\252\243\373\374(\262\350A\367\021\337d\247"
 186      A3FBFC28 
 186      B2E841F7 
 186      11DF64A7 
 187 0479 B63B9111 		.ascii	"\266;\221\021\320\003\213\357\266\027\036\262R\2349"
 187      D0038BEF 
 187      B6171EB2 
 187      529C39
 188 0488 4563C7E0 		.ascii	"Ec\307\340\032c\326\3011\362\222\306\314\256'\343n!"
 188      1A63D6C1 
 188      31F292C6 
 188      CCAE27E3 
 188      6E21
 189 049a FD98F508 		.ascii	"\375\230\365\010N1\313\265\304\314\320\3431#{\317J\201"
 189      4E31CBB5 
ARM GAS  /tmp/ccdKYX3q.s 			page 14


 189      C4CCD0E3 
 189      31237BCF 
 189      4A81
 190 04ac 1319013D 		.ascii	"\023\031\001=\266\304\014yB\341\216p\247\332\346\213"
 190      B6C40C79 
 190      42E18E70 
 190      A7DAE68B 
 191 04bc BCA9A8EB 		.ascii	"\274\251\250\353\366\277\374jQ5*-)\221\364_8\"\265\370"
 191      F6BFFC6A 
 191      51352A2D 
 191      2991F45F 
 191      3822B5F8 
 192 04d0 5A25A211 		.ascii	"Z%\242\021\221\032\0176\224\227I\365\3655\322\376W\352"
 192      911A0F36 
 192      949749F5 
 192      F535D2FE 
 192      57EA
 193 04e2 0EBC5D2A 		.ascii	"\016\274]*u\370Z\225\326\326\346\222\026\224\325\025"
 193      75F85A95 
 193      D6D6E692 
 193      1694D515 
 194 04f2 6A57CBCB 		.ascii	"jW\313\313\024U\225\302\035\252\364\242\267A:\344\367"
 194      145595C2 
 194      1DAAF4A2 
 194      B7413AE4 
 194      F7
 195 0503 17FB3ADB 		.ascii	"\027\373:\333\212\333\303\355\201\342\200\257)T\\\241"
 195      8ADBC3ED 
 195      81E280AF 
 195      29545CA1 
 196 0513 EC292EDB 		.ascii	"\354).\333]Z\376V\271\324\024j'\360\255\241&\242'Y\364"
 196      5D5AFE56 
 196      B9D4146A 
 196      27F0ADA1 
 196      26A22759 
 197 0528 A48A923D 		.ascii	"\244\212\222=%\025\022\347\000?\353\363P\273\277\265"
 197      251512E7 
 197      003FEBF3 
 197      50BBBFB5 
 198 0538 AB392045 		.ascii	"\2539 E\324f\260\012\3263\352\016\354\353\212\024\330"
 198      D466B00A 
 198      D633EA0E 
 198      ECEB8A14 
 198      D8
 199 0549 591B7A40 		.ascii	"Y\033z@\023\224<\204\264r\360\235\216@M \270\323\254"
 199      13943C84 
 199      B472F09D 
 199      8E404D20 
 199      B8D3AC
 200 055c 1B38AC4A 		.ascii	"\0338\254J\325\015\215u\215\340!\200\266\225\227\005"
 200      D50D8D75 
 200      8DE02180 
 200      B6959705 
 201 056c 4B771F86 		.ascii	"Kw\037\206)b\265\267\036\244V\254\253\361\212\007j\274"
 201      2962B5B7 
 201      1EA456AC 
 201      ABF18A07 
ARM GAS  /tmp/ccdKYX3q.s 			page 15


 201      6ABC
 202 057e AE7D8D5E 		.ascii	"\256}\215^\257\270\317\353u\325W\277\344\315\326#\027"
 202      AFB8CFEB 
 202      75D557BF 
 202      E4CDD623 
 202      17
 203 058f 6A86B8E9 		.ascii	"j\206\270\351\035\027\211\242\207\204B\011\372\"j\025"
 203      1D1789A2 
 203      87844209 
 203      FA226A15 
 204 059f 3C080783 		.ascii	"<\010\007\203\221\200\232\015\024\274\001_3\260\334"
 204      91809A0D 
 204      14BC015F 
 204      33B0DC
 205 05ae 666719E9 		.ascii	"fg\031\351\364S\206~$6uEr\240\373ZgH\015\200\252\253"
 205      F453867E 
 205      24367545 
 205      72A0FB5A 
 205      67480D80 
 206 05c4 29A446B2 		.ascii	")\244F\262B\341\266ps@Qs\341Ic@\205\373\0150v\221\233"
 206      42E1B670 
 206      73405173 
 206      E1496340 
 206      85FB0D30 
 207 05db 9B159601 		.ascii	"\233\025\226\001\005l\034\352\014wu\220\273.\177\213"
 207      056C1CEA 
 207      0C777590 
 207      BB2E7F8B 
 208 05eb AF334B51 		.ascii	"\2573KQ\202]\355~E\3115:%\225\025\317W\232G\225\245"
 208      825DED7E 
 208      45C9353A 
 208      259515CF 
 208      579A4795 
 209 0600 9651E57F 		.ascii	"\226Q\345\177`\251ny"
 209      60A96E79 
 210              		.text
 211              		.section	.gnu.lto_.symtab.7f28e2965fb67ca0,"",%progbits
 212 0000 70616C52 		.ascii	"palReadBus\000\000\000\000\000\000\000\000\000\000\000"
 212      65616442 
 212      75730000 
 212      00000000 
 212      00000000 
 213 0015 00A00000 		.ascii	"\000\240\000\000\000palWriteBus\000\000\000\000\000"
 213      0070616C 
 213      57726974 
 213      65427573 
 213      00000000 
 214 002a 00000000 		.ascii	"\000\000\000\000\000\000\000\325\000\000\000palSetB"
 214      000000D5 
 214      00000070 
 214      616C5365 
 214      7442
 215 003c 75734D6F 		.ascii	"usMode\000\000\000\000\000\000\000\000\000\000\000\000"
 215      64650000 
 215      00000000 
 215      00000000 
 215      0000
ARM GAS  /tmp/ccdKYX3q.s 			page 16


 216 004e DE000000 		.ascii	"\336\000\000\000_pal_lld_setgroupmode\000\000\002\000"
 216      5F70616C 
 216      5F6C6C64 
 216      5F736574 
 216      67726F75 
 217 006b 00000000 		.ascii	"\000\000\000\000\000\000\000\000\352\000\000\000"
 217      00000000 
 217      EA000000 
 218              		.text
 219              		.section	.gnu.lto_.opts,"",%progbits
 220 0000 272D6D63 		.ascii	"'-mcpu=cortex-m3''-mno-thumb-interwork''-mthumb''-g"
 220      70753D63 
 220      6F727465 
 220      782D6D33 
 220      27272D6D 
 221 0033 67646227 		.ascii	"gdb''-O2''-fomit-frame-pointer''-falign-functions=1"
 221      272D4F32 
 221      27272D66 
 221      6F6D6974 
 221      2D667261 
 222 0066 3627272D 		.ascii	"6''-ffunction-sections''-fdata-sections''-fno-commo"
 222      6666756E 
 222      6374696F 
 222      6E2D7365 
 222      6374696F 
 223 0099 6E27272D 		.ascii	"n''-flto'\000"
 223      666C746F 
 223      2700
 224              		.text
 225              		.cfi_sections	.debug_frame
 226              		.section	.text.palReadBus,"ax",%progbits
 227              		.align	2
 228              		.p2align 4,,15
 229              		.global	palReadBus
 230              		.thumb
 231              		.thumb_func
 232              		.type	palReadBus, %function
 233              	palReadBus:
 234              	.LFB194:
 235              		.file 1 "../../../os/hal/src/pal.c"
 236              		.loc 1 69 0
 237              		.cfi_startproc
 238              		@ args = 0, pretend = 0, frame = 0
 239              		@ frame_needed = 0, uses_anonymous_args = 0
 240              		@ link register save eliminated.
 241              	.LVL0:
 242              		.loc 1 73 0
 243 0000 0368     		ldr	r3, [r0, #0]
 244 0002 8268     		ldr	r2, [r0, #8]
 245 0004 9968     		ldr	r1, [r3, #8]
 246 0006 4368     		ldr	r3, [r0, #4]
 247 0008 21FA02F0 		lsr	r0, r1, r2
 248              	.LVL1:
 249              		.loc 1 74 0
 250 000c 1840     		ands	r0, r0, r3
 251 000e 7047     		bx	lr
 252              		.cfi_endproc
ARM GAS  /tmp/ccdKYX3q.s 			page 17


 253              	.LFE194:
 254              		.size	palReadBus, .-palReadBus
 255              		.section	.text.palWriteBus,"ax",%progbits
 256              		.align	2
 257              		.p2align 4,,15
 258              		.global	palWriteBus
 259              		.thumb
 260              		.thumb_func
 261              		.type	palWriteBus, %function
 262              	palWriteBus:
 263              	.LFB195:
 264              		.loc 1 94 0
 265              		.cfi_startproc
 266              		@ args = 0, pretend = 0, frame = 0
 267              		@ frame_needed = 0, uses_anonymous_args = 0
 268              		@ link register save eliminated.
 269              	.LVL2:
 270              		.loc 1 98 0
 271 0000 4268     		ldr	r2, [r0, #4]
 272 0002 8368     		ldr	r3, [r0, #8]
 273              		.loc 1 94 0
 274 0004 30B4     		push	{r4, r5}
 275              	.LCFI0:
 276              		.cfi_def_cfa_offset 8
 277              		.cfi_offset 4, -8
 278              		.cfi_offset 5, -4
 279              		.loc 1 98 0
 280 0006 22EA0105 		bic	r5, r2, r1
 281 000a 03F11004 		add	r4, r3, #16
 282 000e 0A40     		ands	r2, r2, r1
 283 0010 05FA04F4 		lsl	r4, r5, r4
 284 0014 02FA03F1 		lsl	r1, r2, r3
 285              	.LVL3:
 286 0018 0068     		ldr	r0, [r0, #0]
 287              	.LVL4:
 288 001a 44EA0102 		orr	r2, r4, r1
 289 001e 0261     		str	r2, [r0, #16]
 290              		.loc 1 99 0
 291 0020 30BC     		pop	{r4, r5}
 292 0022 7047     		bx	lr
 293              		.cfi_endproc
 294              	.LFE195:
 295              		.size	palWriteBus, .-palWriteBus
 296 0024 AFF30080 		.section	.text.palSetBusMode,"ax",%progbits
 296      AFF30080 
 296      AFF30080 
 297              		.align	2
 298              		.p2align 4,,15
 299              		.global	palSetBusMode
 300              		.thumb
 301              		.thumb_func
 302              		.type	palSetBusMode, %function
 303              	palSetBusMode:
 304              	.LFB196:
 305              		.loc 1 117 0
 306              		.cfi_startproc
 307              		@ args = 0, pretend = 0, frame = 0
ARM GAS  /tmp/ccdKYX3q.s 			page 18


 308              		@ frame_needed = 0, uses_anonymous_args = 0
 309              		@ link register save eliminated.
 310              	.LVL5:
 311              		.loc 1 121 0
 312 0000 8368     		ldr	r3, [r0, #8]
 313              		.loc 1 117 0
 314 0002 10B4     		push	{r4}
 315              	.LCFI1:
 316              		.cfi_def_cfa_offset 4
 317              		.cfi_offset 4, -4
 318              		.loc 1 121 0
 319 0004 4468     		ldr	r4, [r0, #4]
 320              		.loc 1 117 0
 321 0006 0A46     		mov	r2, r1
 322              		.loc 1 121 0
 323 0008 04FA03F1 		lsl	r1, r4, r3
 324              	.LVL6:
 325 000c 0068     		ldr	r0, [r0, #0]
 326              	.LVL7:
 327              		.loc 1 122 0
 328 000e 10BC     		pop	{r4}
 329              		.loc 1 121 0
 330 0010 FFF7FEBF 		b	_pal_lld_setgroupmode
 331              	.LVL8:
 332              		.cfi_endproc
 333              	.LFE196:
 334              		.size	palSetBusMode, .-palSetBusMode
 335 0014 AFF30080 		.text
 335      AFF30080 
 335      AFF30080 
 336              	.Letext0:
 337              		.file 2 "/opt/ARM/gcc-arm-none-eabi-4_7-2013q3/bin/../lib/gcc/arm-none-eabi/4.7.4/../../../../arm-
 338              		.file 3 "../../../os/rt/include/chschd.h"
 339              		.file 4 "../../../os/rt/ports/ARMCMx/compilers/GCC/chtypes.h"
 340              		.file 5 "../../../os/ext/CMSIS/ST/stm32f10x.h"
 341              		.file 6 "../../../os/rt/ports/ARMCMx/chcore.h"
 342              		.file 7 "../../../os/rt/ports/ARMCMx/chcore_v7m.h"
 343              		.file 8 "../../../os/rt/include/chmtx.h"
 344              		.file 9 "../../../os/hal/ports/STM32/LLD/GPIOv1/pal_lld.h"
 345              		.file 10 "../../../os/hal/include/pal.h"
 346              		.file 11 "../../../os/ext/CMSIS/include/core_cm3.h"