ARM GAS  /tmp/ccdKYX3q.s 			page 1


   1              		.syntax unified
   2              		.cpu cortex-m3
   3              		.fpu softvfp
   4              		.eabi_attribute 20, 1
   5              		.eabi_attribute 21, 1
   6              		.eabi_attribute 23, 3
   7              		.eabi_attribute 24, 1
   8              		.eabi_attribute 25, 1
   9              		.eabi_attribute 26, 1
  10              		.eabi_attribute 30, 2
  11              		.eabi_attribute 34, 1
  12              		.eabi_attribute 18, 4
  13              		.thumb
  14              		.file	"pal.c"
  15              		.text
  16              	.Ltext0:
  17              		.section	.gnu.lto_.jmpfuncs.7f28e2965fb67ca0,"",%progbits
  18 0000 789C6362 		.ascii	"x\234cb`d`g\300\016\004\24043\003##3\02333\003\003\013"
  18      60646067 
  18      C00E04A0 
  18      34330323 
  18      23331333 
  19 0018 03036309 		.ascii	"\003\003c\011\003\000\005_\000\244"
  19      0300055F 
  19      00A4
  20              		.text
  21              		.section	.gnu.lto_.inline.7f28e2965fb67ca0,"",%progbits
  22 0000 789C6362 		.ascii	"x\234cb`d\340e\300\016\334\24143\003\003'\007#\003\023"
  22      6064E065 
  22      C00EDCA1 
  22      34330303 
  22      27072303 
  23 0015 E70A3706 		.ascii	"\347\0127\006\316\033fL@-|\274\214@\000\224\022|\321"
  23      CE1B664C 
  23      402D7CBC 
  23      8C400094 
  23      127CD1
  24 0028 C2081164 		.ascii	"\302\010\021d\272\300\317\302\300\304\300-\014T\311"
  24      BAC0CFC2 
  24      C0C4C02D 
  24      0C54C9
  25 0037 DAA10E11 		.ascii	"\332\241\016\021d\001\232\315<\301\017\004\031\000W"
  25      64019ACD 
  25      3CC10F04 
  25      190057
  26 0046 C80ABC   		.ascii	"\310\012\274"
  27              		.text
  28              		.section	.gnu.lto_.pureconst.7f28e2965fb67ca0,"",%progbits
  29 0000 789C6362 		.ascii	"x\234cb`d`f```g\200\000f\006)F)&I\000\002\002\000a"
  29      60646066 
  29      60606067 
  29      80006606 
  29      29462926 
  30              		.text
  31              		.section	.gnu.lto_palReadBus.7f28e2965fb67ca0,"",%progbits
  32 0000 789C9D93 		.ascii	"x\234\235\223MK\002A\030\307\237\347\231}\313:t5\210"
  32      4D4B0241 
ARM GAS  /tmp/ccdKYX3q.s 			page 2


  32      18C79FE7 
  32      997DCB3A 
  32      743588
  33 0013 443C25B8 		.ascii	"D<%\270\327>\202\327\202.\201\205m\013\025B\221tv[\375"
  33      D73E82D7 
  33      822E8185 
  33      6D0B1542 
  33      9174765B 
  34 0028 00D2C9F5 		.ascii	"\000\322\311\365\224\332;\235\203NE\335\226\360\324"
  34      94DA3B9D 
  34      834E45DD 
  34      96F0D4
  35 0037 0710BAFA 		.ascii	"\007\020\272\372\035\354\231I]\245\004uv\227\3370\354"
  35      1DEC9949 
  35      5DA50475 
  35      7697DF30 
  35      EC
  36 0048 6FFE33B3 		.ascii	"o\3763\263\317\022 _\177[\234\237\003\001\220`\242\000"
  36      CF12205F 
  36      7F5B9C9F 
  36      03019060 
  36      A200
  37 005a A46A1BE0 		.ascii	"\244j\033\340\"A\210\262\303J\211\260\264\255L3\011"
  37      224188B2 
  37      C34A89B0 
  37      B4AD4C33 
  37      09
  38 006b 0DCFAB57 		.ascii	"\015\317\253W?\374\254\337\351\365\326\\9\272\207\020"
  38      3FFCACDF 
  38      E9F5D65C 
  38      39BA8710 
  39 007b 06DF1807 		.ascii	"\006\337\030\007\027\221'\221$\320\3063\224w9\342\011"
  39      17912791 
  39      24D0C633 
  39      947739E2 
  39      09
  40 008c E5DD8BD9 		.ascii	"\345\335\213\331,MY0\233\244O+UG$c\236\244\271\2267"
  40      2C4D5930 
  40      9BA44F2B 
  40      55472463 
  40      9EA4B996 
  41 00a1 8DD4AD3D 		.ascii	"\215\324\255=\323W`\274\322[\247WJAK\316P\366\262.\232"
  41      D35760BC 
  41      D25BA757 
  41      4A414BCE 
  41      50F6B22E 
  42 00b6 04AB28FD 		.ascii	"\004\253(\375n\255I\377L\301o@\0141\207w\230\002\202"
  42      6EAD49FF 
  42      4CC16F40 
  42      0C318777 
  42      980282
  43 00c9 1C363009 		.ascii	"\03460\011\202\331dj\314\026Sg^3\015\346\015\323d\336"
  43      82D9646A 
  43      CC165367 
  43      5E330DE6 
  43      0DD364DE 
  44 00dd 322DE615 		.ascii	"2-\346\025\223\233\016\025\317[\306#\225\245\332\246"
ARM GAS  /tmp/ccdKYX3q.s 			page 3


  44      939B0E15 
  44      CF5BC623 
  44      95A5DAA6 
  45 00ed A42C902D 		.ascii	"\244,\220-\316\222\035\021\202\277\363\031\034\347\360"
  45      CE921D11 
  45      82BFF319 
  45      1CE7F0
  46 00fc 818FDC41 		.ascii	"\201\217\334AJ\303\272\213\226\250C\200..\220\203\252"
  46      4AC3BA8B 
  46      96A84380 
  46      2E2E9083 
  46      AA
  47 010d 44CCFE96 		.ascii	"D\314\376\226v\243R\014\341}\007\006\232H\303\243Wa"
  47      76A3520C 
  47      E17D0706 
  47      9A48C3A3 
  47      5761
  48 011f 23D63717 		.ascii	"#\3267\027\331T[\263\206&F\246\037\231\232\012\\\232"
  48      D9545BB3 
  48      862646A6 
  48      1F999A0A 
  48      5C9A
  49 0131 1C48235A 		.ascii	"\034H#ZW\014=\335\221\337 \204\362S4f\360B\034Y9c\011"
  49      570C3DDD 
  49      91DF2084 
  49      F2533466 
  49      F0421C59 
  50 0148 A64A80C9 		.ascii	"\246J\200\311\011\"J(\277\210\215\201g\251\011\371\265"
  50      09224A28 
  50      BF888D81 
  50      67A909F9 
  50      B5
  51 0159 36FF4DC3 		.ascii	"6\377M\303\301\3019\242:>\271\270\225L\306\376\275O"
  51      C1C139A2 
  51      3A3EB9B8 
  51      954CC6FE 
  51      BD4F
  52 016b 8AF661BE 		.ascii	"\212\366a\276`\027\317\034\3734_\3108 \366\317\213?"
  52      6017CF1C 
  52      FB345FC8 
  52      3820F6CF 
  52      8B3F
  53 017d 8C93A58E 		.ascii	"\214\223\245\216"
  54              		.text
  55              		.section	.gnu.lto_palWriteBus.7f28e2965fb67ca0,"",%progbits
  56 0000 789CCD93 		.ascii	"x\234\315\223;K\003A\024\205\357\235\331\335<\014I\300"
  56      3B4B0341 
  56      1485EF9D 
  56      D9DD3C0C 
  56      49C0
  57 0012 2A82F840 		.ascii	"*\202\370@\033\003\311\337\320R\305F\210\242\313\202"
  57      1B03C9DF 
  57      D052C546 
  57      88A2CB82 
  58 0022 82A018AD 		.ascii	"\202\240\030\255\263F\177@\260\323X\370\214O\324Rm\024"
  58      B3467F40 
  58      B0D358F8 
ARM GAS  /tmp/ccdKYX3q.s 			page 4


  58      8C4FD452 
  58      6D14
  59 0034 ED525859 		.ascii	"\355RXYZ\010\202\225\245}<3yl\314\243\0242\311\362\315"
  59      5A088295 
  59      A57D3C33 
  59      796CCCA3 
  59      1432C9F2 
  60 0049 DC9D73E6 		.ascii	"\334\235s\346\336\273\273\202\030\277\346\021\3035i"
  60      DEBBBB82 
  60      18BFE611 
  60      C33569
  61 0058 120D832C 		.ascii	"\022\015\203,\211E\356\225h\243_0\253\011$\031\301\231"
  61      8945EE95 
  61      68A35F30 
  61      AB092419 
  61      C199
  62 006a 29AD0C0D 		.ascii	")\255\014\015\322\201\353n\347^\262\243\331\217R\251"
  62      D281EB6E 
  62      E75EB2A3 
  62      D98F52A9 
  63 007a CF51D159 		.ascii	"\317Q\321Y\246b\361\223c\3440S?)\0122\376\236\321\244"
  63      A662F193 
  63      63E43053 
  63      3F290A32 
  63      FE9ED1A4 
  64 008e 935A479D 		.ascii	"\223ZG\235*2\376U\224\253\023\231\235\327\210\316M\357"
  64      2A32FE55 
  64      94AB1399 
  64      9DD788CE 
  64      4DEF
  65 00a0 275F90EF 		.ascii	"'_\220\357{\326\243x\372(e\206\350H9l\272\243\016[\202"
  65      7BD6A378 
  65      FA286586 
  65      E848396C 
  65      BAA30E5B 
  66 00b5 7A59E97F 		.ascii	"zY\351\177\362_-\336D\256\337\353\0234\240\367\336u"
  66      F25F2DDE 
  66      44AEDFEB 
  66      1334A0F7 
  66      DE75
  67 00c7 B5380CF7 		.ascii	"\2658\014\367qY\324\315\234\342+\010\005\245x\237\007"
  67      7159D4CD 
  67      9CE22B08 
  67      05A5789F 
  67      07
  68 00d8 49627D8D 		.ascii	"Ib}\215\265\201\365\001\326&x\010Z\340\021\350\003\217"
  68      B581F501 
  68      D6267808 
  68      5AE011E8 
  68      038F
  69 00ea 413F7802 		.ascii	"A?x\002\006\300\002\030\004O\301\020x\006\206\301s0"
  69      06C00218 
  69      044FC110 
  69      780686C1 
  69      7330
  70 00fc 025E8051 		.ascii	"\002^\200Q\360\022\3040i\313u\243\274\250\263\323c\\"
  70      F012C430 
ARM GAS  /tmp/ccdKYX3q.s 			page 5


  70      69CB75A3 
  70      BCA8B3D3 
  70      635C
  71 010e 517D8613 		.ascii	"Q}\206\023\310OMd\221\262\323o{\341\024\337\342\331"
  71      C84F4D64 
  71      91B2D36F 
  71      7BE114DF 
  71      E2D9
  72 0120 D82CE234 		.ascii	"\330,\3424\342\260_\356\322\016;\034\0206\353\362\255"
  72      E2B05FEE 
  72      D20E3B1C 
  72      1036EBF2 
  72      AD
  73 0131 4AC366BC 		.ascii	"J\303f\274\017\036\302\007IU\235a\253\206+\263Z\310"
  73      0F1EC207 
  73      49559D61 
  73      AB862BB3 
  73      5AC8
  74 0143 D456BEF6 		.ascii	"\324V\276\366V\354Ym\336{V\226v3\033\334|\332-\330\336"
  74      56EC596D 
  74      DE7B5696 
  74      76331BDC 
  74      7CDA2DD8 
  75 0158 4DD4B965 		.ascii	"M\324\271ej2?\224j_\020}\321\216\337\336A\001\334\326"
  75      6A323F94 
  75      6A5F107D 
  75      D18EDFDE 
  75      4101DCD6 
  76 016c DB2FBD58 		.ascii	"\333/\275XP\237\037h\314)\204\362\2529\3259\204\341"
  76      509F1F68 
  76      CC2984F2 
  76      AA39D539 
  76      84E1
  77 017e DEE810D1 		.ascii	"\336\350\020\321\273\303:|\343\205\243\332;\242\302"
  77      BBC33A7C 
  77      E385A3DA 
  77      3BA2C2
  78 018d CF639568 		.ascii	"\317c\225h\234.\334-T\323U\251*\204\252\204\312\326"
  78      9C2EDC2D 
  78      54D355A9 
  78      2A84AA84 
  78      CAD6
  79 019f 5FAB4A96 		.ascii	"_\253J\226'\320\023\275\022\343e-K\253c\\u\021\317Q"
  79      27D013BD 
  79      12E3652D 
  79      4BAB635C 
  79      7511CF51 
  80 01b3 55DF9348 		.ascii	"U\337\223H$\313\377\345tran)\231^\265\223+sK\011\233"
  80      24CBFFE5 
  80      7472616E 
  80      29995EB5 
  80      932B734B 
  81 01c9 E4FC7ADA 		.ascii	"\344\374z\332\230_\\K\377\002\031\344\001\256"
  81      985F5C4B 
  81      FF0219E4 
  81      01AE
  82              		.text
ARM GAS  /tmp/ccdKYX3q.s 			page 6


  83              		.section	.gnu.lto_palSetBusMode.7f28e2965fb67ca0,"",%progbits
  84 0000 789C9D92 		.ascii	"x\234\235\222\317K\002A\024\307\277ofw5\255\350j\020"
  84      CF4B0241 
  84      14C7BF6F 
  84      667735AD 
  84      E86A10
  85 0013 99D4A540 		.ascii	"\231\324\245@\377\015\257\005]\002\023\333\006\012\014"
  85      FF0DAF05 
  85      5D0213DB 
  85      060A0C
  86 0022 23E9D2C5 		.ascii	"#\351\322\305M\373\003\244Su\320\314\"\242?\242\240"
  86      4DFB03A4 
  86      5375D0CC 
  86      22A23FA2 
  86      A0
  87 0033 9B88A7FE 		.ascii	"\233\210\247\376\000\241\253t\227 {3i\032*X\263;|\207"
  87      00A1AB74 
  87      97207B33 
  87      691A2A58 
  87      B33B7C87 
  88 0047 B7EFB3EF 		.ascii	"\267\357\263\357\327\010\020?\303+\304\373C\000+\254"
  88      D708103F 
  88      C32BC4FB 
  88      43002BAC 
  89 0057 2441A2D8 		.ascii	"$A\242\330\000N\303\202H\037\030\311\011\312m\032\322"
  89      004EC382 
  89      481F18C9 
  89      09CA6D1A 
  89      D2
  90 0068 8EA0E279 		.ascii	"\216\240\342y\347\305\227|<\337\354t\026\225\266&\011"
  90      E7C5977C 
  90      3CDFEC74 
  90      1695B626 
  90      09
  91 0079 B5F61B85 		.ascii	"\265\366\033\205\240\210\020\206V\001\353w\214!N\032"
  91      A0881086 
  91      5601EB77 
  91      8C214E1A 
  92 0089 0E7F83AC 		.ascii	"\016\177\203\254I\241\342\000d\377'\322$\351\265J\237"
  92      49A1E200 
  92      64FF27D2 
  92      24E9B54A 
  92      9F
  93 009a E2B5EC3C 		.ascii	"\342\265\354<\211\347f'\267\214\252\376C\301\213+r\004"
  93      89E76627 
  93      B78CAAFE 
  93      43C18B2B 
  93      7204
  94 00ac 1648F3AD 		.ascii	"\026H\363\255\322\373\210\266\320\240\257O`\311\370"
  94      D2FB88B6 
  94      D0A0AF4F 
  94      60C9F8
  95 00bb 5E044704 		.ascii	"^\004G\004\343\357\274\035\004\210\022t\307\240@\202"
  95      E3EFBC1D 
  95      04881274 
  95      C7A04082 
  96 00cb AE2902C9 		.ascii	"\256)\002\311Za\265XoXm\326*\253\303z\313\352c\377{"
ARM GAS  /tmp/ccdKYX3q.s 			page 7


  96      5A61B558 
  96      6F586DD6 
  96      2AABC37A 
  96      CBEA63FF 
  97 00e0 F6D733C3 		.ascii	"\366\3273\303\231\347\315\321\276\211b\326\272V=\333"
  97      99E7CDD1 
  97      BE8962D6 
  97      BA563DDB 
  98 00f0 0D8EA30F 		.ascii	"\015\216\243\017\262\206\374V\275<\233\240\007n\227"
  98      B286FC56 
  98      BD3C9BA0 
  98      076E97
  99 00ff 4B620DAB 		.ascii	"Kb\015\253\212\374\362\012\227\244hJ\270d\312p\272\205"
  99      8AFCF20A 
  99      97A4684A 
  99      B864CA70 
  99      BA85
 100 0111 6FF76F91 		.ascii	"o\367o\221\006\321\303\244\301\002\3431\032\211Y\006"
 100      06D1C3A4 
 100      C102E331 
 100      1A895906 
 101 0121 0B8EC7C4 		.ascii	"\013\216\307\304\000\326\222?\234\355\352\013QC\341"
 101      00D6923F 
 101      9CEDEA0B 
 101      5143E1
 102 0130 B16F7338 		.ascii	"\261os8\013W\217\274nZ\241\215\300\011\332\236_\321"
 102      0B578FBC 
 102      6E5AA18D 
 102      C009DA9E 
 102      5FD1
 103 0142 3425A99B 		.ascii	"4%\251\233\002\227h|}\212f\200\006\210\347\330\363\356"
 103      0297687C 
 103      7D8A6680 
 103      0688E7D8 
 103      F3EE
 104 0154 F5884C6B 		.ascii	"\365\210Lkt\354\371h4\366\375f\262\261\275T:\226=rc"
 104      74ECF968 
 104      34F6FD66 
 104      B2B1BD54 
 104      3A963D72 
 105 0169 87A974D4 		.ascii	"\207\251t\324\205\3349\316Z\007\231]\365\005:\210\224"
 105      85DC39CE 
 105      5A07995D 
 105      F5053A88 
 105      94
 106 017a 75       		.ascii	"u"
 107              		.text
 108              		.section	.gnu.lto_.cgraph.7f28e2965fb67ca0,"",%progbits
 109 0000 789C45C7 		.ascii	"x\234E\307\271\015\200@\024C\301g\377\312\250\314\033"
 109      B90D8040 
 109      1443C167 
 109      FFCAA8CC 
 109      1B
 110 0011 12520109 		.ascii	"\022R\001\011\235p\244\333\003\215 $\204`\2621\242\200"
 110      9D70A4DB 
 110      038D2024 
 110      8460B231 
ARM GAS  /tmp/ccdKYX3q.s 			page 8


 110      A280
 111 0023 81975705 		.ascii	"\201\227W\005\246N2\217\362\246\350\337\256\370\233"
 111      A64E328F 
 111      F2A6E8DF 
 111      AEF89B
 112 0032 0EA59EB5 		.ascii	"\016\245\236\265\246r\261\234\227\270\001\307\216\025"
 112      A672B19C 
 112      97B801C7 
 112      8E15
 113 0040 55       		.ascii	"U"
 114              		.text
 115              		.section	.gnu.lto_.vars.7f28e2965fb67ca0,"",%progbits
 116 0000 789C6362 		.ascii	"x\234cb`d`f`\000\222P\000\000\000r\000\010"
 116      60646066 
 116      60009250 
 116      00000072 
 116      0008
 117              		.text
 118              		.section	.gnu.lto_.refs.7f28e2965fb67ca0,"",%progbits
 119 0000 789C6362 		.ascii	"x\234cb`d`f```b\200\001\000\000\204\000\011"
 119      60646066 
 119      60606062 
 119      80010000 
 119      840009
 120              		.text
 121              		.section	.gnu.lto_.statics.7f28e2965fb67ca0,"",%progbits
 122 0000 789C6362 		.ascii	"x\234cb`d`b\300\016@\342\214\020&\000\000\375\000\011"
 122      60646062 
 122      C00E40E2 
 122      8C102600 
 122      00FD0009 
 123              		.text
 124              		.section	.gnu.lto_.decls.7f28e2965fb67ca0,"",%progbits
 125 0000 789CAD57 		.ascii	"x\234\255WmH\034G\030\236\331=\243\247\247\371\240\011"
 125      6D481C47 
 125      189ED93D 
 125      A3A7A7F9 
 125      A009
 126 0012 260435A5 		.ascii	"&\0045\245)4\240\033?j\354\217\374h\024\242T\233r\246"
 126      2934A01B 
 126      3F6AEC8F 
 126      FC6814A2 
 126      549B72A6 
 127 0026 B47F96ED 		.ascii	"\264\177\226\355y\336\305\243\352Yo-)\364\307\242\245"
 127      79DEC5A3 
 127      EA596F2D 
 127      29F4C7A2 
 127      A5
 128 0037 8442C014 		.ascii	"\204B\300\024\002B\322hl\265D!\211)i4ISi\255\021kJB"
 128      0242D268 
 128      6CB54421 
 128      89296934 
 128      495369AD 
 129 004f 6221B458 		.ascii	"b!\264X1--M\241!\2256\024\315\365\235\331\331\271\335"
 129      312D2D4D 
 129      A1219536 
 129      14CDF59D 
ARM GAS  /tmp/ccdKYX3q.s 			page 9


 129      D9D9B9DD 
 130 0063 BDDB3B2F 		.ascii	"\275\333;/t\270wof\367\235\347}\336\217\231\331\025"
 130      74B8776F 
 130      66F79DE7 
 130      7DDE8F99 
 130      D915
 131 0075 1046A4BD 		.ascii	"\020F\244\275\013\177Qh\2337 \224# \344\202{{Q\254\221"
 131      0B7F5168 
 131      9B372094 
 131      2320E482 
 131      7B7B51AC 
 132 008a F100C83C 		.ascii	"\361\000\310<\310\002\310\357(\276\221\347\271 \203"
 132      C802C8EF 
 132      28BE91E7 
 132      B92083
 133 0099 2079201E 		.ascii	" y \036\220\031\220L\220\014\2061\0022\0062\0122\016"
 133      9019904C 
 133      900C8631 
 133      02320632 
 133      0A320E
 134 00ac 7201E406 		.ascii	"r\001\344\006{v\036\344*\310\034\310,\010f\230\344\377"
 134      7B761EE4 
 134      2AC81CC8 
 134      2C086698 
 134      E4FF
 135 00be 81CDD63C 		.ascii	"\201\315\326<\2635c\262e\2673h\262u\303d\317\2605\313"
 135      B33563B2 
 135      65B73368 
 135      B275C364 
 135      CFB035CB 
 136 00d2 6C4D321B 		.ascii	"lM2\033\363\354\377_\233\255\005f#\231\255%\223\255"
 136      F3ECFF5F 
 136      9BAD0566 
 136      2399AD25 
 136      93AD
 137 00e4 41662F0A 		.ascii	"Af/\012r\037D\264\331\023L1\244\321\307V{\205\350\224"
 137      721F44B4 
 137      D9134C31 
 137      A4D1C756 
 137      7B85E894 
 138 00f8 36B0D8DB 		.ascii	"6\260\330\333\243\325>\212F3\267\240\343\032\264\201"
 138      A3D53E8A 
 138      4633B7A0 
 138      E31AB481 
 139 0108 F7350DAB 		.ascii	"\3675\015\253ntD\323\272\311\240v\006\250lE2\316s#T"
 139      6E7444D3 
 139      BAC9A076 
 139      06A86C45 
 139      32CE7323 
 140 011d 447B1EB7 		.ascii	"D{\036\267\316g'\372D\323za\016\226\361 v\203=\001\243"
 140      CE6727FA 
 140      44D37A61 
 140      0E96F120 
 140      76833D01 
 141 0132 5DE88C46 		.ascii	"]\350\214F\0333\306\376\326\243\313w\257\334\021\364"
 141      1B33C6FE 
 141      D6A3CB77 
ARM GAS  /tmp/ccdKYX3q.s 			page 10


 141      AFDC11F4 
 142 0142 41DAE8C3 		.ascii	"A\332\350\303\024\275\026\303\343!\274\013\015\037\275"
 142      14BD16C3 
 142      E321BC0B 
 142      0D1FBD
 143 0151 352DE950 		.ascii	"5-\351P2\316t\233}\242c]K\007\326\037\033=Rz\353Q\372"
 143      32CE749B 
 143      7DA2635D 
 143      4B07D61F 
 143      1B3D527A 
 144 0168 13125324 		.ascii	"\023\022S$\263O\343-\264'\322p\243\034\364A\314\265"
 144      B34FE32D 
 144      B427D270 
 144      A31CF441 
 144      CCB5
 145 017a 4DE81889 		.ascii	"M\350\030\211D\221\331\31178\202\307\346\344(\336\004"
 145      4491D9C9 
 145      373882C7 
 145      E6E428DE 
 145      04
 146 018b 18D3D8F0 		.ascii	"\030\323\330\360\362\341\311+\263\242N25\020\241r\026"
 146      F2E1C92B 
 146      B3A24E32 
 146      3510A172 
 146      16
 147 019c 00F4A914 		.ascii	"\000\364\251\024V\323a\311]\304\356/\367\007Q|\023w"
 147      56D361C9 
 147      5DC4EE2F 
 147      F707517C 
 147      1377
 148 01ae A001204D 		.ascii	"\240\001 M\012a]J\376\213\230\333\335ns\340\002u\340"
 148      0A615D4A 
 148      FE8B98DB 
 148      DD6E73E0 
 148      0275E0
 149 01c1 3E7760A9 		.ascii	">w`\251\177>Z\345\354\200\015\211p\274\230\320\203\213"
 149      7F3E5AE5 
 149      EC800D89 
 149      70BC98D0 
 149      838B
 150 01d3 260FE656 		.ascii	"&\017\346V\357y\022\270\220I\\x\257\207\272@\253\253"
 150      EF7912B8 
 150      90495C78 
 150      AF87BA40 
 150      ABAB
 151 01e5 274575C9 		.ascii	"'Eu\311\370S\274s\215\311\027\320)\0013v?\256\336{*"
 151      F853BC73 
 151      8DC917D0 
 151      29013376 
 151      3FAEDE7B 
 152 01fa 31A2D1D7 		.ascii	"1\242\321\327\233\241\303\232\211\236\214\307i5\017"
 152      9BA1C39A 
 152      899E8CC7 
 152      69350F
 153 0209 72CC9F57 		.ascii	"r\314\237W\305t \213\034!\2079\344\037\251 \263\326"
 153      C574208B 
 153      1C218739 
ARM GAS  /tmp/ccdKYX3q.s 			page 11


 153      E41FA920 
 153      B3D6
 154 021b C8728443 		.ascii	"\310r\204C.\247\007\351\314\362,\207\\I\005\271a\215"
 154      2EA707E9 
 154      CCF22C87 
 154      5C4905B9 
 154      618D
 155 022d 2C3FE390 		.ascii	",?\343\220S\217\323\202tfy\211C\316\245\202\314O\304"
 155      538FD382 
 155      74667989 
 155      43CEA582 
 155      CC4FC4
 156 0240 32BE99CB 		.ascii	"2\276\231\313[\306\237C\371e\312\370\022\336\001\203"
 156      5BC69F43 
 156      F965CAF8 
 156      12DE0183 
 157 0250 CBF47A95 		.ascii	"\313\364z\225^\257\321\353$\275~E\257Sp\215\253\001"
 157      5EAFD1EB 
 157      24BD7E45 
 157      AF53708D 
 157      AB01
 158 0262 A7AD720C 		.ascii	"\247\255r\014\347\000\373\253\202\261\010/\237\371r"
 158      E700FBAB 
 158      82B1082F 
 158      9FF972
 159 0271 8AED2296 		.ascii	"\212\355\"\226\265\255/W\347}m\006p\214\225a\367\303"
 159      B5AD2F57 
 159      E77D6D06 
 159      708C9561 
 159      F7C3
 160 0283 F64C40D7 		.ascii	"\366L@\327\2519\262\323<<y|\366\205'\\ l\0132\016\223"
 160      A939B2D3 
 160      3C3C797C 
 160      F685275C 
 160      206C0B32 
 161 0299 EF38E8D4 		.ascii	"\3578\350\324sO\270>\030b\332\347\315\015J\340\266\020"
 161      734FB83E 
 161      1862DAE7 
 161      CD0D4AE0 
 161      B610
 162 02ab 3B708E7D 		.ascii	";p\216}[ex\237a;p2\254[H\006\337B2\314[\310\242)D\023"
 162      5B65789F 
 162      613B7032 
 162      AC5B4806 
 162      DF4232CC 
 163 02c5 A9429470 		.ascii	"\251B\224pu&\252\250\263\246\212:\007\025%\312\370<"
 163      7526AAA8 
 163      B3A68A3A 
 163      071525CA 
 163      F83C
 164 02d7 AD99597A 		.ascii	"\255\231Yz\235KU9\004c\004\262\311\032\270~\220\025"
 164      9D4B5539 
 164      046304B2 
 164      C91AB87E 
 164      9015
 165 02e9 0B50FE95 		.ascii	"\013P\376\225\373?r\356\304t\201~\373\031\364\261\246"
 165      FB3F72EE 
ARM GAS  /tmp/ccdKYX3q.s 			page 12


 165      C474817E 
 165      FB19F4B1 
 165      A6
 166 02fa 7D48C2AA 		.ascii	"}H\302\252\317\024\320Q\221\250\015\340Bt\304\355`\205"
 166      CF14D051 
 166      91A80DE0 
 166      4274C4ED 
 166      6085
 167 030c 1979160D 		.ascii	"\031y\026\015\221\224|\335]\253\347\030\261y\2779,0"
 167      91947CDD 
 167      5DABE718 
 167      B179BF39 
 167      2C30
 168 031e 46F01616 		.ascii	"F\360\026\026\314^'ym\221\361\336\315I<\375\336zV3\007"
 168      CC5E2779 
 168      6D91F1DE 
 168      CD493CFD 
 168      DE7A5633 
 169 0333 F8C8A064 		.ascii	"\370\310\240d\012\3011\321\010\301\362\211m\211\003"
 169      0AC131D1 
 169      08C1F289 
 169      6D8903
 170 0342 20E3DBC0 		.ascii	" \343\333\300O\306\363\340H_fb\343\330<I\257\356\217"
 170      4FC6F3E0 
 170      485F6662 
 170      E3D83C49 
 170      AFEE8F
 171 0355 28329934 		.ascii	"(2\2314\236\343\0305\312\310\034<M\233\354\316\247^"
 171      9EE31835 
 171      CAC81C3C 
 171      4D9BECCE 
 171      A75E
 172 0367 2236BBC5 		.ascii	"\"6\273\305R\017w\377\257P\375\224,Ti\257\247%\375\304"
 172      520F77FF 
 172      AF50FD94 
 172      2C5469AF 
 172      A725FDC4 
 173 037b 13639BD2 		.ascii	"\023c\233\322\027\306\273\240\376rgqbmop\226<\215\212"
 173      17C6BBA0 
 173      FE726771 
 173      626D6F70 
 173      963C8D8A 
 174 038f B152FDE1 		.ascii	"\261R\375\341\372\272\344\231Z A_K\246t\332\023\024"
 174      FABAE499 
 174      5A20415F 
 174      4BA674DA 
 174      1314
 175 03a1 9B4CEA73 		.ascii	"\233L\352s\316\324R\362L-\304e\352\227\370L-\366\366"
 175      CED452F2 
 175      4C2DC465 
 175      EA97F84C 
 175      2DF6F6
 176 03b4 F60CA49D 		.ascii	"\366\014\244\235\251\373\366L\221\023@\264\0255\037"
 176      A9FBF64C 
 176      911340B4 
 176      15351F
 177 03c3 2EC5D7F8 		.ascii	".\305\327\370\265XZ&\306\276\261|#\310\370O+\315\247"
ARM GAS  /tmp/ccdKYX3q.s 			page 13


 177      B5585A26 
 177      C6BEB17C 
 177      23C8F84F 
 177      2BCDA7
 178 03d6 D169EDE6 		.ascii	"\321i\355\346\315^\255;\277{1\032-\334\210z\351k]_\036"
 178      CD5EAD3B 
 178      BF7B311A 
 178      2DDC887A 
 178      E96B5D5F 
 179 03eb 2B89C5A1 		.ascii	"+\211\305\241\311\374>SIdq\272\330(\011\372R\307\325"
 179      C9FC3E53 
 179      496471BA 
 179      D82809FA 
 179      52C7D5
 180 03fe B5FC7C27 		.ascii	"\265\374|'m\031\377E_\321\226Y}l\215\365y7\212\211\007"
 180      6D19FF45 
 180      5FD19659 
 180      7D6C8DF5 
 180      79378A89 
 181 0413 7744A26F 		.ascii	"wD\242o\373\272a\016\244\232m\330~\235\333\326w\303"
 181      FBBA610E 
 181      A49A6DD8 
 181      7E9DDBD6 
 181      77C3
 182 0425 986BBAB2 		.ascii	"\230k\272\262\223\236\214\377\306\033i\217\372\244\361"
 182      939E8CFF 
 182      C61B698F 
 182      FAA4F1
 183 0434 E3D5E34E 		.ascii	"\343\325\343N\222\264\177L\254<ns/\333\302\336\320\003"
 183      92B47F4C 
 183      AC3C6E73 
 183      2FDBC2DE 
 183      D003
 184 0446 27EFF26D 		.ascii	"'\357\362mv\344\\\377\264\350\304G@K\"f\263\263q\222"
 184      76E45CFF 
 184      B4E8C447 
 184      404B2266 
 184      B3B37192 
 185 045a 8CC9F8A1 		.ascii	"\214\311\370\241\311-\373\327\204\223\373\361_\035+"
 185      C92DFBD7 
 185      8493FBF1 
 185      5F1D2B
 186 0469 4FE0FEAA 		.ascii	"O\340\376\252\243\373\374(\262\350A\367\021\337d\247"
 186      A3FBFC28 
 186      B2E841F7 
 186      11DF64A7 
 187 0479 B63B9111 		.ascii	"\266;\221\021\320\003\213\357\266\027\036\262R\2349"
 187      D0038BEF 
 187      B6171EB2 
 187      529C39
 188 0488 4563C7E0 		.ascii	"Ec\307\340\032c\326\3011\362\222\306\314\256'\343n!"
 188      1A63D6C1 
 188      31F292C6 
 188      CCAE27E3 
 188      6E21
 189 049a FD98F508 		.ascii	"\375\230\365\010N1\313\265\304\314\320\3431#{\317J\201"
 189      4E31CBB5 
ARM GAS  /tmp/ccdKYX3q.s 			page 14


 189      C4CCD0E3 
 189      31237BCF 
 189      4A81
 190 04ac 1319013D 		.ascii	"\023\031\001=\266\304\014yB\341\216p\247\332\346\213"
 190      B6C40C79 
 190      42E18E70 
 190      A7DAE68B 
 191 04bc BCA9A8EB 		.ascii	"\274\251\250\353\366\277\374jQ5*-)\221\364_8\"\265\370"
 191      F6BFFC6A 
 191      51352A2D 
 191      2991F45F 
 191      3822B5F8 
 192 04d0 5A25A211 		.ascii	"Z%\242\021\221\032\0176\224\227I\365\3655\322\376W\352"
 192      911A0F36 
 192      949749F5 
 192      F535D2FE 
 192      57EA
 193 04e2 0EBC5D2A 		.ascii	"\016\274]*u\370Z\225\326\326\346\222\026\224\325\025"
 193      75F85A95 
 193      D6D6E692 
 193      1694D515 
 194 04f2 6A57CBCB 		.ascii	"jW\313\313\024U\225\302\035\252\364\242\267A:\344\367"
 194      145595C2 
 194      1DAAF4A2 
 194      B7413AE4 
 194      F7
 195 0503 17FB3ADB 		.ascii	"\027\373:\333\212\333\303\355\201\342\200\257)T\\\241"
 195      8ADBC3ED 
 195      81E280AF 
 195      29545CA1 
 196 0513 EC292EDB 		.ascii	"\354).\333]Z\376V\271\324\024j'\360\255\241&\242'Y\364"
 196      5D5AFE56 
 196      B9D4146A 
 196      27F0ADA1 
 196      26A22759 
 197 0528 A48A923D 		.ascii	"\244\212\222=%\025\022\347\000?\353\363P\273\277\265"
 197      251512E7 
 197      003FEBF3 
 197      50BBBFB5 
 198 0538 AB392045 		.ascii	"\2539 E\324f\260\012\3263\352\016\354\353\212\024\330"
 198      D466B00A 
 198      D633EA0E 
 198      ECEB8A14 
 198      D8
 199 0549 591B7A40 		.ascii	"Y\033z@\023\224<\204\264r\360\235\216@M \270\323\254"
 199      13943C84 
 199      B472F09D 
 199      8E404D20 
 199      B8D3AC
 200 055c 1B38AC4A 		.ascii	"\0338\254J\325\015\215u\215\340!\200\266\225\227\005"
 200      D50D8D75 
 200      8DE02180 
 200      B6959705 
 201 056c 4B771F86 		.ascii	"Kw\037\206)b\265\267\036\244V\254\253\361\212\007j\274"
 201      2962B5B7 
 201      1EA456AC 
 201      ABF18A07 
ARM GAS  /tmp/ccdKYX3q.s 			page 15


 201      6ABC
 202 057e AE7D8D5E 		.ascii	"\256}\215^\257\270\317\353u\325W\277\344\315\326#\027"
 202      AFB8CFEB 
 202      75D557BF 
 202      E4CDD623 
 202      17
 203 058f 6A86B8E9 		.ascii	"j\206\270\351\035\027\211\242\207\204B\011\372\"j\025"
 203      1D1789A2 
 203      87844209 
 203      FA226A15 
 204 059f 3C080783 		.ascii	"<\010\007\203\221\200\232\015\024\274\001_3\260\334"
 204      91809A0D 
 204      14BC015F 
 204      33B0DC
 205 05ae 666719E9 		.ascii	"fg\031\351\364S\206~$6uEr\240\373ZgH\015\200\252\253"
 205      F453867E 
 205      24367545 
 205      72A0FB5A 
 205      67480D80 
 206 05c4 29A446B2 		.ascii	")\244F\262B\341\266ps@Qs\341Ic@\205\373\0150v\221\233"
 206      42E1B670 
 206      73405173 
 206      E1496340 
 206      85FB0D30 
 207 05db 9B159601 		.ascii	"\233\025\226\001\005l\034\352\014wu\220\273.\177\213"
 207      056C1CEA 
 207      0C777590 
 207      BB2E7F8B 
 208 05eb AF334B51 		.ascii	"\2573KQ\202]\355~E\3115:%\225\025\317W\232G\225\245"
 208      825DED7E 
 208      45C9353A 
 208      259515CF 
 208      579A4795 
 209 0600 9651E57F 		.ascii	"\226Q\345\177`\251ny"
 209      60A96E79 
 210              		.text
 211              		.section	.gnu.lto_.symtab.7f28e2965fb67ca0,"",%progbits
 212 0000 70616C52 		.ascii	"palReadBus\000\000\000\000\000\000\000\000\000\000\000"
 212      65616442 
 212      75730000 
 212      00000000 
 212      00000000 
 213 0015 00A00000 		.ascii	"\000\240\000\000\000palWriteBus\000\000\000\000\000"
 213      0070616C 
 213      57726974 
 213      65427573 
 213      00000000 
 214 002a 00000000 		.ascii	"\000\000\000\000\000\000\000\325\000\000\000palSetB"
 214      000000D5 
 214      00000070 
 214      616C5365 
 214      7442
 215 003c 75734D6F 		.ascii	"usMode\000\000\000\000\000\000\000\000\000\000\000\000"
 215      64650000 
 215      00000000 
 215      00000000 
 215      0000
ARM GAS  /tmp/ccdKYX3q.s 			page 16


 216 004e DE000000 		.ascii	"\336\000\000\000_pal_lld_setgroupmode\000\000\002\000"
 216      5F70616C 
 216      5F6C6C64 
 216      5F736574 
 216      67726F75 
 217 006b 00000000 		.ascii	"\000\000\000\000\000\000\000\000\352\000\000\000"
 217      00000000 
 217      EA000000 
 218              		.text
 219              		.section	.gnu.lto_.opts,"",%progbits
 220 0000 272D6D63 		.ascii	"'-mcpu=cortex-m3''-mno-thumb-interwork''-mthumb''-g"
 220      70753D63 
 220      6F727465 
 220      782D6D33 
 220      27272D6D 
 221 0033 67646227 		.ascii	"gdb''-O2''-fomit-frame-pointer''-falign-functions=1"
 221      272D4F32 
 221      27272D66 
 221      6F6D6974 
 221      2D667261 
 222 0066 3627272D 		.ascii	"6''-ffunction-sections''-fdata-sections''-fno-commo"
 222      6666756E 
 222      6374696F 
 222      6E2D7365 
 222      6374696F 
 223 0099 6E27272D 		.ascii	"n''-flto'\000"
 223      666C746F 
 223      2700
 224              		.text
 225              		.cfi_sections	.debug_frame
 226              		.section	.text.palReadBus,"ax",%progbits
 227              		.align	2
 228              		.p2align 4,,15
 229              		.global	palReadBus
 230              		.thumb
 231              		.thumb_func
 232              		.type	palReadBus, %function
 233              	palReadBus:
 234              	.LFB194:
 235              		.file 1 "../../../os/hal/src/pal.c"
 236              		.loc 1 69 0
 237              		.cfi_startproc
 238              		@ args = 0, pretend = 0, frame = 0
 239              		@ frame_needed = 0, uses_anonymous_args = 0
 240              		@ link register save eliminated.
 241              	.LVL0:
 242              		.loc 1 73 0
 243 0000 0368     		ldr	r3, [r0, #0]
 244 0002 8268     		ldr	r2, [r0, #8]
 245 0004 9968     		ldr	r1, [r3, #8]
 246 0006 4368     		ldr	r3, [r0, #4]
 247 0008 21FA02F0 		lsr	r0, r1, r2
 248              	.LVL1:
 249              		.loc 1 74 0
 250 000c 1840     		ands	r0, r0, r3
 251 000e 7047     		bx	lr
 252              		.cfi_endproc
ARM GAS  /tmp/ccdKYX3q.s 			page 17


 253              	.LFE194:
 254              		.size	palReadBus, .-palReadBus
 255              		.section	.text.palWriteBus,"ax",%progbits
 256              		.align	2
 257              		.p2align 4,,15
 258              		.global	palWriteBus
 259              		.thumb
 260              		.thumb_func
 261              		.type	palWriteBus, %function
 262              	palWriteBus:
 263              	.LFB195:
 264              		.loc 1 94 0
 265              		.cfi_startproc
 266              		@ args = 0, pretend = 0, frame = 0
 267              		@ frame_needed = 0, uses_anonymous_args = 0
 268              		@ link register save eliminated.
 269              	.LVL2:
 270              		.loc 1 98 0
 271 0000 4268     		ldr	r2, [r0, #4]
 272 0002 8368     		ldr	r3, [r0, #8]
 273              		.loc 1 94 0
 274 0004 30B4     		push	{r4, r5}
 275              	.LCFI0:
 276              		.cfi_def_cfa_offset 8
 277              		.cfi_offset 4, -8
 278              		.cfi_offset 5, -4
 279              		.loc 1 98 0
 280 0006 22EA0105 		bic	r5, r2, r1
 281 000a 03F11004 		add	r4, r3, #16
 282 000e 0A40     		ands	r2, r2, r1
 283 0010 05FA04F4 		lsl	r4, r5, r4
 284 0014 02FA03F1 		lsl	r1, r2, r3
 285              	.LVL3:
 286 0018 0068     		ldr	r0, [r0, #0]
 287              	.LVL4:
 288 001a 44EA0102 		orr	r2, r4, r1
 289 001e 0261     		str	r2, [r0, #16]
 290              		.loc 1 99 0
 291 0020 30BC     		pop	{r4, r5}
 292 0022 7047     		bx	lr
 293              		.cfi_endproc
 294              	.LFE195:
 295              		.size	palWriteBus, .-palWriteBus
 296 0024 AFF30080 		.section	.text.palSetBusMode,"ax",%progbits
 296      AFF30080 
 296      AFF30080 
 297              		.align	2
 298              		.p2align 4,,15
 299              		.global	palSetBusMode
 300              		.thumb
 301              		.thumb_func
 302              		.type	palSetBusMode, %function
 303              	palSetBusMode:
 304              	.LFB196:
 305              		.loc 1 117 0
 306              		.cfi_startproc
 307              		@ args = 0, pretend = 0, frame = 0
ARM GAS  /tmp/ccdKYX3q.s 			page 18


 308              		@ frame_needed = 0, uses_anonymous_args = 0
 309              		@ link register save eliminated.
 310              	.LVL5:
 311              		.loc 1 121 0
 312 0000 8368     		ldr	r3, [r0, #8]
 313              		.loc 1 117 0
 314 0002 10B4     		push	{r4}
 315              	.LCFI1:
 316              		.cfi_def_cfa_offset 4
 317              		.cfi_offset 4, -4
 318              		.loc 1 121 0
 319 0004 4468     		ldr	r4, [r0, #4]
 320              		.loc 1 117 0
 321 0006 0A46     		mov	r2, r1
 322              		.loc 1 121 0
 323 0008 04FA03F1 		lsl	r1, r4, r3
 324              	.LVL6:
 325 000c 0068     		ldr	r0, [r0, #0]
 326              	.LVL7:
 327              		.loc 1 122 0
 328 000e 10BC     		pop	{r4}
 329              		.loc 1 121 0
 330 0010 FFF7FEBF 		b	_pal_lld_setgroupmode
 331              	.LVL8:
 332              		.cfi_endproc
 333              	.LFE196:
 334              		.size	palSetBusMode, .-palSetBusMode
 335 0014 AFF30080 		.text
 335      AFF30080 
 335      AFF30080 
 336              	.Letext0:
 337              		.file 2 "/opt/ARM/gcc-arm-none-eabi-4_7-2013q3/bin/../lib/gcc/arm-none-eabi/4.7.4/../../../../arm-
 338              		.file 3 "../../../os/rt/include/chschd.h"
 339              		.file 4 "../../../os/rt/ports/ARMCMx/compilers/GCC/chtypes.h"
 340              		.file 5 "../../../os/ext/CMSIS/ST/stm32f10x.h"
 341              		.file 6 "../../../os/rt/ports/ARMCMx/chcore.h"
 342              		.file 7 "../../../os/rt/ports/ARMCMx/chcore_v7m.h"
 343              		.file 8 "../../../os/rt/include/chmtx.h"
 344              		.file 9 "../../../os/hal/ports/STM32/LLD/GPIOv1/pal_lld.h"
 345              		.file 10 "../../../os/hal/include/pal.h"
 346              		.file 11 "../../../os/ext/CMSIS/include/core_cm3.h"
 347              		.section	.debug_info,"",%progbits
 348              	.Ldebug_info0:
 349 0000 7C070000 		.4byte	0x77c
 350 0004 0200     		.2byte	0x2
 351 0006 00000000 		.4byte	.Ldebug_abbrev0
 352 000a 04       		.byte	0x4
 353 000b 01       		.uleb128 0x1
 354 000c 02020000 		.4byte	.LASF97
 355 0010 01       		.byte	0x1
 356 0011 79010000 		.4byte	.LASF98
 357 0015 14040000 		.4byte	.LASF99
 358 0019 00000000 		.4byte	.Ldebug_ranges0+0
 359 001d 00000000 		.4byte	0
 360 0021 00000000 		.4byte	0
 361 0025 00000000 		.4byte	.Ldebug_line0
 362 0029 02       		.uleb128 0x2
ARM GAS  /tmp/ccdKYX3q.s 			page 19


 363 002a 04       		.byte	0x4
 364 002b 05       		.byte	0x5
 365 002c 696E7400 		.ascii	"int\000"
 366 0030 03       		.uleb128 0x3
 367 0031 04       		.byte	0x4
 368 0032 07       		.byte	0x7
 369 0033 F5010000 		.4byte	.LASF0
 370 0037 03       		.uleb128 0x3
 371 0038 01       		.byte	0x1
 372 0039 06       		.byte	0x6
 373 003a C3010000 		.4byte	.LASF1
 374 003e 04       		.uleb128 0x4
 375 003f AF000000 		.4byte	.LASF4
 376 0043 02       		.byte	0x2
 377 0044 2A       		.byte	0x2a
 378 0045 49000000 		.4byte	0x49
 379 0049 03       		.uleb128 0x3
 380 004a 01       		.byte	0x1
 381 004b 08       		.byte	0x8
 382 004c AE010000 		.4byte	.LASF2
 383 0050 03       		.uleb128 0x3
 384 0051 02       		.byte	0x2
 385 0052 05       		.byte	0x5
 386 0053 23000000 		.4byte	.LASF3
 387 0057 04       		.uleb128 0x4
 388 0058 BF020000 		.4byte	.LASF5
 389 005c 02       		.byte	0x2
 390 005d 36       		.byte	0x36
 391 005e 62000000 		.4byte	0x62
 392 0062 03       		.uleb128 0x3
 393 0063 02       		.byte	0x2
 394 0064 07       		.byte	0x7
 395 0065 E6020000 		.4byte	.LASF6
 396 0069 04       		.uleb128 0x4
 397 006a D0020000 		.4byte	.LASF7
 398 006e 02       		.byte	0x2
 399 006f 4F       		.byte	0x4f
 400 0070 74000000 		.4byte	0x74
 401 0074 03       		.uleb128 0x3
 402 0075 04       		.byte	0x4
 403 0076 05       		.byte	0x5
 404 0077 46010000 		.4byte	.LASF8
 405 007b 04       		.uleb128 0x4
 406 007c EC010000 		.4byte	.LASF9
 407 0080 02       		.byte	0x2
 408 0081 50       		.byte	0x50
 409 0082 86000000 		.4byte	0x86
 410 0086 03       		.uleb128 0x3
 411 0087 04       		.byte	0x4
 412 0088 07       		.byte	0x7
 413 0089 26030000 		.4byte	.LASF10
 414 008d 03       		.uleb128 0x3
 415 008e 08       		.byte	0x8
 416 008f 05       		.byte	0x5
 417 0090 FE000000 		.4byte	.LASF11
 418 0094 03       		.uleb128 0x3
 419 0095 08       		.byte	0x8
ARM GAS  /tmp/ccdKYX3q.s 			page 20


 420 0096 07       		.byte	0x7
 421 0097 0C010000 		.4byte	.LASF12
 422 009b 04       		.uleb128 0x4
 423 009c DF010000 		.4byte	.LASF13
 424 00a0 02       		.byte	0x2
 425 00a1 A0       		.byte	0xa0
 426 00a2 30000000 		.4byte	0x30
 427 00a6 05       		.uleb128 0x5
 428 00a7 7F020000 		.4byte	.LASF44
 429 00ab 44       		.byte	0x44
 430 00ac 03       		.byte	0x3
 431 00ad 79       		.byte	0x79
 432 00ae AF010000 		.4byte	0x1af
 433 00b2 06       		.uleb128 0x6
 434 00b3 82000000 		.4byte	.LASF14
 435 00b7 03       		.byte	0x3
 436 00b8 7A       		.byte	0x7a
 437 00b9 77030000 		.4byte	0x377
 438 00bd 02       		.byte	0x2
 439 00be 23       		.byte	0x23
 440 00bf 00       		.uleb128 0
 441 00c0 06       		.uleb128 0x6
 442 00c1 4C000000 		.4byte	.LASF15
 443 00c5 03       		.byte	0x3
 444 00c6 7C       		.byte	0x7c
 445 00c7 77030000 		.4byte	0x377
 446 00cb 02       		.byte	0x2
 447 00cc 23       		.byte	0x23
 448 00cd 04       		.uleb128 0x4
 449 00ce 06       		.uleb128 0x6
 450 00cf 7B000000 		.4byte	.LASF16
 451 00d3 03       		.byte	0x3
 452 00d4 7E       		.byte	0x7e
 453 00d5 E5010000 		.4byte	0x1e5
 454 00d9 02       		.byte	0x2
 455 00da 23       		.byte	0x23
 456 00db 08       		.uleb128 0x8
 457 00dc 06       		.uleb128 0x6
 458 00dd D2030000 		.4byte	.LASF17
 459 00e1 03       		.byte	0x3
 460 00e2 7F       		.byte	0x7f
 461 00e3 A4020000 		.4byte	0x2a4
 462 00e7 02       		.byte	0x2
 463 00e8 23       		.byte	0x23
 464 00e9 0C       		.uleb128 0xc
 465 00ea 06       		.uleb128 0x6
 466 00eb CF010000 		.4byte	.LASF18
 467 00ef 03       		.byte	0x3
 468 00f0 81       		.byte	0x81
 469 00f1 77030000 		.4byte	0x377
 470 00f5 02       		.byte	0x2
 471 00f6 23       		.byte	0x23
 472 00f7 10       		.uleb128 0x10
 473 00f8 06       		.uleb128 0x6
 474 00f9 A2030000 		.4byte	.LASF19
 475 00fd 03       		.byte	0x3
 476 00fe 82       		.byte	0x82
ARM GAS  /tmp/ccdKYX3q.s 			page 21


 477 00ff 77030000 		.4byte	0x377
 478 0103 02       		.byte	0x2
 479 0104 23       		.byte	0x23
 480 0105 14       		.uleb128 0x14
 481 0106 06       		.uleb128 0x6
 482 0107 18030000 		.4byte	.LASF20
 483 010b 03       		.byte	0x3
 484 010c 89       		.byte	0x89
 485 010d 47040000 		.4byte	0x447
 486 0111 02       		.byte	0x2
 487 0112 23       		.byte	0x23
 488 0113 18       		.uleb128 0x18
 489 0114 06       		.uleb128 0x6
 490 0115 DE020000 		.4byte	.LASF21
 491 0119 03       		.byte	0x3
 492 011a 94       		.byte	0x94
 493 011b CF010000 		.4byte	0x1cf
 494 011f 02       		.byte	0x2
 495 0120 23       		.byte	0x23
 496 0121 1C       		.uleb128 0x1c
 497 0122 06       		.uleb128 0x6
 498 0123 8E020000 		.4byte	.LASF22
 499 0127 03       		.byte	0x3
 500 0128 98       		.byte	0x98
 501 0129 C4010000 		.4byte	0x1c4
 502 012d 02       		.byte	0x2
 503 012e 23       		.byte	0x23
 504 012f 1D       		.uleb128 0x1d
 505 0130 06       		.uleb128 0x6
 506 0131 CB030000 		.4byte	.LASF23
 507 0135 03       		.byte	0x3
 508 0136 9D       		.byte	0x9d
 509 0137 DA010000 		.4byte	0x1da
 510 013b 02       		.byte	0x2
 511 013c 23       		.byte	0x23
 512 013d 1E       		.uleb128 0x1e
 513 013e 07       		.uleb128 0x7
 514 013f 705F7500 		.ascii	"p_u\000"
 515 0143 03       		.byte	0x3
 516 0144 CF       		.byte	0xcf
 517 0145 12040000 		.4byte	0x412
 518 0149 02       		.byte	0x2
 519 014a 23       		.byte	0x23
 520 014b 20       		.uleb128 0x20
 521 014c 06       		.uleb128 0x6
 522 014d 04030000 		.4byte	.LASF24
 523 0151 03       		.byte	0x3
 524 0152 D4       		.byte	0xd4
 525 0153 9F030000 		.4byte	0x39f
 526 0157 02       		.byte	0x2
 527 0158 23       		.byte	0x23
 528 0159 24       		.uleb128 0x24
 529 015a 06       		.uleb128 0x6
 530 015b 70000000 		.4byte	.LASF25
 531 015f 03       		.byte	0x3
 532 0160 DA       		.byte	0xda
 533 0161 7D030000 		.4byte	0x37d
ARM GAS  /tmp/ccdKYX3q.s 			page 22


 534 0165 02       		.byte	0x2
 535 0166 23       		.byte	0x23
 536 0167 28       		.uleb128 0x28
 537 0168 06       		.uleb128 0x6
 538 0169 9D010000 		.4byte	.LASF26
 539 016d 03       		.byte	0x3
 540 016e DE       		.byte	0xde
 541 016f F0010000 		.4byte	0x1f0
 542 0173 02       		.byte	0x2
 543 0174 23       		.byte	0x23
 544 0175 30       		.uleb128 0x30
 545 0176 06       		.uleb128 0x6
 546 0177 C4000000 		.4byte	.LASF27
 547 017b 03       		.byte	0x3
 548 017c E4       		.byte	0xe4
 549 017d FB010000 		.4byte	0x1fb
 550 0181 02       		.byte	0x2
 551 0182 23       		.byte	0x23
 552 0183 34       		.uleb128 0x34
 553 0184 06       		.uleb128 0x6
 554 0185 0E030000 		.4byte	.LASF28
 555 0189 03       		.byte	0x3
 556 018a EB       		.byte	0xeb
 557 018b 90040000 		.4byte	0x490
 558 018f 02       		.byte	0x2
 559 0190 23       		.byte	0x23
 560 0191 38       		.uleb128 0x38
 561 0192 06       		.uleb128 0x6
 562 0193 9F020000 		.4byte	.LASF29
 563 0197 03       		.byte	0x3
 564 0198 EF       		.byte	0xef
 565 0199 E5010000 		.4byte	0x1e5
 566 019d 02       		.byte	0x2
 567 019e 23       		.byte	0x23
 568 019f 3C       		.uleb128 0x3c
 569 01a0 06       		.uleb128 0x6
 570 01a1 EE000000 		.4byte	.LASF30
 571 01a5 03       		.byte	0x3
 572 01a6 F5       		.byte	0xf5
 573 01a7 A2020000 		.4byte	0x2a2
 574 01ab 02       		.byte	0x2
 575 01ac 23       		.byte	0x23
 576 01ad 40       		.uleb128 0x40
 577 01ae 00       		.byte	0
 578 01af 08       		.uleb128 0x8
 579 01b0 69000000 		.4byte	0x69
 580 01b4 08       		.uleb128 0x8
 581 01b5 7B000000 		.4byte	0x7b
 582 01b9 04       		.uleb128 0x4
 583 01ba 89000000 		.4byte	.LASF31
 584 01be 04       		.byte	0x4
 585 01bf 46       		.byte	0x46
 586 01c0 7B000000 		.4byte	0x7b
 587 01c4 04       		.uleb128 0x4
 588 01c5 F6000000 		.4byte	.LASF32
 589 01c9 04       		.byte	0x4
 590 01ca 49       		.byte	0x49
ARM GAS  /tmp/ccdKYX3q.s 			page 23


 591 01cb 3E000000 		.4byte	0x3e
 592 01cf 04       		.uleb128 0x4
 593 01d0 87030000 		.4byte	.LASF33
 594 01d4 04       		.byte	0x4
 595 01d5 4A       		.byte	0x4a
 596 01d6 3E000000 		.4byte	0x3e
 597 01da 04       		.uleb128 0x4
 598 01db 08000000 		.4byte	.LASF34
 599 01df 04       		.byte	0x4
 600 01e0 4B       		.byte	0x4b
 601 01e1 3E000000 		.4byte	0x3e
 602 01e5 04       		.uleb128 0x4
 603 01e6 28010000 		.4byte	.LASF35
 604 01ea 04       		.byte	0x4
 605 01eb 4D       		.byte	0x4d
 606 01ec 7B000000 		.4byte	0x7b
 607 01f0 04       		.uleb128 0x4
 608 01f1 0E040000 		.4byte	.LASF36
 609 01f5 04       		.byte	0x4
 610 01f6 4E       		.byte	0x4e
 611 01f7 69000000 		.4byte	0x69
 612 01fb 04       		.uleb128 0x4
 613 01fc 64000000 		.4byte	.LASF37
 614 0200 04       		.byte	0x4
 615 0201 50       		.byte	0x50
 616 0202 7B000000 		.4byte	0x7b
 617 0206 03       		.uleb128 0x3
 618 0207 04       		.byte	0x4
 619 0208 07       		.byte	0x7
 620 0209 3C000000 		.4byte	.LASF38
 621 020d 09       		.uleb128 0x9
 622 020e 1C       		.byte	0x1c
 623 020f 05       		.byte	0x5
 624 0210 E903     		.2byte	0x3e9
 625 0212 80020000 		.4byte	0x280
 626 0216 0A       		.uleb128 0xa
 627 0217 43524C00 		.ascii	"CRL\000"
 628 021b 05       		.byte	0x5
 629 021c EB03     		.2byte	0x3eb
 630 021e B4010000 		.4byte	0x1b4
 631 0222 02       		.byte	0x2
 632 0223 23       		.byte	0x23
 633 0224 00       		.uleb128 0
 634 0225 0A       		.uleb128 0xa
 635 0226 43524800 		.ascii	"CRH\000"
 636 022a 05       		.byte	0x5
 637 022b EC03     		.2byte	0x3ec
 638 022d B4010000 		.4byte	0x1b4
 639 0231 02       		.byte	0x2
 640 0232 23       		.byte	0x23
 641 0233 04       		.uleb128 0x4
 642 0234 0A       		.uleb128 0xa
 643 0235 49445200 		.ascii	"IDR\000"
 644 0239 05       		.byte	0x5
 645 023a ED03     		.2byte	0x3ed
 646 023c B4010000 		.4byte	0x1b4
 647 0240 02       		.byte	0x2
ARM GAS  /tmp/ccdKYX3q.s 			page 24


 648 0241 23       		.byte	0x23
 649 0242 08       		.uleb128 0x8
 650 0243 0A       		.uleb128 0xa
 651 0244 4F445200 		.ascii	"ODR\000"
 652 0248 05       		.byte	0x5
 653 0249 EE03     		.2byte	0x3ee
 654 024b B4010000 		.4byte	0x1b4
 655 024f 02       		.byte	0x2
 656 0250 23       		.byte	0x23
 657 0251 0C       		.uleb128 0xc
 658 0252 0B       		.uleb128 0xb
 659 0253 91000000 		.4byte	.LASF39
 660 0257 05       		.byte	0x5
 661 0258 EF03     		.2byte	0x3ef
 662 025a B4010000 		.4byte	0x1b4
 663 025e 02       		.byte	0x2
 664 025f 23       		.byte	0x23
 665 0260 10       		.uleb128 0x10
 666 0261 0A       		.uleb128 0xa
 667 0262 42525200 		.ascii	"BRR\000"
 668 0266 05       		.byte	0x5
 669 0267 F003     		.2byte	0x3f0
 670 0269 B4010000 		.4byte	0x1b4
 671 026d 02       		.byte	0x2
 672 026e 23       		.byte	0x23
 673 026f 14       		.uleb128 0x14
 674 0270 0B       		.uleb128 0xb
 675 0271 ED030000 		.4byte	.LASF40
 676 0275 05       		.byte	0x5
 677 0276 F103     		.2byte	0x3f1
 678 0278 B4010000 		.4byte	0x1b4
 679 027c 02       		.byte	0x2
 680 027d 23       		.byte	0x23
 681 027e 18       		.uleb128 0x18
 682 027f 00       		.byte	0
 683 0280 0C       		.uleb128 0xc
 684 0281 B7030000 		.4byte	.LASF41
 685 0285 05       		.byte	0x5
 686 0286 F203     		.2byte	0x3f2
 687 0288 0D020000 		.4byte	0x20d
 688 028c 04       		.uleb128 0x4
 689 028d AA020000 		.4byte	.LASF42
 690 0291 06       		.byte	0x6
 691 0292 89       		.byte	0x89
 692 0293 57000000 		.4byte	0x57
 693 0297 04       		.uleb128 0x4
 694 0298 A6000000 		.4byte	.LASF43
 695 029c 06       		.byte	0x6
 696 029d 8F       		.byte	0x8f
 697 029e A2020000 		.4byte	0x2a2
 698 02a2 0D       		.uleb128 0xd
 699 02a3 04       		.byte	0x4
 700 02a4 05       		.uleb128 0x5
 701 02a5 71010000 		.4byte	.LASF45
 702 02a9 04       		.byte	0x4
 703 02aa 06       		.byte	0x6
 704 02ab B3       		.byte	0xb3
ARM GAS  /tmp/ccdKYX3q.s 			page 25


 705 02ac BF020000 		.4byte	0x2bf
 706 02b0 07       		.uleb128 0x7
 707 02b1 72313300 		.ascii	"r13\000"
 708 02b5 06       		.byte	0x6
 709 02b6 B4       		.byte	0xb4
 710 02b7 4C030000 		.4byte	0x34c
 711 02bb 02       		.byte	0x2
 712 02bc 23       		.byte	0x23
 713 02bd 00       		.uleb128 0
 714 02be 00       		.byte	0
 715 02bf 05       		.uleb128 0x5
 716 02c0 65030000 		.4byte	.LASF46
 717 02c4 24       		.byte	0x24
 718 02c5 07       		.byte	0x7
 719 02c6 F5       		.byte	0xf5
 720 02c7 4C030000 		.4byte	0x34c
 721 02cb 0A       		.uleb128 0xa
 722 02cc 723400   		.ascii	"r4\000"
 723 02cf 07       		.byte	0x7
 724 02d0 0801     		.2byte	0x108
 725 02d2 97020000 		.4byte	0x297
 726 02d6 02       		.byte	0x2
 727 02d7 23       		.byte	0x23
 728 02d8 00       		.uleb128 0
 729 02d9 0A       		.uleb128 0xa
 730 02da 723500   		.ascii	"r5\000"
 731 02dd 07       		.byte	0x7
 732 02de 0901     		.2byte	0x109
 733 02e0 97020000 		.4byte	0x297
 734 02e4 02       		.byte	0x2
 735 02e5 23       		.byte	0x23
 736 02e6 04       		.uleb128 0x4
 737 02e7 0A       		.uleb128 0xa
 738 02e8 723600   		.ascii	"r6\000"
 739 02eb 07       		.byte	0x7
 740 02ec 0A01     		.2byte	0x10a
 741 02ee 97020000 		.4byte	0x297
 742 02f2 02       		.byte	0x2
 743 02f3 23       		.byte	0x23
 744 02f4 08       		.uleb128 0x8
 745 02f5 0A       		.uleb128 0xa
 746 02f6 723700   		.ascii	"r7\000"
 747 02f9 07       		.byte	0x7
 748 02fa 0B01     		.2byte	0x10b
 749 02fc 97020000 		.4byte	0x297
 750 0300 02       		.byte	0x2
 751 0301 23       		.byte	0x23
 752 0302 0C       		.uleb128 0xc
 753 0303 0A       		.uleb128 0xa
 754 0304 723800   		.ascii	"r8\000"
 755 0307 07       		.byte	0x7
 756 0308 0C01     		.2byte	0x10c
 757 030a 97020000 		.4byte	0x297
 758 030e 02       		.byte	0x2
 759 030f 23       		.byte	0x23
 760 0310 10       		.uleb128 0x10
 761 0311 0A       		.uleb128 0xa
ARM GAS  /tmp/ccdKYX3q.s 			page 26


 762 0312 723900   		.ascii	"r9\000"
 763 0315 07       		.byte	0x7
 764 0316 0D01     		.2byte	0x10d
 765 0318 97020000 		.4byte	0x297
 766 031c 02       		.byte	0x2
 767 031d 23       		.byte	0x23
 768 031e 14       		.uleb128 0x14
 769 031f 0A       		.uleb128 0xa
 770 0320 72313000 		.ascii	"r10\000"
 771 0324 07       		.byte	0x7
 772 0325 0E01     		.2byte	0x10e
 773 0327 97020000 		.4byte	0x297
 774 032b 02       		.byte	0x2
 775 032c 23       		.byte	0x23
 776 032d 18       		.uleb128 0x18
 777 032e 0A       		.uleb128 0xa
 778 032f 72313100 		.ascii	"r11\000"
 779 0333 07       		.byte	0x7
 780 0334 0F01     		.2byte	0x10f
 781 0336 97020000 		.4byte	0x297
 782 033a 02       		.byte	0x2
 783 033b 23       		.byte	0x23
 784 033c 1C       		.uleb128 0x1c
 785 033d 0A       		.uleb128 0xa
 786 033e 6C7200   		.ascii	"lr\000"
 787 0341 07       		.byte	0x7
 788 0342 1001     		.2byte	0x110
 789 0344 97020000 		.4byte	0x297
 790 0348 02       		.byte	0x2
 791 0349 23       		.byte	0x23
 792 034a 20       		.uleb128 0x20
 793 034b 00       		.byte	0
 794 034c 0E       		.uleb128 0xe
 795 034d 04       		.byte	0x4
 796 034e BF020000 		.4byte	0x2bf
 797 0352 0F       		.uleb128 0xf
 798 0353 08       		.byte	0x8
 799 0354 03       		.byte	0x3
 800 0355 53       		.byte	0x53
 801 0356 77030000 		.4byte	0x377
 802 035a 06       		.uleb128 0x6
 803 035b 82000000 		.4byte	.LASF14
 804 035f 03       		.byte	0x3
 805 0360 54       		.byte	0x54
 806 0361 77030000 		.4byte	0x377
 807 0365 02       		.byte	0x2
 808 0366 23       		.byte	0x23
 809 0367 00       		.uleb128 0
 810 0368 06       		.uleb128 0x6
 811 0369 4C000000 		.4byte	.LASF15
 812 036d 03       		.byte	0x3
 813 036e 55       		.byte	0x55
 814 036f 77030000 		.4byte	0x377
 815 0373 02       		.byte	0x2
 816 0374 23       		.byte	0x23
 817 0375 04       		.uleb128 0x4
 818 0376 00       		.byte	0
ARM GAS  /tmp/ccdKYX3q.s 			page 27


 819 0377 0E       		.uleb128 0xe
 820 0378 04       		.byte	0x4
 821 0379 A6000000 		.4byte	0xa6
 822 037d 04       		.uleb128 0x4
 823 037e 69020000 		.4byte	.LASF47
 824 0382 03       		.byte	0x3
 825 0383 56       		.byte	0x56
 826 0384 52030000 		.4byte	0x352
 827 0388 0F       		.uleb128 0xf
 828 0389 04       		.byte	0x4
 829 038a 03       		.byte	0x3
 830 038b 5B       		.byte	0x5b
 831 038c 9F030000 		.4byte	0x39f
 832 0390 06       		.uleb128 0x6
 833 0391 82000000 		.4byte	.LASF14
 834 0395 03       		.byte	0x3
 835 0396 5C       		.byte	0x5c
 836 0397 77030000 		.4byte	0x377
 837 039b 02       		.byte	0x2
 838 039c 23       		.byte	0x23
 839 039d 00       		.uleb128 0
 840 039e 00       		.byte	0
 841 039f 04       		.uleb128 0x4
 842 03a0 7B040000 		.4byte	.LASF48
 843 03a4 03       		.byte	0x3
 844 03a5 5D       		.byte	0x5d
 845 03a6 88030000 		.4byte	0x388
 846 03aa 0F       		.uleb128 0xf
 847 03ab 1C       		.byte	0x1c
 848 03ac 03       		.byte	0x3
 849 03ad 64       		.byte	0x64
 850 03ae 07040000 		.4byte	0x407
 851 03b2 06       		.uleb128 0x6
 852 03b3 2D000000 		.4byte	.LASF49
 853 03b7 03       		.byte	0x3
 854 03b8 65       		.byte	0x65
 855 03b9 7D030000 		.4byte	0x37d
 856 03bd 02       		.byte	0x2
 857 03be 23       		.byte	0x23
 858 03bf 00       		.uleb128 0
 859 03c0 06       		.uleb128 0x6
 860 03c1 C4030000 		.4byte	.LASF50
 861 03c5 03       		.byte	0x3
 862 03c6 66       		.byte	0x66
 863 03c7 E5010000 		.4byte	0x1e5
 864 03cb 02       		.byte	0x2
 865 03cc 23       		.byte	0x23
 866 03cd 08       		.uleb128 0x8
 867 03ce 06       		.uleb128 0x6
 868 03cf 53000000 		.4byte	.LASF51
 869 03d3 03       		.byte	0x3
 870 03d4 68       		.byte	0x68
 871 03d5 A4020000 		.4byte	0x2a4
 872 03d9 02       		.byte	0x2
 873 03da 23       		.byte	0x23
 874 03db 0C       		.uleb128 0xc
 875 03dc 06       		.uleb128 0x6
ARM GAS  /tmp/ccdKYX3q.s 			page 28


 876 03dd 86020000 		.4byte	.LASF52
 877 03e1 03       		.byte	0x3
 878 03e2 6B       		.byte	0x6b
 879 03e3 77030000 		.4byte	0x377
 880 03e7 02       		.byte	0x2
 881 03e8 23       		.byte	0x23
 882 03e9 10       		.uleb128 0x10
 883 03ea 06       		.uleb128 0x6
 884 03eb 00000000 		.4byte	.LASF53
 885 03ef 03       		.byte	0x3
 886 03f0 6C       		.byte	0x6c
 887 03f1 77030000 		.4byte	0x377
 888 03f5 02       		.byte	0x2
 889 03f6 23       		.byte	0x23
 890 03f7 14       		.uleb128 0x14
 891 03f8 06       		.uleb128 0x6
 892 03f9 93010000 		.4byte	.LASF54
 893 03fd 03       		.byte	0x3
 894 03fe 6F       		.byte	0x6f
 895 03ff 77030000 		.4byte	0x377
 896 0403 02       		.byte	0x2
 897 0404 23       		.byte	0x23
 898 0405 18       		.uleb128 0x18
 899 0406 00       		.byte	0
 900 0407 04       		.uleb128 0x4
 901 0408 AA030000 		.4byte	.LASF55
 902 040c 03       		.byte	0x3
 903 040d 71       		.byte	0x71
 904 040e AA030000 		.4byte	0x3aa
 905 0412 10       		.uleb128 0x10
 906 0413 04       		.byte	0x4
 907 0414 03       		.byte	0x3
 908 0415 B1       		.byte	0xb1
 909 0416 47040000 		.4byte	0x447
 910 041a 11       		.uleb128 0x11
 911 041b 45000000 		.4byte	.LASF56
 912 041f 03       		.byte	0x3
 913 0420 B8       		.byte	0xb8
 914 0421 F0010000 		.4byte	0x1f0
 915 0425 11       		.uleb128 0x11
 916 0426 90030000 		.4byte	.LASF57
 917 042a 03       		.byte	0x3
 918 042b BF       		.byte	0xbf
 919 042c F0010000 		.4byte	0x1f0
 920 0430 11       		.uleb128 0x11
 921 0431 79030000 		.4byte	.LASF58
 922 0435 03       		.byte	0x3
 923 0436 C6       		.byte	0xc6
 924 0437 A2020000 		.4byte	0x2a2
 925 043b 11       		.uleb128 0x11
 926 043c BC010000 		.4byte	.LASF59
 927 0440 03       		.byte	0x3
 928 0441 CD       		.byte	0xcd
 929 0442 FB010000 		.4byte	0x1fb
 930 0446 00       		.byte	0
 931 0447 0E       		.uleb128 0xe
 932 0448 04       		.byte	0x4
ARM GAS  /tmp/ccdKYX3q.s 			page 29


 933 0449 4D040000 		.4byte	0x44d
 934 044d 12       		.uleb128 0x12
 935 044e 52040000 		.4byte	0x452
 936 0452 03       		.uleb128 0x3
 937 0453 01       		.byte	0x1
 938 0454 08       		.byte	0x8
 939 0455 BA020000 		.4byte	.LASF60
 940 0459 05       		.uleb128 0x5
 941 045a 79020000 		.4byte	.LASF61
 942 045e 10       		.byte	0x10
 943 045f 08       		.byte	0x8
 944 0460 3A       		.byte	0x3a
 945 0461 90040000 		.4byte	0x490
 946 0465 06       		.uleb128 0x6
 947 0466 69010000 		.4byte	.LASF62
 948 046a 08       		.byte	0x8
 949 046b 3B       		.byte	0x3b
 950 046c 7D030000 		.4byte	0x37d
 951 0470 02       		.byte	0x2
 952 0471 23       		.byte	0x23
 953 0472 00       		.uleb128 0
 954 0473 06       		.uleb128 0x6
 955 0474 E5030000 		.4byte	.LASF63
 956 0478 08       		.byte	0x8
 957 0479 3D       		.byte	0x3d
 958 047a 77030000 		.4byte	0x377
 959 047e 02       		.byte	0x2
 960 047f 23       		.byte	0x23
 961 0480 08       		.uleb128 0x8
 962 0481 06       		.uleb128 0x6
 963 0482 35000000 		.4byte	.LASF64
 964 0486 08       		.byte	0x8
 965 0487 3F       		.byte	0x3f
 966 0488 C3050000 		.4byte	0x5c3
 967 048c 02       		.byte	0x2
 968 048d 23       		.byte	0x23
 969 048e 0C       		.uleb128 0xc
 970 048f 00       		.byte	0
 971 0490 0E       		.uleb128 0xe
 972 0491 04       		.byte	0x4
 973 0492 59040000 		.4byte	0x459
 974 0496 0C       		.uleb128 0xc
 975 0497 99030000 		.4byte	.LASF65
 976 049b 03       		.byte	0x3
 977 049c 0301     		.2byte	0x103
 978 049e A2040000 		.4byte	0x4a2
 979 04a2 0E       		.uleb128 0xe
 980 04a3 04       		.byte	0x4
 981 04a4 A8040000 		.4byte	0x4a8
 982 04a8 13       		.uleb128 0x13
 983 04a9 01       		.byte	0x1
 984 04aa B4040000 		.4byte	0x4b4
 985 04ae 14       		.uleb128 0x14
 986 04af A2020000 		.4byte	0x2a2
 987 04b3 00       		.byte	0
 988 04b4 0C       		.uleb128 0xc
 989 04b5 59010000 		.4byte	.LASF66
ARM GAS  /tmp/ccdKYX3q.s 			page 30


 990 04b9 03       		.byte	0x3
 991 04ba 0801     		.2byte	0x108
 992 04bc C0040000 		.4byte	0x4c0
 993 04c0 15       		.uleb128 0x15
 994 04c1 F2030000 		.4byte	.LASF67
 995 04c5 14       		.byte	0x14
 996 04c6 03       		.byte	0x3
 997 04c7 0F01     		.2byte	0x10f
 998 04c9 19050000 		.4byte	0x519
 999 04cd 0B       		.uleb128 0xb
 1000 04ce 4B020000 		.4byte	.LASF68
 1001 04d2 03       		.byte	0x3
 1002 04d3 1001     		.2byte	0x110
 1003 04d5 19050000 		.4byte	0x519
 1004 04d9 02       		.byte	0x2
 1005 04da 23       		.byte	0x23
 1006 04db 00       		.uleb128 0
 1007 04dc 0B       		.uleb128 0xb
 1008 04dd 71030000 		.4byte	.LASF69
 1009 04e1 03       		.byte	0x3
 1010 04e2 1101     		.2byte	0x111
 1011 04e4 19050000 		.4byte	0x519
 1012 04e8 02       		.byte	0x2
 1013 04e9 23       		.byte	0x23
 1014 04ea 04       		.uleb128 0x4
 1015 04eb 0B       		.uleb128 0xb
 1016 04ec 96020000 		.4byte	.LASF70
 1017 04f0 03       		.byte	0x3
 1018 04f1 1201     		.2byte	0x112
 1019 04f3 8C020000 		.4byte	0x28c
 1020 04f7 02       		.byte	0x2
 1021 04f8 23       		.byte	0x23
 1022 04f9 08       		.uleb128 0x8
 1023 04fa 0B       		.uleb128 0xb
 1024 04fb D7010000 		.4byte	.LASF71
 1025 04ff 03       		.byte	0x3
 1026 0500 1301     		.2byte	0x113
 1027 0502 96040000 		.4byte	0x496
 1028 0506 02       		.byte	0x2
 1029 0507 23       		.byte	0x23
 1030 0508 0C       		.uleb128 0xc
 1031 0509 0B       		.uleb128 0xb
 1032 050a 96000000 		.4byte	.LASF72
 1033 050e 03       		.byte	0x3
 1034 050f 1501     		.2byte	0x115
 1035 0511 A2020000 		.4byte	0x2a2
 1036 0515 02       		.byte	0x2
 1037 0516 23       		.byte	0x23
 1038 0517 10       		.uleb128 0x10
 1039 0518 00       		.byte	0
 1040 0519 0E       		.uleb128 0xe
 1041 051a 04       		.byte	0x4
 1042 051b B4040000 		.4byte	0x4b4
 1043 051f 09       		.uleb128 0x9
 1044 0520 0C       		.byte	0xc
 1045 0521 03       		.byte	0x3
 1046 0522 1F01     		.2byte	0x11f
ARM GAS  /tmp/ccdKYX3q.s 			page 31


 1047 0524 65050000 		.4byte	0x565
 1048 0528 0B       		.uleb128 0xb
 1049 0529 4B020000 		.4byte	.LASF68
 1050 052d 03       		.byte	0x3
 1051 052e 2001     		.2byte	0x120
 1052 0530 19050000 		.4byte	0x519
 1053 0534 02       		.byte	0x2
 1054 0535 23       		.byte	0x23
 1055 0536 00       		.uleb128 0
 1056 0537 0B       		.uleb128 0xb
 1057 0538 71030000 		.4byte	.LASF69
 1058 053c 03       		.byte	0x3
 1059 053d 2201     		.2byte	0x122
 1060 053f 19050000 		.4byte	0x519
 1061 0543 02       		.byte	0x2
 1062 0544 23       		.byte	0x23
 1063 0545 04       		.uleb128 0x4
 1064 0546 0B       		.uleb128 0xb
 1065 0547 96020000 		.4byte	.LASF70
 1066 054b 03       		.byte	0x3
 1067 054c 2401     		.2byte	0x124
 1068 054e 8C020000 		.4byte	0x28c
 1069 0552 02       		.byte	0x2
 1070 0553 23       		.byte	0x23
 1071 0554 08       		.uleb128 0x8
 1072 0555 0B       		.uleb128 0xb
 1073 0556 10000000 		.4byte	.LASF73
 1074 055a 03       		.byte	0x3
 1075 055b 2C01     		.2byte	0x12c
 1076 055d 8C020000 		.4byte	0x28c
 1077 0561 02       		.byte	0x2
 1078 0562 23       		.byte	0x23
 1079 0563 0A       		.uleb128 0xa
 1080 0564 00       		.byte	0
 1081 0565 0C       		.uleb128 0xc
 1082 0566 53020000 		.4byte	.LASF74
 1083 056a 03       		.byte	0x3
 1084 056b 2F01     		.2byte	0x12f
 1085 056d 1F050000 		.4byte	0x51f
 1086 0571 15       		.uleb128 0x15
 1087 0572 4F010000 		.4byte	.LASF75
 1088 0576 2C       		.byte	0x2c
 1089 0577 03       		.byte	0x3
 1090 0578 3601     		.2byte	0x136
 1091 057a AC050000 		.4byte	0x5ac
 1092 057e 0B       		.uleb128 0xb
 1093 057f B4020000 		.4byte	.LASF76
 1094 0583 03       		.byte	0x3
 1095 0584 3A01     		.2byte	0x13a
 1096 0586 07040000 		.4byte	0x407
 1097 058a 02       		.byte	0x2
 1098 058b 23       		.byte	0x23
 1099 058c 00       		.uleb128 0
 1100 058d 0B       		.uleb128 0xb
 1101 058e 1F030000 		.4byte	.LASF77
 1102 0592 03       		.byte	0x3
 1103 0593 3E01     		.2byte	0x13e
ARM GAS  /tmp/ccdKYX3q.s 			page 32


 1104 0595 65050000 		.4byte	0x565
 1105 0599 02       		.byte	0x2
 1106 059a 23       		.byte	0x23
 1107 059b 1C       		.uleb128 0x1c
 1108 059c 0B       		.uleb128 0xb
 1109 059d DB000000 		.4byte	.LASF78
 1110 05a1 03       		.byte	0x3
 1111 05a2 4301     		.2byte	0x143
 1112 05a4 B9010000 		.4byte	0x1b9
 1113 05a8 02       		.byte	0x2
 1114 05a9 23       		.byte	0x23
 1115 05aa 28       		.uleb128 0x28
 1116 05ab 00       		.byte	0
 1117 05ac 0C       		.uleb128 0xc
 1118 05ad CF000000 		.4byte	.LASF79
 1119 05b1 03       		.byte	0x3
 1120 05b2 6501     		.2byte	0x165
 1121 05b4 71050000 		.4byte	0x571
 1122 05b8 04       		.uleb128 0x4
 1123 05b9 C8020000 		.4byte	.LASF80
 1124 05bd 08       		.byte	0x8
 1125 05be 35       		.byte	0x35
 1126 05bf 59040000 		.4byte	0x459
 1127 05c3 0E       		.uleb128 0xe
 1128 05c4 04       		.byte	0x4
 1129 05c5 B8050000 		.4byte	0x5b8
 1130 05c9 03       		.uleb128 0x3
 1131 05ca 01       		.byte	0x1
 1132 05cb 02       		.byte	0x2
 1133 05cc FE020000 		.4byte	.LASF81
 1134 05d0 04       		.uleb128 0x4
 1135 05d1 B7000000 		.4byte	.LASF82
 1136 05d5 09       		.byte	0x9
 1137 05d6 6D       		.byte	0x6d
 1138 05d7 7B000000 		.4byte	0x7b
 1139 05db 04       		.uleb128 0x4
 1140 05dc 9D000000 		.4byte	.LASF83
 1141 05e0 09       		.byte	0x9
 1142 05e1 72       		.byte	0x72
 1143 05e2 7B000000 		.4byte	0x7b
 1144 05e6 04       		.uleb128 0x4
 1145 05e7 A3010000 		.4byte	.LASF84
 1146 05eb 09       		.byte	0x9
 1147 05ec 7A       		.byte	0x7a
 1148 05ed F1050000 		.4byte	0x5f1
 1149 05f1 0E       		.uleb128 0xe
 1150 05f2 04       		.byte	0x4
 1151 05f3 80020000 		.4byte	0x280
 1152 05f7 0F       		.uleb128 0xf
 1153 05f8 0C       		.byte	0xc
 1154 05f9 0A       		.byte	0xa
 1155 05fa 7E       		.byte	0x7e
 1156 05fb 2A060000 		.4byte	0x62a
 1157 05ff 06       		.uleb128 0x6
 1158 0600 80030000 		.4byte	.LASF85
 1159 0604 0A       		.byte	0xa
 1160 0605 82       		.byte	0x82
ARM GAS  /tmp/ccdKYX3q.s 			page 33


 1161 0606 E6050000 		.4byte	0x5e6
 1162 060a 02       		.byte	0x2
 1163 060b 23       		.byte	0x23
 1164 060c 00       		.uleb128 0
 1165 060d 06       		.uleb128 0x6
 1166 060e 60030000 		.4byte	.LASF86
 1167 0612 0A       		.byte	0xa
 1168 0613 88       		.byte	0x88
 1169 0614 D0050000 		.4byte	0x5d0
 1170 0618 02       		.byte	0x2
 1171 0619 23       		.byte	0x23
 1172 061a 04       		.uleb128 0x4
 1173 061b 06       		.uleb128 0x6
 1174 061c 1C000000 		.4byte	.LASF87
 1175 0620 0A       		.byte	0xa
 1176 0621 8C       		.byte	0x8c
 1177 0622 9B000000 		.4byte	0x9b
 1178 0626 02       		.byte	0x2
 1179 0627 23       		.byte	0x23
 1180 0628 08       		.uleb128 0x8
 1181 0629 00       		.byte	0
 1182 062a 04       		.uleb128 0x4
 1183 062b D8020000 		.4byte	.LASF88
 1184 062f 0A       		.byte	0xa
 1185 0630 8D       		.byte	0x8d
 1186 0631 F7050000 		.4byte	0x5f7
 1187 0635 16       		.uleb128 0x16
 1188 0636 01       		.byte	0x1
 1189 0637 59000000 		.4byte	.LASF100
 1190 063b 01       		.byte	0x1
 1191 063c 45       		.byte	0x45
 1192 063d 01       		.byte	0x1
 1193 063e D0050000 		.4byte	0x5d0
 1194 0642 00000000 		.4byte	.LFB194
 1195 0646 10000000 		.4byte	.LFE194
 1196 064a 02       		.byte	0x2
 1197 064b 7D       		.byte	0x7d
 1198 064c 00       		.sleb128 0
 1199 064d 01       		.byte	0x1
 1200 064e 6C060000 		.4byte	0x66c
 1201 0652 17       		.uleb128 0x17
 1202 0653 62757300 		.ascii	"bus\000"
 1203 0657 01       		.byte	0x1
 1204 0658 45       		.byte	0x45
 1205 0659 6C060000 		.4byte	0x66c
 1206 065d 00000000 		.4byte	.LLST0
 1207 0661 18       		.uleb128 0x18
 1208 0662 38030000 		.4byte	.LASF90
 1209 0666 82060000 		.4byte	0x682
 1210 066a 01       		.byte	0x1
 1211 066b 00       		.byte	0
 1212 066c 0E       		.uleb128 0xe
 1213 066d 04       		.byte	0x4
 1214 066e 2A060000 		.4byte	0x62a
 1215 0672 19       		.uleb128 0x19
 1216 0673 52040000 		.4byte	0x452
 1217 0677 82060000 		.4byte	0x682
ARM GAS  /tmp/ccdKYX3q.s 			page 34


 1218 067b 1A       		.uleb128 0x1a
 1219 067c 06020000 		.4byte	0x206
 1220 0680 0A       		.byte	0xa
 1221 0681 00       		.byte	0
 1222 0682 12       		.uleb128 0x12
 1223 0683 72060000 		.4byte	0x672
 1224 0687 1B       		.uleb128 0x1b
 1225 0688 01       		.byte	0x1
 1226 0689 54030000 		.4byte	.LASF92
 1227 068d 01       		.byte	0x1
 1228 068e 5E       		.byte	0x5e
 1229 068f 01       		.byte	0x1
 1230 0690 00000000 		.4byte	.LFB195
 1231 0694 24000000 		.4byte	.LFE195
 1232 0698 21000000 		.4byte	.LLST1
 1233 069c 01       		.byte	0x1
 1234 069d CA060000 		.4byte	0x6ca
 1235 06a1 17       		.uleb128 0x17
 1236 06a2 62757300 		.ascii	"bus\000"
 1237 06a6 01       		.byte	0x1
 1238 06a7 5E       		.byte	0x5e
 1239 06a8 6C060000 		.4byte	0x66c
 1240 06ac 41000000 		.4byte	.LLST2
 1241 06b0 1C       		.uleb128 0x1c
 1242 06b1 23010000 		.4byte	.LASF89
 1243 06b5 01       		.byte	0x1
 1244 06b6 5E       		.byte	0x5e
 1245 06b7 D0050000 		.4byte	0x5d0
 1246 06bb 62000000 		.4byte	.LLST3
 1247 06bf 18       		.uleb128 0x18
 1248 06c0 00040000 		.4byte	.LASF91
 1249 06c4 DA060000 		.4byte	0x6da
 1250 06c8 01       		.byte	0x1
 1251 06c9 00       		.byte	0
 1252 06ca 19       		.uleb128 0x19
 1253 06cb 52040000 		.4byte	0x452
 1254 06cf DA060000 		.4byte	0x6da
 1255 06d3 1A       		.uleb128 0x1a
 1256 06d4 06020000 		.4byte	0x206
 1257 06d8 0B       		.byte	0xb
 1258 06d9 00       		.byte	0
 1259 06da 12       		.uleb128 0x12
 1260 06db CA060000 		.4byte	0x6ca
 1261 06df 1B       		.uleb128 0x1b
 1262 06e0 01       		.byte	0x1
 1263 06e1 46030000 		.4byte	.LASF93
 1264 06e5 01       		.byte	0x1
 1265 06e6 75       		.byte	0x75
 1266 06e7 01       		.byte	0x1
 1267 06e8 00000000 		.4byte	.LFB196
 1268 06ec 14000000 		.4byte	.LFE196
 1269 06f0 83000000 		.4byte	.LLST4
 1270 06f4 01       		.byte	0x1
 1271 06f5 34070000 		.4byte	0x734
 1272 06f9 17       		.uleb128 0x17
 1273 06fa 62757300 		.ascii	"bus\000"
 1274 06fe 01       		.byte	0x1
ARM GAS  /tmp/ccdKYX3q.s 			page 35


 1275 06ff 75       		.byte	0x75
 1276 0700 6C060000 		.4byte	0x66c
 1277 0704 A3000000 		.4byte	.LLST5
 1278 0708 1C       		.uleb128 0x1c
 1279 0709 F9020000 		.4byte	.LASF94
 1280 070d 01       		.byte	0x1
 1281 070e 75       		.byte	0x75
 1282 070f DB050000 		.4byte	0x5db
 1283 0713 C4000000 		.4byte	.LLST6
 1284 0717 18       		.uleb128 0x18
 1285 0718 6D040000 		.4byte	.LASF95
 1286 071c 44070000 		.4byte	0x744
 1287 0720 01       		.byte	0x1
 1288 0721 1D       		.uleb128 0x1d
 1289 0722 14000000 		.4byte	.LVL8
 1290 0726 01       		.byte	0x1
 1291 0727 64070000 		.4byte	0x764
 1292 072b 1E       		.uleb128 0x1e
 1293 072c 01       		.byte	0x1
 1294 072d 52       		.byte	0x52
 1295 072e 03       		.byte	0x3
 1296 072f F3       		.byte	0xf3
 1297 0730 01       		.uleb128 0x1
 1298 0731 51       		.byte	0x51
 1299 0732 00       		.byte	0
 1300 0733 00       		.byte	0
 1301 0734 19       		.uleb128 0x19
 1302 0735 52040000 		.4byte	0x452
 1303 0739 44070000 		.4byte	0x744
 1304 073d 1A       		.uleb128 0x1a
 1305 073e 06020000 		.4byte	0x206
 1306 0742 0D       		.byte	0xd
 1307 0743 00       		.byte	0
 1308 0744 12       		.uleb128 0x12
 1309 0745 34070000 		.4byte	0x734
 1310 0749 1F       		.uleb128 0x1f
 1311 074a D8030000 		.4byte	.LASF96
 1312 074e 0B       		.byte	0xb
 1313 074f 1606     		.2byte	0x616
 1314 0751 AF010000 		.4byte	0x1af
 1315 0755 01       		.byte	0x1
 1316 0756 01       		.byte	0x1
 1317 0757 20       		.uleb128 0x20
 1318 0758 636800   		.ascii	"ch\000"
 1319 075b 03       		.byte	0x3
 1320 075c 8901     		.2byte	0x189
 1321 075e AC050000 		.4byte	0x5ac
 1322 0762 01       		.byte	0x1
 1323 0763 01       		.byte	0x1
 1324 0764 21       		.uleb128 0x21
 1325 0765 01       		.byte	0x1
 1326 0766 30010000 		.4byte	.LASF101
 1327 076a 09       		.byte	0x9
 1328 076b 4301     		.2byte	0x143
 1329 076d 01       		.byte	0x1
 1330 076e 01       		.byte	0x1
 1331 076f 14       		.uleb128 0x14
ARM GAS  /tmp/ccdKYX3q.s 			page 36


 1332 0770 E6050000 		.4byte	0x5e6
 1333 0774 14       		.uleb128 0x14
 1334 0775 D0050000 		.4byte	0x5d0
 1335 0779 14       		.uleb128 0x14
 1336 077a DB050000 		.4byte	0x5db
 1337 077e 00       		.byte	0
 1338 077f 00       		.byte	0
 1339              		.section	.debug_abbrev,"",%progbits
 1340              	.Ldebug_abbrev0:
 1341 0000 01       		.uleb128 0x1
 1342 0001 11       		.uleb128 0x11
 1343 0002 01       		.byte	0x1
 1344 0003 25       		.uleb128 0x25
 1345 0004 0E       		.uleb128 0xe
 1346 0005 13       		.uleb128 0x13
 1347 0006 0B       		.uleb128 0xb
 1348 0007 03       		.uleb128 0x3
 1349 0008 0E       		.uleb128 0xe
 1350 0009 1B       		.uleb128 0x1b
 1351 000a 0E       		.uleb128 0xe
 1352 000b 55       		.uleb128 0x55
 1353 000c 06       		.uleb128 0x6
 1354 000d 11       		.uleb128 0x11
 1355 000e 01       		.uleb128 0x1
 1356 000f 52       		.uleb128 0x52
 1357 0010 01       		.uleb128 0x1
 1358 0011 10       		.uleb128 0x10
 1359 0012 06       		.uleb128 0x6
 1360 0013 00       		.byte	0
 1361 0014 00       		.byte	0
 1362 0015 02       		.uleb128 0x2
 1363 0016 24       		.uleb128 0x24
 1364 0017 00       		.byte	0
 1365 0018 0B       		.uleb128 0xb
 1366 0019 0B       		.uleb128 0xb
 1367 001a 3E       		.uleb128 0x3e
 1368 001b 0B       		.uleb128 0xb
 1369 001c 03       		.uleb128 0x3
 1370 001d 08       		.uleb128 0x8
 1371 001e 00       		.byte	0
 1372 001f 00       		.byte	0
 1373 0020 03       		.uleb128 0x3
 1374 0021 24       		.uleb128 0x24
 1375 0022 00       		.byte	0
 1376 0023 0B       		.uleb128 0xb
 1377 0024 0B       		.uleb128 0xb
 1378 0025 3E       		.uleb128 0x3e
 1379 0026 0B       		.uleb128 0xb
 1380 0027 03       		.uleb128 0x3
 1381 0028 0E       		.uleb128 0xe
 1382 0029 00       		.byte	0
 1383 002a 00       		.byte	0
 1384 002b 04       		.uleb128 0x4
 1385 002c 16       		.uleb128 0x16
 1386 002d 00       		.byte	0
 1387 002e 03       		.uleb128 0x3
 1388 002f 0E       		.uleb128 0xe
ARM GAS  /tmp/ccdKYX3q.s 			page 37


 1389 0030 3A       		.uleb128 0x3a
 1390 0031 0B       		.uleb128 0xb
 1391 0032 3B       		.uleb128 0x3b
 1392 0033 0B       		.uleb128 0xb
 1393 0034 49       		.uleb128 0x49
 1394 0035 13       		.uleb128 0x13
 1395 0036 00       		.byte	0
 1396 0037 00       		.byte	0
 1397 0038 05       		.uleb128 0x5
 1398 0039 13       		.uleb128 0x13
 1399 003a 01       		.byte	0x1
 1400 003b 03       		.uleb128 0x3
 1401 003c 0E       		.uleb128 0xe
 1402 003d 0B       		.uleb128 0xb
 1403 003e 0B       		.uleb128 0xb
 1404 003f 3A       		.uleb128 0x3a
 1405 0040 0B       		.uleb128 0xb
 1406 0041 3B       		.uleb128 0x3b
 1407 0042 0B       		.uleb128 0xb
 1408 0043 01       		.uleb128 0x1
 1409 0044 13       		.uleb128 0x13
 1410 0045 00       		.byte	0
 1411 0046 00       		.byte	0
 1412 0047 06       		.uleb128 0x6
 1413 0048 0D       		.uleb128 0xd
 1414 0049 00       		.byte	0
 1415 004a 03       		.uleb128 0x3
 1416 004b 0E       		.uleb128 0xe
 1417 004c 3A       		.uleb128 0x3a
 1418 004d 0B       		.uleb128 0xb
 1419 004e 3B       		.uleb128 0x3b
 1420 004f 0B       		.uleb128 0xb
 1421 0050 49       		.uleb128 0x49
 1422 0051 13       		.uleb128 0x13
 1423 0052 38       		.uleb128 0x38
 1424 0053 0A       		.uleb128 0xa
 1425 0054 00       		.byte	0
 1426 0055 00       		.byte	0
 1427 0056 07       		.uleb128 0x7
 1428 0057 0D       		.uleb128 0xd
 1429 0058 00       		.byte	0
 1430 0059 03       		.uleb128 0x3
 1431 005a 08       		.uleb128 0x8
 1432 005b 3A       		.uleb128 0x3a
 1433 005c 0B       		.uleb128 0xb
 1434 005d 3B       		.uleb128 0x3b
 1435 005e 0B       		.uleb128 0xb
 1436 005f 49       		.uleb128 0x49
 1437 0060 13       		.uleb128 0x13
 1438 0061 38       		.uleb128 0x38
 1439 0062 0A       		.uleb128 0xa
 1440 0063 00       		.byte	0
 1441 0064 00       		.byte	0
 1442 0065 08       		.uleb128 0x8
 1443 0066 35       		.uleb128 0x35
 1444 0067 00       		.byte	0
 1445 0068 49       		.uleb128 0x49
ARM GAS  /tmp/ccdKYX3q.s 			page 38


 1446 0069 13       		.uleb128 0x13
 1447 006a 00       		.byte	0
 1448 006b 00       		.byte	0
 1449 006c 09       		.uleb128 0x9
 1450 006d 13       		.uleb128 0x13
 1451 006e 01       		.byte	0x1
 1452 006f 0B       		.uleb128 0xb
 1453 0070 0B       		.uleb128 0xb
 1454 0071 3A       		.uleb128 0x3a
 1455 0072 0B       		.uleb128 0xb
 1456 0073 3B       		.uleb128 0x3b
 1457 0074 05       		.uleb128 0x5
 1458 0075 01       		.uleb128 0x1
 1459 0076 13       		.uleb128 0x13
 1460 0077 00       		.byte	0
 1461 0078 00       		.byte	0
 1462 0079 0A       		.uleb128 0xa
 1463 007a 0D       		.uleb128 0xd
 1464 007b 00       		.byte	0
 1465 007c 03       		.uleb128 0x3
 1466 007d 08       		.uleb128 0x8
 1467 007e 3A       		.uleb128 0x3a
 1468 007f 0B       		.uleb128 0xb
 1469 0080 3B       		.uleb128 0x3b
 1470 0081 05       		.uleb128 0x5
 1471 0082 49       		.uleb128 0x49
 1472 0083 13       		.uleb128 0x13
 1473 0084 38       		.uleb128 0x38
 1474 0085 0A       		.uleb128 0xa
 1475 0086 00       		.byte	0
 1476 0087 00       		.byte	0
 1477 0088 0B       		.uleb128 0xb
 1478 0089 0D       		.uleb128 0xd
 1479 008a 00       		.byte	0
 1480 008b 03       		.uleb128 0x3
 1481 008c 0E       		.uleb128 0xe
 1482 008d 3A       		.uleb128 0x3a
 1483 008e 0B       		.uleb128 0xb
 1484 008f 3B       		.uleb128 0x3b
 1485 0090 05       		.uleb128 0x5
 1486 0091 49       		.uleb128 0x49
 1487 0092 13       		.uleb128 0x13
 1488 0093 38       		.uleb128 0x38
 1489 0094 0A       		.uleb128 0xa
 1490 0095 00       		.byte	0
 1491 0096 00       		.byte	0
 1492 0097 0C       		.uleb128 0xc
 1493 0098 16       		.uleb128 0x16
 1494 0099 00       		.byte	0
 1495 009a 03       		.uleb128 0x3
 1496 009b 0E       		.uleb128 0xe
 1497 009c 3A       		.uleb128 0x3a
 1498 009d 0B       		.uleb128 0xb
 1499 009e 3B       		.uleb128 0x3b
 1500 009f 05       		.uleb128 0x5
 1501 00a0 49       		.uleb128 0x49
 1502 00a1 13       		.uleb128 0x13
ARM GAS  /tmp/ccdKYX3q.s 			page 39


 1503 00a2 00       		.byte	0
 1504 00a3 00       		.byte	0
 1505 00a4 0D       		.uleb128 0xd
 1506 00a5 0F       		.uleb128 0xf
 1507 00a6 00       		.byte	0
 1508 00a7 0B       		.uleb128 0xb
 1509 00a8 0B       		.uleb128 0xb
 1510 00a9 00       		.byte	0
 1511 00aa 00       		.byte	0
 1512 00ab 0E       		.uleb128 0xe
 1513 00ac 0F       		.uleb128 0xf
 1514 00ad 00       		.byte	0
 1515 00ae 0B       		.uleb128 0xb
 1516 00af 0B       		.uleb128 0xb
 1517 00b0 49       		.uleb128 0x49
 1518 00b1 13       		.uleb128 0x13
 1519 00b2 00       		.byte	0
 1520 00b3 00       		.byte	0
 1521 00b4 0F       		.uleb128 0xf
 1522 00b5 13       		.uleb128 0x13
 1523 00b6 01       		.byte	0x1
 1524 00b7 0B       		.uleb128 0xb
 1525 00b8 0B       		.uleb128 0xb
 1526 00b9 3A       		.uleb128 0x3a
 1527 00ba 0B       		.uleb128 0xb
 1528 00bb 3B       		.uleb128 0x3b
 1529 00bc 0B       		.uleb128 0xb
 1530 00bd 01       		.uleb128 0x1
 1531 00be 13       		.uleb128 0x13
 1532 00bf 00       		.byte	0
 1533 00c0 00       		.byte	0
 1534 00c1 10       		.uleb128 0x10
 1535 00c2 17       		.uleb128 0x17
 1536 00c3 01       		.byte	0x1
 1537 00c4 0B       		.uleb128 0xb
 1538 00c5 0B       		.uleb128 0xb
 1539 00c6 3A       		.uleb128 0x3a
 1540 00c7 0B       		.uleb128 0xb
 1541 00c8 3B       		.uleb128 0x3b
 1542 00c9 0B       		.uleb128 0xb
 1543 00ca 01       		.uleb128 0x1
 1544 00cb 13       		.uleb128 0x13
 1545 00cc 00       		.byte	0
 1546 00cd 00       		.byte	0
 1547 00ce 11       		.uleb128 0x11
 1548 00cf 0D       		.uleb128 0xd
 1549 00d0 00       		.byte	0
 1550 00d1 03       		.uleb128 0x3
 1551 00d2 0E       		.uleb128 0xe
 1552 00d3 3A       		.uleb128 0x3a
 1553 00d4 0B       		.uleb128 0xb
 1554 00d5 3B       		.uleb128 0x3b
 1555 00d6 0B       		.uleb128 0xb
 1556 00d7 49       		.uleb128 0x49
 1557 00d8 13       		.uleb128 0x13
 1558 00d9 00       		.byte	0
 1559 00da 00       		.byte	0
ARM GAS  /tmp/ccdKYX3q.s 			page 40


 1560 00db 12       		.uleb128 0x12
 1561 00dc 26       		.uleb128 0x26
 1562 00dd 00       		.byte	0
 1563 00de 49       		.uleb128 0x49
 1564 00df 13       		.uleb128 0x13
 1565 00e0 00       		.byte	0
 1566 00e1 00       		.byte	0
 1567 00e2 13       		.uleb128 0x13
 1568 00e3 15       		.uleb128 0x15
 1569 00e4 01       		.byte	0x1
 1570 00e5 27       		.uleb128 0x27
 1571 00e6 0C       		.uleb128 0xc
 1572 00e7 01       		.uleb128 0x1
 1573 00e8 13       		.uleb128 0x13
 1574 00e9 00       		.byte	0
 1575 00ea 00       		.byte	0
 1576 00eb 14       		.uleb128 0x14
 1577 00ec 05       		.uleb128 0x5
 1578 00ed 00       		.byte	0
 1579 00ee 49       		.uleb128 0x49
 1580 00ef 13       		.uleb128 0x13
 1581 00f0 00       		.byte	0
 1582 00f1 00       		.byte	0
 1583 00f2 15       		.uleb128 0x15
 1584 00f3 13       		.uleb128 0x13
 1585 00f4 01       		.byte	0x1
 1586 00f5 03       		.uleb128 0x3
 1587 00f6 0E       		.uleb128 0xe
 1588 00f7 0B       		.uleb128 0xb
 1589 00f8 0B       		.uleb128 0xb
 1590 00f9 3A       		.uleb128 0x3a
 1591 00fa 0B       		.uleb128 0xb
 1592 00fb 3B       		.uleb128 0x3b
 1593 00fc 05       		.uleb128 0x5
 1594 00fd 01       		.uleb128 0x1
 1595 00fe 13       		.uleb128 0x13
 1596 00ff 00       		.byte	0
 1597 0100 00       		.byte	0
 1598 0101 16       		.uleb128 0x16
 1599 0102 2E       		.uleb128 0x2e
 1600 0103 01       		.byte	0x1
 1601 0104 3F       		.uleb128 0x3f
 1602 0105 0C       		.uleb128 0xc
 1603 0106 03       		.uleb128 0x3
 1604 0107 0E       		.uleb128 0xe
 1605 0108 3A       		.uleb128 0x3a
 1606 0109 0B       		.uleb128 0xb
 1607 010a 3B       		.uleb128 0x3b
 1608 010b 0B       		.uleb128 0xb
 1609 010c 27       		.uleb128 0x27
 1610 010d 0C       		.uleb128 0xc
 1611 010e 49       		.uleb128 0x49
 1612 010f 13       		.uleb128 0x13
 1613 0110 11       		.uleb128 0x11
 1614 0111 01       		.uleb128 0x1
 1615 0112 12       		.uleb128 0x12
 1616 0113 01       		.uleb128 0x1
ARM GAS  /tmp/ccdKYX3q.s 			page 41


 1617 0114 40       		.uleb128 0x40
 1618 0115 0A       		.uleb128 0xa
 1619 0116 9742     		.uleb128 0x2117
 1620 0118 0C       		.uleb128 0xc
 1621 0119 01       		.uleb128 0x1
 1622 011a 13       		.uleb128 0x13
 1623 011b 00       		.byte	0
 1624 011c 00       		.byte	0
 1625 011d 17       		.uleb128 0x17
 1626 011e 05       		.uleb128 0x5
 1627 011f 00       		.byte	0
 1628 0120 03       		.uleb128 0x3
 1629 0121 08       		.uleb128 0x8
 1630 0122 3A       		.uleb128 0x3a
 1631 0123 0B       		.uleb128 0xb
 1632 0124 3B       		.uleb128 0x3b
 1633 0125 0B       		.uleb128 0xb
 1634 0126 49       		.uleb128 0x49
 1635 0127 13       		.uleb128 0x13
 1636 0128 02       		.uleb128 0x2
 1637 0129 06       		.uleb128 0x6
 1638 012a 00       		.byte	0
 1639 012b 00       		.byte	0
 1640 012c 18       		.uleb128 0x18
 1641 012d 34       		.uleb128 0x34
 1642 012e 00       		.byte	0
 1643 012f 03       		.uleb128 0x3
 1644 0130 0E       		.uleb128 0xe
 1645 0131 49       		.uleb128 0x49
 1646 0132 13       		.uleb128 0x13
 1647 0133 34       		.uleb128 0x34
 1648 0134 0C       		.uleb128 0xc
 1649 0135 00       		.byte	0
 1650 0136 00       		.byte	0
 1651 0137 19       		.uleb128 0x19
 1652 0138 01       		.uleb128 0x1
 1653 0139 01       		.byte	0x1
 1654 013a 49       		.uleb128 0x49
 1655 013b 13       		.uleb128 0x13
 1656 013c 01       		.uleb128 0x1
 1657 013d 13       		.uleb128 0x13
 1658 013e 00       		.byte	0
 1659 013f 00       		.byte	0
 1660 0140 1A       		.uleb128 0x1a
 1661 0141 21       		.uleb128 0x21
 1662 0142 00       		.byte	0
 1663 0143 49       		.uleb128 0x49
 1664 0144 13       		.uleb128 0x13
 1665 0145 2F       		.uleb128 0x2f
 1666 0146 0B       		.uleb128 0xb
 1667 0147 00       		.byte	0
 1668 0148 00       		.byte	0
 1669 0149 1B       		.uleb128 0x1b
 1670 014a 2E       		.uleb128 0x2e
 1671 014b 01       		.byte	0x1
 1672 014c 3F       		.uleb128 0x3f
 1673 014d 0C       		.uleb128 0xc
ARM GAS  /tmp/ccdKYX3q.s 			page 42


 1674 014e 03       		.uleb128 0x3
 1675 014f 0E       		.uleb128 0xe
 1676 0150 3A       		.uleb128 0x3a
 1677 0151 0B       		.uleb128 0xb
 1678 0152 3B       		.uleb128 0x3b
 1679 0153 0B       		.uleb128 0xb
 1680 0154 27       		.uleb128 0x27
 1681 0155 0C       		.uleb128 0xc
 1682 0156 11       		.uleb128 0x11
 1683 0157 01       		.uleb128 0x1
 1684 0158 12       		.uleb128 0x12
 1685 0159 01       		.uleb128 0x1
 1686 015a 40       		.uleb128 0x40
 1687 015b 06       		.uleb128 0x6
 1688 015c 9742     		.uleb128 0x2117
 1689 015e 0C       		.uleb128 0xc
 1690 015f 01       		.uleb128 0x1
 1691 0160 13       		.uleb128 0x13
 1692 0161 00       		.byte	0
 1693 0162 00       		.byte	0
 1694 0163 1C       		.uleb128 0x1c
 1695 0164 05       		.uleb128 0x5
 1696 0165 00       		.byte	0
 1697 0166 03       		.uleb128 0x3
 1698 0167 0E       		.uleb128 0xe
 1699 0168 3A       		.uleb128 0x3a
 1700 0169 0B       		.uleb128 0xb
 1701 016a 3B       		.uleb128 0x3b
 1702 016b 0B       		.uleb128 0xb
 1703 016c 49       		.uleb128 0x49
 1704 016d 13       		.uleb128 0x13
 1705 016e 02       		.uleb128 0x2
 1706 016f 06       		.uleb128 0x6
 1707 0170 00       		.byte	0
 1708 0171 00       		.byte	0
 1709 0172 1D       		.uleb128 0x1d
 1710 0173 898201   		.uleb128 0x4109
 1711 0176 01       		.byte	0x1
 1712 0177 11       		.uleb128 0x11
 1713 0178 01       		.uleb128 0x1
 1714 0179 9542     		.uleb128 0x2115
 1715 017b 0C       		.uleb128 0xc
 1716 017c 31       		.uleb128 0x31
 1717 017d 13       		.uleb128 0x13
 1718 017e 00       		.byte	0
 1719 017f 00       		.byte	0
 1720 0180 1E       		.uleb128 0x1e
 1721 0181 8A8201   		.uleb128 0x410a
 1722 0184 00       		.byte	0
 1723 0185 02       		.uleb128 0x2
 1724 0186 0A       		.uleb128 0xa
 1725 0187 9142     		.uleb128 0x2111
 1726 0189 0A       		.uleb128 0xa
 1727 018a 00       		.byte	0
 1728 018b 00       		.byte	0
 1729 018c 1F       		.uleb128 0x1f
 1730 018d 34       		.uleb128 0x34
ARM GAS  /tmp/ccdKYX3q.s 			page 43


 1731 018e 00       		.byte	0
 1732 018f 03       		.uleb128 0x3
 1733 0190 0E       		.uleb128 0xe
 1734 0191 3A       		.uleb128 0x3a
 1735 0192 0B       		.uleb128 0xb
 1736 0193 3B       		.uleb128 0x3b
 1737 0194 05       		.uleb128 0x5
 1738 0195 49       		.uleb128 0x49
 1739 0196 13       		.uleb128 0x13
 1740 0197 3F       		.uleb128 0x3f
 1741 0198 0C       		.uleb128 0xc
 1742 0199 3C       		.uleb128 0x3c
 1743 019a 0C       		.uleb128 0xc
 1744 019b 00       		.byte	0
 1745 019c 00       		.byte	0
 1746 019d 20       		.uleb128 0x20
 1747 019e 34       		.uleb128 0x34
 1748 019f 00       		.byte	0
 1749 01a0 03       		.uleb128 0x3
 1750 01a1 08       		.uleb128 0x8
 1751 01a2 3A       		.uleb128 0x3a
 1752 01a3 0B       		.uleb128 0xb
 1753 01a4 3B       		.uleb128 0x3b
 1754 01a5 05       		.uleb128 0x5
 1755 01a6 49       		.uleb128 0x49
 1756 01a7 13       		.uleb128 0x13
 1757 01a8 3F       		.uleb128 0x3f
 1758 01a9 0C       		.uleb128 0xc
 1759 01aa 3C       		.uleb128 0x3c
 1760 01ab 0C       		.uleb128 0xc
 1761 01ac 00       		.byte	0
 1762 01ad 00       		.byte	0
 1763 01ae 21       		.uleb128 0x21
 1764 01af 2E       		.uleb128 0x2e
 1765 01b0 01       		.byte	0x1
 1766 01b1 3F       		.uleb128 0x3f
 1767 01b2 0C       		.uleb128 0xc
 1768 01b3 03       		.uleb128 0x3
 1769 01b4 0E       		.uleb128 0xe
 1770 01b5 3A       		.uleb128 0x3a
 1771 01b6 0B       		.uleb128 0xb
 1772 01b7 3B       		.uleb128 0x3b
 1773 01b8 05       		.uleb128 0x5
 1774 01b9 27       		.uleb128 0x27
 1775 01ba 0C       		.uleb128 0xc
 1776 01bb 3C       		.uleb128 0x3c
 1777 01bc 0C       		.uleb128 0xc
 1778 01bd 00       		.byte	0
 1779 01be 00       		.byte	0
 1780 01bf 00       		.byte	0
 1781              		.section	.debug_loc,"",%progbits
 1782              	.Ldebug_loc0:
 1783              	.LLST0:
 1784 0000 00000000 		.4byte	.LVL0
 1785 0004 0C000000 		.4byte	.LVL1
 1786 0008 0100     		.2byte	0x1
 1787 000a 50       		.byte	0x50
ARM GAS  /tmp/ccdKYX3q.s 			page 44


 1788 000b 0C000000 		.4byte	.LVL1
 1789 000f 10000000 		.4byte	.LFE194
 1790 0013 0400     		.2byte	0x4
 1791 0015 F3       		.byte	0xf3
 1792 0016 01       		.uleb128 0x1
 1793 0017 50       		.byte	0x50
 1794 0018 9F       		.byte	0x9f
 1795 0019 00000000 		.4byte	0
 1796 001d 00000000 		.4byte	0
 1797              	.LLST1:
 1798 0021 00000000 		.4byte	.LFB195
 1799 0025 06000000 		.4byte	.LCFI0
 1800 0029 0200     		.2byte	0x2
 1801 002b 7D       		.byte	0x7d
 1802 002c 00       		.sleb128 0
 1803 002d 06000000 		.4byte	.LCFI0
 1804 0031 24000000 		.4byte	.LFE195
 1805 0035 0200     		.2byte	0x2
 1806 0037 7D       		.byte	0x7d
 1807 0038 08       		.sleb128 8
 1808 0039 00000000 		.4byte	0
 1809 003d 00000000 		.4byte	0
 1810              	.LLST2:
 1811 0041 00000000 		.4byte	.LVL2
 1812 0045 1A000000 		.4byte	.LVL4
 1813 0049 0100     		.2byte	0x1
 1814 004b 50       		.byte	0x50
 1815 004c 1A000000 		.4byte	.LVL4
 1816 0050 24000000 		.4byte	.LFE195
 1817 0054 0400     		.2byte	0x4
 1818 0056 F3       		.byte	0xf3
 1819 0057 01       		.uleb128 0x1
 1820 0058 50       		.byte	0x50
 1821 0059 9F       		.byte	0x9f
 1822 005a 00000000 		.4byte	0
 1823 005e 00000000 		.4byte	0
 1824              	.LLST3:
 1825 0062 00000000 		.4byte	.LVL2
 1826 0066 18000000 		.4byte	.LVL3
 1827 006a 0100     		.2byte	0x1
 1828 006c 51       		.byte	0x51
 1829 006d 18000000 		.4byte	.LVL3
 1830 0071 24000000 		.4byte	.LFE195
 1831 0075 0400     		.2byte	0x4
 1832 0077 F3       		.byte	0xf3
 1833 0078 01       		.uleb128 0x1
 1834 0079 51       		.byte	0x51
 1835 007a 9F       		.byte	0x9f
 1836 007b 00000000 		.4byte	0
 1837 007f 00000000 		.4byte	0
 1838              	.LLST4:
 1839 0083 00000000 		.4byte	.LFB196
 1840 0087 04000000 		.4byte	.LCFI1
 1841 008b 0200     		.2byte	0x2
 1842 008d 7D       		.byte	0x7d
 1843 008e 00       		.sleb128 0
 1844 008f 04000000 		.4byte	.LCFI1
ARM GAS  /tmp/ccdKYX3q.s 			page 45


 1845 0093 14000000 		.4byte	.LFE196
 1846 0097 0200     		.2byte	0x2
 1847 0099 7D       		.byte	0x7d
 1848 009a 04       		.sleb128 4
 1849 009b 00000000 		.4byte	0
 1850 009f 00000000 		.4byte	0
 1851              	.LLST5:
 1852 00a3 00000000 		.4byte	.LVL5
 1853 00a7 0E000000 		.4byte	.LVL7
 1854 00ab 0100     		.2byte	0x1
 1855 00ad 50       		.byte	0x50
 1856 00ae 0E000000 		.4byte	.LVL7
 1857 00b2 14000000 		.4byte	.LFE196
 1858 00b6 0400     		.2byte	0x4
 1859 00b8 F3       		.byte	0xf3
 1860 00b9 01       		.uleb128 0x1
 1861 00ba 50       		.byte	0x50
 1862 00bb 9F       		.byte	0x9f
 1863 00bc 00000000 		.4byte	0
 1864 00c0 00000000 		.4byte	0
 1865              	.LLST6:
 1866 00c4 00000000 		.4byte	.LVL5
 1867 00c8 0C000000 		.4byte	.LVL6
 1868 00cc 0100     		.2byte	0x1
 1869 00ce 51       		.byte	0x51
 1870 00cf 0C000000 		.4byte	.LVL6
 1871 00d3 13000000 		.4byte	.LVL8-1
 1872 00d7 0100     		.2byte	0x1
 1873 00d9 52       		.byte	0x52
 1874 00da 13000000 		.4byte	.LVL8-1
 1875 00de 14000000 		.4byte	.LFE196
 1876 00e2 0400     		.2byte	0x4
 1877 00e4 F3       		.byte	0xf3
 1878 00e5 01       		.uleb128 0x1
 1879 00e6 51       		.byte	0x51
 1880 00e7 9F       		.byte	0x9f
 1881 00e8 00000000 		.4byte	0
 1882 00ec 00000000 		.4byte	0
 1883              		.section	.debug_aranges,"",%progbits
 1884 0000 2C000000 		.4byte	0x2c
 1885 0004 0200     		.2byte	0x2
 1886 0006 00000000 		.4byte	.Ldebug_info0
 1887 000a 04       		.byte	0x4
 1888 000b 00       		.byte	0
 1889 000c 0000     		.2byte	0
 1890 000e 0000     		.2byte	0
 1891 0010 00000000 		.4byte	.LFB194
 1892 0014 10000000 		.4byte	.LFE194-.LFB194
 1893 0018 00000000 		.4byte	.LFB195
 1894 001c 24000000 		.4byte	.LFE195-.LFB195
 1895 0020 00000000 		.4byte	.LFB196
 1896 0024 14000000 		.4byte	.LFE196-.LFB196
 1897 0028 00000000 		.4byte	0
 1898 002c 00000000 		.4byte	0
 1899              		.section	.debug_ranges,"",%progbits
 1900              	.Ldebug_ranges0:
 1901 0000 00000000 		.4byte	.LFB194
ARM GAS  /tmp/ccdKYX3q.s 			page 46


 1902 0004 10000000 		.4byte	.LFE194
 1903 0008 00000000 		.4byte	.LFB195
 1904 000c 24000000 		.4byte	.LFE195
 1905 0010 00000000 		.4byte	.LFB196
 1906 0014 14000000 		.4byte	.LFE196
 1907 0018 00000000 		.4byte	0
 1908 001c 00000000 		.4byte	0
 1909              		.section	.debug_line,"",%progbits
 1910              	.Ldebug_line0:
 1911 0000 30020000 		.section	.debug_str,"MS",%progbits,1
 1911      0200ED01 
 1911      00000201 
 1911      FB0E0D00 
 1911      01010101 
 1912              	.LASF53:
 1913 0000 725F6F6C 		.ascii	"r_older\000"
 1913      64657200 
 1914              	.LASF34:
 1915 0008 74726566 		.ascii	"trefs_t\000"
 1915      735F7400 
 1916              	.LASF73:
 1917 0010 76745F6C 		.ascii	"vt_lasttime\000"
 1917      61737474 
 1917      696D6500 
 1918              	.LASF87:
 1919 001c 6F666673 		.ascii	"offset\000"
 1919      657400
 1920              	.LASF3:
 1921 0023 73686F72 		.ascii	"short int\000"
 1921      7420696E 
 1921      7400
 1922              	.LASF49:
 1923 002d 725F7175 		.ascii	"r_queue\000"
 1923      65756500 
 1924              	.LASF64:
 1925 0035 6D5F6E65 		.ascii	"m_next\000"
 1925      787400
 1926              	.LASF38:
 1927 003c 73697A65 		.ascii	"sizetype\000"
 1927      74797065 
 1927      00
 1928              	.LASF56:
 1929 0045 7264796D 		.ascii	"rdymsg\000"
 1929      736700
 1930              	.LASF15:
 1931 004c 705F7072 		.ascii	"p_prev\000"
 1931      657600
 1932              	.LASF51:
 1933 0053 725F6374 		.ascii	"r_ctx\000"
 1933      7800
 1934              	.LASF100:
 1935 0059 70616C52 		.ascii	"palReadBus\000"
 1935      65616442 
 1935      757300
 1936              	.LASF37:
 1937 0064 6576656E 		.ascii	"eventmask_t\000"
 1937      746D6173 
ARM GAS  /tmp/ccdKYX3q.s 			page 47


 1937      6B5F7400 
 1938              	.LASF25:
 1939 0070 705F6D73 		.ascii	"p_msgqueue\000"
 1939      67717565 
 1939      756500
 1940              	.LASF16:
 1941 007b 705F7072 		.ascii	"p_prio\000"
 1941      696F00
 1942              	.LASF14:
 1943 0082 705F6E65 		.ascii	"p_next\000"
 1943      787400
 1944              	.LASF31:
 1945 0089 7274636E 		.ascii	"rtcnt_t\000"
 1945      745F7400 
 1946              	.LASF39:
 1947 0091 42535252 		.ascii	"BSRR\000"
 1947      00
 1948              	.LASF72:
 1949 0096 76745F70 		.ascii	"vt_par\000"
 1949      617200
 1950              	.LASF83:
 1951 009d 696F6D6F 		.ascii	"iomode_t\000"
 1951      64655F74 
 1951      00
 1952              	.LASF43:
 1953 00a6 72656761 		.ascii	"regarm_t\000"
 1953      726D5F74 
 1953      00
 1954              	.LASF4:
 1955 00af 75696E74 		.ascii	"uint8_t\000"
 1955      385F7400 
 1956              	.LASF82:
 1957 00b7 696F706F 		.ascii	"ioportmask_t\000"
 1957      72746D61 
 1957      736B5F74 
 1957      00
 1958              	.LASF27:
 1959 00c4 705F6570 		.ascii	"p_epending\000"
 1959      656E6469 
 1959      6E6700
 1960              	.LASF79:
 1961 00cf 63685F73 		.ascii	"ch_system_t\000"
 1961      79737465 
 1961      6D5F7400 
 1962              	.LASF78:
 1963 00db 6D656173 		.ascii	"measurement_offset\000"
 1963      7572656D 
 1963      656E745F 
 1963      6F666673 
 1963      657400
 1964              	.LASF30:
 1965 00ee 705F6D70 		.ascii	"p_mpool\000"
 1965      6F6F6C00 
 1966              	.LASF32:
 1967 00f6 746D6F64 		.ascii	"tmode_t\000"
 1967      655F7400 
 1968              	.LASF11:
ARM GAS  /tmp/ccdKYX3q.s 			page 48


 1969 00fe 6C6F6E67 		.ascii	"long long int\000"
 1969      206C6F6E 
 1969      6720696E 
 1969      7400
 1970              	.LASF12:
 1971 010c 6C6F6E67 		.ascii	"long long unsigned int\000"
 1971      206C6F6E 
 1971      6720756E 
 1971      7369676E 
 1971      65642069 
 1972              	.LASF89:
 1973 0123 62697473 		.ascii	"bits\000"
 1973      00
 1974              	.LASF35:
 1975 0128 74707269 		.ascii	"tprio_t\000"
 1975      6F5F7400 
 1976              	.LASF101:
 1977 0130 5F70616C 		.ascii	"_pal_lld_setgroupmode\000"
 1977      5F6C6C64 
 1977      5F736574 
 1977      67726F75 
 1977      706D6F64 
 1978              	.LASF8:
 1979 0146 6C6F6E67 		.ascii	"long int\000"
 1979      20696E74 
 1979      00
 1980              	.LASF75:
 1981 014f 63685F73 		.ascii	"ch_system\000"
 1981      79737465 
 1981      6D00
 1982              	.LASF66:
 1983 0159 76697274 		.ascii	"virtual_timer_t\000"
 1983      75616C5F 
 1983      74696D65 
 1983      725F7400 
 1984              	.LASF62:
 1985 0169 6D5F7175 		.ascii	"m_queue\000"
 1985      65756500 
 1986              	.LASF45:
 1987 0171 636F6E74 		.ascii	"context\000"
 1987      65787400 
 1988              	.LASF98:
 1989 0179 2E2E2F2E 		.ascii	"../../../os/hal/src/pal.c\000"
 1989      2E2F2E2E 
 1989      2F6F732F 
 1989      68616C2F 
 1989      7372632F 
 1990              	.LASF54:
 1991 0193 725F6375 		.ascii	"r_current\000"
 1991      7272656E 
 1991      7400
 1992              	.LASF26:
 1993 019d 705F6D73 		.ascii	"p_msg\000"
 1993      6700
 1994              	.LASF84:
 1995 01a3 696F706F 		.ascii	"ioportid_t\000"
 1995      72746964 
ARM GAS  /tmp/ccdKYX3q.s 			page 49


 1995      5F7400
 1996              	.LASF2:
 1997 01ae 756E7369 		.ascii	"unsigned char\000"
 1997      676E6564 
 1997      20636861 
 1997      7200
 1998              	.LASF59:
 1999 01bc 65776D61 		.ascii	"ewmask\000"
 1999      736B00
 2000              	.LASF1:
 2001 01c3 7369676E 		.ascii	"signed char\000"
 2001      65642063 
 2001      68617200 
 2002              	.LASF18:
 2003 01cf 705F6E65 		.ascii	"p_newer\000"
 2003      77657200 
 2004              	.LASF71:
 2005 01d7 76745F66 		.ascii	"vt_func\000"
 2005      756E6300 
 2006              	.LASF13:
 2007 01df 75696E74 		.ascii	"uint_fast8_t\000"
 2007      5F666173 
 2007      74385F74 
 2007      00
 2008              	.LASF9:
 2009 01ec 75696E74 		.ascii	"uint32_t\000"
 2009      33325F74 
 2009      00
 2010              	.LASF0:
 2011 01f5 756E7369 		.ascii	"unsigned int\000"
 2011      676E6564 
 2011      20696E74 
 2011      00
 2012              	.LASF97:
 2013 0202 474E5520 		.ascii	"GNU C 4.7.4 20130913 (release) [ARM/embedded-4_7-br"
 2013      4320342E 
 2013      372E3420 
 2013      32303133 
 2013      30393133 
 2014 0235 616E6368 		.ascii	"anch revision 202601]\000"
 2014      20726576 
 2014      6973696F 
 2014      6E203230 
 2014      32363031 
 2015              	.LASF68:
 2016 024b 76745F6E 		.ascii	"vt_next\000"
 2016      65787400 
 2017              	.LASF74:
 2018 0253 76697274 		.ascii	"virtual_timers_list_t\000"
 2018      75616C5F 
 2018      74696D65 
 2018      72735F6C 
 2018      6973745F 
 2019              	.LASF47:
 2020 0269 74687265 		.ascii	"threads_queue_t\000"
 2020      6164735F 
 2020      71756575 
ARM GAS  /tmp/ccdKYX3q.s 			page 50


 2020      655F7400 
 2021              	.LASF61:
 2022 0279 6D757465 		.ascii	"mutex\000"
 2022      7800
 2023              	.LASF44:
 2024 027f 74687265 		.ascii	"thread\000"
 2024      616400
 2025              	.LASF52:
 2026 0286 725F6E65 		.ascii	"r_newer\000"
 2026      77657200 
 2027              	.LASF22:
 2028 028e 705F666C 		.ascii	"p_flags\000"
 2028      61677300 
 2029              	.LASF70:
 2030 0296 76745F64 		.ascii	"vt_delta\000"
 2030      656C7461 
 2030      00
 2031              	.LASF29:
 2032 029f 705F7265 		.ascii	"p_realprio\000"
 2032      616C7072 
 2032      696F00
 2033              	.LASF42:
 2034 02aa 73797374 		.ascii	"systime_t\000"
 2034      696D655F 
 2034      7400
 2035              	.LASF76:
 2036 02b4 726C6973 		.ascii	"rlist\000"
 2036      7400
 2037              	.LASF60:
 2038 02ba 63686172 		.ascii	"char\000"
 2038      00
 2039              	.LASF5:
 2040 02bf 75696E74 		.ascii	"uint16_t\000"
 2040      31365F74 
 2040      00
 2041              	.LASF80:
 2042 02c8 6D757465 		.ascii	"mutex_t\000"
 2042      785F7400 
 2043              	.LASF7:
 2044 02d0 696E7433 		.ascii	"int32_t\000"
 2044      325F7400 
 2045              	.LASF88:
 2046 02d8 494F4275 		.ascii	"IOBus\000"
 2046      7300
 2047              	.LASF21:
 2048 02de 705F7374 		.ascii	"p_state\000"
 2048      61746500 
 2049              	.LASF6:
 2050 02e6 73686F72 		.ascii	"short unsigned int\000"
 2050      7420756E 
 2050      7369676E 
 2050      65642069 
 2050      6E7400
 2051              	.LASF94:
 2052 02f9 6D6F6465 		.ascii	"mode\000"
 2052      00
 2053              	.LASF81:
ARM GAS  /tmp/ccdKYX3q.s 			page 51


 2054 02fe 5F426F6F 		.ascii	"_Bool\000"
 2054      6C00
 2055              	.LASF24:
 2056 0304 705F7761 		.ascii	"p_waiting\000"
 2056      6974696E 
 2056      6700
 2057              	.LASF28:
 2058 030e 705F6D74 		.ascii	"p_mtxlist\000"
 2058      786C6973 
 2058      7400
 2059              	.LASF20:
 2060 0318 705F6E61 		.ascii	"p_name\000"
 2060      6D6500
 2061              	.LASF77:
 2062 031f 76746C69 		.ascii	"vtlist\000"
 2062      737400
 2063              	.LASF10:
 2064 0326 6C6F6E67 		.ascii	"long unsigned int\000"
 2064      20756E73 
 2064      69676E65 
 2064      6420696E 
 2064      7400
 2065              	.LASF90:
 2066 0338 5F5F6675 		.ascii	"__func__.6456\000"
 2066      6E635F5F 
 2066      2E363435 
 2066      3600
 2067              	.LASF93:
 2068 0346 70616C53 		.ascii	"palSetBusMode\000"
 2068      65744275 
 2068      734D6F64 
 2068      6500
 2069              	.LASF92:
 2070 0354 70616C57 		.ascii	"palWriteBus\000"
 2070      72697465 
 2070      42757300 
 2071              	.LASF86:
 2072 0360 6D61736B 		.ascii	"mask\000"
 2072      00
 2073              	.LASF46:
 2074 0365 706F7274 		.ascii	"port_intctx\000"
 2074      5F696E74 
 2074      63747800 
 2075              	.LASF69:
 2076 0371 76745F70 		.ascii	"vt_prev\000"
 2076      72657600 
 2077              	.LASF58:
 2078 0379 77746F62 		.ascii	"wtobjp\000"
 2078      6A7000
 2079              	.LASF85:
 2080 0380 706F7274 		.ascii	"portid\000"
 2080      696400
 2081              	.LASF33:
 2082 0387 74737461 		.ascii	"tstate_t\000"
 2082      74655F74 
 2082      00
 2083              	.LASF57:
ARM GAS  /tmp/ccdKYX3q.s 			page 52


 2084 0390 65786974 		.ascii	"exitcode\000"
 2084      636F6465 
 2084      00
 2085              	.LASF65:
 2086 0399 76746675 		.ascii	"vtfunc_t\000"
 2086      6E635F74 
 2086      00
 2087              	.LASF19:
 2088 03a2 705F6F6C 		.ascii	"p_older\000"
 2088      64657200 
 2089              	.LASF55:
 2090 03aa 72656164 		.ascii	"ready_list_t\000"
 2090      795F6C69 
 2090      73745F74 
 2090      00
 2091              	.LASF41:
 2092 03b7 4750494F 		.ascii	"GPIO_TypeDef\000"
 2092      5F547970 
 2092      65446566 
 2092      00
 2093              	.LASF50:
 2094 03c4 725F7072 		.ascii	"r_prio\000"
 2094      696F00
 2095              	.LASF23:
 2096 03cb 705F7265 		.ascii	"p_refs\000"
 2096      667300
 2097              	.LASF17:
 2098 03d2 705F6374 		.ascii	"p_ctx\000"
 2098      7800
 2099              	.LASF96:
 2100 03d8 49544D5F 		.ascii	"ITM_RxBuffer\000"
 2100      52784275 
 2100      66666572 
 2100      00
 2101              	.LASF63:
 2102 03e5 6D5F6F77 		.ascii	"m_owner\000"
 2102      6E657200 
 2103              	.LASF40:
 2104 03ed 4C434B52 		.ascii	"LCKR\000"
 2104      00
 2105              	.LASF67:
 2106 03f2 76697274 		.ascii	"virtual_timer\000"
 2106      75616C5F 
 2106      74696D65 
 2106      7200
 2107              	.LASF91:
 2108 0400 5F5F6675 		.ascii	"__func__.6461\000"
 2108      6E635F5F 
 2108      2E363436 
 2108      3100
 2109              	.LASF36:
 2110 040e 6D73675F 		.ascii	"msg_t\000"
 2110      7400
 2111              	.LASF99:
 2112 0414 2F686F6D 		.ascii	"/home/joerg/repos/chibios-projects/ChibiOS-RT/demos"
 2112      652F6A6F 
 2112      6572672F 
ARM GAS  /tmp/ccdKYX3q.s 			page 53


 2112      7265706F 
 2112      732F6368 
 2113 0447 2F53544D 		.ascii	"/STM32/RT-STM32F103-OLIMEX_STM32_P103\000"
 2113      33322F52 
 2113      542D5354 
 2113      4D333246 
 2113      3130332D 
 2114              	.LASF95:
 2115 046d 5F5F6675 		.ascii	"__func__.6466\000"
 2115      6E635F5F 
 2115      2E363436 
 2115      3600
 2116              	.LASF48:
 2117 047b 74687265 		.ascii	"threads_list_t\000"
 2117      6164735F 
 2117      6C697374 
 2117      5F7400
 2118              		.comm	__gnu_lto_v1,1,1
 2119              		.ident	"GCC: (GNU Tools for ARM Embedded Processors) 4.7.4 20130913 (release) [ARM/embedded-4_7-br
ARM GAS  /tmp/ccdKYX3q.s 			page 54


DEFINED SYMBOLS
                            *ABS*:00000000 pal.c
     /tmp/ccdKYX3q.s:227    .text.palReadBus:00000000 $t
     /tmp/ccdKYX3q.s:233    .text.palReadBus:00000000 palReadBus
     /tmp/ccdKYX3q.s:256    .text.palWriteBus:00000000 $t
     /tmp/ccdKYX3q.s:262    .text.palWriteBus:00000000 palWriteBus
     /tmp/ccdKYX3q.s:297    .text.palSetBusMode:00000000 $t
     /tmp/ccdKYX3q.s:303    .text.palSetBusMode:00000000 palSetBusMode
                            *COM*:00000001 __gnu_lto_v1
                     .debug_frame:00000010 $d

UNDEFINED SYMBOLS
_pal_lld_setgroupmode
