ARM GAS  /tmp/ccZLOnkl.s 			page 1


   1              		.syntax unified
   2              		.cpu cortex-m3
   3              		.fpu softvfp
   4              		.eabi_attribute 20, 1
   5              		.eabi_attribute 21, 1
   6              		.eabi_attribute 23, 3
   7              		.eabi_attribute 24, 1
   8              		.eabi_attribute 25, 1
   9              		.eabi_attribute 26, 1
  10              		.eabi_attribute 30, 2
  11              		.eabi_attribute 34, 1
  12              		.eabi_attribute 18, 4
  13              		.thumb
  14              		.file	"pal_lld.c"
  15              		.text
  16              	.Ltext0:
  17              		.section	.gnu.lto_.jmpfuncs.bcf5d0db02025f6c,"",%progbits
  18 0000 789C6362 		.ascii	"x\234cb`d`g\300\016\330\2404\023\003##;\003\000\002"
  18      60646067 
  18      C00ED8A0 
  18      34130323 
  18      233B0300 
  19 0015 25001C   		.ascii	"%\000\034"
  20              		.text
  21              		.section	.gnu.lto_.inline.bcf5d0db02025f6c,"",%progbits
  22 0000 789C6362 		.ascii	"x\234cb`d\340e\300\016J\2414\023\003\203\2122#\003\223"
  22      6064E065 
  22      C00E4AA1 
  22      34130383 
  22      8A322303 
  23 0015 F18E3E66 		.ascii	"\361\216>f\006\321\035S\030\231\200\232T&22\2622\245"
  23      06D11D53 
  23      1899809A 
  23      54263232 
  23      B232A5
  24 0028 4A32A432 		.ascii	"J2\244220030\245\301YP1\026\270\030\220\005$9\214.\334"
  24      32303033 
  24      30A5C159 
  24      503116B8 
  24      18900524 
  25 0040 1160E03A 		.ascii	"\021`\340:`\307\304\300\262@\336\201\201q:\023\013\023"
  25      60C7C4C0 
  25      B240DE81 
  25      81713A13 
  25      0B13
  26 0052 98646039 		.ascii	"\230d`9 \346\300\301\300x\222Q\200\203\011B10\000\000"
  26      20E6C0C1 
  26      C0789251 
  26      80830942 
  26      31300000 
  27 0066 D16F1045 		.ascii	"\321o\020E"
  28              		.text
  29              		.section	.gnu.lto_.pureconst.bcf5d0db02025f6c,"",%progbits
  30 0000 789C6362 		.ascii	"x\234cb`d`f```e\200\000&\006)F)\000\001:\000C"
  30      60646066 
  30      60606065 
  30      80002606 
ARM GAS  /tmp/ccZLOnkl.s 			page 2


  30      29462900 
  31              		.text
  32              		.section	.gnu.lto__pal_lld_init.bcf5d0db02025f6c,"",%progbits
  33 0000 789CA596 		.ascii	"x\234\245\226Kh\023a\024\205\357\235\311\243i\350#\204"
  33      4B681361 
  33      1485EF9D 
  33      C9A369E8 
  33      2384
  34 0012 52620C69 		.ascii	"Rb\014i\233\356\204\014\365\261q-\330@E\353cS\210\245"
  34      9BEE840C 
  34      F5B1712D 
  34      D84045EB 
  34      635388A5 
  35 0026 C4F88060 		.ascii	"\304\370\200`\213\025w\2221\315\242\313\340\312F\221"
  35      8B157792 
  35      31CDA2CB 
  35      E0CA4691 
  36 0036 D4FA68EB 		.ascii	"\324\372h\353\243\025\301\255\022\263\012\241\253.\273"
  36      A315C1AD 
  36      12B30AA1 
  36      AB2EBB
  37 0045 28984517 		.ascii	"(\230E\027]\026\027R\210\367\237\1772\035q\014\314\355"
  37      5D161752 
  37      88F79F7F 
  37      321D710C 
  37      CCED
  38 0057 9F8433AF 		.ascii	"\237\2043\257s\346\033\016\334\214\002H\237\177W\204"
  38      73E61B0E 
  38      DC8C0248 
  38      9F7F5784 
  39 0067 7EFDBD00 		.ascii	"~\375\275\000\347IQ\005TJ[\000O\206\024D\261A\226\274"
  39      E7495105 
  39      544A5B00 
  39      4F861444 
  39      B14196BC 
  40 007b 82F91B86 		.ascii	"\202\371\033\20634\002\313\272\376\264\364\2430^\330"
  40      333402CB 
  40      BAFEB4F4 
  40      A3305ED8 
  41 008b 6DB5E259 		.ascii	"m\265\342Yqt\032\241\276\366\023#\220E\204!\020\252"
  41      71741AA1 
  41      BEF61323 
  41      90458421 
  41      10AA
  42 009d 80E7EF7B 		.ascii	"\200\347\357{\374\307\007\034\323A\3717\353f\207'8\256"
  42      FCC7071C 
  42      D341F937 
  42      EB668727 
  42      38AE
  43 00af 5A94E36A 		.ascii	"Z\224\343j\260\\\333,\327\016\313\325d\271\366Y\256"
  43      B05CDB2C 
  43      D70ECBD5 
  43      64B9F659 
  43      AE
  44 00c0 0396EB90 		.ascii	"\003\226\353\220\345\252\235d\365\305r\355\260\\M\226"
  44      E5AA9D64 
  44      F5C572ED 
ARM GAS  /tmp/ccZLOnkl.s 			page 3


  44      B05C4D96 
  45 00d0 6BBFB3AB 		.ascii	"k\277\263\253\271\364Ki\274\364}S\276\357\266\362\243"
  45      B9F44B69 
  45      BCF47D53 
  45      BEEFB6F2 
  45      A3
  46 00e1 B0222216 		.ascii	"\260\"\"\026\364\361,\252\012\234E\343\266K_\025\207"
  46      F4F12CAA 
  46      0A9C45E3 
  46      B64B5F15 
  46      87
  47 00f2 08BA02CE 		.ascii	"\010\272\002\316\251\220\306\012\216\320\2214.\223\372"
  47      A990C60A 
  47      8ED09134 
  47      2E93FA
  48 0101 308D9F71 		.ascii	"0\215\237q\024\374\264\377\212\366\003\244+\244A\322"
  48      14FCB4FF 
  48      8AF603A4 
  48      2BA441D2 
  49 0111 D7A43DA4 		.ascii	"\327\244=\244oH\373H\337\222\206H\337\221\206IWI\007"
  49      6F48FB48 
  49      DF928648 
  49      DF918649 
  49      574907
  50 0124 48D74807 		.ascii	"H\327H\007I\327I#\244\357I\243\244\037Hc\244\037I\343"
  50      49D74923 
  50      A4EF49A3 
  50      A41F4863 
  50      A41F49E3 
  51 0138 A49F4887 		.ascii	"\244\237H\207I7H\023\244\233\244\264\274P\324\365~c"
  51      49374813 
  51      A49BA4B4 
  51      BC50D4F5 
  51      7E63
  52 014a 48883529 		.ascii	"H\2105)T\314\243\253\004.6\324:T\247\032\345\3364~A"
  52      54CCA3AB 
  52      042E36D4 
  52      3A54A71A 
  52      E5DE347E 
  53 015f 2F64503D 		.ascii	"/dP=\005\353z\021\263\350Q\313\260D\3525\236\326\007"
  53      05EB7A11 
  53      B3E851CB 
  53      B044EA35 
  53      9ED607
  54 0172 7A6551F7 		.ascii	"zeQ\367\200\334\226\353\246\310\222\271uX\330\020\017"
  54      80DC96EB 
  54      A6C892B9 
  54      7558D810 
  54      0F
  55 0183 2F333C14 		.ascii	"/3<\024#.\004xl\234\253\246\314S\214lJ\023\021\205)"
  55      232E0478 
  55      6C9CABA6 
  55      CC538C6C 
  55      4A131185 
  56 0198 31AEDA37 		.ascii	"1\256\3327\360\213\240\376,\372Us\243\313\014\014(\031"
  56      F08BA0FE 
  56      2CFA5573 
ARM GAS  /tmp/ccZLOnkl.s 			page 4


  56      A3CB0C0C 
  56      2819
  57 01aa F4458C32 		.ascii	"\364E\2142\000\366\274F\020\266\023\351\201\367\374"
  57      00F6BC46 
  57      10B613E9 
  57      81F7FC
  58 01b9 266E35B5 		.ascii	"&n5\265\247:3u\033LA\320KE\223)H\216E\325\210Pe\026"
  58      A73A3375 
  58      1B4C41D0 
  58      4B459329 
  58      488E45D5 
  59 01d1 1148A843 		.ascii	"\021H\250C\033T\200\005\3459>\224\267\015\025\220P\265"
  59      1B548005 
  59      E5393E94 
  59      B70D1590 
  59      50B5
  60 01e3 E7475041 		.ascii	"\347GPA\026\224\357\370P\3766TPB5lP=n\240\272\230\365"
  60      1694EFF8 
  60      50FE3654 
  60      5042356C 
  60      503D6EA0 
  61 01fa 3DEB545F 		.ascii	"=\353T_\217\204\332\266A\365\261\240\\\326\347\004e"
  61      8F84DAB6 
  61      41F5B1A0 
  61      5CD6E704 
  61      65
  62 020b D5D727A1 		.ascii	"\325\327'\241vlP!\026\224\313\372\234\240\254\372B\022"
  62      766C5021 
  62      1694CBFA 
  62      9CA0ACFA 
  62      4212
  63 021d AA69830A 		.ascii	"\252i\203\012\273\201\0120\353\253t\252/,\241\366mP"
  63      BB810A30 
  63      EBAB74AA 
  63      2F2CA1F6 
  63      6D50
  64 022f 032C2897 		.ascii	"\003,(\227\3659AY\365\015\230s\312\0065\310\202rY\237"
  64      F5394159 
  64      F50D9873 
  64      CA0635C8 
  64      8272599F 
  65 0243 139455DF 		.ascii	"\023\224U\337\2409\247lP\0217P\335\314\372V;\325\027"
  65      A039A76C 
  65      50113750 
  65      DDCCFA56 
  65      3BD517
  66 0256 31E7D48B 		.ascii	"1\347\324\213#\250(\013\312e}NPV}QsN\331\240b,(\227"
  66      23A8280B 
  66      CA657D4E 
  66      50567D51 
  66      734ED9A0 
  67 026e F5394159 		.ascii	"\3659AY\365\305\314\221`\203\212\273\201\0122\353\333"
  67      F5C5CC91 
  67      60838ABB 
  67      810A32EB 
  67      DB
  68 027f EC545FDC 		.ascii	"\354T_\334\034\0116\250a\026\224\313\372\234\240\254"
ARM GAS  /tmp/ccZLOnkl.s 			page 5


  68      1C0936A8 
  68      611694CB 
  68      FA9CA0AC 
  69 028f FA86CD91 		.ascii	"\372\206\315\221`\203J\260\240\\\326\347\004e\325\227"
  69      60834AB0 
  69      A05CD6E7 
  69      0465D597 
  70 029f 00D802A4 		.ascii	"\000\330\002\244\367I\031\322^\223\342\237\226\336\275"
  70      F74919D2 
  70      5E93E29F 
  70      96DEBD
  71 02ae A814184B 		.ascii	"\250\024\030K&5\371\235\235\327\356\316\344\264\271"
  71      2635F99D 
  71      9DD7EECE 
  71      E4B4B9
  72 02bd D9070FE7 		.ascii	"\331\007\017\347\265k\327/\2359\255ML\\\320.^I]~4\246"
  72      B56BD72F 
  72      9D39AD4D 
  72      4C5CD02E 
  72      5E495D7E 
  73 02d3 CDCDE4A6 		.ascii	"\315\315\344\246s\271[\311\014\3702\263\367o\337\273"
  73      73B95BC9 
  73      0CF832B3 
  73      F76FDFBB 
  74 02e3 F30725DD 		.ascii	"\363\007%\335\262\317"
  74      B2CF
  75              		.text
  76              		.section	.gnu.lto__pal_lld_setgroupmode.bcf5d0db02025f6c,"",%progbits
  77 0000 789CCD56 		.ascii	"x\234\315VKL\\e\024>\347\277\357y\262\341\375\232R\212"
  77      4B4C5C65 
  77      143EE7BF 
  77      EF79B2E1 
  77      FD9A528A 
  78 0014 26B64CAB 		.ascii	"&\266L\253&\032\027.\214\3216\266\321\342c\321\204\022"
  78      261A172E 
  78      8CD136B6 
  78      D1E263D1 
  78      8412
  79 0026 9C4E850A 		.ascii	"\234N\205\012\322\2001\215\2132\245,X6\256\320\025\264"
  79      D280318D 
  79      8B32A52C 
  79      5836AED0 
  79      15B4
  80 0038 3E066780 		.ascii	">\006g\200(\251-1\251\006\251i\010\351jB]`\302b\332"
  80      28A92D31 
  80      A906A969 
  80      08E96A42 
  80      5D60C262 
  81 004d B820A60B 		.ascii	"\270 \246\013\0265!\301\363\277\346\016\303\250\300"
  81      163521C1 
  81      F3BFE60E 
  81      C3A8C0
  82 005c CA0B77BE 		.ascii	"\312\013w\276\233s\316w\236\377=3\014\220\376v^7\351"
  82      9B73CE77 
  82      9EFF3D33 
  82      0C90FE76 
  82      5E37E9
ARM GAS  /tmp/ccZLOnkl.s 			page 6


  83 006f 5E0F01BC 		.ascii	"^\017\001\274G\210\025\200\354\332}\200+1\306\214\307"
  83      47881580 
  83      ECDA7D80 
  83      2B31C68C 
  83      C7
  84 0080 95907ADA 		.ascii	"\225\220z\332\234x\021RG\015\264\245\330d\226\020\333"
  84      9C781152 
  84      470DB4A5 
  84      D8649610 
  84      DB
  85 0091 426C69B1 		.ascii	"Bli\261\215\021\371\3400w\354)\322{\374\363\250\213"
  85      8D11F9E0 
  85      3077EC29 
  85      D27BFCF3 
  85      A88B
  86 00a3 0129F6F4 		.ascii	"\001)\366\364C\200\005\205>$\364A\014KqH?\204\245\243"
  86      43800585 
  86      3E24F441 
  86      0C4B7148 
  86      3F84A5A3 
  87 00b7 C9588439 		.ascii	"\311X\2049\363w\201,\243\017\\\262\214\"r9U0\314\014"
  87      F377812C 
  87      A30F5CB2 
  87      8C227239 
  87      5530CC0C 
  88 00cb D3B21DD7 		.ascii	"\323\262\035\327\013\004C\341H\024\207\337\025UU\264"
  88      0B0443E1 
  88      481487DF 
  88      155555B4 
  89 00db C0642AF5 		.ascii	"\300d*\365\331\343\205\221\232\221\265\255\255\346$"
  89      D9E38591 
  89      9A91B5AD 
  89      ADE624
  90 00ea 9776212C 		.ascii	"\227v!,\335{\030\255\205$\"\270\300\221\2256A\362\256"
  90      DD7B18AD 
  90      852422B8 
  90      C0919536 
  90      41F2AE
  91 00fd FD32725C 		.ascii	"\3752r\\\361\014\301\333<,Y1\3052w\305Z=\262\037\326"
  91      F10CC1DB 
  91      3C2C5931 
  91      C53277C5 
  91      5A3DB21F 
  92 0112 F2CCF7B8 		.ascii	"\362\314\367\270\037^\332\331\017k\314\333\017+\367"
  92      1F5EDAD9 
  92      0F6BCCDB 
  92      0F2BF7
  93 0121 7FCAB117 		.ascii	"\177\312\261\0275\361jJ\023M\006\317\243\350ffp7!\267"
  93      35F16A4A 
  93      134D06CF 
  93      A3E86666 
  93      703721B7 
  94 0135 315F10CC 		.ascii	"1_\020\3141k\317\304\227\004\361\336\336\211/\013\342"
  94      316BCFC4 
  94      9704F1DE 
  94      DE892F0B 
  94      E2
ARM GAS  /tmp/ccZLOnkl.s 			page 7


  95 0146 F8AEBAB3 		.ascii	"\370\256\272\263\215\370\212 \376\261G\242\305\3405"
  95      8DF88A20 
  95      FEB147A2 
  95      C5E035
  96 0155 41CCFD47 		.ascii	"A\314\375Gw\362\351?\331\352\214\375\023\373ymk\270"
  96      77F2E93F 
  96      D9EA8CFD 
  96      13FB796D 
  96      6BB8
  97 0167 156E2837 		.ascii	"\025n(7I\264\031\034\227\036\322w\330N\027\254\330\326"
  97      49B4191C 
  97      971ED277 
  97      D84E17AC 
  97      D8D6
  98 0179 61704AD8 		.ascii	"apJ\330\256\246\037\225\261\245\007\007\212\355]\006"
  98      AEA61F95 
  98      B1A50707 
  98      8AED5D06 
  99 0189 1DC23E9F 		.ascii	"\035\302>\237\376\241\274\275K\267\015G\020:\361\026"
  99      FEA1BCBD 
  99      4BB70D47 
  99      103AF116 
 100 0199 B602239C 		.ascii	"\266\002#\234\302\0260\024\232\204\031BK\241M8M\350"
 100      C2163014 
 100      9A841942 
 100      4BA14D38 
 100      4DE8
 101 01ab 28740967 		.ascii	"(t\011g\011=\205\001\3029\302 v\342<\371\013\021\336"
 101      093D8501 
 101      C239C220 
 101      76E23CF9 
 101      0B11DE
 102 01be 240CA3F4 		.ascii	"$\014\243\364\037!\375\004\351\243\204\337\021V*\277"
 102      1F21FD04 
 102      E9A384DF 
 102      11562ABF 
 103 01ce 552A5EB5 		.ascii	"U*^\265\362S\243\374\327\022N\022\326)\273z\245o \274"
 103      F253A3FC 
 103      D7124E12 
 103      D629BB7A 
 103      A56F20BC 
 104 01e2 4ED8A878 		.ascii	"N\330\250xM\312\276Y\325\021Sy\034 \274A\330B\370%\341"
 104      4DCABE59 
 104      D5115379 
 104      1C20BC41 
 104      D842F825 
 105 01f7 41C2AF08 		.ascii	"A\302\257\010[\011\277&<D\370\015a\033a\232\220.\013"
 105      5B09BF26 
 105      3C44F80D 
 105      611B619A 
 105      902E0B
 106 020a 4653A90A 		.ascii	"FS\251\012\247\027\225k\031X\272\227\301e\3522@\227"
 106      A717956B 
 106      1958BA97 
 106      C165EA32 
 106      4097
 107 021c DA7AA739 		.ascii	"\332z\2479\322F\355\240\326\022\032wa\361\021\3463u"
ARM GAS  /tmp/ccZLOnkl.s 			page 8


 107      D246EDA0 
 107      D6121A77 
 107      61F111E6 
 107      3375
 108 022e 9DF8235A 		.ascii	"\235\370#Z\220\300 \357\272A}\365\257\016\376N\336b"
 108      90C020EF 
 108      BA417DF5 
 108      AF0EFE4E 
 108      DE62
 109 0240 C6122CBC 		.ascii	"\306\022,\274\261\236\271\216\322\364\031\37065\212"
 109      B19EB98E 
 109      D2F419F8 
 109      36358A
 110 024f 49F48C2F 		.ascii	"I\364\214/\340s\302\000K`\250VL\011`\234\363\317\352"
 110      E073C200 
 110      4B60A856 
 110      4C09609C 
 110      F3CFEA
 111 0262 459BC0B0 		.ascii	"E\233\300\260\366D\323\234\260e\320\215\314G%A\315m"
 111      F644D39C 
 111      B065D08D 
 111      CC472541 
 111      CD6D
 112 0274 412D8035 		.ascii	"A-\2005\024A73\227w\037\023w\304\264E\241K0rv1{Y\207"
 112      14413733 
 112      97771F13 
 112      77C4B445 
 112      A14B3072 
 113 028d 8CC46126 		.ascii	"\214\304a&U\221\304\240I\256\256\320C\210}\012\177\245"
 113      5591C4A0 
 113      49AEAED0 
 113      43887D0A 
 113      7FA5
 114 029f 6A9218C6 		.ascii	"j\222\030\306^\371E\311\035s'(\334\005\375\334\310\325"
 114      5EF945C9 
 114      1D732728 
 114      DC05FDDC 
 114      C8D5
 115 02b1 BA71497B 		.ascii	"\272qI{\212\2223\200_\305\221\344\022\331u\222\013\341"
 115      8A923380 
 115      5FC591E4 
 115      12D97592 
 115      0BE1
 116 02c3 72F60E6A 		.ascii	"r\366\016j\371\2548(I\224u\222r\334\322\252\351R\325"
 116      F9AC3828 
 116      49947592 
 116      72DCD2AA 
 116      E952D5
 117 02d6 6D43AB32 		.ascii	"mC\2532\245\252\036\255\231*\325\344\262\027\264nN\351"
 117      A5AA1EAD 
 117      992AD5E4 
 117      B217B46E 
 117      4EE9
 118 02e8 ACA28E3A 		.ascii	"\254\242\216:\200\364\225J\235\270\2321V\263\357\353"
 118      80F4954A 
 118      9DB89A31 
 118      56B3EFEB 
ARM GAS  /tmp/ccZLOnkl.s 			page 9


 119 02f8 022A1328 		.ascii	"\002*\023(\326WD\014\240\270\220\214(\244\222WL\224"
 119      D657440C 
 119      A0B8908C 
 119      28A49257 
 119      4C94
 120 030a FC61CDA8 		.ascii	"\374a\315\250J\240Q\2361%\030U\212\261\236=\257)\325"
 120      4AA0519E 
 120      31251855 
 120      8AB19E3D 
 120      AF29D5
 121 031d 09F4CA53 		.ascii	"\011\364\312Sf\005\245ZQ6\012Aj\022\350\224gL\013F\215"
 121      6605A55A 
 121      51360A41 
 121      6A12E894 
 121      674C0B46 
 122 0332 60CC1B9B 		.ascii	"`\314\033\233\376Pk\023\210\362(\245\370\320\3041\033"
 122      FE506B13 
 122      88F228A5 
 122      F8D0C431 
 122      1B
 123 0343 330A5AA9 		.ascii	"3\012Z\251*\276:h\257\340\357-\274%\263\306\342\364"
 123      2ABE3A68 
 123      AFE0EF2D 
 123      BC25B3C6 
 123      E2F4
 124 0355 056D5A47 		.ascii	"\005mZGUK\353h\331\226\324i\272\347\323s\323\205\363"
 124      554BEB68 
 124      D996D469 
 124      BAE7D373 
 124      D385F3
 125 0368 5C2FEA8D 		.ascii	"\\/\352\215\226\253\263^3\003r\030dA\251j\255+(B \003"
 125      96ABB35E 
 125      33037218 
 125      6441A96A 
 125      AD2B2842 
 126 037e 99AAC8D5 		.ascii	"\231\252\310\325\351B\221\015~\221)\266\263\312\206"
 126      E942910D 
 126      7E9129B6 
 126      B3CA86
 127 038d D22A57C0 		.ascii	"\322*W\300\244\204]\252\216\212\362h\356+\340R~.\015"
 127      A4845DAA 
 127      8E8AF268 
 127      EE2BE052 
 127      7E2E0D
 128 03a0 87D2F128 		.ascii	"\207\322\361(m\236N\320/$\357\367\241\221fY\276\017"
 128      6D9E4ED0 
 128      2F24EFF7 
 128      A1916659 
 128      BE0F
 129 03b2 72D08DBA 		.ascii	"r\320\215\272\232\220O\337\360\373\320$\246\030-7\275"
 129      9A904FDF 
 129      F0FBD024 
 129      A6182D37 
 129      BD
 130 03c3 26CD0C6F 		.ascii	"&\315\014o\357\203\324\332~\037d \246\216\307\246\237"
 130      EF83D4DA 
 130      7E1F6420 
ARM GAS  /tmp/ccZLOnkl.s 			page 10


 130      A68EC7A6 
 130      9F
 131 03d4 5BB3EA43 		.ascii	"[\263\352CD\274\240\305\021\370b%\275\240\014\347\012"
 131      44BCA0C5 
 131      11F86225 
 131      BDA00CE7 
 131      0A
 132 03e5 2F600263 		.ascii	"/`\002c\011\014\310\227\242\2242'\242\304d\277h\253"
 132      090CC897 
 132      A2943227 
 132      A2C464BF 
 132      68AB
 133 03f7 3406F3BC 		.ascii	"4\006\363\274_U\241<\357\227Mu\0047x\277\232B\033\262"
 133      5F55A13C 
 133      EF974D75 
 133      043778BF 
 133      9A421BB2 
 134 040b 5F14957E 		.ascii	"_\024\225~\217\026\322\226\374\200\237\266\234\247\347"
 134      8F16D296 
 134      FC809FB6 
 134      9CA7E7
 135 041a 0B64614E 		.ascii	"\013daN\351\200\255\322J\015_ \353@>\342\321\207\230"
 135      E980ADD2 
 135      4A0D5F20 
 135      EB403EE2 
 135      D18798
 136 042d CB46741D 		.ascii	"\313Ft\035\252\010\247h\306H\013\317\246\217\3460\265"
 136      AA08A768 
 136      C6480BCF 
 136      A68FE630 
 136      B5
 137 043e 68050CBD 		.ascii	"h\005\014\275\027\354\345,\035f\026\306\025\260\012"
 137      17ECE52C 
 137      1D6616C6 
 137      15B00A
 138 044d B2DB069D 		.ascii	"\262\333\006\235,.r\012\242q\213\272\316E^A\364\204"
 138      2C2E720A 
 138      A2718BBA 
 138      CE455E41 
 138      F484
 139 045f 442E1705 		.ascii	"D.\027\005\364\"\261i\301P\227\302O,\336\202\250\332"
 139      F422B169 
 139      C15097C2 
 139      4F2CDE82 
 139      A8DA
 140 0471 AB0B67F8 		.ascii	"\253\013g\370\357W\235\333\201\177]\322 v4\3637)\235"
 140      EF579DDB 
 140      817F5DD2 
 140      207634F3 
 140      37299D
 141 0484 EDB4A3B9 		.ascii	"\355\264\243\271-D\027\035\020\007i\314\323\362\203"
 141      2D44171D 
 141      100769CC 
 141      D3F283
 142 0493 42E570F9 		.ascii	"B\345p\371\302\211\337\214]|\031\\*\216C\016\004\365"
 142      C289DF8C 
 142      5D7C195C 
ARM GAS  /tmp/ccZLOnkl.s 			page 11


 142      2A8E430E 
 142      04F5
 143 04a5 4CAE28CF 		.ascii	"L\256(\317\326]\344i\374C\236\207\210.FW\222g\233Py"
 143      D65DE469 
 143      FC439E87 
 143      882E4657 
 143      92679B50 
 144 04ba 7BCED3D0 		.ascii	"{\316\323\320y\266\001\334\007\244\237_\222\252\257"
 144      79B601DC 
 144      07A49F5F 
 144      92AAAF
 145 04c9 D3FC103C 		.ascii	"\323\374\020<py9\307\332\333\343\362\177`(\336\323\335"
 145      707939C7 
 145      DADBE3F2 
 145      7F6028DE 
 145      D3DD
 146 04db 17BF3830 		.ascii	"\027\27780\370\361P\374\355wN=\367l\374\344\311W\343"
 146      F8F150FC 
 146      ED774E3D 
 146      F76CFCE4 
 146      C957E3
 147 04ee AFBF75E2 		.ascii	"\257\277u\342\315O\216\305/v\367u\365\365\235kO\000"
 147      CD4F8EC5 
 147      2F76F775 
 147      F5F59D6B 
 147      4F00
 148 0500 EBEF61FD 		.ascii	"\353\357a\375}Fb\260\207n\302\363\037`\257\311Yf\177"
 148      7D4662B0 
 148      876EC2F3 
 148      1F60AFC9 
 148      59667F
 149 0513 F7D08766 		.ascii	"\367\320\207f\377\300\271\344\337[\246\257\031"
 149      FFC0B9E4 
 149      DF5BA6AF 
 149      19
 150              		.text
 151              		.section	.gnu.lto_.cgraph.bcf5d0db02025f6c,"",%progbits
 152 0000 789C6362 		.ascii	"x\234cb`d`f``\220c\200\002\246C\214\365\014\014\023"
 152      60646066 
 152      60609063 
 152      8002A643 
 152      8CF50C0C 
 153 0015 CE31D4D7 		.ascii	"\3161\324\327\317\353`d:\314X\317\010\3471\000\000\224"
 153      CFEB6064 
 153      3ACC58CF 
 153      08E73100 
 153      0094
 154 0027 2709B5   		.ascii	"'\011\265"
 155              		.text
 156              		.section	.gnu.lto_.vars.bcf5d0db02025f6c,"",%progbits
 157 0000 789C6362 		.ascii	"x\234cb`d`f```g\200\000\306#\214\014,\365\314\000\006"
 157      60646066 
 157      60606067 
 157      8000C623 
 157      8C0C2CF5 
 158 0017 AD015A   		.ascii	"\255\001Z"
 159              		.text
ARM GAS  /tmp/ccZLOnkl.s 			page 12


 160              		.section	.gnu.lto_.refs.bcf5d0db02025f6c,"",%progbits
 161 0000 789C6362 		.ascii	"x\234cb`d`f```c\200\000FFF \011\000\000\357\000\020"
 161      60646066 
 161      60606063 
 161      80004646 
 161      46200900 
 162              		.text
 163              		.section	.gnu.lto_.statics.bcf5d0db02025f6c,"",%progbits
 164 0000 789C6362 		.ascii	"x\234cb`d`b\300\016@\342\214\020&\000\000\375\000\011"
 164      60646062 
 164      C00E40E2 
 164      8C102600 
 164      00FD0009 
 165              		.text
 166              		.section	.gnu.lto_.decls.bcf5d0db02025f6c,"",%progbits
 167 0000 789CAD58 		.ascii	"x\234\255X}L\024G\024\237\331=\3568@\024S-\232\246b"
 167      7D4C1447 
 167      149FD93D 
 167      EE384014 
 167      532D9AA6 
 168 0015 539AC614 		.ascii	"S\232\306\024V>\2426\255I\341\260`\212J\016\372\347"
 168      563EA236 
 168      AD49E1B0 
 168      608A4A0E 
 168      FAE7
 169 0027 E67A7C5F 		.ascii	"\346z|_\012\034\205\245\265\377m\301Zb+R\243Fcl1J=m"
 169      0A1C85A5 
 169      B5FF6DC1 
 169      5A622B52 
 169      A346636C 
 170 003f C58F8692 		.ascii	"\305\217\206\222\032\203$\245j\220X\214\0305\322\026"
 170      1A8324A5 
 170      6A90588C 
 170      1835D216 
 171 004f 0362D2D2 		.ascii	"\003b\322\3224Q\332\330T\274\276\231\335\235\333=w\271"
 171      3451DAD8 
 171      54BCBE99 
 171      DD9DDB3D 
 171      77B9
 172 0061 3BEBE4DE 		.ascii	";\353\344\336\354\334\3337\277\371\315\2747o\346\216"
 172      ECDCDB37 
 172      BFF9CDBC 
 172      376FE68E 
 173 0071 431891F2 		.ascii	"C\030\221\362\012<\202P\366,B\250\220C\210\007\335Z"
 173      0A3C8250 
 173      F62C42A8 
 173      90438807 
 173      DD5A
 174 0083 10F2D681 		.ascii	"\020\362\326\201\224\002j\324\005rA\325\337C\306B\336"
 174      94026AD4 
 174      057241D5 
 174      DF43C642 
 174      DE
 175 0094 25A9F6C9 		.ascii	"%\251\366\311j\373\020\310\025\220Y\220\305\320\351"
 175      6AFB10C8 
 175      15905990 
 175      C5D0E9
ARM GAS  /tmp/ccZLOnkl.s 			page 13


 176 00a3 59905490 		.ascii	"Y\220T\220\303\360\375\022\310m\325.\031t\307\340y\022"
 176      C3F0FD12 
 176      C86DD52E 
 176      1974C7E0 
 176      7912
 177 00b5 E43A481F 		.ascii	"\344:H\037\310U\220^\220\021\2203 gA\372A\006\324\361"
 177      C855905E 
 177      90119033 
 177      206741FA 
 177      4106D4F1 
 178 00c9 BBD0E385 		.ascii	"\273\320\343\205p\233\257\276\3278\020>\247@\342@\206"
 178      709BAFBE 
 178      D738103E 
 178      A740E240 
 178      86
 179 00da 402640EE 		.ascii	"@&@\356\252\274\010\207\031\220\373 K\240\223\015)r"
 179      AABC0887 
 179      1990FB20 
 179      4BA0930D 
 179      2972
 180 00ec 13E496CA 		.ascii	"\023\344\226\312aD\305\263\232\3672\364\205\3345\336"
 180      6144C5B3 
 180      9AF732F4 
 180      85DC35DE 
 181 00fc D926173D 		.ascii	"\331&\027=\010\006\035\213\321n\031J\327VY\306\222\210"
 181      08061D8B 
 181      D16E194A 
 181      D75659C6 
 181      9288
 182 010e D72E424B 		.ascii	"\327.BK\220\210\223\235\010\245\321V\222S\031\001A\373"
 182      9088939D 
 182      08A5D156 
 182      92531901 
 182      41FB
 183 0120 205E4C5B 		.ascii	" ^L[<][\224\210\266\311r+\351Zt1y!\372\234\342\000\314"
 183      3C5D5B94 
 183      88B6C972 
 183      2BE95A74 
 183      317921FA 
 184 0138 45988906 		.ascii	"E\230\211\0062\3163\224\327\241K::,\313\235`\207U\373"
 184      32CE3394 
 184      D7A14B3A 
 184      3A2CCB9D 
 184      608755FB 
 185 014c B4398C45 		.ascii	"\2649\214E\334\215\323Q\024\206\304\364\010 \256@Ge"
 185      DC8DD351 
 185      1486C4F4 
 185      0820AE40 
 185      4765
 186 015e 5A942051 		.ascii	"Z\224 Qc\005\310\322a\351\013\305\220t\010\340\025h"
 186      6305C8D2 
 186      61E90BC5 
 186      907408E0 
 186      1568
 187 0170 AAFDDB61 		.ascii	"\252\375\333al\342\226\270\345\010&B\210\026\331\315"
 187      6CE296B8 
 187      E5082642 
ARM GAS  /tmp/ccZLOnkl.s 			page 14


 187      8816D9CD 
 188 0180 C67F870D 		.ascii	"\306\177\207\015\237d\230\224\210\277\006t\016\275\206"
 188      9F649894 
 188      88BF0674 
 188      0EBD86
 189 018f D5011E7E 		.ascii	"\325\001\036~\240\000F\006!\224z\240\263\322OO\270G"
 189      A0004606 
 189      21947AA0 
 189      B3D24F4F 
 189      B847
 190 01a1 4778B0CF 		.ascii	"Gx\260\317nB\227\247t[\211K\355N\324\036r\012\262p\246"
 190      6E4297A7 
 190      745B894B 
 190      ED4ED41E 
 190      720AB270 
 191 01b6 9EF129EC 		.ascii	"\236\361)\354\004\306\0335\306\375\333\257\234\027\220"
 191      04C61B35 
 191      C6FDDBAF 
 191      9C1790
 192 01c5 4AC8E1D4 		.ascii	"J\310\341\324\017C\277+V\012\260\362Zk\221\3758\237"
 192      0F43BF2B 
 192      560AB0F2 
 192      5A6B91FD 
 192      389F
 193 01d7 ACF630C6 		.ascii	"\254\3660\306\352d\246\002\177>c\316@k+E\263Q\213n:"
 193      EA64A602 
 193      7F3E63CE 
 193      406B2B45 
 193      B3518B6E 
 194 01ec 1ABF1186 		.ascii	"\032\277\021\2069\351\210\0051\315\022q\224!\316D@\214"
 194      39E98805 
 194      31CD1271 
 194      9421CE44 
 194      408C
 195 01fe 37E3F878 		.ascii	"7\343\370x\321\373O\304' ty\021\237\304\313\341K/\255"
 195      D1FB4FC4 
 195      27207479 
 195      119FC4CB 
 195      E14B2FAD 
 196 0212 FBA0465A 		.ascii	"\373\240FZH\336\240\303\223`\034\3357\205\315c\"\362"
 196      48DEA0C3 
 196      93601CDD 
 196      3785CD63 
 196      22F2
 197 0224 222921AA 		.ascii	"\")!\252\205\335\257\014sr\311\334\210\306)\245Y\"N"
 197      85DDAF0C 
 197      7372C9DC 
 197      88C629A5 
 197      59224E
 198 0237 31C49908 		.ascii	"1\304\231\010\210\251Qr\374\203!\016.\235\0331-J\216"
 198      88A95172 
 198      FC83210E 
 198      2E9D1B31 
 198      2D4A8E
 199 024a 330C712C 		.ascii	"3\014q,\002\342\3129\034\251\371\355(\370-N\304\307"
 199      02E2CA39 
 199      1CA9F9ED 
ARM GAS  /tmp/ccZLOnkl.s 			page 15


 199      28F82D4E 
 199      C4C7
 200 025c A8C7CED0 		.ascii	"\250\307\316\320\372,\255\373i=\240\367\341\277X\333"
 200      FA2CADFB 
 200      693DA0F7 
 200      E1BF58DB 
 201 026c 35D3FB93 		.ascii	"5\323\373\2235\030%\277\350p\217\260\250@Q\"[g\340C"
 201      351825BF 
 201      E8708FB0 
 201      A8405122 
 201      5B67E043 
 202 0280 38513382 		.ascii	"8Q3\202\255[\3063*\037s\032\225\236\356\357\317\253"
 202      AD5BC633 
 202      2A1F731A 
 202      959EEEEF 
 202      CFAB
 203 0292 49E24574 		.ascii	"I\342EtH\226w\222\250Wzr\350Gj\326\205\227\241\033N"
 203      48967792 
 203      A8577A72 
 203      E8476AD6 
 203      8597A11B 
 204 02a7 8B51D441 		.ascii	"\213Q\324A^B\335$\377\014\264\246\322C\001\251\335j"
 204      5E42DD24 
 204      FF0CB4A6 
 204      D24301A9 
 204      DD6A
 205 02b9 0D53FB01 		.ascii	"\015S\373\001s\372\271>\371\311r1\362\311b<\0000\203"
 205      73FAB93E 
 205      F9C97231 
 205      F2C9623C 
 205      003083
 206 02cc 780E19F3 		.ascii	"x\016\031\363\331%\032\024\303l=\246\216_\013\256Q\370"
 206      D9251A14 
 206      C36C3DA6 
 206      8E5F0BAE 
 206      51F8
 207 02de 458144C8 		.ascii	"E\201D\310\\6M\303\227uixxv\")<\200\2408Htni\013\345"
 207      5C364DC3 
 207      97756978 
 207      78762229 
 207      3C80A038 
 208 02f8 E1B60879 		.ascii	"\341\266\010yX\304\247!\334\242\315\253A:'\302clv\342"
 208      58C4A721 
 208      DCA2CDAB 
 208      413A27C2 
 208      636C76E2 
 209 030c 49F3AA4A 		.ascii	"I\363\252JO\304Wh\026l\3435\314\311Y\376\011\023k\030"
 209      4FC45768 
 209      166CE335 
 209      CCC959FE 
 209      09136B18 
 210 0320 E4270C72 		.ascii	"\344'\014r:\022\244if5\201\374\224A\316\304\006i\315"
 210      3A12A469 
 210      663581FC 
 210      9441CEC4 
 210      0669CD
 211 0333 7207837C 		.ascii	"r\007\203|\030\011rA\224,w1\310\301G1AZ\263\334\313"
ARM GAS  /tmp/ccZLOnkl.s 			page 16


 211      18097241 
 211      942C7731 
 211      C8C14731 
 211      415AB3DC 
 212 0348 20872341 		.ascii	" \207#A\232&\340\307\213>\274E\374\023\204\237C\304"
 212      9A26E0C7 
 212      8B3EBC45 
 212      FC13849F 
 212      43C4
 213 035a 2334035D 		.ascii	"#4\003]\245\3655Z_\247\365MZ\337\242\365\317\221\362"
 213      A5F5355A 
 213      5FA7F54D 
 213      5ADFA2F5 
 213      CF91F2
 214 036d 937E130E 		.ascii	"\223~\023\016\321ls\200g\2330pnPMV\206\275\255lW\353"
 214      D16C7380 
 214      679B3070 
 214      6E504D56 
 214      86BDAD6C 
 215 0383 BC701B70 		.ascii	"\274p\033p\264\235\021>\217\260w\274\232;b\276\000M"
 215      B49D113E 
 215      8FB077BC 
 215      9A3B62BE 
 215      004D
 216 0395 D0950E30 		.ascii	"\320\225\0160\256\323\007\216am\014rU0\014\032\315N"
 216      AED3078E 
 216      616D0C72 
 216      55300C1A 
 216      CD4E
 217 03a7 65692C66 		.ascii	"ei,f*w)\225^Fe\364\371\377I\304pF\364\363\2413b\367"
 217      2A772995 
 217      5E4665F4 
 217      F9FF49C4 
 217      7046F4F3 
 218 03bf 90C919A1 		.ascii	"\220\311\031\241xm\224\232]\200d\377\300\342\214\340"
 218      786D949A 
 218      5D8064FF 
 218      C0E28CE0 
 219 03cf F49D94E5 		.ascii	"\364\235\224\345\273\311:\215\005\2468\313\243\205\030"
 219      BBC93A8D 
 219      05A638CB 
 219      A38518
 220 03de 1B865466 		.ascii	"\033\206Tf\374\013\353=\031\370\316\27271F\012M\263"
 220      FC0BEB3D 
 220      19F8CEBA 
 220      3731460A 
 220      4DB3
 221 03f0 F389F41F 		.ascii	"\363\211\364\037\015,5,\323o\306\023\352\005tP\036\031"
 221      0D2C352C 
 221      D36FC613 
 221      EA057450 
 221      1E19
 222 0402 21D787D6 		.ascii	"!\327\207\326\361`pY\012\352\244\007\302\336d\325U\343"
 222      F1607059 
 222      0AEAA407 
 222      C2DE64D5 
 222      55E3
ARM GAS  /tmp/ccZLOnkl.s 			page 17


 223 0414 DD03A97B 		.ascii	"\335\003\251{u\256\212g\024\260\301U\314\\\236\303\\"
 223      75AE8A67 
 223      14B0C155 
 223      CC5C9EC3 
 223      5C
 224 0425 C47FD1EC 		.ascii	"\304\177\321\354\216\215\256\302\314U\244\025\304\304"
 224      8E8DAEC2 
 224      CC55A415 
 224      C4C4
 225 0433 3513CC35 		.ascii	"5\023\3145\375\333{g9\215}\270\323#\"iD:C\247\232r\033"
 225      FDDB7B67 
 225      398D7DB8 
 225      D3232269 
 225      443A43A7 
 226 044a 09CD54C4 		.ascii	"\011\315T\304\177\203\265\245\241\210\037\340\024\304"
 226      7F83B5A5 
 226      A1881FE0 
 226      14C4
 227 0458 A257661B 		.ascii	"\242Wf\0335\3119\307>\375Ge\032:+\264V\212a\002\232"
 227      35C939C7 
 227      3EFD4765 
 227      1A3A2BB4 
 227      568A6102 
 228 046d 1D4CF977 		.ascii	"\035L\371w\346\363\236\356\375Ck,\011q\350\036\257\354"
 228      E6F39EEE 
 228      FD436B2C 
 228      0971E81E 
 228      AFEC
 229 047f C71C745A 		.ascii	"\307\034tZn\177C\304\367\201\340\302P\242\323\346oc"
 229      6E7F43C4 
 229      F781E0C2 
 229      50A2D3E6 
 229      6F63
 230 0491 FC30D371 		.ascii	"\3740\323qL\307\231\330\361L\027\317t6\023]\\\330j\023"
 230      4CC799D8 
 230      F14C17CF 
 230      7436135D 
 230      5CD86A13 
 231 04a5 9D9DE978 		.ascii	"\235\235\351x\246s0\235#,$\214xN\023]\202\211.\321D"
 231      A673309D 
 231      232C248C 
 231      784E135D 
 231      82892ED1 
 232 04ba 9764A29B 		.ascii	"\227d\242\233g\242K6\321\3157\321-`\272D\246Ka:\222"
 232      67A24B36 
 232      D1CD37D1 
 232      2D60BA44 
 232      A64B613A 
 233 04cf 44CC6E4D 		.ascii	"D\314nM\003\034\363\322\313a9l\226\336\277\036\205R"
 233      031CF3D2 
 233      CB61396C 
 233      96DEBF1E 
 233      8552
 234 04e1 FFF1DEAF 		.ascii	"\377\361\336\257^U\234\036\005\022\011\022\2313\273"
 234      5E559C1E 
 234      05120912 
 234      9933BB
ARM GAS  /tmp/ccZLOnkl.s 			page 18


 235 04f0 7F11AD76 		.ascii	"\177\021\255v\377\232\354\270cv\377J09A\267\331\260"
 235      FF9AECB8 
 235      6376FF4A 
 235      303941B7 
 235      D9B0
 236 0502 0A39D371 		.ascii	"\0129\323q\347)]\232\2663\314\207\035qO\347\322\264"
 236      E7295D9A 
 236      B633CC87 
 236      1D714FE7 
 236      D2B4
 237 0514 93410EEE 		.ascii	"\223A\016\356\210\000\031\355\245i\017\203\034\216\015"
 237      880019ED 
 237      A5690F83 
 237      1C8E0D
 238 0523 D29AE597 		.ascii	"\322\232\345\227\014r4\022d\264\227\246\000\203\034"
 238      0C723412 
 238      64B497A6 
 238      00831C
 239 0532 8B0DD29A 		.ascii	"\213\015\322\232\345\011\0069\031\011\322\362Wk\030"
 239      E5090639 
 239      1909D2F2 
 239      576B18
 240 0541 641F839C 		.ascii	"d\037\203\234\216\015\322\232\345\271P`F\202L\213\222"
 240      8E0DD29A 
 240      E5B95060 
 240      46824C8B 
 240      92
 241 0552 E560282E 		.ascii	"\345`(.c\203L3\331L\264\3507\243\210?\342\322Q\202\210"
 241      63834C33 
 241      D94CB4E8 
 241      37A3883F 
 241      E2D25182 
 242 0567 5B39721F 		.ascii	"[9r\037\334B\353\255\264n\247\3656Z\177F\353\016Zw\322"
 242      DC42EBAD 
 242      B46EA7F5 
 242      365A7F46 
 242      EB0E5A77 
 243 057c 7A27AD77 		.ascii	"z'\255wq\354\376\030v\005\234\235\363\012\270\207c?"
 243      71ECFE18 
 243      76059C9D 
 243      F30AB887 
 243      633F
 244 058e 79D97D6A 		.ascii	"y\331}j\340)\375\246\262\370\323\322\370\357\201\210"
 244      E029FDA6 
 244      B2F8D3D2 
 244      F8EF8188 
 245 059e BFA1803D 		.ascii	"\277\241\200=\272\337\361\326\377\354\204\315\215\234"
 245      BADFF1D6 
 245      FFEC84CD 
 245      8D9C
 246 05ac 55D673DB 		.ascii	"U\326s\333\027\232\033\262\027n|;\315\205\26223\005"
 246      179A1BB2 
 246      176E7C3B 
 246      CD85B232 
 246      3305
 247 05be E5E36F16 		.ascii	"\345\343o\026j\275uB\243\277Ij\026J\3136\344d\013\305"
 247      6ABD7542 
ARM GAS  /tmp/ccZLOnkl.s 			page 19


 247      A3BF496A 
 247      164ACB36 
 247      E4640BC5 
 248 05d2 C5054261 		.ascii	"\305\005Ba\311\372M\357g\011\215\336:O]]ef-Z\330,\325"
 248      C9FA4DEF 
 248      67098DDE 
 248      3A4F5D5D 
 248      65662D5A 
 249 05e9 E7647B6A 		.ascii	"\347d{j\032}~Os\225\324\322\350\221\342[|\015\022\350"
 249      1A7D7E4F 
 249      7395D4D2 
 249      E891E25B 
 249      7C0D12E8 
 250 05fd 2449F037 		.ascii	"$I\3607JB\236{\203PSQ\221\341m\252\317h\3607TeTy\313"
 250      4A429E7B 
 250      83505351 
 250      91E16DAA 
 250      CF68F037 
 251 0616 7D19B99E 		.ascii	"}\031\271\236\325\031\331+\263r\336\313\021\312}\015"
 251      D519D92B 
 251      B372DECB 
 251      11CA7D0D 
 252 0626 64C43A5F 		.ascii	"d\304:_9\261\023\014vBn\346\352\314\\\201\321\202\217"
 252      39B1130C 
 252      76426EE6 
 252      EACC5C81 
 252      D1828F
 253 0639 F1BDAFA1 		.ascii	"\361\275\257\241\242\256\245\262Jh\226*aT \304\373+"
 253      A2AEA5B2 
 253      4A68962A 
 253      615420C4 
 253      FB2B
 254 064b 9BF88AA6 		.ascii	"\233\370\212\246:\220Z{I^\201W\362\332K\362\225\207"
 254      3A905A7B 
 254      495E8157 
 254      F2DA4BF2 
 254      9587
 255 065d 4B791428 		.ascii	"Ky\024(\217u\344\341,\311+v\371\033\252}5\363<\352\254"
 255      8F75E4E1 
 255      2CC92B76 
 255      F91BAA7D 
 255      35F33CEA 
 256 0672 3CBE069F 		.ascii	"<\276\006\237\024\353JT {\005\205I\"/<e\0376V\025TU"
 256      14EB4A54 
 256      207B0585 
 256      49222F3C 
 256      651F3656 
 257 0689 A7EB51AA 		.ascii	"\247\353Q\2526K\202kC\351\372R@\021\350\262Ug\255\334"
 257      364B826B 
 257      43E9FA52 
 257      4011E8B2 
 257      5567ADDC 
 258 069d 4C28BBDC 		.ascii	"L(\273\334\305 E\374\372\0027\277\251\300m\313/u\273"
 258      C52045FC 
 258      FA0237BF 
 258      A9C06DCB 
 258      2F75BB
ARM GAS  /tmp/ccZLOnkl.s 			page 20


 259 06b0 F97CB7DB 		.ascii	"\371|\267\333V\354z\313\235\340\363\223\261}\225\036"
 259      56EC7ACB 
 259      9DE0F393 
 259      B17D951E 
 260 06c0 294969D6 		.ascii	")Ii\326{\233\337\205e\366\371\353\375\225U\036i\021"
 260      7B9BDF85 
 260      65F6F9EB 
 260      FD95551E 
 260      6911
 261 06d2 230E0EA8 		.ascii	"#\016\016\250i\362\2674\022\275\215X\332\210\251\215"
 261      69F2B734 
 261      12BD8D58 
 261      DA88A98D 
 262 06e2 7C7510A7 		.ascii	"|u\020\247\254\361H\366\212\352\032\311[\236\250<2W"
 262      ACF148F6 
 262      8AEA1AC9 
 262      5B9EA83C 
 262      3257
 263 06f4 E5AECA4A 		.ascii	"\345\256\312Jt\273\\\032a\316\345\266\271\336,t\363"
 263      74BB5C1A 
 263      61CEE5B6 
 263      B9DE2C74 
 263      F3
 264 0705 AEF5EEF8 		.ascii	"\256\365\356\370\274\222\374lwi\031md\221\206=\257("
 264      BC92FC6C 
 264      7769196D 
 264      6491863D 
 264      AF28
 265 0717 7FDD46B7 		.ascii	"\177\335F\267\203\274P\237Y\360\264\345\027\270\240"
 265      83BC509F 
 265      59F0B4E5 
 265      17B8A0
 266 0726 47A9FB3F 		.ascii	"G\251\373?\270\234\0308"
 266      B89C1838 
 267              		.text
 268              		.section	.gnu.lto_.symtab.bcf5d0db02025f6c,"",%progbits
 269 0000 5F70616C 		.ascii	"_pal_lld_init\000\000\000\000\000\000\000\000\000\000"
 269      5F6C6C64 
 269      5F696E69 
 269      74000000 
 269      00000000 
 270 0017 0000A000 		.ascii	"\000\000\240\000\000\000_pal_lld_setgroupmode\000\000"
 270      00005F70 
 270      616C5F6C 
 270      6C645F73 
 270      65746772 
 271 0034 00000000 		.ascii	"\000\000\000\000\000\000\000\000\000\000\307\000\000"
 271      00000000 
 271      0000C700 
 271      00
 272 0041 00       		.ascii	"\000"
 273              		.text
 274              		.section	.gnu.lto_.opts,"",%progbits
 275 0000 272D6D63 		.ascii	"'-mcpu=cortex-m3''-mno-thumb-interwork''-mthumb''-g"
 275      70753D63 
 275      6F727465 
 275      782D6D33 
ARM GAS  /tmp/ccZLOnkl.s 			page 21


 275      27272D6D 
 276 0033 67646227 		.ascii	"gdb''-O2''-fomit-frame-pointer''-falign-functions=1"
 276      272D4F32 
 276      27272D66 
 276      6F6D6974 
 276      2D667261 
 277 0066 3627272D 		.ascii	"6''-ffunction-sections''-fdata-sections''-fno-commo"
 277      6666756E 
 277      6374696F 
 277      6E2D7365 
 277      6374696F 
 278 0099 6E27272D 		.ascii	"n''-flto'\000"
 278      666C746F 
 278      2700
 279              		.text
 280              		.cfi_sections	.debug_frame
 281              		.section	.text._pal_lld_init,"ax",%progbits
 282              		.align	2
 283              		.p2align 4,,15
 284              		.global	_pal_lld_init
 285              		.thumb
 286              		.thumb_func
 287              		.type	_pal_lld_init, %function
 288              	_pal_lld_init:
 289              	.LFB194:
 290              		.file 1 "../../../os/hal/ports/STM32/LLD/GPIOv1/pal_lld.c"
 291              		.loc 1 76 0
 292              		.cfi_startproc
 293              		@ args = 0, pretend = 0, frame = 0
 294              		@ frame_needed = 0, uses_anonymous_args = 0
 295              		@ link register save eliminated.
 296              	.LVL0:
 297              		.loc 1 81 0
 298 0000 4FF48053 		mov	r3, #4096
 299 0004 C4F20203 		movt	r3, 16386
 300 0008 9A69     		ldr	r2, [r3, #24]
 301              		.loc 1 76 0
 302 000a 10B4     		push	{r4}
 303              	.LCFI0:
 304              		.cfi_def_cfa_offset 4
 305              		.cfi_offset 4, -4
 306              		.loc 1 81 0
 307 000c 42F07D01 		orr	r1, r2, #125
 308 0010 9961     		str	r1, [r3, #24]
 309              		.loc 1 86 0
 310 0012 0468     		ldr	r4, [r0, #0]
 311 0014 4FF40062 		mov	r2, #2048
 312 0018 C4F20102 		movt	r2, 16385
 313 001c D460     		str	r4, [r2, #12]
 314              		.loc 1 87 0
 315 001e 8168     		ldr	r1, [r0, #8]
 316              		.loc 1 89 0
 317 0020 4FF44063 		mov	r3, #3072
 318              		.loc 1 87 0
 319 0024 5160     		str	r1, [r2, #4]
 320              		.loc 1 88 0
 321 0026 4468     		ldr	r4, [r0, #4]
ARM GAS  /tmp/ccZLOnkl.s 			page 22


 322              		.loc 1 89 0
 323 0028 C4F20103 		movt	r3, 16385
 324              		.loc 1 88 0
 325 002c 1460     		str	r4, [r2, #0]
 326              		.loc 1 89 0
 327 002e C268     		ldr	r2, [r0, #12]
 328              		.loc 1 92 0
 329 0030 4FF48051 		mov	r1, #4096
 330              		.loc 1 89 0
 331 0034 DA60     		str	r2, [r3, #12]
 332              		.loc 1 90 0
 333 0036 4469     		ldr	r4, [r0, #20]
 334              		.loc 1 92 0
 335 0038 C4F20101 		movt	r1, 16385
 336              		.loc 1 90 0
 337 003c 5C60     		str	r4, [r3, #4]
 338              		.loc 1 91 0
 339 003e 0469     		ldr	r4, [r0, #16]
 340              		.loc 1 95 0
 341 0040 4FF4A052 		mov	r2, #5120
 342              		.loc 1 91 0
 343 0044 1C60     		str	r4, [r3, #0]
 344              		.loc 1 92 0
 345 0046 8369     		ldr	r3, [r0, #24]
 346              		.loc 1 95 0
 347 0048 C4F20102 		movt	r2, 16385
 348              		.loc 1 92 0
 349 004c CB60     		str	r3, [r1, #12]
 350              		.loc 1 93 0
 351 004e 046A     		ldr	r4, [r0, #32]
 352              		.loc 1 99 0
 353 0050 4FF4C053 		mov	r3, #6144
 354              		.loc 1 93 0
 355 0054 4C60     		str	r4, [r1, #4]
 356              		.loc 1 94 0
 357 0056 C469     		ldr	r4, [r0, #28]
 358              		.loc 1 99 0
 359 0058 C4F20103 		movt	r3, 16385
 360              		.loc 1 94 0
 361 005c 0C60     		str	r4, [r1, #0]
 362              		.loc 1 95 0
 363 005e 416A     		ldr	r1, [r0, #36]
 364 0060 D160     		str	r1, [r2, #12]
 365              		.loc 1 96 0
 366 0062 C16A     		ldr	r1, [r0, #44]
 367 0064 5160     		str	r1, [r2, #4]
 368              		.loc 1 97 0
 369 0066 816A     		ldr	r1, [r0, #40]
 370 0068 1160     		str	r1, [r2, #0]
 371              		.loc 1 99 0
 372 006a 026B     		ldr	r2, [r0, #48]
 373 006c DA60     		str	r2, [r3, #12]
 374              		.loc 1 100 0
 375 006e 816B     		ldr	r1, [r0, #56]
 376 0070 5960     		str	r1, [r3, #4]
 377              		.loc 1 101 0
 378 0072 406B     		ldr	r0, [r0, #52]
ARM GAS  /tmp/ccZLOnkl.s 			page 23


 379              	.LVL1:
 380 0074 1860     		str	r0, [r3, #0]
 381              		.loc 1 113 0
 382 0076 10BC     		pop	{r4}
 383 0078 7047     		bx	lr
 384              		.cfi_endproc
 385              	.LFE194:
 386              		.size	_pal_lld_init, .-_pal_lld_init
 387 007a 00BFAFF3 		.section	.text._pal_lld_setgroupmode,"ax",%progbits
 387      0080
 388              		.align	2
 389              		.p2align 4,,15
 390              		.global	_pal_lld_setgroupmode
 391              		.thumb
 392              		.thumb_func
 393              		.type	_pal_lld_setgroupmode, %function
 394              	_pal_lld_setgroupmode:
 395              	.LFB195:
 396              		.loc 1 132 0
 397              		.cfi_startproc
 398              		@ args = 0, pretend = 0, frame = 0
 399              		@ frame_needed = 0, uses_anonymous_args = 0
 400              		@ link register save eliminated.
 401              	.LVL2:
 402              		.loc 1 156 0
 403 0000 032A     		cmp	r2, #3
 404              		.loc 1 132 0
 405 0002 F0B4     		push	{r4, r5, r6, r7}
 406              	.LCFI1:
 407              		.cfi_def_cfa_offset 16
 408              		.cfi_offset 4, -16
 409              		.cfi_offset 5, -12
 410              		.cfi_offset 6, -8
 411              		.cfi_offset 7, -4
 412              		.loc 1 156 0
 413 0004 00F09980 		beq	.L38
 414              		.loc 1 158 0
 415 0008 042A     		cmp	r2, #4
 416              		.loc 1 159 0
 417 000a 08BF     		it	eq
 418 000c 4161     		streq	r1, [r0, #20]
 419              	.L4:
 420              		.loc 1 160 0
 421 000e 4C4B     		ldr	r3, .L39
 422              		.loc 1 167 0
 423 0010 01F08004 		and	r4, r1, #128
 424              		.loc 1 160 0
 425 0014 9B5C     		ldrb	r3, [r3, r2]	@ zero_extendqisi2
 426              	.LVL3:
 427              		.loc 1 167 0
 428 0016 002C     		cmp	r4, #0
 429              		.loc 1 171 0
 430 0018 01F40042 		and	r2, r1, #32768
 431              	.LVL4:
 432              		.loc 1 165 0
 433 001c 14BF     		ite	ne
 434 001e 1F46     		movne	r7, r3
ARM GAS  /tmp/ccZLOnkl.s 			page 24


 435 0020 0027     		moveq	r7, #0
 436 0022 14BF     		ite	ne
 437 0024 0026     		movne	r6, #0
 438 0026 0F26     		moveq	r6, #15
 439              	.LVL5:
 440              		.loc 1 171 0
 441 0028 002A     		cmp	r2, #0
 442              		.loc 1 166 0
 443 002a 14BF     		ite	ne
 444 002c 1D46     		movne	r5, r3
 445 002e 0025     		moveq	r5, #0
 446              	.LVL6:
 447              		.loc 1 175 0
 448 0030 4FEA4102 		lsl	r2, r1, #1
 449              	.LVL7:
 450              		.loc 1 163 0
 451 0034 4FEA0614 		lsl	r4, r6, #4
 452              	.LVL8:
 453              		.loc 1 164 0
 454 0038 0CBF     		ite	eq
 455 003a F026     		moveq	r6, #240
 456 003c 0026     		movne	r6, #0
 457              	.LVL9:
 458              		.loc 1 165 0
 459 003e 3901     		lsls	r1, r7, #4
 460              	.LVL10:
 461              		.loc 1 166 0
 462 0040 2D01     		lsls	r5, r5, #4
 463              	.LVL11:
 464              		.loc 1 167 0
 465 0042 12F0800F 		tst	r2, #128
 466              		.loc 1 170 0
 467 0046 14BF     		ite	ne
 468 0048 1943     		orrne	r1, r1, r3
 469              	.LVL12:
 470              		.loc 1 168 0
 471 004a 44F00F04 		orreq	r4, r4, #15
 472              	.LVL13:
 473              		.loc 1 171 0
 474 004e 12F4004F 		tst	r2, #32768
 475              		.loc 1 174 0
 476 0052 14BF     		ite	ne
 477 0054 1D43     		orrne	r5, r5, r3
 478              	.LVL14:
 479              		.loc 1 172 0
 480 0056 46F00F06 		orreq	r6, r6, #15
 481              	.LVL15:
 482              		.loc 1 175 0
 483 005a 5200     		lsls	r2, r2, #1
 484              	.LVL16:
 485              		.loc 1 163 0
 486 005c 2401     		lsls	r4, r4, #4
 487              	.LVL17:
 488              		.loc 1 164 0
 489 005e 3601     		lsls	r6, r6, #4
 490              	.LVL18:
 491              		.loc 1 165 0
ARM GAS  /tmp/ccZLOnkl.s 			page 25


 492 0060 0901     		lsls	r1, r1, #4
 493              	.LVL19:
 494              		.loc 1 166 0
 495 0062 2D01     		lsls	r5, r5, #4
 496              	.LVL20:
 497              		.loc 1 167 0
 498 0064 12F0800F 		tst	r2, #128
 499              		.loc 1 170 0
 500 0068 14BF     		ite	ne
 501 006a 1943     		orrne	r1, r1, r3
 502              	.LVL21:
 503              		.loc 1 168 0
 504 006c 44F00F04 		orreq	r4, r4, #15
 505              	.LVL22:
 506              		.loc 1 171 0
 507 0070 12F4004F 		tst	r2, #32768
 508              		.loc 1 174 0
 509 0074 14BF     		ite	ne
 510 0076 1D43     		orrne	r5, r5, r3
 511              	.LVL23:
 512              		.loc 1 172 0
 513 0078 46F00F06 		orreq	r6, r6, #15
 514              	.LVL24:
 515              		.loc 1 175 0
 516 007c 5200     		lsls	r2, r2, #1
 517              	.LVL25:
 518              		.loc 1 163 0
 519 007e 2401     		lsls	r4, r4, #4
 520              	.LVL26:
 521              		.loc 1 164 0
 522 0080 3601     		lsls	r6, r6, #4
 523              	.LVL27:
 524              		.loc 1 165 0
 525 0082 0901     		lsls	r1, r1, #4
 526              	.LVL28:
 527              		.loc 1 166 0
 528 0084 2D01     		lsls	r5, r5, #4
 529              	.LVL29:
 530              		.loc 1 167 0
 531 0086 12F0800F 		tst	r2, #128
 532              		.loc 1 170 0
 533 008a 14BF     		ite	ne
 534 008c 1943     		orrne	r1, r1, r3
 535              	.LVL30:
 536              		.loc 1 168 0
 537 008e 44F00F04 		orreq	r4, r4, #15
 538              	.LVL31:
 539              		.loc 1 171 0
 540 0092 12F4004F 		tst	r2, #32768
 541              		.loc 1 174 0
 542 0096 14BF     		ite	ne
 543 0098 1D43     		orrne	r5, r5, r3
 544              	.LVL32:
 545              		.loc 1 172 0
 546 009a 46F00F06 		orreq	r6, r6, #15
 547              	.LVL33:
 548              		.loc 1 175 0
ARM GAS  /tmp/ccZLOnkl.s 			page 26


 549 009e 5200     		lsls	r2, r2, #1
 550              	.LVL34:
 551              		.loc 1 163 0
 552 00a0 2401     		lsls	r4, r4, #4
 553              	.LVL35:
 554              		.loc 1 164 0
 555 00a2 3601     		lsls	r6, r6, #4
 556              	.LVL36:
 557              		.loc 1 165 0
 558 00a4 0901     		lsls	r1, r1, #4
 559              	.LVL37:
 560              		.loc 1 166 0
 561 00a6 2D01     		lsls	r5, r5, #4
 562              	.LVL38:
 563              		.loc 1 167 0
 564 00a8 12F0800F 		tst	r2, #128
 565              		.loc 1 170 0
 566 00ac 14BF     		ite	ne
 567 00ae 1943     		orrne	r1, r1, r3
 568              	.LVL39:
 569              		.loc 1 168 0
 570 00b0 44F00F04 		orreq	r4, r4, #15
 571              	.LVL40:
 572              		.loc 1 171 0
 573 00b4 12F4004F 		tst	r2, #32768
 574              		.loc 1 174 0
 575 00b8 14BF     		ite	ne
 576 00ba 1D43     		orrne	r5, r5, r3
 577              	.LVL41:
 578              		.loc 1 172 0
 579 00bc 46F00F06 		orreq	r6, r6, #15
 580              	.LVL42:
 581              		.loc 1 175 0
 582 00c0 5200     		lsls	r2, r2, #1
 583              	.LVL43:
 584              		.loc 1 163 0
 585 00c2 2401     		lsls	r4, r4, #4
 586              	.LVL44:
 587              		.loc 1 164 0
 588 00c4 3601     		lsls	r6, r6, #4
 589              	.LVL45:
 590              		.loc 1 165 0
 591 00c6 0901     		lsls	r1, r1, #4
 592              	.LVL46:
 593              		.loc 1 166 0
 594 00c8 2D01     		lsls	r5, r5, #4
 595              	.LVL47:
 596              		.loc 1 167 0
 597 00ca 12F0800F 		tst	r2, #128
 598              		.loc 1 170 0
 599 00ce 14BF     		ite	ne
 600 00d0 1943     		orrne	r1, r1, r3
 601              	.LVL48:
 602              		.loc 1 168 0
 603 00d2 44F00F04 		orreq	r4, r4, #15
 604              	.LVL49:
 605              		.loc 1 171 0
ARM GAS  /tmp/ccZLOnkl.s 			page 27


 606 00d6 12F4004F 		tst	r2, #32768
 607              		.loc 1 174 0
 608 00da 14BF     		ite	ne
 609 00dc 1D43     		orrne	r5, r5, r3
 610              	.LVL50:
 611              		.loc 1 172 0
 612 00de 46F00F06 		orreq	r6, r6, #15
 613              	.LVL51:
 614              		.loc 1 175 0
 615 00e2 5200     		lsls	r2, r2, #1
 616              	.LVL52:
 617              		.loc 1 163 0
 618 00e4 2401     		lsls	r4, r4, #4
 619              	.LVL53:
 620              		.loc 1 164 0
 621 00e6 3601     		lsls	r6, r6, #4
 622              	.LVL54:
 623              		.loc 1 165 0
 624 00e8 0901     		lsls	r1, r1, #4
 625              	.LVL55:
 626              		.loc 1 166 0
 627 00ea 2D01     		lsls	r5, r5, #4
 628              	.LVL56:
 629              		.loc 1 167 0
 630 00ec 12F0800F 		tst	r2, #128
 631              		.loc 1 170 0
 632 00f0 14BF     		ite	ne
 633 00f2 1943     		orrne	r1, r1, r3
 634              	.LVL57:
 635              		.loc 1 168 0
 636 00f4 44F00F04 		orreq	r4, r4, #15
 637              	.LVL58:
 638              		.loc 1 171 0
 639 00f8 12F4004F 		tst	r2, #32768
 640              		.loc 1 174 0
 641 00fc 14BF     		ite	ne
 642 00fe 1D43     		orrne	r5, r5, r3
 643              	.LVL59:
 644              		.loc 1 172 0
 645 0100 46F00F06 		orreq	r6, r6, #15
 646              	.LVL60:
 647              		.loc 1 175 0
 648 0104 5200     		lsls	r2, r2, #1
 649              	.LVL61:
 650              		.loc 1 163 0
 651 0106 2401     		lsls	r4, r4, #4
 652              	.LVL62:
 653              		.loc 1 164 0
 654 0108 3601     		lsls	r6, r6, #4
 655              	.LVL63:
 656              		.loc 1 165 0
 657 010a 0901     		lsls	r1, r1, #4
 658              	.LVL64:
 659              		.loc 1 166 0
 660 010c 2D01     		lsls	r5, r5, #4
 661              	.LVL65:
 662              		.loc 1 167 0
ARM GAS  /tmp/ccZLOnkl.s 			page 28


 663 010e 12F0800F 		tst	r2, #128
 664              		.loc 1 170 0
 665 0112 14BF     		ite	ne
 666 0114 1943     		orrne	r1, r1, r3
 667              	.LVL66:
 668              		.loc 1 168 0
 669 0116 44F00F04 		orreq	r4, r4, #15
 670              	.LVL67:
 671              		.loc 1 171 0
 672 011a 1204     		lsls	r2, r2, #16
 673              	.LVL68:
 674              		.loc 1 174 0
 675 011c 48BF     		it	mi
 676 011e 1D43     		orrmi	r5, r5, r3
 677              	.LVL69:
 678              		.loc 1 177 0
 679 0120 4368     		ldr	r3, [r0, #4]
 680              	.LVL70:
 681              		.loc 1 172 0
 682 0122 58BF     		it	pl
 683 0124 46F00F06 		orrpl	r6, r6, #15
 684              	.LVL71:
 685              		.loc 1 177 0
 686 0128 1E40     		ands	r6, r6, r3
 687              	.LVL72:
 688 012a 3543     		orrs	r5, r5, r6
 689              	.LVL73:
 690 012c 4560     		str	r5, [r0, #4]
 691              		.loc 1 178 0
 692 012e 0268     		ldr	r2, [r0, #0]
 693 0130 1440     		ands	r4, r4, r2
 694              	.LVL74:
 695 0132 2143     		orrs	r1, r1, r4
 696              	.LVL75:
 697 0134 0160     		str	r1, [r0, #0]
 698              		.loc 1 179 0
 699 0136 F0BC     		pop	{r4, r5, r6, r7}
 700 0138 7047     		bx	lr
 701              	.LVL76:
 702              	.L38:
 703              		.loc 1 157 0
 704 013a 0161     		str	r1, [r0, #16]
 705 013c 67E7     		b	.L4
 706              	.L40:
 707 013e 00BF     		.align	2
 708              	.L39:
 709 0140 00000000 		.word	.LANCHOR0
 710              		.cfi_endproc
 711              	.LFE195:
 712              		.size	_pal_lld_setgroupmode, .-_pal_lld_setgroupmode
 713 0144 AFF30080 		.section	.rodata.cfgtab.6461,"a",%progbits
 713      AFF30080 
 713      AFF30080 
 714              		.align	2
 715              		.set	.LANCHOR0,. + 0
 716              		.type	cfgtab.6461, %object
 717              		.size	cfgtab.6461, 18
ARM GAS  /tmp/ccZLOnkl.s 			page 29


 718              	cfgtab.6461:
 719 0000 04       		.byte	4
 720 0001 02       		.byte	2
 721 0002 04       		.byte	4
 722 0003 08       		.byte	8
 723 0004 08       		.byte	8
 724 0005 00       		.byte	0
 725 0006 03       		.byte	3
 726 0007 07       		.byte	7
 727 0008 08       		.byte	8
 728 0009 08       		.byte	8
 729 000a 08       		.byte	8
 730 000b 08       		.byte	8
 731 000c 08       		.byte	8
 732 000d 08       		.byte	8
 733 000e 08       		.byte	8
 734 000f 08       		.byte	8
 735 0010 0B       		.byte	11
 736 0011 0F       		.byte	15
 737 0012 0000     		.text
 738              	.Letext0:
 739              		.file 2 "/opt/ARM/gcc-arm-none-eabi-4_7-2013q3/bin/../lib/gcc/arm-none-eabi/4.7.4/../../../../arm-
 740              		.file 3 "../../../os/rt/include/chschd.h"
 741              		.file 4 "../../../os/rt/ports/ARMCMx/compilers/GCC/chtypes.h"
 742              		.file 5 "../../../os/ext/CMSIS/ST/stm32f10x.h"
 743              		.file 6 "../../../os/rt/ports/ARMCMx/chcore.h"
 744              		.file 7 "../../../os/rt/ports/ARMCMx/chcore_v7m.h"
 745              		.file 8 "../../../os/rt/include/chmtx.h"
 746              		.file 9 "../../../os/hal/ports/STM32/LLD/GPIOv1/pal_lld.h"
 747              		.file 10 "../../../os/ext/CMSIS/include/core_cm3.h"