ARM GAS  /tmp/ccfzmerM.s 			page 1


   1              		.syntax unified
   2              		.cpu cortex-m3
   3              		.fpu softvfp
   4              		.eabi_attribute 20, 1
   5              		.eabi_attribute 21, 1
   6              		.eabi_attribute 23, 3
   7              		.eabi_attribute 24, 1
   8              		.eabi_attribute 25, 1
   9              		.eabi_attribute 26, 1
  10              		.eabi_attribute 30, 2
  11              		.eabi_attribute 34, 1
  12              		.eabi_attribute 18, 4
  13              		.thumb
  14              		.file	"st.c"
  15              		.text
  16              	.Ltext0:
  17              		.section	.gnu.lto_.jmpfuncs.4a6228683c2a5a5a,"",%progbits
  18 0000 789C6362 		.ascii	"x\234cb`d`g\300\016x\2414+\020322103\26200\000\000\003"
  18      60646067 
  18      C00E78A1 
  18      342B1033 
  18      32323130 
  19 001b 8D0029   		.ascii	"\215\000)"
  20              		.text
  21              		.section	.gnu.lto_.inline.4a6228683c2a5a5a,"",%progbits
  22 0000 789C6362 		.ascii	"x\234cb`d\340e\300\016\342\2404+\003\003\013\017#\003"
  22      6064E065 
  22      C00EE2A0 
  22      342B0303 
  22      0B0F2303 
  23 0014 1390C9B6 		.ascii	"\023\220\311\266@\236\211\201\221\013\310bd`ced\004"
  23      409E8981 
  23      910BC862 
  23      64606365 
  23      6404
  24 0026 520C4C6C 		.ascii	"R\014Ll\037\364 \022L\014,\314@uL\027\370!|f\020\037"
  24      1FF42012 
  24      4C0C2CCC 
  24      40754C17 
  24      F8217C66 
  25 003c A2062EC6 		.ascii	"\242\006.\306\202\246\206\001\000m\275\010v"
  25      82A68601 
  25      006DBD08 
  25      76
  26              		.text
  27              		.section	.gnu.lto_.pureconst.4a6228683c2a5a5a,"",%progbits
  28 0000 789C6362 		.ascii	"x\234cb`d`f``\340f\200\000V\006\011F)&)f)\026)\000\004"
  28      60646066 
  28      6060E066 
  28      80005606 
  28      09462926 
  29 001b 5700A1   		.ascii	"W\000\241"
  30              		.text
  31              		.section	.gnu.lto_stInit.4a6228683c2a5a5a,"",%progbits
  32 0000 789C6362 		.ascii	"x\234cb`\004BL \011\304\365@,\015\304\214\314\014\214"
  32      6004424C 
  32      2009C4F5 
ARM GAS  /tmp/ccfzmerM.s 			page 2


  32      402C0DC4 
  32      8CCC0C8C 
  33 0014 4C13CE31 		.ascii	"L\023\316104*012\202\030@-\365L\214\365\241\020\235"
  33      30342A30 
  33      31328218 
  33      402DF54C 
  33      8CF5A110 
  34 0029 A73A1E8B 		.ascii	"\247:\036\213\336\231\301\266\237\351\300\203\377@="
  34      DE99C1B6 
  34      9FE9C083 
  34      FF403D
  35 0038 CC402156 		.ascii	"\314@!V\206\226\206\006\001\206x\250\321\201 \032\244"
  35      86968606 
  35      018678A8 
  35      D181201A 
  35      A4
  36 0049 31889109 		.ascii	"1\210\221\011\314`>\303\300|eFU,\343\002FV\240T\025"
  36      CC603EC3 
  36      C07C6546 
  36      552CE302 
  36      4656A054 
  37 005e C3CF068E 		.ascii	"\303\317\006\216T\240K\342\031\031!ZRA\3649\006F\240"
  37      54A04BE2 
  37      1919215A 
  37      5241F439 
  37      0646A0
  38 0071 B9304530 		.ascii	"\2710E0\243\030\301&0\201\034\251\247\247\017A\371\305"
  38      A318C126 
  38      30811CA9 
  38      A7A70F41 
  38      F9C5
  39 0083 FA198939 		.ascii	"\372\031\2119\372\305E\311\372\305%z\311\014\000\251"
  39      FAC545C9 
  39      FAC5257A 
  39      C90C00A9 
  40 0093 EF257F   		.ascii	"\357%\177"
  41              		.text
  42              		.section	.gnu.lto_stStartAlarm.4a6228683c2a5a5a,"",%progbits
  43 0000 789C9D91 		.ascii	"x\234\235\221=K\003A\020\206g\3666\037\205E\332\024"
  43      3D4B0341 
  43      108667F6 
  43      361F8545 
  43      DA14
  44 0012 A2480A41 		.ascii	"\242H\012A\270Em\374\001\026\006\0220\032\3133H<H \022"
  44      B8456DFC 
  44      01160612 
  44      301ACB33 
  44      483C4820 
  45 0027 C905DB6C 		.ascii	"\311\005\333lb\012\313`g\0041\306\024^a\227ZQ\021\011"
  45      620ACB60 
  45      670431C6 
  45      145E6197 
  45      5A511109 
  46 003b 925F6011 		.ascii	"\222_`\021l\265\024\261\020\342\354\335\005=\265\020"
  46      6CB514B1 
  46      10E2ECDD 
  46      053DB510 
ARM GAS  /tmp/ccfzmerM.s 			page 3


  47 004b E73E76D8 		.ascii	"\347>v\330\235\367y\347n\030 ]?#JO\234\001,\323\212"
  47      9DF779E7 
  47      6E18205D 
  47      3F234A4F 
  47      9C012CD3 
  48 0060 1A206BF4 		.ascii	"\032 k\364\001\252\223\014Q%$\2510\254\2549J\234\202"
  48      01AA930C 
  48      512524A9 
  48      30ACAC39 
  48      4A9C82
  49 0073 9694FB8D 		.ascii	"\226\224\373\215\353\332Rm0\034N\230j7\203\320;\352"
  49      EBDA526D 
  49      301C4E98 
  49      6A3783D0 
  49      3BEA
  50 0085 8C47C144 		.ascii	"\214G\301D\204IP+\003\356\367\260\017\273\017\374\245"
  50      8449502B 
  50      03EEF7B0 
  50      0FBB0FFC 
  50      A5
  51 0096 19BC6097 		.ascii	"\031\274`\227\203a%\006m\242\310]9m\242\306 \201\212"
  51      83612506 
  51      6DA2C85D 
  51      396DA2C6 
  51      20818A
  52 00a9 71DF7C45 		.ascii	"q\337|E\227\021\361\030L)\251\002\302\210\006\2660F"
  52      9711F118 
  52      4C29A902 
  52      C28806B6 
  52      3046
  53 00bb 54038FA9 		.ascii	"T\003\217\251\011\212\000\324\245\214`\336\321:\221"
  53      098A00D4 
  53      A58C60DE 
  53      D13A91
  54 00ca 52AB6A79 		.ascii	"R\253jy\205\264*\321n\201\321\236\333\263r\363z\326"
  54      85B42AD1 
  54      6E81D19E 
  54      DBB372F3 
  54      7AD6
  55 00dc 0C3CA112 		.ascii	"\014<\241\022\322\345~1\374\214,\035A\017j\317\232\372"
  55      D2E57E31 
  55      FC8C2C1D 
  55      410F6ACF 
  55      9AFA
  56 00ee 3ED770E4 		.ascii	">\327p\344k\340)\365a`\033\003>\005\367DW\361\275\220"
  56      6BE029F5 
  56      61601B03 
  56      3E05F744 
  56      57F1BD90 
  57 0102 811D3A15 		.ascii	"\201\035:\025p.\353h\"\3473`;Y@k\302A5bb\220)\337\020"
  57      702EEB68 
  57      22E73360 
  57      3B59406B 
  57      C2413562 
  58 011b 480A0E6E 		.ascii	"H\012\016n\016\316\214\326\325\353Ms\246cb\330\303\337"
  58      0ECE8CD6 
  58      D5EB4D73 
ARM GAS  /tmp/ccfzmerM.s 			page 4


  58      A66362D8 
  58      C3DF
  59 012d 055C0FC7 		.ascii	"\005\\\017\307`\341\375\354\021]\213\021\230\377\005"
  59      60E1FDEC 
  59      115D8B11 
  59      98FF05
  60 013c 8C5FC0EE 		.ascii	"\214_\300\356\224\024\354\306\376\027\214\371`\352\377"
  60      9414ECC6 
  60      FE178CF9 
  60      60EAFF
  61 014b F501EDA7 		.ascii	"\365\001\355\247\356\230\377\317\244\224+MD\025\010"
  61      EE98FFCF 
  61      A4942B4D 
  61      441508
  62 015a 5DF7EEA2 		.ascii	"]\367\356\242%r\033\005\261],\225-\261\232N\316\317"
  62      25721B05 
  62      B15D2C95 
  62      2DB19A4E 
  62      CECF
  63 016c 89446251 		.ascii	"\211DbQ\244\343\311\235Ya\2253\205\302\246\236\203\350"
  63      A4E3C99D 
  63      59619533 
  63      85C2A69E 
  63      83E8
  64 017e F77AAB94 		.ascii	"\367z\253\224\245S=\013\274\234\3372?\000\217\250\213"
  64      A5533D0B 
  64      BC9CDF32 
  64      3F008FA8 
  64      8B
  65 018f CF       		.ascii	"\317"
  66              		.text
  67              		.section	.gnu.lto_stStopAlarm.4a6228683c2a5a5a,"",%progbits
  68 0000 789C6362 		.ascii	"x\234cb`\004BL \011\304\207\201\330\033\210\031\231"
  68      6004424C 
  68      2009C487 
  68      81D81B88 
  68      1999
  69 0012 19189926 		.ascii	"\031\030\231&\234c`hT`bd\0041\200Z\352\231\030\353C"
  69      9C636068 
  69      54606264 
  69      0431805A 
  69      EA9918EB 
  70 0027 213A4FED 		.ascii	"!:O\355_,\363d\016\333~\246\003\017\376\32730\260\000"
  70      5F2CF364 
  70      0EDB7EA6 
  70      030FFED7 
  70      3330B000 
  71 003b 8558195A 		.ascii	"\205X\031Z\032\032\004\0303\031\031\342\241\246\007"
  71      1A1A0418 
  71      331919E2 
  71      A1A607
  72 004a 826890DE 		.ascii	"\202h\220\336 F&0\203\371\024\303!\213O+\257\177a\202"
  72      20462630 
  72      83F914C3 
  72      218B4F2B 
  72      AF7F6182 
  73 005e 2886EA61 		.ascii	"(\206\352a\210e\\\300\310\212\344\022m\206U\015-\214"
ARM GAS  /tmp/ccfzmerM.s 			page 5


  73      88655CC0 
  73      C88AE412 
  73      6D86550D 
  73      2D8C
  74 0070 A98C0CCC 		.ascii	"\251\214\014\314\263\030f6\012\244222I2\244\002\015"
  74      B3186636 
  74      0AA43232 
  74      324932A4 
  74      020D
  75 0082 69000216 		.ascii	"i\000\002\026\006\010\233\001\354\2118\020\361\203\031"
  75      06089B01 
  75      EC893810 
  75      F18319
  76 0091 ECFC54A8 		.ascii	"\354\374T\250\275\347\030\030O\235IF54\220\221\021\354"
  76      BDE71818 
  76      4F9D4946 
  76      35349091 
  76      11EC
  77 00a3 04903E49 		.ascii	"\004\220>I==}\010\312/\326\317H\314\321/.J\326/.\321"
  77      3D3D7D08 
  77      CA2FD6CF 
  77      48CCD12F 
  77      2E4AD62F 
  78 00b9 4B66D047 		.ascii	"Kf\320G\227)\310/*)\326\017\016\36156\322\367\361q\321"
  78      9729C82F 
  78      2A29D60F 
  78      0EF13536 
  78      D2F7F171 
  79 00ce 0FF1F42D 		.ascii	"\017\361\364-3\004\252\215\317\311I\321\313`\000\000"
  79      3304AA8D 
  79      CFC949D1 
  79      CB600000 
  80 00de 0D7940CD 		.ascii	"\015y@\315"
  81              		.text
  82              		.section	.gnu.lto_stSetAlarm.4a6228683c2a5a5a,"",%progbits
  83 0000 789C6D51 		.ascii	"x\234mQOK\002Q\020\237\337\333U;t\360\352!\222\360\020"
  83      4F4B0251 
  83      109FDFDB 
  83      553B74F0 
  83      EA2192F0 
  84 0015 04FBA8BE 		.ascii	"\004\373\250\276B\207\004\205,;n\022\266\240`\030\256"
  84      42870485 
  84      2C3B6E12 
  84      B6A06018 
  84      AE
  85 0026 74F5691E 		.ascii	"t\365i\036:J\267\202\"3/\036\352\003D\024\005\021\026"
  85      3A4AB782 
  85      22332F1E 
  85      EA034414 
  85      051116
  86 0039 7E060F1D 		.ascii	"~\006\017\035\243sP`\363v7\302j\366\317\014o\346\367"
  86      A3735060 
  86      F37637C2 
  86      6AF6CF0C 
  86      6FE6F7
  87 004c 677882C0 		.ascii	"gx\202\300\317\337\210\361w\311\215\025\3160\010\242"
  87      CFDF88F1 
ARM GAS  /tmp/ccfzmerM.s 			page 6


  87      77C98D15 
  87      CE3008A2 
  88 005c 3520AAC7 		.ascii	"5 \252\307\005\240\013\206\324\004j\353\036\0223\324"
  88      05A00B86 
  88      D4046AEB 
  88      1E1233D4 
  89 006c 56EAA075 		.ascii	"V\352\240u\337Xn\014G\243iG\237\346@\375Aw*F\016@q\322"
  89      DF586E0C 
  89      47A36947 
  89      9FE640FD 
  89      41772A46 
  90 0084 599039AE 		.ascii	"Y\2209\256\321\373\270z6_N\3027\342v8\252%\250\303,"
  90      D1FBB87A 
  90      365F4EC2 
  90      37E27638 
  90      AA25A8C3 
  91 0099 6A4FCD3A 		.ascii	"jO\315:0\004\245\2409>\217\337\340sD\003\016\241\221"
  91      3004A5A0 
  91      393E8FDF 
  91      E0734403 
  91      0EA191
  92 00ac 3C4161C0 		.ascii	"<Aa\300F\033\011f\265q\312&8B\324T*\212\242\207\365"
  92      461B0966 
  92      B571CA26 
  92      3842D454 
  92      2A8AA287 
  93 00c1 22A3B3B6 		.ascii	"\"\243\263\266\274\312X]\030\017$\370\314\367\254\325"
  93      BCCA585D 
  93      180F24F8 
  93      CCF7ACD5 
  94 00d1 02CF868D 		.ascii	"\002\317\206\2153\036a\\\341\037\301\237\310s\213\372"
  94      331E615C 
  94      E11FC19F 
  94      C8738BFA 
  95 00e1 D47835F4 		.ascii	"\324x5\364~\276\340\267\256\215s\366a\243\203\320\030"
  95      7EBEE0B7 
  95      AE8D73F6 
  95      61A383D0 
  95      18
  96 00f2 C20C4077 		.ascii	"\302\014@w\311\375\210\215.w%]\250&\034\230\346\034"
  96      C9FD888D 
  96      2E77255D 
  96      A8261C98 
  96      E61C
  97 0104 F5BC2A64 		.ascii	"\365\274*d\034\321a=\352 ,\264n\204\024\207I~M\336\035"
  97      1CD1613D 
  97      EA202CB4 
  97      6E841487 
  97      497E4DDE 
  98 0119 6DE8DFBB 		.ascii	"m\350\337\273\341\335\216\203\211\200\3761\344k\020"
  98      E1DD8E83 
  98      8980FE31 
  98      E46B10
  99 0128 0D08BDA7 		.ascii	"\015\010\275\247\353\311q\375\214\226\346\275\365\032"
  99      EBC971FD 
  99      8C96E6BD 
  99      F51A
ARM GAS  /tmp/ccfzmerM.s 			page 7


 100 0136 D2B282B7 		.ascii	"\322\262\202\267\354\312\302fI\356\224+UW\256e\323\213"
 100      ECCAC266 
 100      49EE942B 
 100      5557AE65 
 100      D38B
 101 0148 0B32955A 		.ascii	"\0132\225Z\222\331dzw^\272\325\\\251\264e\025(\366{"
 101      92D9647A 
 101      775EBAD5 
 101      5CA9B465 
 101      1528F67B 
 102 015c DEADE4B9 		.ascii	"\336\255\344\271k\345\311\254\026\267\235/B\272o\251"
 102      6BE5C9AC 
 102      16B79D2F 
 102      42BA6FA9 
 103              		.text
 104              		.section	.gnu.lto_stGetAlarm.4a6228683c2a5a5a,"",%progbits
 105 0000 789C6590 		.ascii	"x\234e\2201O\302@\024\307\377\357\332\202\014&\254,"
 105      314FC240 
 105      14C7FFEF 
 105      DA820C26 
 105      AC2C
 106 0012 4A984C4C 		.ascii	"J\230LLzQ\027?\200\203F\030P\034\201\230\332\004\023"
 106      7A51173F 
 106      80834618 
 106      501C8198 
 106      DA0413
 107 0025 120C25AE 		.ascii	"\022\014%\256\224\206\315\2058)\023\310\242\016~\005"
 107      9486CD85 
 107      382913C8 
 107      A20E7E05 
 108 0035 8D6C1DF8 		.ascii	"\215l\035\370\006&$:88\031\367\372\356Z\023\321w\355"
 108      0626243A 
 108      383819F7 
 108      FAEE5A13 
 108      D177ED
 109 0048 FD5F7AF7 		.ascii	"\375_z\367{\377\327'@\274\376G\216\337\026\037\354\263"
 109      7BFFD727 
 109      40BCFE47 
 109      8EDF161F 
 109      ECB3
 110 005a 92011283 		.ascii	"\222\001\022\203\031\320\313\013\"\2250\322\025\324"
 110      19D0CB0B 
 110      229530D2 
 110      15D4
 111 0068 3DD2A428 		.ascii	"=\322\244(`\354\373C\177\032\254\005\363(Zu\325\327"
 111      60ECFB43 
 111      7F1AAC05 
 111      F3285A75 
 111      D5D7
 112 007a 3A218C5E 		.ascii	":!\214^\227sp\211\220\205R\001\261\350\241\271\313\301"
 112      97737089 
 112      90855201 
 112      B1E8A1B9 
 112      CBC1
 113 008c 34D84D38 		.ascii	"4\330M8Cs\237w/_f\014\346\023\320\\\004\303h\262\362"
 113      43739F77 
 113      2F5F660C 
ARM GAS  /tmp/ccfzmerM.s 			page 8


 113      E613D05C 
 113      04C368B2 
 114 00a1 769B7A14 		.ascii	"v\233z\024O\363\250\013\244MTiL\005X\254#V\016\013}"
 114      4FF3A80B 
 114      A44D5469 
 114      4C0558AC 
 114      23560E0B 
 115 00b6 DFCFD229 		.ascii	"\337\317\322)\251\212:\312JU\363\007\\P%F\210\347\232"
 115      A98A3ACA 
 115      4A55F307 
 115      5C502546 
 115      88E79A
 116 00c9 368B2F27 		.ascii	"6\213/'\014\327\270!\353\227\233C\246\304\203\337'\227"
 116      0CD7B821 
 116      EB979B43 
 116      A6C483DF 
 116      2797
 117 00db 4C731DF7 		.ascii	"Ls\035\367:\263\214!\256{Y\227RB\265\230\206\317a\""
 117      3AB38C21 
 117      AE7B5997 
 117      5242B598 
 117      86CF6122 
 118 00ef CEA1475A 		.ascii	"\316\241GZS\333UF\017\323\245\245\244\332{&\376\005"
 118      53DB5546 
 118      0FD3A5A5 
 118      A4DA7B26 
 118      FE05
 119 0101 041FC676 		.ascii	"\004\037\306v\225&l\345\220\305\036\300\014\024^X\261"
 119      95266CE5 
 119      90C51EC0 
 119      0C145E58 
 119      B1
 120 0112 BDF3D342 		.ascii	"\275\363\323B\231\307\240\272U\263\313\331\266\214\237"
 120      99C7A0BA 
 120      55B3CBD9 
 120      B68C9F
 121 0121 96271BC7 		.ascii	"\226'\033\307M\351\265\035\351ul\007\362\357\311Y\253"
 121      4DE9B51D 
 121      E9756C07 
 121      F2EFC959 
 121      AB
 122 0132 DDF1E461 		.ascii	"\335\361\344a\245\264\265)\213\305\035Y\331+\235o\360"
 122      A5B4B529 
 122      8BC51D59 
 122      D92B9D6F 
 122      F0
 123 0143 DD7AB379 		.ascii	"\335z\263yb7\360\015\332qdu"
 123      6237F00D 
 123      DA716475 
 124              		.text
 125              		.section	.gnu.lto_.cgraph.4a6228683c2a5a5a,"",%progbits
 126 0000 789C45C7 		.ascii	"x\234E\307\301\011\2000\024D\301}?\246Lk\331\200\027"
 126      C1098030 
 126      1444C17D 
 126      3FA64C6B 
 126      D98017
 127 0013 8F566031 		.ascii	"\217V`1\032\275\010\326`%\"\210\230\271M\010%I\275>"
ARM GAS  /tmp/ccfzmerM.s 			page 9


 127      1ABD08D6 
 127      60252288 
 127      98B94D08 
 127      2549BD3E 
 128 0027 B160693A 		.ascii	"\261`i:e\317#\261b\332*\216\266\015\247\266\035w\377"
 128      65CF23B1 
 128      62DA2A8E 
 128      B60DA7B6 
 128      1D77FF
 129 003a 38707E57 		.ascii	"8p~W\012IY\303u\243\007\305\314\036\364"
 129      0A4959C3 
 129      75A307C5 
 129      CC1EF4
 130              		.text
 131              		.section	.gnu.lto_.vars.4a6228683c2a5a5a,"",%progbits
 132 0000 789C6362 		.ascii	"x\234cb`d`f`\000\222P\000\000\000r\000\010"
 132      60646066 
 132      60009250 
 132      00000072 
 132      0008
 133              		.text
 134              		.section	.gnu.lto_.refs.4a6228683c2a5a5a,"",%progbits
 135 0000 789C6362 		.ascii	"x\234cb`d`f```b\200\001\000\000\204\000\011"
 135      60646066 
 135      60606062 
 135      80010000 
 135      840009
 136              		.text
 137              		.section	.gnu.lto_.statics.4a6228683c2a5a5a,"",%progbits
 138 0000 789C6362 		.ascii	"x\234cb`d`b\300\016@\342\214\020&\000\000\375\000\011"
 138      60646062 
 138      C00E40E2 
 138      8C102600 
 138      00FD0009 
 139              		.text
 140              		.section	.gnu.lto_.decls.4a6228683c2a5a5a,"",%progbits
 141 0000 789C9D57 		.ascii	"x\234\235W}l\024E\024\237\331={=Z*\220@\216\210R\214"
 141      7D6C1445 
 141      149FD93D 
 141      7B3D5A2A 
 141      90408E88 
 142 0016 9886A4B7 		.ascii	"\230\206\244\267\364\2036\376Ab\275\022 \341\220lkB"
 142      F48336FE 
 142      4162BD12 
 142      20E1906C 
 142      6B42
 143 0028 48364739 		.ascii	"H6G9\212\275\344z\305\273\305\350\177CK\020\324\230"
 143      8ABDE47A 
 143      C5BBC5E8 
 143      7F434B10 
 143      D498
 144 003a 6A3481F8 		.ascii	"j4\201\370U\212\305\022\"j\315\031\213\001*\362\025"
 144      558AC512 
 144      226ACD19 
 144      8B012AF2 
 144      15
 145 004b 6C081F8D 		.ascii	"l\010\037\215\242\2426\004\210\001\242\3044\365\013"
ARM GAS  /tmp/ccfzmerM.s 			page 10


 145      A2A23604 
 145      8801A2C4 
 145      34F50B
 146 005a 3CDFCC7E 		.ascii	"<\337\314~\335no\356v;\271\367vv\366\275\337\374\336"
 146      DD6E6FEE 
 146      763BB9F7 
 146      7676F6BD 
 146      DFFCDE
 147 006d 9B377BB3 		.ascii	"\2337{\263\002\302\210\266w\340\222\205\266a\016B\365"
 147      02C288B6 
 147      77E09285 
 147      B6610E42 
 147      F5
 148 007e 02422530 		.ascii	"\002B%0\266\034Y\215\336\367\201\014\200\014\201d@\206"
 148      B61C598D 
 148      DEF7810C 
 148      800C8164 
 148      4086
 149 0090 418EA2A9 		.ascii	"A\216\242\251\215\332\001\004:\016\262O\037\023\364"
 149      8DDA0104 
 149      3A0EB24F 
 149      1F13F4
 150 009f F17CF614 		.ascii	"\361|\366\0243\000\342\007\251\000)\007\031\004\031"
 150      3300E207 
 150      A9002907 
 150      190419
 151 00ae 01390972 		.ascii	"\0019\011r\006d\022\304\007\"\202\334\004\031\003\271"
 151      066412C4 
 151      072282DC 
 151      041903B9 
 152 00be 0482757F 		.ascii	"\004\202u\177z\375\323\201;\244\333\217\344`\340\034"
 152      7AFDD381 
 152      3BA4DB8F 
 152      E460E01C 
 153 00ce BF21FD8A 		.ascii	"\277!\375\212\261\335/\343\201\017\326\371`\335\217"
 153      B1DD2FE3 
 153      810FD6F9 
 153      60DD8F
 154 00dd 5E4B1C78 		.ascii	"^K\034x\303:\336`\016\236\337\005\336\260~-s\340-D\357"
 154      C33ADE60 
 154      0E9EDF05 
 154      DEB07E2D 
 154      73E02D44 
 155 00f2 91BEF1DE 		.ascii	"\221\276\361\336\036\262\352\257l\326?\017\275E\240"
 155      1EB2EAAF 
 155      6CD63F0F 
 155      BD45A0
 156 0101 F5ED2404 		.ascii	"\365\355$\004\253\012^>\027\315G\012\256\200\011+Y\257"
 156      AB0A5E3E 
 156      17CD470A 
 156      AE80092B 
 156      59AF
 157 0113 3CA02123 		.ascii	"<\240!#\350\357\303\363\364^\253\250a\011H\300h\011"
 157      E8EFC3F3 
 157      F45EABA8 
 157      610948C0 
 157      6809
ARM GAS  /tmp/ccfzmerM.s 			page 11


 158 0125 3A4858D3 		.ascii	":HX\323'\322/\001\324\277\373\323zc\326\307\321\000"
 158      27D22F01 
 158      D4BFFBD3 
 158      7A63D6C7 
 158      D100
 159 0137 3519E90E 		.ascii	"5\031\351\016\262I(H\037^h#\246\340~,8\231\216\337\235"
 159      B2492848 
 159      1F5E6823 
 159      A6E07E2C 
 159      38998EDF 
 160 014c 0ED3033A 		.ascii	"\016\323\003:S\221U\016P\331EH7!;I\325 \244\320\360"
 160      5391550E 
 160      50D94548 
 160      37213B49 
 160      D520A4D0 
 161 0161 9B65FA51 		.ascii	"\233e\372Q\253\305\350\003Bzi\030\012\036\304\001\030"
 161      ABC5E803 
 161      427A6918 
 161      0A1EC401 
 161      18
 162 0172 5B82E1F1 		.ascii	"[\202\341\361~\274\004\015\275}yL0\242\362\010u\210"
 162      7EBC040D 
 162      BD7D794C 
 162      30A2F208 
 162      7588
 163 0184 416D30A0 		.ascii	"Am0\240\016\277\366\323)\321\210W\014\330\343\207{\315"
 163      0EBFF6D3 
 163      29D18857 
 163      0CD8E387 
 163      7BCD
 164 0196 4A03D61E 		.ascii	"J\003\326\036\033\275lVD^\315\261\265T@\342\0126X\364"
 164      1BBD6C56 
 164      445ECDB1 
 164      B55440E2 
 164      0A3658F4 
 165 01aa EFCDE82B 		.ascii	"\357\315\350+\363\030\332O\310\033\244\207T\031Q\337"
 165      F318DA4F 
 165      C81BA487 
 165      541951DF 
 166 01ba 605603B0 		.ascii	"`V\003\2608W\374\371\303C\232i\2765\245n\0356\222\207"
 166      3857FCF9 
 166      C3439A69 
 166      BE35A56E 
 166      1D369287 
 167 01ce 0BADA956 		.ascii	"\013\255\251VS\002\272e2\273\367P\201\212\031\232R1"
 167      5302BA65 
 167      32BBF750 
 167      818A199A 
 167      5231
 168 01e0 9F15463F 		.ascii	"\237\025F?\300\320'-\364\207\363G\255\340O\000H\301"
 168      C0D0272D 
 168      F487F347 
 168      ADE04F00 
 168      48C1
 169 01f2 1998E00B 		.ascii	"\031\230\340\013\357Qg\246D\375\271\207J\246\250\374"
 169      EF5167A6 
 169      44FDB987 
ARM GAS  /tmp/ccfzmerM.s 			page 12


 169      4AA6A8FC 
 170 0202 523E9267 		.ascii	"R>\222g\323m\027\314\200\336O\332\362\325M\276\356\326"
 170      D36D17CC 
 170      80DE4FDA 
 170      F2D54DBE 
 170      EED6
 171 0214 63A22EC3 		.ascii	"c\242.\3034a\234p4\320/\363\020\355\355\355\351\263"
 171      34619C70 
 171      34D02FF3 
 171      10EDEDED 
 171      E9B3
 172 0226 2DCFABE6 		.ascii	"-\317\253\346|\327\006\216\236\011\332\227\340\230\035"
 172      7CD7068E 
 172      9E09DA97 
 172      E0981D
 173 0235 A10CBD4C 		.ascii	"\241\014\275Li@p\253\316Vh\000\374\340\216\3432\303"
 173      694070AB 
 173      CE566800 
 173      FCE08EE3 
 173      32C3
 174 0247 8F6DAC1E 		.ascii	"\217m\254\036\335\017q|\254\215\245\357\303\302\346"
 174      DD0F717C 
 174      AC8DA5EF 
 174      C3C2E6
 175 0256 0AFE0A2F 		.ascii	"\012\376\012/\006\355\267o\024\277\271Q\374\001\355"
 175      06EDB76F 
 175      14BFB951 
 175      FC01ED
 176 0265 7FEB419A 		.ascii	"\177\353A\232\223\263\202\265I/\236\226\214\370\374"
 176      93B382B5 
 176      492F9E96 
 176      8CF8FC
 177 0274 8E4DEA06 		.ascii	"\216M\352\006l6\242$I%\315\300H\316\362\302+\322\340"
 177      6C36A224 
 177      4925CDC0 
 177      48CEF2C2 
 177      2BD2E0
 178 0287 378BC1E5 		.ascii	"7\213\301\345\032\236(d\250\340Sx\266\225(b&\270\274"
 178      1A9E2864 
 178      A8E05378 
 178      B6952862 
 178      26B8BC
 179 029a 50F19CC6 		.ascii	"P\361\234\306\032yc\334\352\211\266\230\014;4\007\275"
 179      1A7963DC 
 179      EA89B698 
 179      0C3B3407 
 179      BD
 180 02ab AEF3B172 		.ascii	"\256\363\261rJJL\257\215\310\376r;\203\347@\342.\232"
 180      4A4A4CAF 
 180      8DC8FE72 
 180      3B83E740 
 180      E22E9A
 181 02be 899BFCE8 		.ascii	"\211\233\374\350\373\037E\327Ht\346s\200\240\3712\\"
 181      FB1F45D7 
 181      4874E673 
 181      80A0F932 
 181      5C
ARM GAS  /tmp/ccfzmerM.s 			page 13


 182 02cf A2E1D251 		.ascii	"\242\341\322Q\244\217O\334\336\202\246\266\271\213P"
 182      A48F4FDC 
 182      DE82A6B6 
 182      B98B50
 183 02de 1FD9D143 		.ascii	"\037\331\321C\267T\211\226c\001\365\212XG\274w\373&"
 183      B7548996 
 183      6301F58A 
 183      5847BC77 
 183      FB26
 184 02f0 CE9F152B 		.ascii	"\316\237\025+\023F6*\254\365\315\203\371\246\211y2\341"
 184      1346362A 
 184      ACF5CD83 
 184      F9A68979 
 184      32E1
 185 0302 05B1928B 		.ascii	"\005\261\222\213\270\307D\034-\202X\352\222\343\273"
 185      B8C7441C 
 185      2D8258EA 
 185      92E3BB
 186 0311 26E29827 		.ascii	"&\342\230'D>\307~\023\361j\021\304Y.9\016\230\210\327"
 186      443EC77E 
 186      13F16A11 
 186      C4592E39 
 186      0E9888D7 
 187 0325 3D21F239 		.ascii	"=!\3629\0364\021\357\024A\014\272\344\370\261\2118\341"
 187      1E3411EF 
 187      14410CBA 
 187      E4F8B189 
 187      38E1
 188 0337 0991CF31 		.ascii	"\011\221\3171cUd\021\304J\227\034\217X\365\330\351\005"
 188      63556411 
 188      C44A971C 
 188      8F58F5D8 
 188      E905
 189 0349 91CFF198 		.ascii	"\221\317\361\230U\217E\020\253\\r<a\325\243'D>\307\323"
 189      558F4510 
 189      AB5C723C 
 189      61D5A327 
 189      443EC7D3 
 190 035d 563D1641 		.ascii	"V=\026A\\\312\345\270\035\336Y\024\361$\274G\005t\316"
 190      5CCAE5B8 
 190      1DDE5914 
 190      F124BC47 
 190      0574CE
 191 0370 AA4713D1 		.ascii	"\252G\023\321\361\322\315\017\311'y\336*\310\"$\237"
 191      F1D2CD0F 
 191      C92779DE 
 191      2AC82224 
 191      9F
 192 0381 748978D9 		.ascii	"t\211x\331*\310\"\210\253\\.\315wVAzB\344s\274j\025"
 192      2AC82288 
 192      AB5C2ECD 
 192      7756417A 
 192      42E473BC 
 193 0397 64B230E2 		.ascii	"d\2620\342:\227\034\177\261\012\322\023\"\237\343\015"
 193      3A971C7F 
 193      B10AD213 
 193      229FE30D 
ARM GAS  /tmp/ccfzmerM.s 			page 14


 194 03a7 AB208B20 		.ascii	"\253 \213 \256w\311\361\226U\220\236\020+\021\247\345"
 194      AE77C9F1 
 194      9655909E 
 194      102B11A7 
 194      E5
 195 03b8 FE132AF8 		.ascii	"\376\023*\370\0338\266\314U\360(^\0047\347\231\276\300"
 195      1B38B6CC 
 195      55F0285E 
 195      0437E799 
 195      BEC0
 196 03ca F425A6C7 		.ascii	"\364%\246\307\230\376\226\351+L\377\300\364U\246\177"
 196      98FE96E9 
 196      2B4CFFC0 
 196      F455A67F 
 197 03da 667A9CE9 		.ascii	"fz\234\351kL_g\372&\323\2772}\213\351;L\377\306\364"
 197      6B4C5F67 
 197      FA26D3BF 
 197      327D8BE9 
 197      3B4CFFC6 
 198 03ef 5DA6FF60 		.ascii	"]\246\377`z\002\264\336\034\3079\372\207\317?nLZ\307"
 198      7A02B4DE 
 198      1CC739FA 
 198      87CF3F6E 
 198      4C5AC7
 199 0402 B947D13E 		.ascii	"\271G\321>r\341B/\351\016v\217g\263\013\215s\316\236"
 199      72E1422F 
 199      E90E768F 
 199      67B30B8D 
 199      73CE9E
 200 0415 0AFDE036 		.ascii	"\012\375\3406>0\022\334\223s4(5\301\350\347\243u\026"
 200      3E3012DC 
 200      93733428 
 200      35C1E8E7 
 200      A37516
 201 0428 30CD4930 		.ascii	"0\315I0\310\263V\360?\354\230\367o\316iG\357\233\335"
 201      C8B356F0 
 201      3FEC98F7 
 201      6FCE6947 
 201      EF9BDD
 202 043b 2CA647BC 		.ascii	",\246G\274\337E\366\305\2367\377\305\274\215\271;\314"
 202      DF45F6C5 
 202      9E37FFC5 
 202      BC8DB93B 
 202      CC
 203 044c B967327B 		.ascii	"\271g2{+4\315\230g\247\340\373\3238\301\375\307=\301"
 203      2B34CD98 
 203      67A7E0FB 
 203      D338C1FD 
 203      C73DC1
 204 045f 95DBD81B 		.ascii	"\225\333\330\033v\020\344\204h|\300\365\017g\026\360"
 204      7610E484 
 204      687CC0F5 
 204      0F6716F0 
 205 046f E808E8BE 		.ascii	"\350\010\350\276\210u\347\031\270\300\202)\370\357\234"
 205      8875E719 
 205      B8C08229 
 205      F8EF9C
ARM GAS  /tmp/ccfzmerM.s 			page 15


 206 047e A8363AE6 		.ascii	"\2506:\346\347E\357\264Sp\217\340=\372\035\002/z\263"
 206      E745EFB4 
 206      53708FE0 
 206      3DFA1D02 
 206      2F7AB3
 207 0491 D06C76D0 		.ascii	"\320lv\320\315\262\0179\372\2458\272\200GF@\257\370"
 207      CDB20F39 
 207      FAA538BA 
 207      80474640 
 207      AFF8
 208 04a3 A611FB7A 		.ascii	"\246\021\373z\307\354\274\330\235v\012\3365\215\330"
 208      C7ECBCD8 
 208      9D760ADE 
 208      358DD8
 209 04b2 7773639F 		.ascii	"wsc\237a\213}\2673v\3725:\372\010\217\214\200\366\026"
 209      618B7DB7 
 209      3376FA35 
 209      3AFA088F 
 209      8C80F616 
 210 04c6 8A5DC12F 		.ascii	"\212]\301/\001W\003\212~?\216V\361\241>\264A\241\222"
 210      0157038A 
 210      7E3F8E56 
 210      F1A13EB4 
 210      41A192
 211 04d9 B4BA3A19 		.ascii	"\264\272:\031WKV\256}\2462\214\346\207B\222\366\353"
 211      574B56AE 
 211      7DA6328C 
 211      E6874292 
 211      F6EB
 212 04eb 4A4B1D6D 		.ascii	"JK\035m\011)\235\212Ii5\024C\201\364\213i5\336\331\036"
 212      09299D8A 
 212      49693514 
 212      4381F48B 
 212      6935DED9 
 213 0500 5517E7DA 		.ascii	"U\027\347\332\244TikWJMKMr$\034yA\212u\304\272R\355"
 213      A454696B 
 213      574A4D4B 
 213      4D72241C 
 213      79418A75 
 214 0518 A10E54BA 		.ascii	"\241\016T\272-\236Tk\032\242\252*umU\351c\351\331X\254"
 214      2D9E546B 
 214      1AA2AA2A 
 214      756D55E9 
 214      63E9D958 
 215 052d BA2DD559 		.ascii	"\272-\325Y\235\354J\266W\267\267m\212W\327G\033\253"
 215      9DEC4AB6 
 215      57B7B76D 
 215      8A57D747 
 215      1BAB
 216 053f 6B97D6D4 		.ascii	"k\227\326\324=W'm\212')d\"\276\211\332I6;\251>\324\030"
 216      3D57276D 
 216      8A272964 
 216      22BE89DA 
 216      49363BA9 
 217 0556 AA97CC79 		.ascii	"\252\227\314y\341g\177\036O\306\022\3336\267\003\323"
 217      E1677F1E 
 217      4FC612DB 
ARM GAS  /tmp/ccfzmerM.s 			page 16


 217      36B703D3 
 218 0566 CD302BCC 		.ascii	"\3150+\314^\236V[\324\266\224\332\224\000C\037\345]"
 218      5E9E565B 
 218      D4B694DA 
 218      9400431F 
 218      E55D
 219 0578 4647BAB6 		.ascii	"FG\272\266\262\201\031\320oW\215\356J\275\013\026\321"
 219      B28119D0 
 219      6F578DEE 
 219      4ABD0B16 
 219      D1
 220 0589 44627334 		.ascii	"Dbs4\016\351\220\234y\320\202li\215\324\325Jk\3264K"
 220      0EE9909C 
 220      79D0826C 
 220      698DD4D5 
 220      4A6BD634 
 221 059e ADAB23CF 		.ascii	"\255\253#\317\327H\232\207\021m]mT\005\220Nz\215wF\325"
 221      D7489A87 
 221      116D5D6D 
 221      5405904E 
 221      7A8D7746 
 222 05b3 5AB720BA 		.ascii	"Z\267 \272\007\340\210a\271\006\244\326\327\022\011"
 222      07E08861 
 222      B906A4D6 
 222      D71209
 223 05c2 CBBEE6D5 		.ascii	"\313\276\346\325+d\241E\026W\254\224\037\010\207#r\015"
 223      2B64A145 
 223      1657AC94 
 223      1F088723 
 223      720D
 224 05d4 D3B5BE70 		.ascii	"\323\265\276px\205,\206\327\266\212\353Z\302b\223,\213"
 224      78852C86 
 224      D7B68AEB 
 224      5AC26293 
 224      2C8B
 225 05e6 7218EEC1 		.ascii	"r\030\356\301\341\251\346VYl\246\236\221&YxZ\363\252"
 225      E1A9E656 
 225      596CA69E 
 225      91265978 
 225      5AF3AA
 226 05f9 037B7919 		.ascii	"\003{y\031U\015\276XG[\2524\032\335\262-\031\213Fg\032"
 226      550DBE58 
 226      475BAA34 
 226      1ADDB22D 
 226      198B4667 
 227 060e 9D5043FD 		.ascii	"\235PC\375\262'r\357\032\352lw\215\271w\2155\377\003"
 227      B22772EF 
 227      1AEA6C77 
 227      8DB9778D 
 227      35FF03
 228 0621 27E5B7AB 		.ascii	"'\345\267\253"
 229              		.text
 230              		.section	.gnu.lto_.symtab.4a6228683c2a5a5a,"",%progbits
 231 0000 7374496E 		.ascii	"stInit\000\000\000\000\000\000\000\000\000\000\000\000"
 231      69740000 
 231      00000000 
 231      00000000 
ARM GAS  /tmp/ccfzmerM.s 			page 17


 231      0000
 232 0012 A0000000 		.ascii	"\240\000\000\000stStartAlarm\000\000\000\000\000\000"
 232      73745374 
 232      61727441 
 232      6C61726D 
 232      00000000 
 233 0028 00000000 		.ascii	"\000\000\000\000\000\000\245\000\000\000stStopAlarm"
 233      0000A500 
 233      00007374 
 233      53746F70 
 233      416C6172 
 234 003d 00000000 		.ascii	"\000\000\000\000\000\000\000\000\000\000\000\000\262"
 234      00000000 
 234      00000000 
 234      B2
 235 004a 00000073 		.ascii	"\000\000\000stSetAlarm\000\000\000\000\000\000\000\000"
 235      74536574 
 235      416C6172 
 235      6D000000 
 235      00000000 
 236 005f 00000000 		.ascii	"\000\000\000\000\265\000\000\000stGetAlarm\000\000\000"
 236      B5000000 
 236      73744765 
 236      74416C61 
 236      726D0000 
 237 0074 00000000 		.ascii	"\000\000\000\000\000\000\000\000\000\271\000\000\000"
 237      00000000 
 237      00B90000 
 237      00
 238 0081 73745F6C 		.ascii	"st_lld_init\000\000\002\000\000\000\000\000\000\000"
 238      6C645F69 
 238      6E697400 
 238      00020000 
 238      00000000 
 239 0096 0000BD00 		.ascii	"\000\000\275\000\000\000"
 239      0000
 240              		.text
 241              		.section	.gnu.lto_.opts,"",%progbits
 242 0000 272D6D63 		.ascii	"'-mcpu=cortex-m3''-mno-thumb-interwork''-mthumb''-g"
 242      70753D63 
 242      6F727465 
 242      782D6D33 
 242      27272D6D 
 243 0033 67646227 		.ascii	"gdb''-O2''-fomit-frame-pointer''-falign-functions=1"
 243      272D4F32 
 243      27272D66 
 243      6F6D6974 
 243      2D667261 
 244 0066 3627272D 		.ascii	"6''-ffunction-sections''-fdata-sections''-fno-commo"
 244      6666756E 
 244      6374696F 
 244      6E2D7365 
 244      6374696F 
 245 0099 6E27272D 		.ascii	"n''-flto'\000"
 245      666C746F 
 245      2700
 246              		.text
ARM GAS  /tmp/ccfzmerM.s 			page 18


 247              		.cfi_sections	.debug_frame
 248              		.section	.text.stInit,"ax",%progbits
 249              		.align	2
 250              		.p2align 4,,15
 251              		.global	stInit
 252              		.thumb
 253              		.thumb_func
 254              		.type	stInit, %function
 255              	stInit:
 256              	.LFB194:
 257              		.file 1 "../../../os/hal/src/st.c"
 258              		.loc 1 64 0
 259              		.cfi_startproc
 260              		@ args = 0, pretend = 0, frame = 0
 261              		@ frame_needed = 0, uses_anonymous_args = 0
 262              		@ link register save eliminated.
 263              		.loc 1 67 0
 264              		.loc 1 66 0
 265 0000 FFF7FEBF 		b	st_lld_init
 266              	.LVL0:
 267              		.cfi_endproc
 268              	.LFE194:
 269              		.size	stInit, .-stInit
 270 0004 AFF30080 		.section	.text.stStartAlarm,"ax",%progbits
 270      AFF30080 
 270      AFF30080 
 271              		.align	2
 272              		.p2align 4,,15
 273              		.global	stStartAlarm
 274              		.thumb
 275              		.thumb_func
 276              		.type	stStartAlarm, %function
 277              	stStartAlarm:
 278              	.LFB195:
 279              		.loc 1 81 0
 280              		.cfi_startproc
 281              		@ args = 0, pretend = 0, frame = 0
 282              		@ frame_needed = 0, uses_anonymous_args = 0
 283              		@ link register save eliminated.
 284              	.LVL1:
 285              	.LBB10:
 286              	.LBB11:
 287              		.file 2 "../../../os/hal/ports/STM32/LLD/TIMv1/st_lld.h"
 288              		.loc 2 142 0
 289 0000 4FF08043 		mov	r3, #1073741824
 290              	.LVL2:
 291 0004 5863     		str	r0, [r3, #52]
 292              		.loc 2 143 0
 293 0006 0022     		movs	r2, #0
 294              		.loc 2 144 0
 295 0008 0220     		movs	r0, #2
 296              	.LVL3:
 297              		.loc 2 143 0
 298 000a 1A61     		str	r2, [r3, #16]
 299              		.loc 2 144 0
 300 000c D860     		str	r0, [r3, #12]
 301 000e 7047     		bx	lr
ARM GAS  /tmp/ccfzmerM.s 			page 19


 302              	.LBE11:
 303              	.LBE10:
 304              		.cfi_endproc
 305              	.LFE195:
 306              		.size	stStartAlarm, .-stStartAlarm
 307              		.section	.text.stStopAlarm,"ax",%progbits
 308              		.align	2
 309              		.p2align 4,,15
 310              		.global	stStopAlarm
 311              		.thumb
 312              		.thumb_func
 313              		.type	stStopAlarm, %function
 314              	stStopAlarm:
 315              	.LFB196:
 316              		.loc 1 95 0
 317              		.cfi_startproc
 318              		@ args = 0, pretend = 0, frame = 0
 319              		@ frame_needed = 0, uses_anonymous_args = 0
 320              		@ link register save eliminated.
 321              	.LBB12:
 322              	.LBB13:
 323              		.loc 2 154 0
 324 0000 0022     		movs	r2, #0
 325 0002 4FF08043 		mov	r3, #1073741824
 326 0006 DA60     		str	r2, [r3, #12]
 327 0008 7047     		bx	lr
 328              	.LBE13:
 329              	.LBE12:
 330              		.cfi_endproc
 331              	.LFE196:
 332              		.size	stStopAlarm, .-stStopAlarm
 333 000a 00BFAFF3 		.section	.text.stSetAlarm,"ax",%progbits
 333      0080
 334              		.align	2
 335              		.p2align 4,,15
 336              		.global	stSetAlarm
 337              		.thumb
 338              		.thumb_func
 339              		.type	stSetAlarm, %function
 340              	stSetAlarm:
 341              	.LFB197:
 342              		.loc 1 111 0
 343              		.cfi_startproc
 344              		@ args = 0, pretend = 0, frame = 0
 345              		@ frame_needed = 0, uses_anonymous_args = 0
 346              		@ link register save eliminated.
 347              	.LVL4:
 348              	.LBB14:
 349              	.LBB15:
 350              		.loc 2 166 0
 351 0000 4FF08043 		mov	r3, #1073741824
 352 0004 5863     		str	r0, [r3, #52]
 353 0006 7047     		bx	lr
 354              	.LBE15:
 355              	.LBE14:
 356              		.cfi_endproc
 357              	.LFE197:
ARM GAS  /tmp/ccfzmerM.s 			page 20


 358              		.size	stSetAlarm, .-stSetAlarm
 359 0008 AFF30080 		.section	.text.stGetAlarm,"ax",%progbits
 359      AFF30080 
 360              		.align	2
 361              		.p2align 4,,15
 362              		.global	stGetAlarm
 363              		.thumb
 364              		.thumb_func
 365              		.type	stGetAlarm, %function
 366              	stGetAlarm:
 367              	.LFB198:
 368              		.loc 1 127 0
 369              		.cfi_startproc
 370              		@ args = 0, pretend = 0, frame = 0
 371              		@ frame_needed = 0, uses_anonymous_args = 0
 372              		@ link register save eliminated.
 373              	.LBB16:
 374              	.LBB17:
 375              		.loc 2 178 0
 376 0000 4FF08043 		mov	r3, #1073741824
 377 0004 586B     		ldr	r0, [r3, #52]
 378              	.LBE17:
 379              	.LBE16:
 380              		.loc 1 132 0
 381 0006 80B2     		uxth	r0, r0
 382 0008 7047     		bx	lr
 383              		.cfi_endproc
 384              	.LFE198:
 385              		.size	stGetAlarm, .-stGetAlarm
 386 000a 00BFAFF3 		.text
 386      0080
 387              	.Letext0:
 388              		.file 3 "/opt/ARM/gcc-arm-none-eabi-4_7-2013q3/bin/../lib/gcc/arm-none-eabi/4.7.4/../../../../arm-
 389              		.file 4 "../../../os/rt/include/chschd.h"
 390              		.file 5 "../../../os/rt/ports/ARMCMx/compilers/GCC/chtypes.h"
 391              		.file 6 "../../../os/rt/ports/ARMCMx/chcore.h"
 392              		.file 7 "../../../os/rt/ports/ARMCMx/chcore_v7m.h"
 393              		.file 8 "../../../os/hal/ports/STM32/LLD/TIMv1/stm32_tim.h"
 394              		.file 9 "../../../os/rt/include/chmtx.h"
 395              		.file 10 "../../../os/ext/CMSIS/include/core_cm3.h"
 396              		.section	.debug_info,"",%progbits
 397              	.Ldebug_info0:
 398 0000 7A080000 		.4byte	0x87a
 399 0004 0200     		.2byte	0x2
 400 0006 00000000 		.4byte	.Ldebug_abbrev0
 401 000a 04       		.byte	0x4
 402 000b 01       		.uleb128 0x1
 403 000c C9000000 		.4byte	.LASF101
 404 0010 01       		.byte	0x1
 405 0011 B4010000 		.4byte	.LASF102
 406 0015 80030000 		.4byte	.LASF103
 407 0019 00000000 		.4byte	.Ldebug_ranges0+0
 408 001d 00000000 		.4byte	0
 409 0021 00000000 		.4byte	0
 410 0025 00000000 		.4byte	.Ldebug_line0
 411 0029 02       		.uleb128 0x2
 412 002a 04       		.byte	0x4
ARM GAS  /tmp/ccfzmerM.s 			page 21


 413 002b 05       		.byte	0x5
 414 002c 696E7400 		.ascii	"int\000"
 415 0030 03       		.uleb128 0x3
 416 0031 04       		.byte	0x4
 417 0032 07       		.byte	0x7
 418 0033 9F010000 		.4byte	.LASF0
 419 0037 03       		.uleb128 0x3
 420 0038 01       		.byte	0x1
 421 0039 06       		.byte	0x6
 422 003a A7000000 		.4byte	.LASF1
 423 003e 04       		.uleb128 0x4
 424 003f F0020000 		.4byte	.LASF4
 425 0043 03       		.byte	0x3
 426 0044 2A       		.byte	0x2a
 427 0045 49000000 		.4byte	0x49
 428 0049 03       		.uleb128 0x3
 429 004a 01       		.byte	0x1
 430 004b 08       		.byte	0x8
 431 004c B1020000 		.4byte	.LASF2
 432 0050 03       		.uleb128 0x3
 433 0051 02       		.byte	0x2
 434 0052 05       		.byte	0x5
 435 0053 C9020000 		.4byte	.LASF3
 436 0057 04       		.uleb128 0x4
 437 0058 4A010000 		.4byte	.LASF5
 438 005c 03       		.byte	0x3
 439 005d 36       		.byte	0x36
 440 005e 62000000 		.4byte	0x62
 441 0062 03       		.uleb128 0x3
 442 0063 02       		.byte	0x2
 443 0064 07       		.byte	0x7
 444 0065 5B010000 		.4byte	.LASF6
 445 0069 04       		.uleb128 0x4
 446 006a A9020000 		.4byte	.LASF7
 447 006e 03       		.byte	0x3
 448 006f 4F       		.byte	0x4f
 449 0070 74000000 		.4byte	0x74
 450 0074 03       		.uleb128 0x3
 451 0075 04       		.byte	0x4
 452 0076 05       		.byte	0x5
 453 0077 1C010000 		.4byte	.LASF8
 454 007b 04       		.uleb128 0x4
 455 007c 14030000 		.4byte	.LASF9
 456 0080 03       		.byte	0x3
 457 0081 50       		.byte	0x50
 458 0082 86000000 		.4byte	0x86
 459 0086 03       		.uleb128 0x3
 460 0087 04       		.byte	0x4
 461 0088 07       		.byte	0x7
 462 0089 2E030000 		.4byte	.LASF10
 463 008d 03       		.uleb128 0x3
 464 008e 08       		.byte	0x8
 465 008f 05       		.byte	0x5
 466 0090 3C010000 		.4byte	.LASF11
 467 0094 03       		.uleb128 0x3
 468 0095 08       		.byte	0x8
 469 0096 07       		.byte	0x7
ARM GAS  /tmp/ccfzmerM.s 			page 22


 470 0097 3A000000 		.4byte	.LASF12
 471 009b 05       		.uleb128 0x5
 472 009c 2E010000 		.4byte	.LASF40
 473 00a0 44       		.byte	0x44
 474 00a1 04       		.byte	0x4
 475 00a2 79       		.byte	0x79
 476 00a3 A4010000 		.4byte	0x1a4
 477 00a7 06       		.uleb128 0x6
 478 00a8 E9020000 		.4byte	.LASF13
 479 00ac 04       		.byte	0x4
 480 00ad 7A       		.byte	0x7a
 481 00ae 51040000 		.4byte	0x451
 482 00b2 02       		.byte	0x2
 483 00b3 23       		.byte	0x23
 484 00b4 00       		.uleb128 0
 485 00b5 06       		.uleb128 0x6
 486 00b6 8E020000 		.4byte	.LASF14
 487 00ba 04       		.byte	0x4
 488 00bb 7C       		.byte	0x7c
 489 00bc 51040000 		.4byte	0x451
 490 00c0 02       		.byte	0x2
 491 00c1 23       		.byte	0x23
 492 00c2 04       		.uleb128 0x4
 493 00c3 06       		.uleb128 0x6
 494 00c4 8E000000 		.4byte	.LASF15
 495 00c8 04       		.byte	0x4
 496 00c9 7E       		.byte	0x7e
 497 00ca DA010000 		.4byte	0x1da
 498 00ce 02       		.byte	0x2
 499 00cf 23       		.byte	0x23
 500 00d0 08       		.uleb128 0x8
 501 00d1 06       		.uleb128 0x6
 502 00d2 B5040000 		.4byte	.LASF16
 503 00d6 04       		.byte	0x4
 504 00d7 7F       		.byte	0x7f
 505 00d8 2A020000 		.4byte	0x22a
 506 00dc 02       		.byte	0x2
 507 00dd 23       		.byte	0x23
 508 00de 0C       		.uleb128 0xc
 509 00df 06       		.uleb128 0x6
 510 00e0 53010000 		.4byte	.LASF17
 511 00e4 04       		.byte	0x4
 512 00e5 81       		.byte	0x81
 513 00e6 51040000 		.4byte	0x451
 514 00ea 02       		.byte	0x2
 515 00eb 23       		.byte	0x23
 516 00ec 10       		.uleb128 0x10
 517 00ed 06       		.uleb128 0x6
 518 00ee 4A020000 		.4byte	.LASF18
 519 00f2 04       		.byte	0x4
 520 00f3 82       		.byte	0x82
 521 00f4 51040000 		.4byte	0x451
 522 00f8 02       		.byte	0x2
 523 00f9 23       		.byte	0x23
 524 00fa 14       		.uleb128 0x14
 525 00fb 06       		.uleb128 0x6
 526 00fc 40040000 		.4byte	.LASF19
ARM GAS  /tmp/ccfzmerM.s 			page 23


 527 0100 04       		.byte	0x4
 528 0101 89       		.byte	0x89
 529 0102 21050000 		.4byte	0x521
 530 0106 02       		.byte	0x2
 531 0107 23       		.byte	0x23
 532 0108 18       		.uleb128 0x18
 533 0109 06       		.uleb128 0x6
 534 010a D3020000 		.4byte	.LASF20
 535 010e 04       		.byte	0x4
 536 010f 94       		.byte	0x94
 537 0110 C4010000 		.4byte	0x1c4
 538 0114 02       		.byte	0x2
 539 0115 23       		.byte	0x23
 540 0116 1C       		.uleb128 0x1c
 541 0117 06       		.uleb128 0x6
 542 0118 97010000 		.4byte	.LASF21
 543 011c 04       		.byte	0x4
 544 011d 98       		.byte	0x98
 545 011e B9010000 		.4byte	0x1b9
 546 0122 02       		.byte	0x2
 547 0123 23       		.byte	0x23
 548 0124 1D       		.uleb128 0x1d
 549 0125 06       		.uleb128 0x6
 550 0126 35010000 		.4byte	.LASF22
 551 012a 04       		.byte	0x4
 552 012b 9D       		.byte	0x9d
 553 012c CF010000 		.4byte	0x1cf
 554 0130 02       		.byte	0x2
 555 0131 23       		.byte	0x23
 556 0132 1E       		.uleb128 0x1e
 557 0133 07       		.uleb128 0x7
 558 0134 705F7500 		.ascii	"p_u\000"
 559 0138 04       		.byte	0x4
 560 0139 CF       		.byte	0xcf
 561 013a EC040000 		.4byte	0x4ec
 562 013e 02       		.byte	0x2
 563 013f 23       		.byte	0x23
 564 0140 20       		.uleb128 0x20
 565 0141 06       		.uleb128 0x6
 566 0142 1A020000 		.4byte	.LASF23
 567 0146 04       		.byte	0x4
 568 0147 D4       		.byte	0xd4
 569 0148 79040000 		.4byte	0x479
 570 014c 02       		.byte	0x2
 571 014d 23       		.byte	0x23
 572 014e 24       		.uleb128 0x24
 573 014f 06       		.uleb128 0x6
 574 0150 CD010000 		.4byte	.LASF24
 575 0154 04       		.byte	0x4
 576 0155 DA       		.byte	0xda
 577 0156 57040000 		.4byte	0x457
 578 015a 02       		.byte	0x2
 579 015b 23       		.byte	0x23
 580 015c 28       		.uleb128 0x28
 581 015d 06       		.uleb128 0x6
 582 015e 99040000 		.4byte	.LASF25
 583 0162 04       		.byte	0x4
ARM GAS  /tmp/ccfzmerM.s 			page 24


 584 0163 DE       		.byte	0xde
 585 0164 E5010000 		.4byte	0x1e5
 586 0168 02       		.byte	0x2
 587 0169 23       		.byte	0x23
 588 016a 30       		.uleb128 0x30
 589 016b 06       		.uleb128 0x6
 590 016c 09030000 		.4byte	.LASF26
 591 0170 04       		.byte	0x4
 592 0171 E4       		.byte	0xe4
 593 0172 F0010000 		.4byte	0x1f0
 594 0176 02       		.byte	0x2
 595 0177 23       		.byte	0x23
 596 0178 34       		.uleb128 0x34
 597 0179 06       		.uleb128 0x6
 598 017a BF020000 		.4byte	.LASF27
 599 017e 04       		.byte	0x4
 600 017f EB       		.byte	0xeb
 601 0180 6A050000 		.4byte	0x56a
 602 0184 02       		.byte	0x2
 603 0185 23       		.byte	0x23
 604 0186 38       		.uleb128 0x38
 605 0187 06       		.uleb128 0x6
 606 0188 6C030000 		.4byte	.LASF28
 607 018c 04       		.byte	0x4
 608 018d EF       		.byte	0xef
 609 018e DA010000 		.4byte	0x1da
 610 0192 02       		.byte	0x2
 611 0193 23       		.byte	0x23
 612 0194 3C       		.uleb128 0x3c
 613 0195 06       		.uleb128 0x6
 614 0196 76010000 		.4byte	.LASF29
 615 019a 04       		.byte	0x4
 616 019b F5       		.byte	0xf5
 617 019c 28020000 		.4byte	0x228
 618 01a0 02       		.byte	0x2
 619 01a1 23       		.byte	0x23
 620 01a2 40       		.uleb128 0x40
 621 01a3 00       		.byte	0
 622 01a4 08       		.uleb128 0x8
 623 01a5 69000000 		.4byte	0x69
 624 01a9 08       		.uleb128 0x8
 625 01aa 7B000000 		.4byte	0x7b
 626 01ae 04       		.uleb128 0x4
 627 01af EE030000 		.4byte	.LASF30
 628 01b3 05       		.byte	0x5
 629 01b4 46       		.byte	0x46
 630 01b5 7B000000 		.4byte	0x7b
 631 01b9 04       		.uleb128 0x4
 632 01ba 91040000 		.4byte	.LASF31
 633 01be 05       		.byte	0x5
 634 01bf 49       		.byte	0x49
 635 01c0 3E000000 		.4byte	0x3e
 636 01c4 04       		.uleb128 0x4
 637 01c5 25010000 		.4byte	.LASF32
 638 01c9 05       		.byte	0x5
 639 01ca 4A       		.byte	0x4a
 640 01cb 3E000000 		.4byte	0x3e
ARM GAS  /tmp/ccfzmerM.s 			page 25


 641 01cf 04       		.uleb128 0x4
 642 01d0 76020000 		.4byte	.LASF33
 643 01d4 05       		.byte	0x5
 644 01d5 4B       		.byte	0x4b
 645 01d6 3E000000 		.4byte	0x3e
 646 01da 04       		.uleb128 0x4
 647 01db 95020000 		.4byte	.LASF34
 648 01df 05       		.byte	0x5
 649 01e0 4D       		.byte	0x4d
 650 01e1 7B000000 		.4byte	0x7b
 651 01e5 04       		.uleb128 0x4
 652 01e6 DD010000 		.4byte	.LASF35
 653 01ea 05       		.byte	0x5
 654 01eb 4E       		.byte	0x4e
 655 01ec 69000000 		.4byte	0x69
 656 01f0 04       		.uleb128 0x4
 657 01f1 FB010000 		.4byte	.LASF36
 658 01f5 05       		.byte	0x5
 659 01f6 50       		.byte	0x50
 660 01f7 7B000000 		.4byte	0x7b
 661 01fb 03       		.uleb128 0x3
 662 01fc 04       		.byte	0x4
 663 01fd 07       		.byte	0x7
 664 01fe 24020000 		.4byte	.LASF37
 665 0202 09       		.uleb128 0x9
 666 0203 7B000000 		.4byte	0x7b
 667 0207 12020000 		.4byte	0x212
 668 020b 0A       		.uleb128 0xa
 669 020c FB010000 		.4byte	0x1fb
 670 0210 03       		.byte	0x3
 671 0211 00       		.byte	0
 672 0212 04       		.uleb128 0x4
 673 0213 62030000 		.4byte	.LASF38
 674 0217 06       		.byte	0x6
 675 0218 89       		.byte	0x89
 676 0219 57000000 		.4byte	0x57
 677 021d 04       		.uleb128 0x4
 678 021e 7E010000 		.4byte	.LASF39
 679 0222 06       		.byte	0x6
 680 0223 8F       		.byte	0x8f
 681 0224 28020000 		.4byte	0x228
 682 0228 0B       		.uleb128 0xb
 683 0229 04       		.byte	0x4
 684 022a 05       		.uleb128 0x5
 685 022b E6030000 		.4byte	.LASF41
 686 022f 04       		.byte	0x4
 687 0230 06       		.byte	0x6
 688 0231 B3       		.byte	0xb3
 689 0232 45020000 		.4byte	0x245
 690 0236 07       		.uleb128 0x7
 691 0237 72313300 		.ascii	"r13\000"
 692 023b 06       		.byte	0x6
 693 023c B4       		.byte	0xb4
 694 023d D2020000 		.4byte	0x2d2
 695 0241 02       		.byte	0x2
 696 0242 23       		.byte	0x23
 697 0243 00       		.uleb128 0
ARM GAS  /tmp/ccfzmerM.s 			page 26


 698 0244 00       		.byte	0
 699 0245 05       		.uleb128 0x5
 700 0246 27000000 		.4byte	.LASF42
 701 024a 24       		.byte	0x24
 702 024b 07       		.byte	0x7
 703 024c F5       		.byte	0xf5
 704 024d D2020000 		.4byte	0x2d2
 705 0251 0C       		.uleb128 0xc
 706 0252 723400   		.ascii	"r4\000"
 707 0255 07       		.byte	0x7
 708 0256 0801     		.2byte	0x108
 709 0258 1D020000 		.4byte	0x21d
 710 025c 02       		.byte	0x2
 711 025d 23       		.byte	0x23
 712 025e 00       		.uleb128 0
 713 025f 0C       		.uleb128 0xc
 714 0260 723500   		.ascii	"r5\000"
 715 0263 07       		.byte	0x7
 716 0264 0901     		.2byte	0x109
 717 0266 1D020000 		.4byte	0x21d
 718 026a 02       		.byte	0x2
 719 026b 23       		.byte	0x23
 720 026c 04       		.uleb128 0x4
 721 026d 0C       		.uleb128 0xc
 722 026e 723600   		.ascii	"r6\000"
 723 0271 07       		.byte	0x7
 724 0272 0A01     		.2byte	0x10a
 725 0274 1D020000 		.4byte	0x21d
 726 0278 02       		.byte	0x2
 727 0279 23       		.byte	0x23
 728 027a 08       		.uleb128 0x8
 729 027b 0C       		.uleb128 0xc
 730 027c 723700   		.ascii	"r7\000"
 731 027f 07       		.byte	0x7
 732 0280 0B01     		.2byte	0x10b
 733 0282 1D020000 		.4byte	0x21d
 734 0286 02       		.byte	0x2
 735 0287 23       		.byte	0x23
 736 0288 0C       		.uleb128 0xc
 737 0289 0C       		.uleb128 0xc
 738 028a 723800   		.ascii	"r8\000"
 739 028d 07       		.byte	0x7
 740 028e 0C01     		.2byte	0x10c
 741 0290 1D020000 		.4byte	0x21d
 742 0294 02       		.byte	0x2
 743 0295 23       		.byte	0x23
 744 0296 10       		.uleb128 0x10
 745 0297 0C       		.uleb128 0xc
 746 0298 723900   		.ascii	"r9\000"
 747 029b 07       		.byte	0x7
 748 029c 0D01     		.2byte	0x10d
 749 029e 1D020000 		.4byte	0x21d
 750 02a2 02       		.byte	0x2
 751 02a3 23       		.byte	0x23
 752 02a4 14       		.uleb128 0x14
 753 02a5 0C       		.uleb128 0xc
 754 02a6 72313000 		.ascii	"r10\000"
ARM GAS  /tmp/ccfzmerM.s 			page 27


 755 02aa 07       		.byte	0x7
 756 02ab 0E01     		.2byte	0x10e
 757 02ad 1D020000 		.4byte	0x21d
 758 02b1 02       		.byte	0x2
 759 02b2 23       		.byte	0x23
 760 02b3 18       		.uleb128 0x18
 761 02b4 0C       		.uleb128 0xc
 762 02b5 72313100 		.ascii	"r11\000"
 763 02b9 07       		.byte	0x7
 764 02ba 0F01     		.2byte	0x10f
 765 02bc 1D020000 		.4byte	0x21d
 766 02c0 02       		.byte	0x2
 767 02c1 23       		.byte	0x23
 768 02c2 1C       		.uleb128 0x1c
 769 02c3 0C       		.uleb128 0xc
 770 02c4 6C7200   		.ascii	"lr\000"
 771 02c7 07       		.byte	0x7
 772 02c8 1001     		.2byte	0x110
 773 02ca 1D020000 		.4byte	0x21d
 774 02ce 02       		.byte	0x2
 775 02cf 23       		.byte	0x23
 776 02d0 20       		.uleb128 0x20
 777 02d1 00       		.byte	0
 778 02d2 0D       		.uleb128 0xd
 779 02d3 04       		.byte	0x4
 780 02d4 45020000 		.4byte	0x245
 781 02d8 0E       		.uleb128 0xe
 782 02d9 60       		.byte	0x60
 783 02da 08       		.byte	0x8
 784 02db 9E01     		.2byte	0x19e
 785 02dd 1B040000 		.4byte	0x41b
 786 02e1 0C       		.uleb128 0xc
 787 02e2 43523100 		.ascii	"CR1\000"
 788 02e6 08       		.byte	0x8
 789 02e7 9F01     		.2byte	0x19f
 790 02e9 A9010000 		.4byte	0x1a9
 791 02ed 02       		.byte	0x2
 792 02ee 23       		.byte	0x23
 793 02ef 00       		.uleb128 0
 794 02f0 0C       		.uleb128 0xc
 795 02f1 43523200 		.ascii	"CR2\000"
 796 02f5 08       		.byte	0x8
 797 02f6 A001     		.2byte	0x1a0
 798 02f8 A9010000 		.4byte	0x1a9
 799 02fc 02       		.byte	0x2
 800 02fd 23       		.byte	0x23
 801 02fe 04       		.uleb128 0x4
 802 02ff 0F       		.uleb128 0xf
 803 0300 D8010000 		.4byte	.LASF43
 804 0304 08       		.byte	0x8
 805 0305 A101     		.2byte	0x1a1
 806 0307 A9010000 		.4byte	0x1a9
 807 030b 02       		.byte	0x2
 808 030c 23       		.byte	0x23
 809 030d 08       		.uleb128 0x8
 810 030e 0F       		.uleb128 0xf
 811 030f 0D000000 		.4byte	.LASF44
ARM GAS  /tmp/ccfzmerM.s 			page 28


 812 0313 08       		.byte	0x8
 813 0314 A201     		.2byte	0x1a2
 814 0316 A9010000 		.4byte	0x1a9
 815 031a 02       		.byte	0x2
 816 031b 23       		.byte	0x23
 817 031c 0C       		.uleb128 0xc
 818 031d 0C       		.uleb128 0xc
 819 031e 535200   		.ascii	"SR\000"
 820 0321 08       		.byte	0x8
 821 0322 A301     		.2byte	0x1a3
 822 0324 A9010000 		.4byte	0x1a9
 823 0328 02       		.byte	0x2
 824 0329 23       		.byte	0x23
 825 032a 10       		.uleb128 0x10
 826 032b 0C       		.uleb128 0xc
 827 032c 45475200 		.ascii	"EGR\000"
 828 0330 08       		.byte	0x8
 829 0331 A401     		.2byte	0x1a4
 830 0333 A9010000 		.4byte	0x1a9
 831 0337 02       		.byte	0x2
 832 0338 23       		.byte	0x23
 833 0339 14       		.uleb128 0x14
 834 033a 0F       		.uleb128 0xf
 835 033b 95000000 		.4byte	.LASF45
 836 033f 08       		.byte	0x8
 837 0340 A501     		.2byte	0x1a5
 838 0342 A9010000 		.4byte	0x1a9
 839 0346 02       		.byte	0x2
 840 0347 23       		.byte	0x23
 841 0348 18       		.uleb128 0x18
 842 0349 0F       		.uleb128 0xf
 843 034a 9B000000 		.4byte	.LASF46
 844 034e 08       		.byte	0x8
 845 034f A601     		.2byte	0x1a6
 846 0351 A9010000 		.4byte	0x1a9
 847 0355 02       		.byte	0x2
 848 0356 23       		.byte	0x23
 849 0357 1C       		.uleb128 0x1c
 850 0358 0F       		.uleb128 0xf
 851 0359 56030000 		.4byte	.LASF47
 852 035d 08       		.byte	0x8
 853 035e A701     		.2byte	0x1a7
 854 0360 A9010000 		.4byte	0x1a9
 855 0364 02       		.byte	0x2
 856 0365 23       		.byte	0x23
 857 0366 20       		.uleb128 0x20
 858 0367 0C       		.uleb128 0xc
 859 0368 434E5400 		.ascii	"CNT\000"
 860 036c 08       		.byte	0x8
 861 036d A801     		.2byte	0x1a8
 862 036f A9010000 		.4byte	0x1a9
 863 0373 02       		.byte	0x2
 864 0374 23       		.byte	0x23
 865 0375 24       		.uleb128 0x24
 866 0376 0C       		.uleb128 0xc
 867 0377 50534300 		.ascii	"PSC\000"
 868 037b 08       		.byte	0x8
ARM GAS  /tmp/ccfzmerM.s 			page 29


 869 037c A901     		.2byte	0x1a9
 870 037e A9010000 		.4byte	0x1a9
 871 0382 02       		.byte	0x2
 872 0383 23       		.byte	0x23
 873 0384 28       		.uleb128 0x28
 874 0385 0C       		.uleb128 0xc
 875 0386 41525200 		.ascii	"ARR\000"
 876 038a 08       		.byte	0x8
 877 038b AA01     		.2byte	0x1aa
 878 038d A9010000 		.4byte	0x1a9
 879 0391 02       		.byte	0x2
 880 0392 23       		.byte	0x23
 881 0393 2C       		.uleb128 0x2c
 882 0394 0C       		.uleb128 0xc
 883 0395 52435200 		.ascii	"RCR\000"
 884 0399 08       		.byte	0x8
 885 039a AB01     		.2byte	0x1ab
 886 039c A9010000 		.4byte	0x1a9
 887 03a0 02       		.byte	0x2
 888 03a1 23       		.byte	0x23
 889 03a2 30       		.uleb128 0x30
 890 03a3 0C       		.uleb128 0xc
 891 03a4 43435200 		.ascii	"CCR\000"
 892 03a8 08       		.byte	0x8
 893 03a9 AC01     		.2byte	0x1ac
 894 03ab 1B040000 		.4byte	0x41b
 895 03af 02       		.byte	0x2
 896 03b0 23       		.byte	0x23
 897 03b1 34       		.uleb128 0x34
 898 03b2 0F       		.uleb128 0xf
 899 03b3 89000000 		.4byte	.LASF48
 900 03b7 08       		.byte	0x8
 901 03b8 AD01     		.2byte	0x1ad
 902 03ba A9010000 		.4byte	0x1a9
 903 03be 02       		.byte	0x2
 904 03bf 23       		.byte	0x23
 905 03c0 44       		.uleb128 0x44
 906 03c1 0C       		.uleb128 0xc
 907 03c2 44435200 		.ascii	"DCR\000"
 908 03c6 08       		.byte	0x8
 909 03c7 AE01     		.2byte	0x1ae
 910 03c9 A9010000 		.4byte	0x1a9
 911 03cd 02       		.byte	0x2
 912 03ce 23       		.byte	0x23
 913 03cf 48       		.uleb128 0x48
 914 03d0 0F       		.uleb128 0xf
 915 03d1 51030000 		.4byte	.LASF49
 916 03d5 08       		.byte	0x8
 917 03d6 AF01     		.2byte	0x1af
 918 03d8 A9010000 		.4byte	0x1a9
 919 03dc 02       		.byte	0x2
 920 03dd 23       		.byte	0x23
 921 03de 4C       		.uleb128 0x4c
 922 03df 0C       		.uleb128 0xc
 923 03e0 4F5200   		.ascii	"OR\000"
 924 03e3 08       		.byte	0x8
 925 03e4 B001     		.2byte	0x1b0
ARM GAS  /tmp/ccfzmerM.s 			page 30


 926 03e6 A9010000 		.4byte	0x1a9
 927 03ea 02       		.byte	0x2
 928 03eb 23       		.byte	0x23
 929 03ec 50       		.uleb128 0x50
 930 03ed 0F       		.uleb128 0xf
 931 03ee A1000000 		.4byte	.LASF50
 932 03f2 08       		.byte	0x8
 933 03f3 B101     		.2byte	0x1b1
 934 03f5 A9010000 		.4byte	0x1a9
 935 03f9 02       		.byte	0x2
 936 03fa 23       		.byte	0x23
 937 03fb 54       		.uleb128 0x54
 938 03fc 0F       		.uleb128 0xf
 939 03fd 47040000 		.4byte	.LASF51
 940 0401 08       		.byte	0x8
 941 0402 B201     		.2byte	0x1b2
 942 0404 A9010000 		.4byte	0x1a9
 943 0408 02       		.byte	0x2
 944 0409 23       		.byte	0x23
 945 040a 58       		.uleb128 0x58
 946 040b 0F       		.uleb128 0xf
 947 040c 4C040000 		.4byte	.LASF52
 948 0410 08       		.byte	0x8
 949 0411 B301     		.2byte	0x1b3
 950 0413 A9010000 		.4byte	0x1a9
 951 0417 02       		.byte	0x2
 952 0418 23       		.byte	0x23
 953 0419 5C       		.uleb128 0x5c
 954 041a 00       		.byte	0
 955 041b 08       		.uleb128 0x8
 956 041c 02020000 		.4byte	0x202
 957 0420 10       		.uleb128 0x10
 958 0421 EF010000 		.4byte	.LASF53
 959 0425 08       		.byte	0x8
 960 0426 B401     		.2byte	0x1b4
 961 0428 D8020000 		.4byte	0x2d8
 962 042c 11       		.uleb128 0x11
 963 042d 08       		.byte	0x8
 964 042e 04       		.byte	0x4
 965 042f 53       		.byte	0x53
 966 0430 51040000 		.4byte	0x451
 967 0434 06       		.uleb128 0x6
 968 0435 E9020000 		.4byte	.LASF13
 969 0439 04       		.byte	0x4
 970 043a 54       		.byte	0x54
 971 043b 51040000 		.4byte	0x451
 972 043f 02       		.byte	0x2
 973 0440 23       		.byte	0x23
 974 0441 00       		.uleb128 0
 975 0442 06       		.uleb128 0x6
 976 0443 8E020000 		.4byte	.LASF14
 977 0447 04       		.byte	0x4
 978 0448 55       		.byte	0x55
 979 0449 51040000 		.4byte	0x451
 980 044d 02       		.byte	0x2
 981 044e 23       		.byte	0x23
 982 044f 04       		.uleb128 0x4
ARM GAS  /tmp/ccfzmerM.s 			page 31


 983 0450 00       		.byte	0
 984 0451 0D       		.uleb128 0xd
 985 0452 04       		.byte	0x4
 986 0453 9B000000 		.4byte	0x9b
 987 0457 04       		.uleb128 0x4
 988 0458 30040000 		.4byte	.LASF54
 989 045c 04       		.byte	0x4
 990 045d 56       		.byte	0x56
 991 045e 2C040000 		.4byte	0x42c
 992 0462 11       		.uleb128 0x11
 993 0463 04       		.byte	0x4
 994 0464 04       		.byte	0x4
 995 0465 5B       		.byte	0x5b
 996 0466 79040000 		.4byte	0x479
 997 046a 06       		.uleb128 0x6
 998 046b E9020000 		.4byte	.LASF13
 999 046f 04       		.byte	0x4
 1000 0470 5C       		.byte	0x5c
 1001 0471 51040000 		.4byte	0x451
 1002 0475 02       		.byte	0x2
 1003 0476 23       		.byte	0x23
 1004 0477 00       		.uleb128 0
 1005 0478 00       		.byte	0
 1006 0479 04       		.uleb128 0x4
 1007 047a 82040000 		.4byte	.LASF55
 1008 047e 04       		.byte	0x4
 1009 047f 5D       		.byte	0x5d
 1010 0480 62040000 		.4byte	0x462
 1011 0484 11       		.uleb128 0x11
 1012 0485 1C       		.byte	0x1c
 1013 0486 04       		.byte	0x4
 1014 0487 64       		.byte	0x64
 1015 0488 E1040000 		.4byte	0x4e1
 1016 048c 06       		.uleb128 0x6
 1017 048d 1D030000 		.4byte	.LASF56
 1018 0491 04       		.byte	0x4
 1019 0492 65       		.byte	0x65
 1020 0493 57040000 		.4byte	0x457
 1021 0497 02       		.byte	0x2
 1022 0498 23       		.byte	0x23
 1023 0499 00       		.uleb128 0
 1024 049a 06       		.uleb128 0x6
 1025 049b DB020000 		.4byte	.LASF57
 1026 049f 04       		.byte	0x4
 1027 04a0 66       		.byte	0x66
 1028 04a1 DA010000 		.4byte	0x1da
 1029 04a5 02       		.byte	0x2
 1030 04a6 23       		.byte	0x23
 1031 04a7 08       		.uleb128 0x8
 1032 04a8 06       		.uleb128 0x6
 1033 04a9 59020000 		.4byte	.LASF58
 1034 04ad 04       		.byte	0x4
 1035 04ae 68       		.byte	0x68
 1036 04af 2A020000 		.4byte	0x22a
 1037 04b3 02       		.byte	0x2
 1038 04b4 23       		.byte	0x23
 1039 04b5 0C       		.uleb128 0xc
ARM GAS  /tmp/ccfzmerM.s 			page 32


 1040 04b6 06       		.uleb128 0x6
 1041 04b7 6E010000 		.4byte	.LASF59
 1042 04bb 04       		.byte	0x4
 1043 04bc 6B       		.byte	0x6b
 1044 04bd 51040000 		.4byte	0x451
 1045 04c1 02       		.byte	0x2
 1046 04c2 23       		.byte	0x23
 1047 04c3 10       		.uleb128 0x10
 1048 04c4 06       		.uleb128 0x6
 1049 04c5 6E020000 		.4byte	.LASF60
 1050 04c9 04       		.byte	0x4
 1051 04ca 6C       		.byte	0x6c
 1052 04cb 51040000 		.4byte	0x451
 1053 04cf 02       		.byte	0x2
 1054 04d0 23       		.byte	0x23
 1055 04d1 14       		.uleb128 0x14
 1056 04d2 06       		.uleb128 0x6
 1057 04d3 64020000 		.4byte	.LASF61
 1058 04d7 04       		.byte	0x4
 1059 04d8 6F       		.byte	0x6f
 1060 04d9 51040000 		.4byte	0x451
 1061 04dd 02       		.byte	0x2
 1062 04de 23       		.byte	0x23
 1063 04df 18       		.uleb128 0x18
 1064 04e0 00       		.byte	0
 1065 04e1 04       		.uleb128 0x4
 1066 04e2 00000000 		.4byte	.LASF62
 1067 04e6 04       		.byte	0x4
 1068 04e7 71       		.byte	0x71
 1069 04e8 84040000 		.4byte	0x484
 1070 04ec 12       		.uleb128 0x12
 1071 04ed 04       		.byte	0x4
 1072 04ee 04       		.byte	0x4
 1073 04ef B1       		.byte	0xb1
 1074 04f0 21050000 		.4byte	0x521
 1075 04f4 13       		.uleb128 0x13
 1076 04f5 12000000 		.4byte	.LASF63
 1077 04f9 04       		.byte	0x4
 1078 04fa B8       		.byte	0xb8
 1079 04fb E5010000 		.4byte	0x1e5
 1080 04ff 13       		.uleb128 0x13
 1081 0500 51000000 		.4byte	.LASF64
 1082 0504 04       		.byte	0x4
 1083 0505 BF       		.byte	0xbf
 1084 0506 E5010000 		.4byte	0x1e5
 1085 050a 13       		.uleb128 0x13
 1086 050b 6D040000 		.4byte	.LASF65
 1087 050f 04       		.byte	0x4
 1088 0510 C6       		.byte	0xc6
 1089 0511 28020000 		.4byte	0x228
 1090 0515 13       		.uleb128 0x13
 1091 0516 E2020000 		.4byte	.LASF66
 1092 051a 04       		.byte	0x4
 1093 051b CD       		.byte	0xcd
 1094 051c F0010000 		.4byte	0x1f0
 1095 0520 00       		.byte	0
 1096 0521 0D       		.uleb128 0xd
ARM GAS  /tmp/ccfzmerM.s 			page 33


 1097 0522 04       		.byte	0x4
 1098 0523 27050000 		.4byte	0x527
 1099 0527 14       		.uleb128 0x14
 1100 0528 2C050000 		.4byte	0x52c
 1101 052c 03       		.uleb128 0x3
 1102 052d 01       		.byte	0x1
 1103 052e 08       		.byte	0x8
 1104 052f 4C030000 		.4byte	.LASF67
 1105 0533 05       		.uleb128 0x5
 1106 0534 9D020000 		.4byte	.LASF68
 1107 0538 10       		.byte	0x10
 1108 0539 09       		.byte	0x9
 1109 053a 3A       		.byte	0x3a
 1110 053b 6A050000 		.4byte	0x56a
 1111 053f 06       		.uleb128 0x6
 1112 0540 B3000000 		.4byte	.LASF69
 1113 0544 09       		.byte	0x9
 1114 0545 3B       		.byte	0x3b
 1115 0546 57040000 		.4byte	0x457
 1116 054a 02       		.byte	0x2
 1117 054b 23       		.byte	0x23
 1118 054c 00       		.uleb128 0
 1119 054d 06       		.uleb128 0x6
 1120 054e AD040000 		.4byte	.LASF70
 1121 0552 09       		.byte	0x9
 1122 0553 3D       		.byte	0x3d
 1123 0554 51040000 		.4byte	0x451
 1124 0558 02       		.byte	0x2
 1125 0559 23       		.byte	0x23
 1126 055a 08       		.uleb128 0x8
 1127 055b 06       		.uleb128 0x6
 1128 055c 5B030000 		.4byte	.LASF71
 1129 0560 09       		.byte	0x9
 1130 0561 3F       		.byte	0x3f
 1131 0562 9D060000 		.4byte	0x69d
 1132 0566 02       		.byte	0x2
 1133 0567 23       		.byte	0x23
 1134 0568 0C       		.uleb128 0xc
 1135 0569 00       		.byte	0
 1136 056a 0D       		.uleb128 0xd
 1137 056b 04       		.byte	0x4
 1138 056c 33050000 		.4byte	0x533
 1139 0570 10       		.uleb128 0x10
 1140 0571 77030000 		.4byte	.LASF72
 1141 0575 04       		.byte	0x4
 1142 0576 0301     		.2byte	0x103
 1143 0578 7C050000 		.4byte	0x57c
 1144 057c 0D       		.uleb128 0xd
 1145 057d 04       		.byte	0x4
 1146 057e 82050000 		.4byte	0x582
 1147 0582 15       		.uleb128 0x15
 1148 0583 01       		.byte	0x1
 1149 0584 8E050000 		.4byte	0x58e
 1150 0588 16       		.uleb128 0x16
 1151 0589 28020000 		.4byte	0x228
 1152 058d 00       		.byte	0
 1153 058e 10       		.uleb128 0x10
ARM GAS  /tmp/ccfzmerM.s 			page 34


 1154 058f 7E020000 		.4byte	.LASF73
 1155 0593 04       		.byte	0x4
 1156 0594 0801     		.2byte	0x108
 1157 0596 9A050000 		.4byte	0x59a
 1158 059a 17       		.uleb128 0x17
 1159 059b 08040000 		.4byte	.LASF74
 1160 059f 14       		.byte	0x14
 1161 05a0 04       		.byte	0x4
 1162 05a1 0F01     		.2byte	0x10f
 1163 05a3 F3050000 		.4byte	0x5f3
 1164 05a7 0F       		.uleb128 0xf
 1165 05a8 AC010000 		.4byte	.LASF75
 1166 05ac 04       		.byte	0x4
 1167 05ad 1001     		.2byte	0x110
 1168 05af F3050000 		.4byte	0x5f3
 1169 05b3 02       		.byte	0x2
 1170 05b4 23       		.byte	0x23
 1171 05b5 00       		.uleb128 0
 1172 05b6 0F       		.uleb128 0xf
 1173 05b7 87010000 		.4byte	.LASF76
 1174 05bb 04       		.byte	0x4
 1175 05bc 1101     		.2byte	0x111
 1176 05be F3050000 		.4byte	0x5f3
 1177 05c2 02       		.byte	0x2
 1178 05c3 23       		.byte	0x23
 1179 05c4 04       		.uleb128 0x4
 1180 05c5 0F       		.uleb128 0xf
 1181 05c6 25030000 		.4byte	.LASF77
 1182 05ca 04       		.byte	0x4
 1183 05cb 1201     		.2byte	0x112
 1184 05cd 12020000 		.4byte	0x212
 1185 05d1 02       		.byte	0x2
 1186 05d2 23       		.byte	0x23
 1187 05d3 08       		.uleb128 0x8
 1188 05d4 0F       		.uleb128 0xf
 1189 05d5 BB040000 		.4byte	.LASF78
 1190 05d9 04       		.byte	0x4
 1191 05da 1301     		.2byte	0x113
 1192 05dc 70050000 		.4byte	0x570
 1193 05e0 02       		.byte	0x2
 1194 05e1 23       		.byte	0x23
 1195 05e2 0C       		.uleb128 0xc
 1196 05e3 0F       		.uleb128 0xf
 1197 05e4 16040000 		.4byte	.LASF79
 1198 05e8 04       		.byte	0x4
 1199 05e9 1501     		.2byte	0x115
 1200 05eb 28020000 		.4byte	0x228
 1201 05ef 02       		.byte	0x2
 1202 05f0 23       		.byte	0x23
 1203 05f1 10       		.uleb128 0x10
 1204 05f2 00       		.byte	0
 1205 05f3 0D       		.uleb128 0xd
 1206 05f4 04       		.byte	0x4
 1207 05f5 8E050000 		.4byte	0x58e
 1208 05f9 0E       		.uleb128 0xe
 1209 05fa 0C       		.byte	0xc
 1210 05fb 04       		.byte	0x4
ARM GAS  /tmp/ccfzmerM.s 			page 35


 1211 05fc 1F01     		.2byte	0x11f
 1212 05fe 3F060000 		.4byte	0x63f
 1213 0602 0F       		.uleb128 0xf
 1214 0603 AC010000 		.4byte	.LASF75
 1215 0607 04       		.byte	0x4
 1216 0608 2001     		.2byte	0x120
 1217 060a F3050000 		.4byte	0x5f3
 1218 060e 02       		.byte	0x2
 1219 060f 23       		.byte	0x23
 1220 0610 00       		.uleb128 0
 1221 0611 0F       		.uleb128 0xf
 1222 0612 87010000 		.4byte	.LASF76
 1223 0616 04       		.byte	0x4
 1224 0617 2201     		.2byte	0x122
 1225 0619 F3050000 		.4byte	0x5f3
 1226 061d 02       		.byte	0x2
 1227 061e 23       		.byte	0x23
 1228 061f 04       		.uleb128 0x4
 1229 0620 0F       		.uleb128 0xf
 1230 0621 25030000 		.4byte	.LASF77
 1231 0625 04       		.byte	0x4
 1232 0626 2401     		.2byte	0x124
 1233 0628 12020000 		.4byte	0x212
 1234 062c 02       		.byte	0x2
 1235 062d 23       		.byte	0x23
 1236 062e 08       		.uleb128 0x8
 1237 062f 0F       		.uleb128 0xf
 1238 0630 3E020000 		.4byte	.LASF80
 1239 0634 04       		.byte	0x4
 1240 0635 2C01     		.2byte	0x12c
 1241 0637 12020000 		.4byte	0x212
 1242 063b 02       		.byte	0x2
 1243 063c 23       		.byte	0x23
 1244 063d 0A       		.uleb128 0xa
 1245 063e 00       		.byte	0
 1246 063f 10       		.uleb128 0x10
 1247 0640 5A000000 		.4byte	.LASF81
 1248 0644 04       		.byte	0x4
 1249 0645 2F01     		.2byte	0x12f
 1250 0647 F9050000 		.4byte	0x5f9
 1251 064b 17       		.uleb128 0x17
 1252 064c 12010000 		.4byte	.LASF82
 1253 0650 2C       		.byte	0x2c
 1254 0651 04       		.byte	0x4
 1255 0652 3601     		.2byte	0x136
 1256 0654 86060000 		.4byte	0x686
 1257 0658 0F       		.uleb128 0xf
 1258 0659 51040000 		.4byte	.LASF83
 1259 065d 04       		.byte	0x4
 1260 065e 3A01     		.2byte	0x13a
 1261 0660 E1040000 		.4byte	0x4e1
 1262 0664 02       		.byte	0x2
 1263 0665 23       		.byte	0x23
 1264 0666 00       		.uleb128 0
 1265 0667 0F       		.uleb128 0xf
 1266 0668 33000000 		.4byte	.LASF84
 1267 066c 04       		.byte	0x4
ARM GAS  /tmp/ccfzmerM.s 			page 36


 1268 066d 3E01     		.2byte	0x13e
 1269 066f 3F060000 		.4byte	0x63f
 1270 0673 02       		.byte	0x2
 1271 0674 23       		.byte	0x23
 1272 0675 1C       		.uleb128 0x1c
 1273 0676 0F       		.uleb128 0xf
 1274 0677 1D040000 		.4byte	.LASF85
 1275 067b 04       		.byte	0x4
 1276 067c 4301     		.2byte	0x143
 1277 067e AE010000 		.4byte	0x1ae
 1278 0682 02       		.byte	0x2
 1279 0683 23       		.byte	0x23
 1280 0684 28       		.uleb128 0x28
 1281 0685 00       		.byte	0
 1282 0686 10       		.uleb128 0x10
 1283 0687 E3010000 		.4byte	.LASF86
 1284 068b 04       		.byte	0x4
 1285 068c 6501     		.2byte	0x165
 1286 068e 4B060000 		.4byte	0x64b
 1287 0692 04       		.uleb128 0x4
 1288 0693 8F010000 		.4byte	.LASF87
 1289 0697 09       		.byte	0x9
 1290 0698 35       		.byte	0x35
 1291 0699 33050000 		.4byte	0x533
 1292 069d 0D       		.uleb128 0xd
 1293 069e 04       		.byte	0x4
 1294 069f 92060000 		.4byte	0x692
 1295 06a3 03       		.uleb128 0x3
 1296 06a4 01       		.byte	0x1
 1297 06a5 02       		.byte	0x2
 1298 06a6 A3020000 		.4byte	.LASF88
 1299 06aa 18       		.uleb128 0x18
 1300 06ab 07020000 		.4byte	.LASF89
 1301 06af 02       		.byte	0x2
 1302 06b0 8C       		.byte	0x8c
 1303 06b1 01       		.byte	0x1
 1304 06b2 03       		.byte	0x3
 1305 06b3 C3060000 		.4byte	0x6c3
 1306 06b7 19       		.uleb128 0x19
 1307 06b8 5F020000 		.4byte	.LASF91
 1308 06bc 02       		.byte	0x2
 1309 06bd 8C       		.byte	0x8c
 1310 06be 12020000 		.4byte	0x212
 1311 06c2 00       		.byte	0
 1312 06c3 1A       		.uleb128 0x1a
 1313 06c4 F6030000 		.4byte	.LASF104
 1314 06c8 02       		.byte	0x2
 1315 06c9 98       		.byte	0x98
 1316 06ca 01       		.byte	0x1
 1317 06cb 03       		.byte	0x3
 1318 06cc 18       		.uleb128 0x18
 1319 06cd 2D020000 		.4byte	.LASF90
 1320 06d1 02       		.byte	0x2
 1321 06d2 A4       		.byte	0xa4
 1322 06d3 01       		.byte	0x1
 1323 06d4 03       		.byte	0x3
 1324 06d5 E5060000 		.4byte	0x6e5
ARM GAS  /tmp/ccfzmerM.s 			page 37


 1325 06d9 19       		.uleb128 0x19
 1326 06da 5F020000 		.4byte	.LASF91
 1327 06de 02       		.byte	0x2
 1328 06df A4       		.byte	0xa4
 1329 06e0 12020000 		.4byte	0x212
 1330 06e4 00       		.byte	0
 1331 06e5 1B       		.uleb128 0x1b
 1332 06e6 F8020000 		.4byte	.LASF105
 1333 06ea 02       		.byte	0x2
 1334 06eb B0       		.byte	0xb0
 1335 06ec 01       		.byte	0x1
 1336 06ed 12020000 		.4byte	0x212
 1337 06f1 03       		.byte	0x3
 1338 06f2 1C       		.uleb128 0x1c
 1339 06f3 01       		.byte	0x1
 1340 06f4 52020000 		.4byte	.LASF92
 1341 06f8 01       		.byte	0x1
 1342 06f9 40       		.byte	0x40
 1343 06fa 01       		.byte	0x1
 1344 06fb 00000000 		.4byte	.LFB194
 1345 06ff 04000000 		.4byte	.LFE194
 1346 0703 02       		.byte	0x2
 1347 0704 7D       		.byte	0x7d
 1348 0705 00       		.sleb128 0
 1349 0706 01       		.byte	0x1
 1350 0707 16070000 		.4byte	0x716
 1351 070b 1D       		.uleb128 0x1d
 1352 070c 04000000 		.4byte	.LVL0
 1353 0710 01       		.byte	0x1
 1354 0711 73080000 		.4byte	0x873
 1355 0715 00       		.byte	0
 1356 0716 1C       		.uleb128 0x1c
 1357 0717 01       		.byte	0x1
 1358 0718 D9030000 		.4byte	.LASF93
 1359 071c 01       		.byte	0x1
 1360 071d 51       		.byte	0x51
 1361 071e 01       		.byte	0x1
 1362 071f 00000000 		.4byte	.LFB195
 1363 0723 10000000 		.4byte	.LFE195
 1364 0727 02       		.byte	0x2
 1365 0728 7D       		.byte	0x7d
 1366 0729 00       		.sleb128 0
 1367 072a 01       		.byte	0x1
 1368 072b 62070000 		.4byte	0x762
 1369 072f 1E       		.uleb128 0x1e
 1370 0730 5F020000 		.4byte	.LASF91
 1371 0734 01       		.byte	0x1
 1372 0735 51       		.byte	0x51
 1373 0736 12020000 		.4byte	0x212
 1374 073a 00000000 		.4byte	.LLST0
 1375 073e 1F       		.uleb128 0x1f
 1376 073f 74040000 		.4byte	.LASF95
 1377 0743 72070000 		.4byte	0x772
 1378 0747 01       		.byte	0x1
 1379 0748 20       		.uleb128 0x20
 1380 0749 AA060000 		.4byte	0x6aa
 1381 074d 00000000 		.4byte	.LBB10
ARM GAS  /tmp/ccfzmerM.s 			page 38


 1382 0751 10000000 		.4byte	.LBE10
 1383 0755 01       		.byte	0x1
 1384 0756 55       		.byte	0x55
 1385 0757 21       		.uleb128 0x21
 1386 0758 B7060000 		.4byte	0x6b7
 1387 075c 21000000 		.4byte	.LLST1
 1388 0760 00       		.byte	0
 1389 0761 00       		.byte	0
 1390 0762 09       		.uleb128 0x9
 1391 0763 2C050000 		.4byte	0x52c
 1392 0767 72070000 		.4byte	0x772
 1393 076b 0A       		.uleb128 0xa
 1394 076c FB010000 		.4byte	0x1fb
 1395 0770 0C       		.byte	0xc
 1396 0771 00       		.byte	0
 1397 0772 14       		.uleb128 0x14
 1398 0773 62070000 		.4byte	0x762
 1399 0777 1C       		.uleb128 0x1c
 1400 0778 01       		.byte	0x1
 1401 0779 40030000 		.4byte	.LASF94
 1402 077d 01       		.byte	0x1
 1403 077e 5F       		.byte	0x5f
 1404 077f 01       		.byte	0x1
 1405 0780 00000000 		.4byte	.LFB196
 1406 0784 0A000000 		.4byte	.LFE196
 1407 0788 02       		.byte	0x2
 1408 0789 7D       		.byte	0x7d
 1409 078a 00       		.sleb128 0
 1410 078b 01       		.byte	0x1
 1411 078c AA070000 		.4byte	0x7aa
 1412 0790 1F       		.uleb128 0x1f
 1413 0791 19000000 		.4byte	.LASF96
 1414 0795 BA070000 		.4byte	0x7ba
 1415 0799 01       		.byte	0x1
 1416 079a 22       		.uleb128 0x22
 1417 079b C3060000 		.4byte	0x6c3
 1418 079f 00000000 		.4byte	.LBB12
 1419 07a3 0A000000 		.4byte	.LBE12
 1420 07a7 01       		.byte	0x1
 1421 07a8 63       		.byte	0x63
 1422 07a9 00       		.byte	0
 1423 07aa 09       		.uleb128 0x9
 1424 07ab 2C050000 		.4byte	0x52c
 1425 07af BA070000 		.4byte	0x7ba
 1426 07b3 0A       		.uleb128 0xa
 1427 07b4 FB010000 		.4byte	0x1fb
 1428 07b8 0B       		.byte	0xb
 1429 07b9 00       		.byte	0
 1430 07ba 14       		.uleb128 0x14
 1431 07bb AA070000 		.4byte	0x7aa
 1432 07bf 1C       		.uleb128 0x1c
 1433 07c0 01       		.byte	0x1
 1434 07c1 57040000 		.4byte	.LASF97
 1435 07c5 01       		.byte	0x1
 1436 07c6 6F       		.byte	0x6f
 1437 07c7 01       		.byte	0x1
 1438 07c8 00000000 		.4byte	.LFB197
ARM GAS  /tmp/ccfzmerM.s 			page 39


 1439 07cc 08000000 		.4byte	.LFE197
 1440 07d0 02       		.byte	0x2
 1441 07d1 7D       		.byte	0x7d
 1442 07d2 00       		.sleb128 0
 1443 07d3 01       		.byte	0x1
 1444 07d4 07080000 		.4byte	0x807
 1445 07d8 23       		.uleb128 0x23
 1446 07d9 5F020000 		.4byte	.LASF91
 1447 07dd 01       		.byte	0x1
 1448 07de 6F       		.byte	0x6f
 1449 07df 12020000 		.4byte	0x212
 1450 07e3 01       		.byte	0x1
 1451 07e4 50       		.byte	0x50
 1452 07e5 1F       		.uleb128 0x1f
 1453 07e6 9F040000 		.4byte	.LASF98
 1454 07ea 17080000 		.4byte	0x817
 1455 07ee 01       		.byte	0x1
 1456 07ef 20       		.uleb128 0x20
 1457 07f0 CC060000 		.4byte	0x6cc
 1458 07f4 00000000 		.4byte	.LBB14
 1459 07f8 08000000 		.4byte	.LBE14
 1460 07fc 01       		.byte	0x1
 1461 07fd 73       		.byte	0x73
 1462 07fe 24       		.uleb128 0x24
 1463 07ff D9060000 		.4byte	0x6d9
 1464 0803 01       		.byte	0x1
 1465 0804 50       		.byte	0x50
 1466 0805 00       		.byte	0
 1467 0806 00       		.byte	0
 1468 0807 09       		.uleb128 0x9
 1469 0808 2C050000 		.4byte	0x52c
 1470 080c 17080000 		.4byte	0x817
 1471 0810 0A       		.uleb128 0xa
 1472 0811 FB010000 		.4byte	0x1fb
 1473 0815 0A       		.byte	0xa
 1474 0816 00       		.byte	0
 1475 0817 14       		.uleb128 0x14
 1476 0818 07080000 		.4byte	0x807
 1477 081c 25       		.uleb128 0x25
 1478 081d 01       		.byte	0x1
 1479 081e 62040000 		.4byte	.LASF106
 1480 0822 01       		.byte	0x1
 1481 0823 7F       		.byte	0x7f
 1482 0824 01       		.byte	0x1
 1483 0825 12020000 		.4byte	0x212
 1484 0829 00000000 		.4byte	.LFB198
 1485 082d 0A000000 		.4byte	.LFE198
 1486 0831 02       		.byte	0x2
 1487 0832 7D       		.byte	0x7d
 1488 0833 00       		.sleb128 0
 1489 0834 01       		.byte	0x1
 1490 0835 53080000 		.4byte	0x853
 1491 0839 1F       		.uleb128 0x1f
 1492 083a BB000000 		.4byte	.LASF99
 1493 083e 53080000 		.4byte	0x853
 1494 0842 01       		.byte	0x1
 1495 0843 22       		.uleb128 0x22
ARM GAS  /tmp/ccfzmerM.s 			page 40


 1496 0844 E5060000 		.4byte	0x6e5
 1497 0848 00000000 		.4byte	.LBB16
 1498 084c 06000000 		.4byte	.LBE16
 1499 0850 01       		.byte	0x1
 1500 0851 83       		.byte	0x83
 1501 0852 00       		.byte	0
 1502 0853 14       		.uleb128 0x14
 1503 0854 07080000 		.4byte	0x807
 1504 0858 26       		.uleb128 0x26
 1505 0859 70000000 		.4byte	.LASF100
 1506 085d 0A       		.byte	0xa
 1507 085e 1606     		.2byte	0x616
 1508 0860 A4010000 		.4byte	0x1a4
 1509 0864 01       		.byte	0x1
 1510 0865 01       		.byte	0x1
 1511 0866 27       		.uleb128 0x27
 1512 0867 636800   		.ascii	"ch\000"
 1513 086a 04       		.byte	0x4
 1514 086b 8901     		.2byte	0x189
 1515 086d 86060000 		.4byte	0x686
 1516 0871 01       		.byte	0x1
 1517 0872 01       		.byte	0x1
 1518 0873 28       		.uleb128 0x28
 1519 0874 01       		.byte	0x1
 1520 0875 7D000000 		.4byte	.LASF107
 1521 0879 02       		.byte	0x2
 1522 087a 6E       		.byte	0x6e
 1523 087b 01       		.byte	0x1
 1524 087c 01       		.byte	0x1
 1525 087d 00       		.byte	0
 1526              		.section	.debug_abbrev,"",%progbits
 1527              	.Ldebug_abbrev0:
 1528 0000 01       		.uleb128 0x1
 1529 0001 11       		.uleb128 0x11
 1530 0002 01       		.byte	0x1
 1531 0003 25       		.uleb128 0x25
 1532 0004 0E       		.uleb128 0xe
 1533 0005 13       		.uleb128 0x13
 1534 0006 0B       		.uleb128 0xb
 1535 0007 03       		.uleb128 0x3
 1536 0008 0E       		.uleb128 0xe
 1537 0009 1B       		.uleb128 0x1b
 1538 000a 0E       		.uleb128 0xe
 1539 000b 55       		.uleb128 0x55
 1540 000c 06       		.uleb128 0x6
 1541 000d 11       		.uleb128 0x11
 1542 000e 01       		.uleb128 0x1
 1543 000f 52       		.uleb128 0x52
 1544 0010 01       		.uleb128 0x1
 1545 0011 10       		.uleb128 0x10
 1546 0012 06       		.uleb128 0x6
 1547 0013 00       		.byte	0
 1548 0014 00       		.byte	0
 1549 0015 02       		.uleb128 0x2
 1550 0016 24       		.uleb128 0x24
 1551 0017 00       		.byte	0
 1552 0018 0B       		.uleb128 0xb
ARM GAS  /tmp/ccfzmerM.s 			page 41


 1553 0019 0B       		.uleb128 0xb
 1554 001a 3E       		.uleb128 0x3e
 1555 001b 0B       		.uleb128 0xb
 1556 001c 03       		.uleb128 0x3
 1557 001d 08       		.uleb128 0x8
 1558 001e 00       		.byte	0
 1559 001f 00       		.byte	0
 1560 0020 03       		.uleb128 0x3
 1561 0021 24       		.uleb128 0x24
 1562 0022 00       		.byte	0
 1563 0023 0B       		.uleb128 0xb
 1564 0024 0B       		.uleb128 0xb
 1565 0025 3E       		.uleb128 0x3e
 1566 0026 0B       		.uleb128 0xb
 1567 0027 03       		.uleb128 0x3
 1568 0028 0E       		.uleb128 0xe
 1569 0029 00       		.byte	0
 1570 002a 00       		.byte	0
 1571 002b 04       		.uleb128 0x4
 1572 002c 16       		.uleb128 0x16
 1573 002d 00       		.byte	0
 1574 002e 03       		.uleb128 0x3
 1575 002f 0E       		.uleb128 0xe
 1576 0030 3A       		.uleb128 0x3a
 1577 0031 0B       		.uleb128 0xb
 1578 0032 3B       		.uleb128 0x3b
 1579 0033 0B       		.uleb128 0xb
 1580 0034 49       		.uleb128 0x49
 1581 0035 13       		.uleb128 0x13
 1582 0036 00       		.byte	0
 1583 0037 00       		.byte	0
 1584 0038 05       		.uleb128 0x5
 1585 0039 13       		.uleb128 0x13
 1586 003a 01       		.byte	0x1
 1587 003b 03       		.uleb128 0x3
 1588 003c 0E       		.uleb128 0xe
 1589 003d 0B       		.uleb128 0xb
 1590 003e 0B       		.uleb128 0xb
 1591 003f 3A       		.uleb128 0x3a
 1592 0040 0B       		.uleb128 0xb
 1593 0041 3B       		.uleb128 0x3b
 1594 0042 0B       		.uleb128 0xb
 1595 0043 01       		.uleb128 0x1
 1596 0044 13       		.uleb128 0x13
 1597 0045 00       		.byte	0
 1598 0046 00       		.byte	0
 1599 0047 06       		.uleb128 0x6
 1600 0048 0D       		.uleb128 0xd
 1601 0049 00       		.byte	0
 1602 004a 03       		.uleb128 0x3
 1603 004b 0E       		.uleb128 0xe
 1604 004c 3A       		.uleb128 0x3a
 1605 004d 0B       		.uleb128 0xb
 1606 004e 3B       		.uleb128 0x3b
 1607 004f 0B       		.uleb128 0xb
 1608 0050 49       		.uleb128 0x49
 1609 0051 13       		.uleb128 0x13
ARM GAS  /tmp/ccfzmerM.s 			page 42


 1610 0052 38       		.uleb128 0x38
 1611 0053 0A       		.uleb128 0xa
 1612 0054 00       		.byte	0
 1613 0055 00       		.byte	0
 1614 0056 07       		.uleb128 0x7
 1615 0057 0D       		.uleb128 0xd
 1616 0058 00       		.byte	0
 1617 0059 03       		.uleb128 0x3
 1618 005a 08       		.uleb128 0x8
 1619 005b 3A       		.uleb128 0x3a
 1620 005c 0B       		.uleb128 0xb
 1621 005d 3B       		.uleb128 0x3b
 1622 005e 0B       		.uleb128 0xb
 1623 005f 49       		.uleb128 0x49
 1624 0060 13       		.uleb128 0x13
 1625 0061 38       		.uleb128 0x38
 1626 0062 0A       		.uleb128 0xa
 1627 0063 00       		.byte	0
 1628 0064 00       		.byte	0
 1629 0065 08       		.uleb128 0x8
 1630 0066 35       		.uleb128 0x35
 1631 0067 00       		.byte	0
 1632 0068 49       		.uleb128 0x49
 1633 0069 13       		.uleb128 0x13
 1634 006a 00       		.byte	0
 1635 006b 00       		.byte	0
 1636 006c 09       		.uleb128 0x9
 1637 006d 01       		.uleb128 0x1
 1638 006e 01       		.byte	0x1
 1639 006f 49       		.uleb128 0x49
 1640 0070 13       		.uleb128 0x13
 1641 0071 01       		.uleb128 0x1
 1642 0072 13       		.uleb128 0x13
 1643 0073 00       		.byte	0
 1644 0074 00       		.byte	0
 1645 0075 0A       		.uleb128 0xa
 1646 0076 21       		.uleb128 0x21
 1647 0077 00       		.byte	0
 1648 0078 49       		.uleb128 0x49
 1649 0079 13       		.uleb128 0x13
 1650 007a 2F       		.uleb128 0x2f
 1651 007b 0B       		.uleb128 0xb
 1652 007c 00       		.byte	0
 1653 007d 00       		.byte	0
 1654 007e 0B       		.uleb128 0xb
 1655 007f 0F       		.uleb128 0xf
 1656 0080 00       		.byte	0
 1657 0081 0B       		.uleb128 0xb
 1658 0082 0B       		.uleb128 0xb
 1659 0083 00       		.byte	0
 1660 0084 00       		.byte	0
 1661 0085 0C       		.uleb128 0xc
 1662 0086 0D       		.uleb128 0xd
 1663 0087 00       		.byte	0
 1664 0088 03       		.uleb128 0x3
 1665 0089 08       		.uleb128 0x8
 1666 008a 3A       		.uleb128 0x3a
ARM GAS  /tmp/ccfzmerM.s 			page 43


 1667 008b 0B       		.uleb128 0xb
 1668 008c 3B       		.uleb128 0x3b
 1669 008d 05       		.uleb128 0x5
 1670 008e 49       		.uleb128 0x49
 1671 008f 13       		.uleb128 0x13
 1672 0090 38       		.uleb128 0x38
 1673 0091 0A       		.uleb128 0xa
 1674 0092 00       		.byte	0
 1675 0093 00       		.byte	0
 1676 0094 0D       		.uleb128 0xd
 1677 0095 0F       		.uleb128 0xf
 1678 0096 00       		.byte	0
 1679 0097 0B       		.uleb128 0xb
 1680 0098 0B       		.uleb128 0xb
 1681 0099 49       		.uleb128 0x49
 1682 009a 13       		.uleb128 0x13
 1683 009b 00       		.byte	0
 1684 009c 00       		.byte	0
 1685 009d 0E       		.uleb128 0xe
 1686 009e 13       		.uleb128 0x13
 1687 009f 01       		.byte	0x1
 1688 00a0 0B       		.uleb128 0xb
 1689 00a1 0B       		.uleb128 0xb
 1690 00a2 3A       		.uleb128 0x3a
 1691 00a3 0B       		.uleb128 0xb
 1692 00a4 3B       		.uleb128 0x3b
 1693 00a5 05       		.uleb128 0x5
 1694 00a6 01       		.uleb128 0x1
 1695 00a7 13       		.uleb128 0x13
 1696 00a8 00       		.byte	0
 1697 00a9 00       		.byte	0
 1698 00aa 0F       		.uleb128 0xf
 1699 00ab 0D       		.uleb128 0xd
 1700 00ac 00       		.byte	0
 1701 00ad 03       		.uleb128 0x3
 1702 00ae 0E       		.uleb128 0xe
 1703 00af 3A       		.uleb128 0x3a
 1704 00b0 0B       		.uleb128 0xb
 1705 00b1 3B       		.uleb128 0x3b
 1706 00b2 05       		.uleb128 0x5
 1707 00b3 49       		.uleb128 0x49
 1708 00b4 13       		.uleb128 0x13
 1709 00b5 38       		.uleb128 0x38
 1710 00b6 0A       		.uleb128 0xa
 1711 00b7 00       		.byte	0
 1712 00b8 00       		.byte	0
 1713 00b9 10       		.uleb128 0x10
 1714 00ba 16       		.uleb128 0x16
 1715 00bb 00       		.byte	0
 1716 00bc 03       		.uleb128 0x3
 1717 00bd 0E       		.uleb128 0xe
 1718 00be 3A       		.uleb128 0x3a
 1719 00bf 0B       		.uleb128 0xb
 1720 00c0 3B       		.uleb128 0x3b
 1721 00c1 05       		.uleb128 0x5
 1722 00c2 49       		.uleb128 0x49
 1723 00c3 13       		.uleb128 0x13
ARM GAS  /tmp/ccfzmerM.s 			page 44


 1724 00c4 00       		.byte	0
 1725 00c5 00       		.byte	0
 1726 00c6 11       		.uleb128 0x11
 1727 00c7 13       		.uleb128 0x13
 1728 00c8 01       		.byte	0x1
 1729 00c9 0B       		.uleb128 0xb
 1730 00ca 0B       		.uleb128 0xb
 1731 00cb 3A       		.uleb128 0x3a
 1732 00cc 0B       		.uleb128 0xb
 1733 00cd 3B       		.uleb128 0x3b
 1734 00ce 0B       		.uleb128 0xb
 1735 00cf 01       		.uleb128 0x1
 1736 00d0 13       		.uleb128 0x13
 1737 00d1 00       		.byte	0
 1738 00d2 00       		.byte	0
 1739 00d3 12       		.uleb128 0x12
 1740 00d4 17       		.uleb128 0x17
 1741 00d5 01       		.byte	0x1
 1742 00d6 0B       		.uleb128 0xb
 1743 00d7 0B       		.uleb128 0xb
 1744 00d8 3A       		.uleb128 0x3a
 1745 00d9 0B       		.uleb128 0xb
 1746 00da 3B       		.uleb128 0x3b
 1747 00db 0B       		.uleb128 0xb
 1748 00dc 01       		.uleb128 0x1
 1749 00dd 13       		.uleb128 0x13
 1750 00de 00       		.byte	0
 1751 00df 00       		.byte	0
 1752 00e0 13       		.uleb128 0x13
 1753 00e1 0D       		.uleb128 0xd
 1754 00e2 00       		.byte	0
 1755 00e3 03       		.uleb128 0x3
 1756 00e4 0E       		.uleb128 0xe
 1757 00e5 3A       		.uleb128 0x3a
 1758 00e6 0B       		.uleb128 0xb
 1759 00e7 3B       		.uleb128 0x3b
 1760 00e8 0B       		.uleb128 0xb
 1761 00e9 49       		.uleb128 0x49
 1762 00ea 13       		.uleb128 0x13
 1763 00eb 00       		.byte	0
 1764 00ec 00       		.byte	0
 1765 00ed 14       		.uleb128 0x14
 1766 00ee 26       		.uleb128 0x26
 1767 00ef 00       		.byte	0
 1768 00f0 49       		.uleb128 0x49
 1769 00f1 13       		.uleb128 0x13
 1770 00f2 00       		.byte	0
 1771 00f3 00       		.byte	0
 1772 00f4 15       		.uleb128 0x15
 1773 00f5 15       		.uleb128 0x15
 1774 00f6 01       		.byte	0x1
 1775 00f7 27       		.uleb128 0x27
 1776 00f8 0C       		.uleb128 0xc
 1777 00f9 01       		.uleb128 0x1
 1778 00fa 13       		.uleb128 0x13
 1779 00fb 00       		.byte	0
 1780 00fc 00       		.byte	0
ARM GAS  /tmp/ccfzmerM.s 			page 45


 1781 00fd 16       		.uleb128 0x16
 1782 00fe 05       		.uleb128 0x5
 1783 00ff 00       		.byte	0
 1784 0100 49       		.uleb128 0x49
 1785 0101 13       		.uleb128 0x13
 1786 0102 00       		.byte	0
 1787 0103 00       		.byte	0
 1788 0104 17       		.uleb128 0x17
 1789 0105 13       		.uleb128 0x13
 1790 0106 01       		.byte	0x1
 1791 0107 03       		.uleb128 0x3
 1792 0108 0E       		.uleb128 0xe
 1793 0109 0B       		.uleb128 0xb
 1794 010a 0B       		.uleb128 0xb
 1795 010b 3A       		.uleb128 0x3a
 1796 010c 0B       		.uleb128 0xb
 1797 010d 3B       		.uleb128 0x3b
 1798 010e 05       		.uleb128 0x5
 1799 010f 01       		.uleb128 0x1
 1800 0110 13       		.uleb128 0x13
 1801 0111 00       		.byte	0
 1802 0112 00       		.byte	0
 1803 0113 18       		.uleb128 0x18
 1804 0114 2E       		.uleb128 0x2e
 1805 0115 01       		.byte	0x1
 1806 0116 03       		.uleb128 0x3
 1807 0117 0E       		.uleb128 0xe
 1808 0118 3A       		.uleb128 0x3a
 1809 0119 0B       		.uleb128 0xb
 1810 011a 3B       		.uleb128 0x3b
 1811 011b 0B       		.uleb128 0xb
 1812 011c 27       		.uleb128 0x27
 1813 011d 0C       		.uleb128 0xc
 1814 011e 20       		.uleb128 0x20
 1815 011f 0B       		.uleb128 0xb
 1816 0120 01       		.uleb128 0x1
 1817 0121 13       		.uleb128 0x13
 1818 0122 00       		.byte	0
 1819 0123 00       		.byte	0
 1820 0124 19       		.uleb128 0x19
 1821 0125 05       		.uleb128 0x5
 1822 0126 00       		.byte	0
 1823 0127 03       		.uleb128 0x3
 1824 0128 0E       		.uleb128 0xe
 1825 0129 3A       		.uleb128 0x3a
 1826 012a 0B       		.uleb128 0xb
 1827 012b 3B       		.uleb128 0x3b
 1828 012c 0B       		.uleb128 0xb
 1829 012d 49       		.uleb128 0x49
 1830 012e 13       		.uleb128 0x13
 1831 012f 00       		.byte	0
 1832 0130 00       		.byte	0
 1833 0131 1A       		.uleb128 0x1a
 1834 0132 2E       		.uleb128 0x2e
 1835 0133 00       		.byte	0
 1836 0134 03       		.uleb128 0x3
 1837 0135 0E       		.uleb128 0xe
ARM GAS  /tmp/ccfzmerM.s 			page 46


 1838 0136 3A       		.uleb128 0x3a
 1839 0137 0B       		.uleb128 0xb
 1840 0138 3B       		.uleb128 0x3b
 1841 0139 0B       		.uleb128 0xb
 1842 013a 27       		.uleb128 0x27
 1843 013b 0C       		.uleb128 0xc
 1844 013c 20       		.uleb128 0x20
 1845 013d 0B       		.uleb128 0xb
 1846 013e 00       		.byte	0
 1847 013f 00       		.byte	0
 1848 0140 1B       		.uleb128 0x1b
 1849 0141 2E       		.uleb128 0x2e
 1850 0142 00       		.byte	0
 1851 0143 03       		.uleb128 0x3
 1852 0144 0E       		.uleb128 0xe
 1853 0145 3A       		.uleb128 0x3a
 1854 0146 0B       		.uleb128 0xb
 1855 0147 3B       		.uleb128 0x3b
 1856 0148 0B       		.uleb128 0xb
 1857 0149 27       		.uleb128 0x27
 1858 014a 0C       		.uleb128 0xc
 1859 014b 49       		.uleb128 0x49
 1860 014c 13       		.uleb128 0x13
 1861 014d 20       		.uleb128 0x20
 1862 014e 0B       		.uleb128 0xb
 1863 014f 00       		.byte	0
 1864 0150 00       		.byte	0
 1865 0151 1C       		.uleb128 0x1c
 1866 0152 2E       		.uleb128 0x2e
 1867 0153 01       		.byte	0x1
 1868 0154 3F       		.uleb128 0x3f
 1869 0155 0C       		.uleb128 0xc
 1870 0156 03       		.uleb128 0x3
 1871 0157 0E       		.uleb128 0xe
 1872 0158 3A       		.uleb128 0x3a
 1873 0159 0B       		.uleb128 0xb
 1874 015a 3B       		.uleb128 0x3b
 1875 015b 0B       		.uleb128 0xb
 1876 015c 27       		.uleb128 0x27
 1877 015d 0C       		.uleb128 0xc
 1878 015e 11       		.uleb128 0x11
 1879 015f 01       		.uleb128 0x1
 1880 0160 12       		.uleb128 0x12
 1881 0161 01       		.uleb128 0x1
 1882 0162 40       		.uleb128 0x40
 1883 0163 0A       		.uleb128 0xa
 1884 0164 9742     		.uleb128 0x2117
 1885 0166 0C       		.uleb128 0xc
 1886 0167 01       		.uleb128 0x1
 1887 0168 13       		.uleb128 0x13
 1888 0169 00       		.byte	0
 1889 016a 00       		.byte	0
 1890 016b 1D       		.uleb128 0x1d
 1891 016c 898201   		.uleb128 0x4109
 1892 016f 00       		.byte	0
 1893 0170 11       		.uleb128 0x11
 1894 0171 01       		.uleb128 0x1
ARM GAS  /tmp/ccfzmerM.s 			page 47


 1895 0172 9542     		.uleb128 0x2115
 1896 0174 0C       		.uleb128 0xc
 1897 0175 31       		.uleb128 0x31
 1898 0176 13       		.uleb128 0x13
 1899 0177 00       		.byte	0
 1900 0178 00       		.byte	0
 1901 0179 1E       		.uleb128 0x1e
 1902 017a 05       		.uleb128 0x5
 1903 017b 00       		.byte	0
 1904 017c 03       		.uleb128 0x3
 1905 017d 0E       		.uleb128 0xe
 1906 017e 3A       		.uleb128 0x3a
 1907 017f 0B       		.uleb128 0xb
 1908 0180 3B       		.uleb128 0x3b
 1909 0181 0B       		.uleb128 0xb
 1910 0182 49       		.uleb128 0x49
 1911 0183 13       		.uleb128 0x13
 1912 0184 02       		.uleb128 0x2
 1913 0185 06       		.uleb128 0x6
 1914 0186 00       		.byte	0
 1915 0187 00       		.byte	0
 1916 0188 1F       		.uleb128 0x1f
 1917 0189 34       		.uleb128 0x34
 1918 018a 00       		.byte	0
 1919 018b 03       		.uleb128 0x3
 1920 018c 0E       		.uleb128 0xe
 1921 018d 49       		.uleb128 0x49
 1922 018e 13       		.uleb128 0x13
 1923 018f 34       		.uleb128 0x34
 1924 0190 0C       		.uleb128 0xc
 1925 0191 00       		.byte	0
 1926 0192 00       		.byte	0
 1927 0193 20       		.uleb128 0x20
 1928 0194 1D       		.uleb128 0x1d
 1929 0195 01       		.byte	0x1
 1930 0196 31       		.uleb128 0x31
 1931 0197 13       		.uleb128 0x13
 1932 0198 11       		.uleb128 0x11
 1933 0199 01       		.uleb128 0x1
 1934 019a 12       		.uleb128 0x12
 1935 019b 01       		.uleb128 0x1
 1936 019c 58       		.uleb128 0x58
 1937 019d 0B       		.uleb128 0xb
 1938 019e 59       		.uleb128 0x59
 1939 019f 0B       		.uleb128 0xb
 1940 01a0 00       		.byte	0
 1941 01a1 00       		.byte	0
 1942 01a2 21       		.uleb128 0x21
 1943 01a3 05       		.uleb128 0x5
 1944 01a4 00       		.byte	0
 1945 01a5 31       		.uleb128 0x31
 1946 01a6 13       		.uleb128 0x13
 1947 01a7 02       		.uleb128 0x2
 1948 01a8 06       		.uleb128 0x6
 1949 01a9 00       		.byte	0
 1950 01aa 00       		.byte	0
 1951 01ab 22       		.uleb128 0x22
ARM GAS  /tmp/ccfzmerM.s 			page 48


 1952 01ac 1D       		.uleb128 0x1d
 1953 01ad 00       		.byte	0
 1954 01ae 31       		.uleb128 0x31
 1955 01af 13       		.uleb128 0x13
 1956 01b0 11       		.uleb128 0x11
 1957 01b1 01       		.uleb128 0x1
 1958 01b2 12       		.uleb128 0x12
 1959 01b3 01       		.uleb128 0x1
 1960 01b4 58       		.uleb128 0x58
 1961 01b5 0B       		.uleb128 0xb
 1962 01b6 59       		.uleb128 0x59
 1963 01b7 0B       		.uleb128 0xb
 1964 01b8 00       		.byte	0
 1965 01b9 00       		.byte	0
 1966 01ba 23       		.uleb128 0x23
 1967 01bb 05       		.uleb128 0x5
 1968 01bc 00       		.byte	0
 1969 01bd 03       		.uleb128 0x3
 1970 01be 0E       		.uleb128 0xe
 1971 01bf 3A       		.uleb128 0x3a
 1972 01c0 0B       		.uleb128 0xb
 1973 01c1 3B       		.uleb128 0x3b
 1974 01c2 0B       		.uleb128 0xb
 1975 01c3 49       		.uleb128 0x49
 1976 01c4 13       		.uleb128 0x13
 1977 01c5 02       		.uleb128 0x2
 1978 01c6 0A       		.uleb128 0xa
 1979 01c7 00       		.byte	0
 1980 01c8 00       		.byte	0
 1981 01c9 24       		.uleb128 0x24
 1982 01ca 05       		.uleb128 0x5
 1983 01cb 00       		.byte	0
 1984 01cc 31       		.uleb128 0x31
 1985 01cd 13       		.uleb128 0x13
 1986 01ce 02       		.uleb128 0x2
 1987 01cf 0A       		.uleb128 0xa
 1988 01d0 00       		.byte	0
 1989 01d1 00       		.byte	0
 1990 01d2 25       		.uleb128 0x25
 1991 01d3 2E       		.uleb128 0x2e
 1992 01d4 01       		.byte	0x1
 1993 01d5 3F       		.uleb128 0x3f
 1994 01d6 0C       		.uleb128 0xc
 1995 01d7 03       		.uleb128 0x3
 1996 01d8 0E       		.uleb128 0xe
 1997 01d9 3A       		.uleb128 0x3a
 1998 01da 0B       		.uleb128 0xb
 1999 01db 3B       		.uleb128 0x3b
 2000 01dc 0B       		.uleb128 0xb
 2001 01dd 27       		.uleb128 0x27
 2002 01de 0C       		.uleb128 0xc
 2003 01df 49       		.uleb128 0x49
 2004 01e0 13       		.uleb128 0x13
 2005 01e1 11       		.uleb128 0x11
 2006 01e2 01       		.uleb128 0x1
 2007 01e3 12       		.uleb128 0x12
 2008 01e4 01       		.uleb128 0x1
ARM GAS  /tmp/ccfzmerM.s 			page 49


 2009 01e5 40       		.uleb128 0x40
 2010 01e6 0A       		.uleb128 0xa
 2011 01e7 9742     		.uleb128 0x2117
 2012 01e9 0C       		.uleb128 0xc
 2013 01ea 01       		.uleb128 0x1
 2014 01eb 13       		.uleb128 0x13
 2015 01ec 00       		.byte	0
 2016 01ed 00       		.byte	0
 2017 01ee 26       		.uleb128 0x26
 2018 01ef 34       		.uleb128 0x34
 2019 01f0 00       		.byte	0
 2020 01f1 03       		.uleb128 0x3
 2021 01f2 0E       		.uleb128 0xe
 2022 01f3 3A       		.uleb128 0x3a
 2023 01f4 0B       		.uleb128 0xb
 2024 01f5 3B       		.uleb128 0x3b
 2025 01f6 05       		.uleb128 0x5
 2026 01f7 49       		.uleb128 0x49
 2027 01f8 13       		.uleb128 0x13
 2028 01f9 3F       		.uleb128 0x3f
 2029 01fa 0C       		.uleb128 0xc
 2030 01fb 3C       		.uleb128 0x3c
 2031 01fc 0C       		.uleb128 0xc
 2032 01fd 00       		.byte	0
 2033 01fe 00       		.byte	0
 2034 01ff 27       		.uleb128 0x27
 2035 0200 34       		.uleb128 0x34
 2036 0201 00       		.byte	0
 2037 0202 03       		.uleb128 0x3
 2038 0203 08       		.uleb128 0x8
 2039 0204 3A       		.uleb128 0x3a
 2040 0205 0B       		.uleb128 0xb
 2041 0206 3B       		.uleb128 0x3b
 2042 0207 05       		.uleb128 0x5
 2043 0208 49       		.uleb128 0x49
 2044 0209 13       		.uleb128 0x13
 2045 020a 3F       		.uleb128 0x3f
 2046 020b 0C       		.uleb128 0xc
 2047 020c 3C       		.uleb128 0x3c
 2048 020d 0C       		.uleb128 0xc
 2049 020e 00       		.byte	0
 2050 020f 00       		.byte	0
 2051 0210 28       		.uleb128 0x28
 2052 0211 2E       		.uleb128 0x2e
 2053 0212 00       		.byte	0
 2054 0213 3F       		.uleb128 0x3f
 2055 0214 0C       		.uleb128 0xc
 2056 0215 03       		.uleb128 0x3
 2057 0216 0E       		.uleb128 0xe
 2058 0217 3A       		.uleb128 0x3a
 2059 0218 0B       		.uleb128 0xb
 2060 0219 3B       		.uleb128 0x3b
 2061 021a 0B       		.uleb128 0xb
 2062 021b 27       		.uleb128 0x27
 2063 021c 0C       		.uleb128 0xc
 2064 021d 3C       		.uleb128 0x3c
 2065 021e 0C       		.uleb128 0xc
ARM GAS  /tmp/ccfzmerM.s 			page 50


 2066 021f 00       		.byte	0
 2067 0220 00       		.byte	0
 2068 0221 00       		.byte	0
 2069              		.section	.debug_loc,"",%progbits
 2070              	.Ldebug_loc0:
 2071              	.LLST0:
 2072 0000 00000000 		.4byte	.LVL1
 2073 0004 0A000000 		.4byte	.LVL3
 2074 0008 0100     		.2byte	0x1
 2075 000a 50       		.byte	0x50
 2076 000b 0A000000 		.4byte	.LVL3
 2077 000f 10000000 		.4byte	.LFE195
 2078 0013 0400     		.2byte	0x4
 2079 0015 F3       		.byte	0xf3
 2080 0016 01       		.uleb128 0x1
 2081 0017 50       		.byte	0x50
 2082 0018 9F       		.byte	0x9f
 2083 0019 00000000 		.4byte	0
 2084 001d 00000000 		.4byte	0
 2085              	.LLST1:
 2086 0021 04000000 		.4byte	.LVL2
 2087 0025 0A000000 		.4byte	.LVL3
 2088 0029 0100     		.2byte	0x1
 2089 002b 50       		.byte	0x50
 2090 002c 0A000000 		.4byte	.LVL3
 2091 0030 10000000 		.4byte	.LFE195
 2092 0034 0400     		.2byte	0x4
 2093 0036 73       		.byte	0x73
 2094 0037 34       		.sleb128 52
 2095 0038 06       		.byte	0x6
 2096 0039 9F       		.byte	0x9f
 2097 003a 00000000 		.4byte	0
 2098 003e 00000000 		.4byte	0
 2099              		.section	.debug_aranges,"",%progbits
 2100 0000 3C000000 		.4byte	0x3c
 2101 0004 0200     		.2byte	0x2
 2102 0006 00000000 		.4byte	.Ldebug_info0
 2103 000a 04       		.byte	0x4
 2104 000b 00       		.byte	0
 2105 000c 0000     		.2byte	0
 2106 000e 0000     		.2byte	0
 2107 0010 00000000 		.4byte	.LFB194
 2108 0014 04000000 		.4byte	.LFE194-.LFB194
 2109 0018 00000000 		.4byte	.LFB195
 2110 001c 10000000 		.4byte	.LFE195-.LFB195
 2111 0020 00000000 		.4byte	.LFB196
 2112 0024 0A000000 		.4byte	.LFE196-.LFB196
 2113 0028 00000000 		.4byte	.LFB197
 2114 002c 08000000 		.4byte	.LFE197-.LFB197
 2115 0030 00000000 		.4byte	.LFB198
 2116 0034 0A000000 		.4byte	.LFE198-.LFB198
 2117 0038 00000000 		.4byte	0
 2118 003c 00000000 		.4byte	0
 2119              		.section	.debug_ranges,"",%progbits
 2120              	.Ldebug_ranges0:
 2121 0000 00000000 		.4byte	.LFB194
 2122 0004 04000000 		.4byte	.LFE194
ARM GAS  /tmp/ccfzmerM.s 			page 51


 2123 0008 00000000 		.4byte	.LFB195
 2124 000c 10000000 		.4byte	.LFE195
 2125 0010 00000000 		.4byte	.LFB196
 2126 0014 0A000000 		.4byte	.LFE196
 2127 0018 00000000 		.4byte	.LFB197
 2128 001c 08000000 		.4byte	.LFE197
 2129 0020 00000000 		.4byte	.LFB198
 2130 0024 0A000000 		.4byte	.LFE198
 2131 0028 00000000 		.4byte	0
 2132 002c 00000000 		.4byte	0
 2133              		.section	.debug_line,"",%progbits
 2134              	.Ldebug_line0:
 2135 0000 24020000 		.section	.debug_str,"MS",%progbits,1
 2135      0200B001 
 2135      00000201 
 2135      FB0E0D00 
 2135      01010101 
 2136              	.LASF62:
 2137 0000 72656164 		.ascii	"ready_list_t\000"
 2137      795F6C69 
 2137      73745F74 
 2137      00
 2138              	.LASF44:
 2139 000d 44494552 		.ascii	"DIER\000"
 2139      00
 2140              	.LASF63:
 2141 0012 7264796D 		.ascii	"rdymsg\000"
 2141      736700
 2142              	.LASF96:
 2143 0019 5F5F6675 		.ascii	"__func__.6463\000"
 2143      6E635F5F 
 2143      2E363436 
 2143      3300
 2144              	.LASF42:
 2145 0027 706F7274 		.ascii	"port_intctx\000"
 2145      5F696E74 
 2145      63747800 
 2146              	.LASF84:
 2147 0033 76746C69 		.ascii	"vtlist\000"
 2147      737400
 2148              	.LASF12:
 2149 003a 6C6F6E67 		.ascii	"long long unsigned int\000"
 2149      206C6F6E 
 2149      6720756E 
 2149      7369676E 
 2149      65642069 
 2150              	.LASF64:
 2151 0051 65786974 		.ascii	"exitcode\000"
 2151      636F6465 
 2151      00
 2152              	.LASF81:
 2153 005a 76697274 		.ascii	"virtual_timers_list_t\000"
 2153      75616C5F 
 2153      74696D65 
 2153      72735F6C 
 2153      6973745F 
 2154              	.LASF100:
ARM GAS  /tmp/ccfzmerM.s 			page 52


 2155 0070 49544D5F 		.ascii	"ITM_RxBuffer\000"
 2155      52784275 
 2155      66666572 
 2155      00
 2156              	.LASF107:
 2157 007d 73745F6C 		.ascii	"st_lld_init\000"
 2157      6C645F69 
 2157      6E697400 
 2158              	.LASF48:
 2159 0089 42445452 		.ascii	"BDTR\000"
 2159      00
 2160              	.LASF15:
 2161 008e 705F7072 		.ascii	"p_prio\000"
 2161      696F00
 2162              	.LASF45:
 2163 0095 43434D52 		.ascii	"CCMR1\000"
 2163      3100
 2164              	.LASF46:
 2165 009b 43434D52 		.ascii	"CCMR2\000"
 2165      3200
 2166              	.LASF50:
 2167 00a1 43434D52 		.ascii	"CCMR3\000"
 2167      3300
 2168              	.LASF1:
 2169 00a7 7369676E 		.ascii	"signed char\000"
 2169      65642063 
 2169      68617200 
 2170              	.LASF69:
 2171 00b3 6D5F7175 		.ascii	"m_queue\000"
 2171      65756500 
 2172              	.LASF99:
 2173 00bb 5F5F6675 		.ascii	"__func__.6471\000"
 2173      6E635F5F 
 2173      2E363437 
 2173      3100
 2174              	.LASF101:
 2175 00c9 474E5520 		.ascii	"GNU C 4.7.4 20130913 (release) [ARM/embedded-4_7-br"
 2175      4320342E 
 2175      372E3420 
 2175      32303133 
 2175      30393133 
 2176 00fc 616E6368 		.ascii	"anch revision 202601]\000"
 2176      20726576 
 2176      6973696F 
 2176      6E203230 
 2176      32363031 
 2177              	.LASF82:
 2178 0112 63685F73 		.ascii	"ch_system\000"
 2178      79737465 
 2178      6D00
 2179              	.LASF8:
 2180 011c 6C6F6E67 		.ascii	"long int\000"
 2180      20696E74 
 2180      00
 2181              	.LASF32:
 2182 0125 74737461 		.ascii	"tstate_t\000"
 2182      74655F74 
ARM GAS  /tmp/ccfzmerM.s 			page 53


 2182      00
 2183              	.LASF40:
 2184 012e 74687265 		.ascii	"thread\000"
 2184      616400
 2185              	.LASF22:
 2186 0135 705F7265 		.ascii	"p_refs\000"
 2186      667300
 2187              	.LASF11:
 2188 013c 6C6F6E67 		.ascii	"long long int\000"
 2188      206C6F6E 
 2188      6720696E 
 2188      7400
 2189              	.LASF5:
 2190 014a 75696E74 		.ascii	"uint16_t\000"
 2190      31365F74 
 2190      00
 2191              	.LASF17:
 2192 0153 705F6E65 		.ascii	"p_newer\000"
 2192      77657200 
 2193              	.LASF6:
 2194 015b 73686F72 		.ascii	"short unsigned int\000"
 2194      7420756E 
 2194      7369676E 
 2194      65642069 
 2194      6E7400
 2195              	.LASF59:
 2196 016e 725F6E65 		.ascii	"r_newer\000"
 2196      77657200 
 2197              	.LASF29:
 2198 0176 705F6D70 		.ascii	"p_mpool\000"
 2198      6F6F6C00 
 2199              	.LASF39:
 2200 017e 72656761 		.ascii	"regarm_t\000"
 2200      726D5F74 
 2200      00
 2201              	.LASF76:
 2202 0187 76745F70 		.ascii	"vt_prev\000"
 2202      72657600 
 2203              	.LASF87:
 2204 018f 6D757465 		.ascii	"mutex_t\000"
 2204      785F7400 
 2205              	.LASF21:
 2206 0197 705F666C 		.ascii	"p_flags\000"
 2206      61677300 
 2207              	.LASF0:
 2208 019f 756E7369 		.ascii	"unsigned int\000"
 2208      676E6564 
 2208      20696E74 
 2208      00
 2209              	.LASF75:
 2210 01ac 76745F6E 		.ascii	"vt_next\000"
 2210      65787400 
 2211              	.LASF102:
 2212 01b4 2E2E2F2E 		.ascii	"../../../os/hal/src/st.c\000"
 2212      2E2F2E2E 
 2212      2F6F732F 
 2212      68616C2F 
ARM GAS  /tmp/ccfzmerM.s 			page 54


 2212      7372632F 
 2213              	.LASF24:
 2214 01cd 705F6D73 		.ascii	"p_msgqueue\000"
 2214      67717565 
 2214      756500
 2215              	.LASF43:
 2216 01d8 534D4352 		.ascii	"SMCR\000"
 2216      00
 2217              	.LASF35:
 2218 01dd 6D73675F 		.ascii	"msg_t\000"
 2218      7400
 2219              	.LASF86:
 2220 01e3 63685F73 		.ascii	"ch_system_t\000"
 2220      79737465 
 2220      6D5F7400 
 2221              	.LASF53:
 2222 01ef 73746D33 		.ascii	"stm32_tim_t\000"
 2222      325F7469 
 2222      6D5F7400 
 2223              	.LASF36:
 2224 01fb 6576656E 		.ascii	"eventmask_t\000"
 2224      746D6173 
 2224      6B5F7400 
 2225              	.LASF89:
 2226 0207 73745F6C 		.ascii	"st_lld_start_alarm\000"
 2226      6C645F73 
 2226      74617274 
 2226      5F616C61 
 2226      726D00
 2227              	.LASF23:
 2228 021a 705F7761 		.ascii	"p_waiting\000"
 2228      6974696E 
 2228      6700
 2229              	.LASF37:
 2230 0224 73697A65 		.ascii	"sizetype\000"
 2230      74797065 
 2230      00
 2231              	.LASF90:
 2232 022d 73745F6C 		.ascii	"st_lld_set_alarm\000"
 2232      6C645F73 
 2232      65745F61 
 2232      6C61726D 
 2232      00
 2233              	.LASF80:
 2234 023e 76745F6C 		.ascii	"vt_lasttime\000"
 2234      61737474 
 2234      696D6500 
 2235              	.LASF18:
 2236 024a 705F6F6C 		.ascii	"p_older\000"
 2236      64657200 
 2237              	.LASF92:
 2238 0252 7374496E 		.ascii	"stInit\000"
 2238      697400
 2239              	.LASF58:
 2240 0259 725F6374 		.ascii	"r_ctx\000"
 2240      7800
 2241              	.LASF91:
ARM GAS  /tmp/ccfzmerM.s 			page 55


 2242 025f 74696D65 		.ascii	"time\000"
 2242      00
 2243              	.LASF61:
 2244 0264 725F6375 		.ascii	"r_current\000"
 2244      7272656E 
 2244      7400
 2245              	.LASF60:
 2246 026e 725F6F6C 		.ascii	"r_older\000"
 2246      64657200 
 2247              	.LASF33:
 2248 0276 74726566 		.ascii	"trefs_t\000"
 2248      735F7400 
 2249              	.LASF73:
 2250 027e 76697274 		.ascii	"virtual_timer_t\000"
 2250      75616C5F 
 2250      74696D65 
 2250      725F7400 
 2251              	.LASF14:
 2252 028e 705F7072 		.ascii	"p_prev\000"
 2252      657600
 2253              	.LASF34:
 2254 0295 74707269 		.ascii	"tprio_t\000"
 2254      6F5F7400 
 2255              	.LASF68:
 2256 029d 6D757465 		.ascii	"mutex\000"
 2256      7800
 2257              	.LASF88:
 2258 02a3 5F426F6F 		.ascii	"_Bool\000"
 2258      6C00
 2259              	.LASF7:
 2260 02a9 696E7433 		.ascii	"int32_t\000"
 2260      325F7400 
 2261              	.LASF2:
 2262 02b1 756E7369 		.ascii	"unsigned char\000"
 2262      676E6564 
 2262      20636861 
 2262      7200
 2263              	.LASF27:
 2264 02bf 705F6D74 		.ascii	"p_mtxlist\000"
 2264      786C6973 
 2264      7400
 2265              	.LASF3:
 2266 02c9 73686F72 		.ascii	"short int\000"
 2266      7420696E 
 2266      7400
 2267              	.LASF20:
 2268 02d3 705F7374 		.ascii	"p_state\000"
 2268      61746500 
 2269              	.LASF57:
 2270 02db 725F7072 		.ascii	"r_prio\000"
 2270      696F00
 2271              	.LASF66:
 2272 02e2 65776D61 		.ascii	"ewmask\000"
 2272      736B00
 2273              	.LASF13:
 2274 02e9 705F6E65 		.ascii	"p_next\000"
 2274      787400
ARM GAS  /tmp/ccfzmerM.s 			page 56


 2275              	.LASF4:
 2276 02f0 75696E74 		.ascii	"uint8_t\000"
 2276      385F7400 
 2277              	.LASF105:
 2278 02f8 73745F6C 		.ascii	"st_lld_get_alarm\000"
 2278      6C645F67 
 2278      65745F61 
 2278      6C61726D 
 2278      00
 2279              	.LASF26:
 2280 0309 705F6570 		.ascii	"p_epending\000"
 2280      656E6469 
 2280      6E6700
 2281              	.LASF9:
 2282 0314 75696E74 		.ascii	"uint32_t\000"
 2282      33325F74 
 2282      00
 2283              	.LASF56:
 2284 031d 725F7175 		.ascii	"r_queue\000"
 2284      65756500 
 2285              	.LASF77:
 2286 0325 76745F64 		.ascii	"vt_delta\000"
 2286      656C7461 
 2286      00
 2287              	.LASF10:
 2288 032e 6C6F6E67 		.ascii	"long unsigned int\000"
 2288      20756E73 
 2288      69676E65 
 2288      6420696E 
 2288      7400
 2289              	.LASF94:
 2290 0340 73745374 		.ascii	"stStopAlarm\000"
 2290      6F70416C 
 2290      61726D00 
 2291              	.LASF67:
 2292 034c 63686172 		.ascii	"char\000"
 2292      00
 2293              	.LASF49:
 2294 0351 444D4152 		.ascii	"DMAR\000"
 2294      00
 2295              	.LASF47:
 2296 0356 43434552 		.ascii	"CCER\000"
 2296      00
 2297              	.LASF71:
 2298 035b 6D5F6E65 		.ascii	"m_next\000"
 2298      787400
 2299              	.LASF38:
 2300 0362 73797374 		.ascii	"systime_t\000"
 2300      696D655F 
 2300      7400
 2301              	.LASF28:
 2302 036c 705F7265 		.ascii	"p_realprio\000"
 2302      616C7072 
 2302      696F00
 2303              	.LASF72:
 2304 0377 76746675 		.ascii	"vtfunc_t\000"
 2304      6E635F74 
ARM GAS  /tmp/ccfzmerM.s 			page 57


 2304      00
 2305              	.LASF103:
 2306 0380 2F686F6D 		.ascii	"/home/joerg/repos/chibios-projects/ChibiOS-RT/demos"
 2306      652F6A6F 
 2306      6572672F 
 2306      7265706F 
 2306      732F6368 
 2307 03b3 2F53544D 		.ascii	"/STM32/RT-STM32F103-OLIMEX_STM32_P103\000"
 2307      33322F52 
 2307      542D5354 
 2307      4D333246 
 2307      3130332D 
 2308              	.LASF93:
 2309 03d9 73745374 		.ascii	"stStartAlarm\000"
 2309      61727441 
 2309      6C61726D 
 2309      00
 2310              	.LASF41:
 2311 03e6 636F6E74 		.ascii	"context\000"
 2311      65787400 
 2312              	.LASF30:
 2313 03ee 7274636E 		.ascii	"rtcnt_t\000"
 2313      745F7400 
 2314              	.LASF104:
 2315 03f6 73745F6C 		.ascii	"st_lld_stop_alarm\000"
 2315      6C645F73 
 2315      746F705F 
 2315      616C6172 
 2315      6D00
 2316              	.LASF74:
 2317 0408 76697274 		.ascii	"virtual_timer\000"
 2317      75616C5F 
 2317      74696D65 
 2317      7200
 2318              	.LASF79:
 2319 0416 76745F70 		.ascii	"vt_par\000"
 2319      617200
 2320              	.LASF85:
 2321 041d 6D656173 		.ascii	"measurement_offset\000"
 2321      7572656D 
 2321      656E745F 
 2321      6F666673 
 2321      657400
 2322              	.LASF54:
 2323 0430 74687265 		.ascii	"threads_queue_t\000"
 2323      6164735F 
 2323      71756575 
 2323      655F7400 
 2324              	.LASF19:
 2325 0440 705F6E61 		.ascii	"p_name\000"
 2325      6D6500
 2326              	.LASF51:
 2327 0447 43435235 		.ascii	"CCR5\000"
 2327      00
 2328              	.LASF52:
 2329 044c 43435236 		.ascii	"CCR6\000"
 2329      00
ARM GAS  /tmp/ccfzmerM.s 			page 58


 2330              	.LASF83:
 2331 0451 726C6973 		.ascii	"rlist\000"
 2331      7400
 2332              	.LASF97:
 2333 0457 73745365 		.ascii	"stSetAlarm\000"
 2333      74416C61 
 2333      726D00
 2334              	.LASF106:
 2335 0462 73744765 		.ascii	"stGetAlarm\000"
 2335      74416C61 
 2335      726D00
 2336              	.LASF65:
 2337 046d 77746F62 		.ascii	"wtobjp\000"
 2337      6A7000
 2338              	.LASF95:
 2339 0474 5F5F6675 		.ascii	"__func__.6459\000"
 2339      6E635F5F 
 2339      2E363435 
 2339      3900
 2340              	.LASF55:
 2341 0482 74687265 		.ascii	"threads_list_t\000"
 2341      6164735F 
 2341      6C697374 
 2341      5F7400
 2342              	.LASF31:
 2343 0491 746D6F64 		.ascii	"tmode_t\000"
 2343      655F7400 
 2344              	.LASF25:
 2345 0499 705F6D73 		.ascii	"p_msg\000"
 2345      6700
 2346              	.LASF98:
 2347 049f 5F5F6675 		.ascii	"__func__.6467\000"
 2347      6E635F5F 
 2347      2E363436 
 2347      3700
 2348              	.LASF70:
 2349 04ad 6D5F6F77 		.ascii	"m_owner\000"
 2349      6E657200 
 2350              	.LASF16:
 2351 04b5 705F6374 		.ascii	"p_ctx\000"
 2351      7800
 2352              	.LASF78:
 2353 04bb 76745F66 		.ascii	"vt_func\000"
 2353      756E6300 
 2354              		.comm	__gnu_lto_v1,1,1
 2355              		.ident	"GCC: (GNU Tools for ARM Embedded Processors) 4.7.4 20130913 (release) [ARM/embedded-4_7-br
ARM GAS  /tmp/ccfzmerM.s 			page 59


DEFINED SYMBOLS
                            *ABS*:00000000 st.c
     /tmp/ccfzmerM.s:249    .text.stInit:00000000 $t
     /tmp/ccfzmerM.s:255    .text.stInit:00000000 stInit
     /tmp/ccfzmerM.s:271    .text.stStartAlarm:00000000 $t
     /tmp/ccfzmerM.s:277    .text.stStartAlarm:00000000 stStartAlarm
     /tmp/ccfzmerM.s:308    .text.stStopAlarm:00000000 $t
     /tmp/ccfzmerM.s:314    .text.stStopAlarm:00000000 stStopAlarm
     /tmp/ccfzmerM.s:334    .text.stSetAlarm:00000000 $t
     /tmp/ccfzmerM.s:340    .text.stSetAlarm:00000000 stSetAlarm
     /tmp/ccfzmerM.s:360    .text.stGetAlarm:00000000 $t
     /tmp/ccfzmerM.s:366    .text.stGetAlarm:00000000 stGetAlarm
                            *COM*:00000001 __gnu_lto_v1
                     .debug_frame:00000010 $d

UNDEFINED SYMBOLS
st_lld_init
