ARM GAS  /tmp/ccfzmerM.s 			page 1


   1              		.syntax unified
   2              		.cpu cortex-m3
   3              		.fpu softvfp
   4              		.eabi_attribute 20, 1
   5              		.eabi_attribute 21, 1
   6              		.eabi_attribute 23, 3
   7              		.eabi_attribute 24, 1
   8              		.eabi_attribute 25, 1
   9              		.eabi_attribute 26, 1
  10              		.eabi_attribute 30, 2
  11              		.eabi_attribute 34, 1
  12              		.eabi_attribute 18, 4
  13              		.thumb
  14              		.file	"st.c"
  15              		.text
  16              	.Ltext0:
  17              		.section	.gnu.lto_.jmpfuncs.4a6228683c2a5a5a,"",%progbits
  18 0000 789C6362 		.ascii	"x\234cb`d`g\300\016x\2414+\020322103\26200\000\000\003"
  18      60646067 
  18      C00E78A1 
  18      342B1033 
  18      32323130 
  19 001b 8D0029   		.ascii	"\215\000)"
  20              		.text
  21              		.section	.gnu.lto_.inline.4a6228683c2a5a5a,"",%progbits
  22 0000 789C6362 		.ascii	"x\234cb`d\340e\300\016\342\2404+\003\003\013\017#\003"
  22      6064E065 
  22      C00EE2A0 
  22      342B0303 
  22      0B0F2303 
  23 0014 1390C9B6 		.ascii	"\023\220\311\266@\236\211\201\221\013\310bd`ced\004"
  23      409E8981 
  23      910BC862 
  23      64606365 
  23      6404
  24 0026 520C4C6C 		.ascii	"R\014Ll\037\364 \022L\014,\314@uL\027\370!|f\020\037"
  24      1FF42012 
  24      4C0C2CCC 
  24      40754C17 
  24      F8217C66 
  25 003c A2062EC6 		.ascii	"\242\006.\306\202\246\206\001\000m\275\010v"
  25      82A68601 
  25      006DBD08 
  25      76
  26              		.text
  27              		.section	.gnu.lto_.pureconst.4a6228683c2a5a5a,"",%progbits
  28 0000 789C6362 		.ascii	"x\234cb`d`f``\340f\200\000V\006\011F)&)f)\026)\000\004"
  28      60646066 
  28      6060E066 
  28      80005606 
  28      09462926 
  29 001b 5700A1   		.ascii	"W\000\241"
  30              		.text
  31              		.section	.gnu.lto_stInit.4a6228683c2a5a5a,"",%progbits
  32 0000 789C6362 		.ascii	"x\234cb`\004BL \011\304\365@,\015\304\214\314\014\214"
  32      6004424C 
  32      2009C4F5 
ARM GAS  /tmp/ccfzmerM.s 			page 2


  32      402C0DC4 
  32      8CCC0C8C 
  33 0014 4C13CE31 		.ascii	"L\023\316104*012\202\030@-\365L\214\365\241\020\235"
  33      30342A30 
  33      31328218 
  33      402DF54C 
  33      8CF5A110 
  34 0029 A73A1E8B 		.ascii	"\247:\036\213\336\231\301\266\237\351\300\203\377@="
  34      DE99C1B6 
  34      9FE9C083 
  34      FF403D
  35 0038 CC402156 		.ascii	"\314@!V\206\226\206\006\001\206x\250\321\201 \032\244"
  35      86968606 
  35      018678A8 
  35      D181201A 
  35      A4
  36 0049 31889109 		.ascii	"1\210\221\011\314`>\303\300|eFU,\343\002FV\240T\025"
  36      CC603EC3 
  36      C07C6546 
  36      552CE302 
  36      4656A054 
  37 005e C3CF068E 		.ascii	"\303\317\006\216T\240K\342\031\031!ZRA\3649\006F\240"
  37      54A04BE2 
  37      1919215A 
  37      5241F439 
  37      0646A0
  38 0071 B9304530 		.ascii	"\2710E0\243\030\301&0\201\034\251\247\247\017A\371\305"
  38      A318C126 
  38      30811CA9 
  38      A7A70F41 
  38      F9C5
  39 0083 FA198939 		.ascii	"\372\031\2119\372\305E\311\372\305%z\311\014\000\251"
  39      FAC545C9 
  39      FAC5257A 
  39      C90C00A9 
  40 0093 EF257F   		.ascii	"\357%\177"
  41              		.text
  42              		.section	.gnu.lto_stStartAlarm.4a6228683c2a5a5a,"",%progbits
  43 0000 789C9D91 		.ascii	"x\234\235\221=K\003A\020\206g\3666\037\205E\332\024"
  43      3D4B0341 
  43      108667F6 
  43      361F8545 
  43      DA14
  44 0012 A2480A41 		.ascii	"\242H\012A\270Em\374\001\026\006\0220\032\3133H<H \022"
  44      B8456DFC 
  44      01160612 
  44      301ACB33 
  44      483C4820 
  45 0027 C905DB6C 		.ascii	"\311\005\333lb\012\313`g\0041\306\024^a\227ZQ\021\011"
  45      620ACB60 
  45      670431C6 
  45      145E6197 
  45      5A511109 
  46 003b 925F6011 		.ascii	"\222_`\021l\265\024\261\020\342\354\335\005=\265\020"
  46      6CB514B1 
  46      10E2ECDD 
  46      053DB510 
ARM GAS  /tmp/ccfzmerM.s 			page 3


  47 004b E73E76D8 		.ascii	"\347>v\330\235\367y\347n\030 ]?#JO\234\001,\323\212"
  47      9DF779E7 
  47      6E18205D 
  47      3F234A4F 
  47      9C012CD3 
  48 0060 1A206BF4 		.ascii	"\032 k\364\001\252\223\014Q%$\2510\254\2549J\234\202"
  48      01AA930C 
  48      512524A9 
  48      30ACAC39 
  48      4A9C82
  49 0073 9694FB8D 		.ascii	"\226\224\373\215\353\332Rm0\034N\230j7\203\320;\352"
  49      EBDA526D 
  49      301C4E98 
  49      6A3783D0 
  49      3BEA
  50 0085 8C47C144 		.ascii	"\214G\301D\204IP+\003\356\367\260\017\273\017\374\245"
  50      8449502B 
  50      03EEF7B0 
  50      0FBB0FFC 
  50      A5
  51 0096 19BC6097 		.ascii	"\031\274`\227\203a%\006m\242\310]9m\242\306 \201\212"
  51      83612506 
  51      6DA2C85D 
  51      396DA2C6 
  51      20818A
  52 00a9 71DF7C45 		.ascii	"q\337|E\227\021\361\030L)\251\002\302\210\006\2660F"
  52      9711F118 
  52      4C29A902 
  52      C28806B6 
  52      3046
  53 00bb 54038FA9 		.ascii	"T\003\217\251\011\212\000\324\245\214`\336\321:\221"
  53      098A00D4 
  53      A58C60DE 
  53      D13A91
  54 00ca 52AB6A79 		.ascii	"R\253jy\205\264*\321n\201\321\236\333\263r\363z\326"
  54      85B42AD1 
  54      6E81D19E 
  54      DBB372F3 
  54      7AD6
  55 00dc 0C3CA112 		.ascii	"\014<\241\022\322\345~1\374\214,\035A\017j\317\232\372"
  55      D2E57E31 
  55      FC8C2C1D 
  55      410F6ACF 
  55      9AFA
  56 00ee 3ED770E4 		.ascii	">\327p\344k\340)\365a`\033\003>\005\367DW\361\275\220"
  56      6BE029F5 
  56      61601B03 
  56      3E05F744 
  56      57F1BD90 
  57 0102 811D3A15 		.ascii	"\201\035:\025p.\353h\"\3473`;Y@k\302A5bb\220)\337\020"
  57      702EEB68 
  57      22E73360 
  57      3B59406B 
  57      C2413562 
  58 011b 480A0E6E 		.ascii	"H\012\016n\016\316\214\326\325\353Ms\246cb\330\303\337"
  58      0ECE8CD6 
  58      D5EB4D73 
ARM GAS  /tmp/ccfzmerM.s 			page 4


  58      A66362D8 
  58      C3DF
  59 012d 055C0FC7 		.ascii	"\005\\\017\307`\341\375\354\021]\213\021\230\377\005"
  59      60E1FDEC 
  59      115D8B11 
  59      98FF05
  60 013c 8C5FC0EE 		.ascii	"\214_\300\356\224\024\354\306\376\027\214\371`\352\377"
  60      9414ECC6 
  60      FE178CF9 
  60      60EAFF
  61 014b F501EDA7 		.ascii	"\365\001\355\247\356\230\377\317\244\224+MD\025\010"
  61      EE98FFCF 
  61      A4942B4D 
  61      441508
  62 015a 5DF7EEA2 		.ascii	"]\367\356\242%r\033\005\261],\225-\261\232N\316\317"
  62      25721B05 
  62      B15D2C95 
  62      2DB19A4E 
  62      CECF
  63 016c 89446251 		.ascii	"\211DbQ\244\343\311\235Ya\2253\205\302\246\236\203\350"
  63      A4E3C99D 
  63      59619533 
  63      85C2A69E 
  63      83E8
  64 017e F77AAB94 		.ascii	"\367z\253\224\245S=\013\274\234\3372?\000\217\250\213"
  64      A5533D0B 
  64      BC9CDF32 
  64      3F008FA8 
  64      8B
  65 018f CF       		.ascii	"\317"
  66              		.text
  67              		.section	.gnu.lto_stStopAlarm.4a6228683c2a5a5a,"",%progbits
  68 0000 789C6362 		.ascii	"x\234cb`\004BL \011\304\207\201\330\033\210\031\231"
  68      6004424C 
  68      2009C487 
  68      81D81B88 
  68      1999
  69 0012 19189926 		.ascii	"\031\030\231&\234c`hT`bd\0041\200Z\352\231\030\353C"
  69      9C636068 
  69      54606264 
  69      0431805A 
  69      EA9918EB 
  70 0027 213A4FED 		.ascii	"!:O\355_,\363d\016\333~\246\003\017\376\32730\260\000"
  70      5F2CF364 
  70      0EDB7EA6 
  70      030FFED7 
  70      3330B000 
  71 003b 8558195A 		.ascii	"\205X\031Z\032\032\004\0303\031\031\342\241\246\007"
  71      1A1A0418 
  71      331919E2 
  71      A1A607
  72 004a 826890DE 		.ascii	"\202h\220\336 F&0\203\371\024\303!\213O+\257\177a\202"
  72      20462630 
  72      83F914C3 
  72      218B4F2B 
  72      AF7F6182 
  73 005e 2886EA61 		.ascii	"(\206\352a\210e\\\300\310\212\344\022m\206U\015-\214"
ARM GAS  /tmp/ccfzmerM.s 			page 5


  73      88655CC0 
  73      C88AE412 
  73      6D86550D 
  73      2D8C
  74 0070 A98C0CCC 		.ascii	"\251\214\014\314\263\030f6\012\244222I2\244\002\015"
  74      B3186636 
  74      0AA43232 
  74      324932A4 
  74      020D
  75 0082 69000216 		.ascii	"i\000\002\026\006\010\233\001\354\2118\020\361\203\031"
  75      06089B01 
  75      EC893810 
  75      F18319
  76 0091 ECFC54A8 		.ascii	"\354\374T\250\275\347\030\030O\235IF54\220\221\021\354"
  76      BDE71818 
  76      4F9D4946 
  76      35349091 
  76      11EC
  77 00a3 04903E49 		.ascii	"\004\220>I==}\010\312/\326\317H\314\321/.J\326/.\321"
  77      3D3D7D08 
  77      CA2FD6CF 
  77      48CCD12F 
  77      2E4AD62F 
  78 00b9 4B66D047 		.ascii	"Kf\320G\227)\310/*)\326\017\016\36156\322\367\361q\321"
  78      9729C82F 
  78      2A29D60F 
  78      0EF13536 
  78      D2F7F171 
  79 00ce 0FF1F42D 		.ascii	"\017\361\364-3\004\252\215\317\311I\321\313`\000\000"
  79      3304AA8D 
  79      CFC949D1 
  79      CB600000 
  80 00de 0D7940CD 		.ascii	"\015y@\315"
  81              		.text
  82              		.section	.gnu.lto_stSetAlarm.4a6228683c2a5a5a,"",%progbits
  83 0000 789C6D51 		.ascii	"x\234mQOK\002Q\020\237\337\333U;t\360\352!\222\360\020"
  83      4F4B0251 
  83      109FDFDB 
  83      553B74F0 
  83      EA2192F0 
  84 0015 04FBA8BE 		.ascii	"\004\373\250\276B\207\004\205,;n\022\266\240`\030\256"
  84      42870485 
  84      2C3B6E12 
  84      B6A06018 
  84      AE
  85 0026 74F5691E 		.ascii	"t\365i\036:J\267\202\"3/\036\352\003D\024\005\021\026"
  85      3A4AB782 
  85      22332F1E 
  85      EA034414 
  85      051116
  86 0039 7E060F1D 		.ascii	"~\006\017\035\243sP`\363v7\302j\366\317\014o\346\367"
  86      A3735060 
  86      F37637C2 
  86      6AF6CF0C 
  86      6FE6F7
  87 004c 677882C0 		.ascii	"gx\202\300\317\337\210\361w\311\215\025\3160\010\242"
  87      CFDF88F1 
ARM GAS  /tmp/ccfzmerM.s 			page 6


  87      77C98D15 
  87      CE3008A2 
  88 005c 3520AAC7 		.ascii	"5 \252\307\005\240\013\206\324\004j\353\036\0223\324"
  88      05A00B86 
  88      D4046AEB 
  88      1E1233D4 
  89 006c 56EAA075 		.ascii	"V\352\240u\337Xn\014G\243iG\237\346@\375Aw*F\016@q\322"
  89      DF586E0C 
  89      47A36947 
  89      9FE640FD 
  89      41772A46 
  90 0084 599039AE 		.ascii	"Y\2209\256\321\373\270z6_N\3027\342v8\252%\250\303,"
  90      D1FBB87A 
  90      365F4EC2 
  90      37E27638 
  90      AA25A8C3 
  91 0099 6A4FCD3A 		.ascii	"jO\315:0\004\245\2409>\217\337\340sD\003\016\241\221"
  91      3004A5A0 
  91      393E8FDF 
  91      E0734403 
  91      0EA191
  92 00ac 3C4161C0 		.ascii	"<Aa\300F\033\011f\265q\312&8B\324T*\212\242\207\365"
  92      461B0966 
  92      B571CA26 
  92      3842D454 
  92      2A8AA287 
  93 00c1 22A3B3B6 		.ascii	"\"\243\263\266\274\312X]\030\017$\370\314\367\254\325"
  93      BCCA585D 
  93      180F24F8 
  93      CCF7ACD5 
  94 00d1 02CF868D 		.ascii	"\002\317\206\2153\036a\\\341\037\301\237\310s\213\372"
  94      331E615C 
  94      E11FC19F 
  94      C8738BFA 
  95 00e1 D47835F4 		.ascii	"\324x5\364~\276\340\267\256\215s\366a\243\203\320\030"
  95      7EBEE0B7 
  95      AE8D73F6 
  95      61A383D0 
  95      18
  96 00f2 C20C4077 		.ascii	"\302\014@w\311\375\210\215.w%]\250&\034\230\346\034"
  96      C9FD888D 
  96      2E77255D 
  96      A8261C98 
  96      E61C
  97 0104 F5BC2A64 		.ascii	"\365\274*d\034\321a=\352 ,\264n\204\024\207I~M\336\035"
  97      1CD1613D 
  97      EA202CB4 
  97      6E841487 
  97      497E4DDE 
  98 0119 6DE8DFBB 		.ascii	"m\350\337\273\341\335\216\203\211\200\3761\344k\020"
  98      E1DD8E83 
  98      8980FE31 
  98      E46B10
  99 0128 0D08BDA7 		.ascii	"\015\010\275\247\353\311q\375\214\226\346\275\365\032"
  99      EBC971FD 
  99      8C96E6BD 
  99      F51A
ARM GAS  /tmp/ccfzmerM.s 			page 7


 100 0136 D2B282B7 		.ascii	"\322\262\202\267\354\312\302fI\356\224+UW\256e\323\213"
 100      ECCAC266 
 100      49EE942B 
 100      5557AE65 
 100      D38B
 101 0148 0B32955A 		.ascii	"\0132\225Z\222\331dzw^\272\325\\\251\264e\025(\366{"
 101      92D9647A 
 101      775EBAD5 
 101      5CA9B465 
 101      1528F67B 
 102 015c DEADE4B9 		.ascii	"\336\255\344\271k\345\311\254\026\267\235/B\272o\251"
 102      6BE5C9AC 
 102      16B79D2F 
 102      42BA6FA9 
 103              		.text
 104              		.section	.gnu.lto_stGetAlarm.4a6228683c2a5a5a,"",%progbits
 105 0000 789C6590 		.ascii	"x\234e\2201O\302@\024\307\377\357\332\202\014&\254,"
 105      314FC240 
 105      14C7FFEF 
 105      DA820C26 
 105      AC2C
 106 0012 4A984C4C 		.ascii	"J\230LLzQ\027?\200\203F\030P\034\201\230\332\004\023"
 106      7A51173F 
 106      80834618 
 106      501C8198 
 106      DA0413
 107 0025 120C25AE 		.ascii	"\022\014%\256\224\206\315\2058)\023\310\242\016~\005"
 107      9486CD85 
 107      382913C8 
 107      A20E7E05 
 108 0035 8D6C1DF8 		.ascii	"\215l\035\370\006&$:88\031\367\372\356Z\023\321w\355"
 108      0626243A 
 108      383819F7 
 108      FAEE5A13 
 108      D177ED
 109 0048 FD5F7AF7 		.ascii	"\375_z\367{\377\327'@\274\376G\216\337\026\037\354\263"
 109      7BFFD727 
 109      40BCFE47 
 109      8EDF161F 
 109      ECB3
 110 005a 92011283 		.ascii	"\222\001\022\203\031\320\313\013\"\2250\322\025\324"
 110      19D0CB0B 
 110      229530D2 
 110      15D4
 111 0068 3DD2A428 		.ascii	"=\322\244(`\354\373C\177\032\254\005\363(Zu\325\327"
 111      60ECFB43 
 111      7F1AAC05 
 111      F3285A75 
 111      D5D7
 112 007a 3A218C5E 		.ascii	":!\214^\227sp\211\220\205R\001\261\350\241\271\313\301"
 112      97737089 
 112      90855201 
 112      B1E8A1B9 
 112      CBC1
 113 008c 34D84D38 		.ascii	"4\330M8Cs\237w/_f\014\346\023\320\\\004\303h\262\362"
 113      43739F77 
 113      2F5F660C 
ARM GAS  /tmp/ccfzmerM.s 			page 8


 113      E613D05C 
 113      04C368B2 
 114 00a1 769B7A14 		.ascii	"v\233z\024O\363\250\013\244MTiL\005X\254#V\016\013}"
 114      4FF3A80B 
 114      A44D5469 
 114      4C0558AC 
 114      23560E0B 
 115 00b6 DFCFD229 		.ascii	"\337\317\322)\251\212:\312JU\363\007\\P%F\210\347\232"
 115      A98A3ACA 
 115      4A55F307 
 115      5C502546 
 115      88E79A
 116 00c9 368B2F27 		.ascii	"6\213/'\014\327\270!\353\227\233C\246\304\203\337'\227"
 116      0CD7B821 
 116      EB979B43 
 116      A6C483DF 
 116      2797
 117 00db 4C731DF7 		.ascii	"Ls\035\367:\263\214!\256{Y\227RB\265\230\206\317a\""
 117      3AB38C21 
 117      AE7B5997 
 117      5242B598 
 117      86CF6122 
 118 00ef CEA1475A 		.ascii	"\316\241GZS\333UF\017\323\245\245\244\332{&\376\005"
 118      53DB5546 
 118      0FD3A5A5 
 118      A4DA7B26 
 118      FE05
 119 0101 041FC676 		.ascii	"\004\037\306v\225&l\345\220\305\036\300\014\024^X\261"
 119      95266CE5 
 119      90C51EC0 
 119      0C145E58 
 119      B1
 120 0112 BDF3D342 		.ascii	"\275\363\323B\231\307\240\272U\263\313\331\266\214\237"
 120      99C7A0BA 
 120      55B3CBD9 
 120      B68C9F
 121 0121 96271BC7 		.ascii	"\226'\033\307M\351\265\035\351ul\007\362\357\311Y\253"
 121      4DE9B51D 
 121      E9756C07 
 121      F2EFC959 
 121      AB
 122 0132 DDF1E461 		.ascii	"\335\361\344a\245\264\265)\213\305\035Y\331+\235o\360"
 122      A5B4B529 
 122      8BC51D59 
 122      D92B9D6F 
 122      F0
 123 0143 DD7AB379 		.ascii	"\335z\263yb7\360\015\332qdu"
 123      6237F00D 
 123      DA716475 
 124              		.text
 125              		.section	.gnu.lto_.cgraph.4a6228683c2a5a5a,"",%progbits
 126 0000 789C45C7 		.ascii	"x\234E\307\301\011\2000\024D\301}?\246Lk\331\200\027"
 126      C1098030 
 126      1444C17D 
 126      3FA64C6B 
 126      D98017
 127 0013 8F566031 		.ascii	"\217V`1\032\275\010\326`%\"\210\230\271M\010%I\275>"
ARM GAS  /tmp/ccfzmerM.s 			page 9


 127      1ABD08D6 
 127      60252288 
 127      98B94D08 
 127      2549BD3E 
 128 0027 B160693A 		.ascii	"\261`i:e\317#\261b\332*\216\266\015\247\266\035w\377"
 128      65CF23B1 
 128      62DA2A8E 
 128      B60DA7B6 
 128      1D77FF
 129 003a 38707E57 		.ascii	"8p~W\012IY\303u\243\007\305\314\036\364"
 129      0A4959C3 
 129      75A307C5 
 129      CC1EF4
 130              		.text
 131              		.section	.gnu.lto_.vars.4a6228683c2a5a5a,"",%progbits
 132 0000 789C6362 		.ascii	"x\234cb`d`f`\000\222P\000\000\000r\000\010"
 132      60646066 
 132      60009250 
 132      00000072 
 132      0008
 133              		.text
 134              		.section	.gnu.lto_.refs.4a6228683c2a5a5a,"",%progbits
 135 0000 789C6362 		.ascii	"x\234cb`d`f```b\200\001\000\000\204\000\011"
 135      60646066 
 135      60606062 
 135      80010000 
 135      840009
 136              		.text
 137              		.section	.gnu.lto_.statics.4a6228683c2a5a5a,"",%progbits
 138 0000 789C6362 		.ascii	"x\234cb`d`b\300\016@\342\214\020&\000\000\375\000\011"
 138      60646062 
 138      C00E40E2 
 138      8C102600 
 138      00FD0009 
 139              		.text
 140              		.section	.gnu.lto_.decls.4a6228683c2a5a5a,"",%progbits
 141 0000 789C9D57 		.ascii	"x\234\235W}l\024E\024\237\331={=Z*\220@\216\210R\214"
 141      7D6C1445 
 141      149FD93D 
 141      7B3D5A2A 
 141      90408E88 
 142 0016 9886A4B7 		.ascii	"\230\206\244\267\364\2036\376Ab\275\022 \341\220lkB"
 142      F48336FE 
 142      4162BD12 
 142      20E1906C 
 142      6B42
 143 0028 48364739 		.ascii	"H6G9\212\275\344z\305\273\305\350\177CK\020\324\230"
 143      8ABDE47A 
 143      C5BBC5E8 
 143      7F434B10 
 143      D498
 144 003a 6A3481F8 		.ascii	"j4\201\370U\212\305\022\"j\315\031\213\001*\362\025"
 144      558AC512 
 144      226ACD19 
 144      8B012AF2 
 144      15
 145 004b 6C081F8D 		.ascii	"l\010\037\215\242\2426\004\210\001\242\3044\365\013"
ARM GAS  /tmp/ccfzmerM.s 			page 10


 145      A2A23604 
 145      8801A2C4 
 145      34F50B
 146 005a 3CDFCC7E 		.ascii	"<\337\314~\335no\356v;\271\367vv\366\275\337\374\336"
 146      DD6E6FEE 
 146      763BB9F7 
 146      7676F6BD 
 146      DFFCDE
 147 006d 9B377BB3 		.ascii	"\2337{\263\002\302\210\266w\340\222\205\266a\016B\365"
 147      02C288B6 
 147      77E09285 
 147      B6610E42 
 147      F5
 148 007e 02422530 		.ascii	"\002B%0\266\034Y\215\336\367\201\014\200\014\201d@\206"
 148      B61C598D 
 148      DEF7810C 
 148      800C8164 
 148      4086
 149 0090 418EA2A9 		.ascii	"A\216\242\251\215\332\001\004:\016\262O\037\023\364"
 149      8DDA0104 
 149      3A0EB24F 
 149      1F13F4
 150 009f F17CF614 		.ascii	"\361|\366\0243\000\342\007\251\000)\007\031\004\031"
 150      3300E207 
 150      A9002907 
 150      190419
 151 00ae 01390972 		.ascii	"\0019\011r\006d\022\304\007\"\202\334\004\031\003\271"
 151      066412C4 
 151      072282DC 
 151      041903B9 
 152 00be 0482757F 		.ascii	"\004\202u\177z\375\323\201;\244\333\217\344`\340\034"
 152      7AFDD381 
 152      3BA4DB8F 
 152      E460E01C 
 153 00ce BF21FD8A 		.ascii	"\277!\375\212\261\335/\343\201\017\326\371`\335\217"
 153      B1DD2FE3 
 153      810FD6F9 
 153      60DD8F
 154 00dd 5E4B1C78 		.ascii	"^K\034x\303:\336`\016\236\337\005\336\260~-s\340-D\357"
 154      C33ADE60 
 154      0E9EDF05 
 154      DEB07E2D 
 154      73E02D44 
 155 00f2 91BEF1DE 		.ascii	"\221\276\361\336\036\262\352\257l\326?\017\275E\240"
 155      1EB2EAAF 
 155      6CD63F0F 
 155      BD45A0
 156 0101 F5ED2404 		.ascii	"\365\355$\004\253\012^>\027\315G\012\256\200\011+Y\257"
 156      AB0A5E3E 
 156      17CD470A 
 156      AE80092B 
 156      59AF
 157 0113 3CA02123 		.ascii	"<\240!#\350\357\303\363\364^\253\250a\011H\300h\011"
 157      E8EFC3F3 
 157      F45EABA8 
 157      610948C0 
 157      6809
ARM GAS  /tmp/ccfzmerM.s 			page 11


 158 0125 3A4858D3 		.ascii	":HX\323'\322/\001\324\277\373\323zc\326\307\321\000"
 158      27D22F01 
 158      D4BFFBD3 
 158      7A63D6C7 
 158      D100
 159 0137 3519E90E 		.ascii	"5\031\351\016\262I(H\037^h#\246\340~,8\231\216\337\235"
 159      B2492848 
 159      1F5E6823 
 159      A6E07E2C 
 159      38998EDF 
 160 014c 0ED3033A 		.ascii	"\016\323\003:S\221U\016P\331EH7!;I\325 \244\320\360"
 160      5391550E 
 160      50D94548 
 160      37213B49 
 160      D520A4D0 
 161 0161 9B65FA51 		.ascii	"\233e\372Q\253\305\350\003Bzi\030\012\036\304\001\030"
 161      ABC5E803 
 161      427A6918 
 161      0A1EC401 
 161      18
 162 0172 5B82E1F1 		.ascii	"[\202\341\361~\274\004\015\275}yL0\242\362\010u\210"
 162      7EBC040D 
 162      BD7D794C 
 162      30A2F208 
 162      7588
 163 0184 416D30A0 		.ascii	"Am0\240\016\277\366\323)\321\210W\014\330\343\207{\315"
 163      0EBFF6D3 
 163      29D18857 
 163      0CD8E387 
 163      7BCD
 164 0196 4A03D61E 		.ascii	"J\003\326\036\033\275lVD^\315\261\265T@\342\0126X\364"
 164      1BBD6C56 
 164      445ECDB1 
 164      B55440E2 
 164      0A3658F4 
 165 01aa EFCDE82B 		.ascii	"\357\315\350+\363\030\332O\310\033\244\207T\031Q\337"
 165      F318DA4F 
 165      C81BA487 
 165      541951DF 
 166 01ba 605603B0 		.ascii	"`V\003\2608W\374\371\303C\232i\2765\245n\0356\222\207"
 166      3857FCF9 
 166      C3439A69 
 166      BE35A56E 
 166      1D369287 
 167 01ce 0BADA956 		.ascii	"\013\255\251VS\002\272e2\273\367P\201\212\031\232R1"
 167      5302BA65 
 167      32BBF750 
 167      818A199A 
 167      5231
 168 01e0 9F15463F 		.ascii	"\237\025F?\300\320'-\364\207\363G\255\340O\000H\301"
 168      C0D0272D 
 168      F487F347 
 168      ADE04F00 
 168      48C1
 169 01f2 1998E00B 		.ascii	"\031\230\340\013\357Qg\246D\375\271\207J\246\250\374"
 169      EF5167A6 
 169      44FDB987 
ARM GAS  /tmp/ccfzmerM.s 			page 12


 169      4AA6A8FC 
 170 0202 523E9267 		.ascii	"R>\222g\323m\027\314\200\336O\332\362\325M\276\356\326"
 170      D36D17CC 
 170      80DE4FDA 
 170      F2D54DBE 
 170      EED6
 171 0214 63A22EC3 		.ascii	"c\242.\3034a\234p4\320/\363\020\355\355\355\351\263"
 171      34619C70 
 171      34D02FF3 
 171      10EDEDED 
 171      E9B3
 172 0226 2DCFABE6 		.ascii	"-\317\253\346|\327\006\216\236\011\332\227\340\230\035"
 172      7CD7068E 
 172      9E09DA97 
 172      E0981D
 173 0235 A10CBD4C 		.ascii	"\241\014\275Li@p\253\316Vh\000\374\340\216\3432\303"
 173      694070AB 
 173      CE566800 
 173      FCE08EE3 
 173      32C3
 174 0247 8F6DAC1E 		.ascii	"\217m\254\036\335\017q|\254\215\245\357\303\302\346"
 174      DD0F717C 
 174      AC8DA5EF 
 174      C3C2E6
 175 0256 0AFE0A2F 		.ascii	"\012\376\012/\006\355\267o\024\277\271Q\374\001\355"
 175      06EDB76F 
 175      14BFB951 
 175      FC01ED
 176 0265 7FEB419A 		.ascii	"\177\353A\232\223\263\202\265I/\236\226\214\370\374"
 176      93B382B5 
 176      492F9E96 
 176      8CF8FC
 177 0274 8E4DEA06 		.ascii	"\216M\352\006l6\242$I%\315\300H\316\362\302+\322\340"
 177      6C36A224 
 177      4925CDC0 
 177      48CEF2C2 
 177      2BD2E0
 178 0287 378BC1E5 		.ascii	"7\213\301\345\032\236(d\250\340Sx\266\225(b&\270\274"
 178      1A9E2864 
 178      A8E05378 
 178      B6952862 
 178      26B8BC
 179 029a 50F19CC6 		.ascii	"P\361\234\306\032yc\334\352\211\266\230\014;4\007\275"
 179      1A7963DC 
 179      EA89B698 
 179      0C3B3407 
 179      BD
 180 02ab AEF3B172 		.ascii	"\256\363\261rJJL\257\215\310\376r;\203\347@\342.\232"
 180      4A4A4CAF 
 180      8DC8FE72 
 180      3B83E740 
 180      E22E9A
 181 02be 899BFCE8 		.ascii	"\211\233\374\350\373\037E\327Ht\346s\200\240\3712\\"
 181      FB1F45D7 
 181      4874E673 
 181      80A0F932 
 181      5C
ARM GAS  /tmp/ccfzmerM.s 			page 13


 182 02cf A2E1D251 		.ascii	"\242\341\322Q\244\217O\334\336\202\246\266\271\213P"
 182      A48F4FDC 
 182      DE82A6B6 
 182      B98B50
 183 02de 1FD9D143 		.ascii	"\037\331\321C\267T\211\226c\001\365\212XG\274w\373&"
 183      B7548996 
 183      6301F58A 
 183      5847BC77 
 183      FB26
 184 02f0 CE9F152B 		.ascii	"\316\237\025+\023F6*\254\365\315\203\371\246\211y2\341"
 184      1346362A 
 184      ACF5CD83 
 184      F9A68979 
 184      32E1
 185 0302 05B1928B 		.ascii	"\005\261\222\213\270\307D\034-\202X\352\222\343\273"
 185      B8C7441C 
 185      2D8258EA 
 185      92E3BB
 186 0311 26E29827 		.ascii	"&\342\230'D>\307~\023\361j\021\304Y.9\016\230\210\327"
 186      443EC77E 
 186      13F16A11 
 186      C4592E39 
 186      0E9888D7 
 187 0325 3D21F239 		.ascii	"=!\3629\0364\021\357\024A\014\272\344\370\261\2118\341"
 187      1E3411EF 
 187      14410CBA 
 187      E4F8B189 
 187      38E1
 188 0337 0991CF31 		.ascii	"\011\221\3171cUd\021\304J\227\034\217X\365\330\351\005"
 188      63556411 
 188      C44A971C 
 188      8F58F5D8 
 188      E905
 189 0349 91CFF198 		.ascii	"\221\317\361\230U\217E\020\253\\r<a\325\243'D>\307\323"
 189      558F4510 
 189      AB5C723C 
 189      61D5A327 
 189      443EC7D3 
 190 035d 563D1641 		.ascii	"V=\026A\\\312\345\270\035\336Y\024\361$\274G\005t\316"
 190      5CCAE5B8 
 190      1DDE5914 
 190      F124BC47 
 190      0574CE
 191 0370 AA4713D1 		.ascii	"\252G\023\321\361\322\315\017\311'y\336*\310\"$\237"
 191      F1D2CD0F 
 191      C92779DE 
 191      2AC82224 
 191      9F
 192 0381 748978D9 		.ascii	"t\211x\331*\310\"\210\253\\.\315wVAzB\344s\274j\025"
 192      2AC82288 
 192      AB5C2ECD 
 192      7756417A 
 192      42E473BC 
 193 0397 64B230E2 		.ascii	"d\2620\342:\227\034\177\261\012\322\023\"\237\343\015"
 193      3A971C7F 
 193      B10AD213 
 193      229FE30D 
ARM GAS  /tmp/ccfzmerM.s 			page 14


 194 03a7 AB208B20 		.ascii	"\253 \213 \256w\311\361\226U\220\236\020+\021\247\345"
 194      AE77C9F1 
 194      9655909E 
 194      102B11A7 
 194      E5
 195 03b8 FE132AF8 		.ascii	"\376\023*\370\0338\266\314U\360(^\0047\347\231\276\300"
 195      1B38B6CC 
 195      55F0285E 
 195      0437E799 
 195      BEC0
 196 03ca F425A6C7 		.ascii	"\364%\246\307\230\376\226\351+L\377\300\364U\246\177"
 196      98FE96E9 
 196      2B4CFFC0 
 196      F455A67F 
 197 03da 667A9CE9 		.ascii	"fz\234\351kL_g\372&\323\2772}\213\351;L\377\306\364"
 197      6B4C5F67 
 197      FA26D3BF 
 197      327D8BE9 
 197      3B4CFFC6 
 198 03ef 5DA6FF60 		.ascii	"]\246\377`z\002\264\336\034\3079\372\207\317?nLZ\307"
 198      7A02B4DE 
 198      1CC739FA 
 198      87CF3F6E 
 198      4C5AC7
 199 0402 B947D13E 		.ascii	"\271G\321>r\341B/\351\016v\217g\263\013\215s\316\236"
 199      72E1422F 
 199      E90E768F 
 199      67B30B8D 
 199      73CE9E
 200 0415 0AFDE036 		.ascii	"\012\375\3406>0\022\334\223s4(5\301\350\347\243u\026"
 200      3E3012DC 
 200      93733428 
 200      35C1E8E7 
 200      A37516
 201 0428 30CD4930 		.ascii	"0\315I0\310\263V\360?\354\230\367o\316iG\357\233\335"
 201      C8B356F0 
 201      3FEC98F7 
 201      6FCE6947 
 201      EF9BDD
 202 043b 2CA647BC 		.ascii	",\246G\274\337E\366\305\2367\377\305\274\215\271;\314"
 202      DF45F6C5 
 202      9E37FFC5 
 202      BC8DB93B 
 202      CC
 203 044c B967327B 		.ascii	"\271g2{+4\315\230g\247\340\373\3238\301\375\307=\301"
 203      2B34CD98 
 203      67A7E0FB 
 203      D338C1FD 
 203      C73DC1
 204 045f 95DBD81B 		.ascii	"\225\333\330\033v\020\344\204h|\300\365\017g\026\360"
 204      7610E484 
 204      687CC0F5 
 204      0F6716F0 
 205 046f E808E8BE 		.ascii	"\350\010\350\276\210u\347\031\270\300\202)\370\357\234"
 205      8875E719 
 205      B8C08229 
 205      F8EF9C
ARM GAS  /tmp/ccfzmerM.s 			page 15


 206 047e A8363AE6 		.ascii	"\2506:\346\347E\357\264Sp\217\340=\372\035\002/z\263"
 206      E745EFB4 
 206      53708FE0 
 206      3DFA1D02 
 206      2F7AB3
 207 0491 D06C76D0 		.ascii	"\320lv\320\315\262\0179\372\2458\272\200GF@\257\370"
 207      CDB20F39 
 207      FAA538BA 
 207      80474640 
 207      AFF8
 208 04a3 A611FB7A 		.ascii	"\246\021\373z\307\354\274\330\235v\012\3365\215\330"
 208      C7ECBCD8 
 208      9D760ADE 
 208      358DD8
 209 04b2 7773639F 		.ascii	"wsc\237a\213}\2673v\3725:\372\010\217\214\200\366\026"
 209      618B7DB7 
 209      3376FA35 
 209      3AFA088F 
 209      8C80F616 
 210 04c6 8A5DC12F 		.ascii	"\212]\301/\001W\003\212~?\216V\361\241>\264A\241\222"
 210      0157038A 
 210      7E3F8E56 
 210      F1A13EB4 
 210      41A192
 211 04d9 B4BA3A19 		.ascii	"\264\272:\031WKV\256}\2462\214\346\207B\222\366\353"
 211      574B56AE 
 211      7DA6328C 
 211      E6874292 
 211      F6EB
 212 04eb 4A4B1D6D 		.ascii	"JK\035m\011)\235\212Ii5\024C\201\364\213i5\336\331\036"
 212      09299D8A 
 212      49693514 
 212      4381F48B 
 212      6935DED9 
 213 0500 5517E7DA 		.ascii	"U\027\347\332\244TikWJMKMr$\034yA\212u\304\272R\355"
 213      A454696B 
 213      574A4D4B 
 213      4D72241C 
 213      79418A75 
 214 0518 A10E54BA 		.ascii	"\241\016T\272-\236Tk\032\242\252*umU\351c\351\331X\254"
 214      2D9E546B 
 214      1AA2AA2A 
 214      756D55E9 
 214      63E9D958 
 215 052d BA2DD559 		.ascii	"\272-\325Y\235\354J\266W\267\267m\212W\327G\033\253"
 215      9DEC4AB6 
 215      57B7B76D 
 215      8A57D747 
 215      1BAB
 216 053f 6B97D6D4 		.ascii	"k\227\326\324=W'm\212')d\"\276\211\332I6;\251>\324\030"
 216      3D57276D 
 216      8A272964 
 216      22BE89DA 
 216      49363BA9 
 217 0556 AA97CC79 		.ascii	"\252\227\314y\341g\177\036O\306\022\3336\267\003\323"
 217      E1677F1E 
 217      4FC612DB 
ARM GAS  /tmp/ccfzmerM.s 			page 16


 217      36B703D3 
 218 0566 CD302BCC 		.ascii	"\3150+\314^\236V[\324\266\224\332\224\000C\037\345]"
 218      5E9E565B 
 218      D4B694DA 
 218      9400431F 
 218      E55D
 219 0578 4647BAB6 		.ascii	"FG\272\266\262\201\031\320oW\215\356J\275\013\026\321"
 219      B28119D0 
 219      6F578DEE 
 219      4ABD0B16 
 219      D1
 220 0589 44627334 		.ascii	"Dbs4\016\351\220\234y\320\202li\215\324\325Jk\3264K"
 220      0EE9909C 
 220      79D0826C 
 220      698DD4D5 
 220      4A6BD634 
 221 059e ADAB23CF 		.ascii	"\255\253#\317\327H\232\207\021m]mT\005\220Nz\215wF\325"
 221      D7489A87 
 221      116D5D6D 
 221      5405904E 
 221      7A8D7746 
 222 05b3 5AB720BA 		.ascii	"Z\267 \272\007\340\210a\271\006\244\326\327\022\011"
 222      07E08861 
 222      B906A4D6 
 222      D71209
 223 05c2 CBBEE6D5 		.ascii	"\313\276\346\325+d\241E\026W\254\224\037\010\207#r\015"
 223      2B64A145 
 223      1657AC94 
 223      1F088723 
 223      720D
 224 05d4 D3B5BE70 		.ascii	"\323\265\276px\205,\206\327\266\212\353Z\302b\223,\213"
 224      78852C86 
 224      D7B68AEB 
 224      5AC26293 
 224      2C8B
 225 05e6 7218EEC1 		.ascii	"r\030\356\301\341\251\346VYl\246\236\221&YxZ\363\252"
 225      E1A9E656 
 225      596CA69E 
 225      91265978 
 225      5AF3AA
 226 05f9 037B7919 		.ascii	"\003{y\031U\015\276XG[\2524\032\335\262-\031\213Fg\032"
 226      550DBE58 
 226      475BAA34 
 226      1ADDB22D 
 226      198B4667 
 227 060e 9D5043FD 		.ascii	"\235PC\375\262'r\357\032\352lw\215\271w\2155\377\003"
 227      B22772EF 
 227      1AEA6C77 
 227      8DB9778D 
 227      35FF03
 228 0621 27E5B7AB 		.ascii	"'\345\267\253"
 229              		.text
 230              		.section	.gnu.lto_.symtab.4a6228683c2a5a5a,"",%progbits
 231 0000 7374496E 		.ascii	"stInit\000\000\000\000\000\000\000\000\000\000\000\000"
 231      69740000 
 231      00000000 
 231      00000000 
ARM GAS  /tmp/ccfzmerM.s 			page 17


 231      0000
 232 0012 A0000000 		.ascii	"\240\000\000\000stStartAlarm\000\000\000\000\000\000"
 232      73745374 
 232      61727441 
 232      6C61726D 
 232      00000000 
 233 0028 00000000 		.ascii	"\000\000\000\000\000\000\245\000\000\000stStopAlarm"
 233      0000A500 
 233      00007374 
 233      53746F70 
 233      416C6172 
 234 003d 00000000 		.ascii	"\000\000\000\000\000\000\000\000\000\000\000\000\262"
 234      00000000 
 234      00000000 
 234      B2
 235 004a 00000073 		.ascii	"\000\000\000stSetAlarm\000\000\000\000\000\000\000\000"
 235      74536574 
 235      416C6172 
 235      6D000000 
 235      00000000 
 236 005f 00000000 		.ascii	"\000\000\000\000\265\000\000\000stGetAlarm\000\000\000"
 236      B5000000 
 236      73744765 
 236      74416C61 
 236      726D0000 
 237 0074 00000000 		.ascii	"\000\000\000\000\000\000\000\000\000\271\000\000\000"
 237      00000000 
 237      00B90000 
 237      00
 238 0081 73745F6C 		.ascii	"st_lld_init\000\000\002\000\000\000\000\000\000\000"
 238      6C645F69 
 238      6E697400 
 238      00020000 
 238      00000000 
 239 0096 0000BD00 		.ascii	"\000\000\275\000\000\000"
 239      0000
 240              		.text
 241              		.section	.gnu.lto_.opts,"",%progbits
 242 0000 272D6D63 		.ascii	"'-mcpu=cortex-m3''-mno-thumb-interwork''-mthumb''-g"
 242      70753D63 
 242      6F727465 
 242      782D6D33 
 242      27272D6D 
 243 0033 67646227 		.ascii	"gdb''-O2''-fomit-frame-pointer''-falign-functions=1"
 243      272D4F32 
 243      27272D66 
 243      6F6D6974 
 243      2D667261 
 244 0066 3627272D 		.ascii	"6''-ffunction-sections''-fdata-sections''-fno-commo"
 244      6666756E 
 244      6374696F 
 244      6E2D7365 
 244      6374696F 
 245 0099 6E27272D 		.ascii	"n''-flto'\000"
 245      666C746F 
 245      2700
 246              		.text
ARM GAS  /tmp/ccfzmerM.s 			page 18


 247              		.cfi_sections	.debug_frame
 248              		.section	.text.stInit,"ax",%progbits
 249              		.align	2
 250              		.p2align 4,,15
 251              		.global	stInit
 252              		.thumb
 253              		.thumb_func
 254              		.type	stInit, %function
 255              	stInit:
 256              	.LFB194:
 257              		.file 1 "../../../os/hal/src/st.c"
 258              		.loc 1 64 0
 259              		.cfi_startproc
 260              		@ args = 0, pretend = 0, frame = 0
 261              		@ frame_needed = 0, uses_anonymous_args = 0
 262              		@ link register save eliminated.
 263              		.loc 1 67 0
 264              		.loc 1 66 0
 265 0000 FFF7FEBF 		b	st_lld_init
 266              	.LVL0:
 267              		.cfi_endproc
 268              	.LFE194:
 269              		.size	stInit, .-stInit
 270 0004 AFF30080 		.section	.text.stStartAlarm,"ax",%progbits
 270      AFF30080 
 270      AFF30080 
 271              		.align	2
 272              		.p2align 4,,15
 273              		.global	stStartAlarm
 274              		.thumb
 275              		.thumb_func
 276              		.type	stStartAlarm, %function
 277              	stStartAlarm:
 278              	.LFB195:
 279              		.loc 1 81 0
 280              		.cfi_startproc
 281              		@ args = 0, pretend = 0, frame = 0
 282              		@ frame_needed = 0, uses_anonymous_args = 0
 283              		@ link register save eliminated.
 284              	.LVL1:
 285              	.LBB10:
 286              	.LBB11:
 287              		.file 2 "../../../os/hal/ports/STM32/LLD/TIMv1/st_lld.h"
 288              		.loc 2 142 0
 289 0000 4FF08043 		mov	r3, #1073741824
 290              	.LVL2:
 291 0004 5863     		str	r0, [r3, #52]
 292              		.loc 2 143 0
 293 0006 0022     		movs	r2, #0
 294              		.loc 2 144 0
 295 0008 0220     		movs	r0, #2
 296              	.LVL3:
 297              		.loc 2 143 0
 298 000a 1A61     		str	r2, [r3, #16]
 299              		.loc 2 144 0
 300 000c D860     		str	r0, [r3, #12]
 301 000e 7047     		bx	lr
ARM GAS  /tmp/ccfzmerM.s 			page 19


 302              	.LBE11:
 303              	.LBE10:
 304              		.cfi_endproc
 305              	.LFE195:
 306              		.size	stStartAlarm, .-stStartAlarm
 307              		.section	.text.stStopAlarm,"ax",%progbits
 308              		.align	2
 309              		.p2align 4,,15
 310              		.global	stStopAlarm
 311              		.thumb
 312              		.thumb_func
 313              		.type	stStopAlarm, %function
 314              	stStopAlarm:
 315              	.LFB196:
 316              		.loc 1 95 0
 317              		.cfi_startproc
 318              		@ args = 0, pretend = 0, frame = 0
 319              		@ frame_needed = 0, uses_anonymous_args = 0
 320              		@ link register save eliminated.
 321              	.LBB12:
 322              	.LBB13:
 323              		.loc 2 154 0
 324 0000 0022     		movs	r2, #0
 325 0002 4FF08043 		mov	r3, #1073741824
 326 0006 DA60     		str	r2, [r3, #12]
 327 0008 7047     		bx	lr
 328              	.LBE13:
 329              	.LBE12:
 330              		.cfi_endproc
 331              	.LFE196:
 332              		.size	stStopAlarm, .-stStopAlarm
 333 000a 00BFAFF3 		.section	.text.stSetAlarm,"ax",%progbits
 333      0080
 334              		.align	2
 335              		.p2align 4,,15
 336              		.global	stSetAlarm
 337              		.thumb
 338              		.thumb_func
 339              		.type	stSetAlarm, %function
 340              	stSetAlarm:
 341              	.LFB197:
 342              		.loc 1 111 0
 343              		.cfi_startproc
 344              		@ args = 0, pretend = 0, frame = 0
 345              		@ frame_needed = 0, uses_anonymous_args = 0
 346              		@ link register save eliminated.
 347              	.LVL4:
 348              	.LBB14:
 349              	.LBB15:
 350              		.loc 2 166 0
 351 0000 4FF08043 		mov	r3, #1073741824
 352 0004 5863     		str	r0, [r3, #52]
 353 0006 7047     		bx	lr
 354              	.LBE15:
 355              	.LBE14:
 356              		.cfi_endproc
 357              	.LFE197:
ARM GAS  /tmp/ccfzmerM.s 			page 20


 358              		.size	stSetAlarm, .-stSetAlarm
 359 0008 AFF30080 		.section	.text.stGetAlarm,"ax",%progbits
 359      AFF30080 
 360              		.align	2
 361              		.p2align 4,,15
 362              		.global	stGetAlarm
 363              		.thumb
 364              		.thumb_func
 365              		.type	stGetAlarm, %function
 366              	stGetAlarm:
 367              	.LFB198:
 368              		.loc 1 127 0
 369              		.cfi_startproc
 370              		@ args = 0, pretend = 0, frame = 0
 371              		@ frame_needed = 0, uses_anonymous_args = 0
 372              		@ link register save eliminated.
 373              	.LBB16:
 374              	.LBB17:
 375              		.loc 2 178 0
 376 0000 4FF08043 		mov	r3, #1073741824
 377 0004 586B     		ldr	r0, [r3, #52]
 378              	.LBE17:
 379              	.LBE16:
 380              		.loc 1 132 0
 381 0006 80B2     		uxth	r0, r0
 382 0008 7047     		bx	lr
 383              		.cfi_endproc
 384              	.LFE198:
 385              		.size	stGetAlarm, .-stGetAlarm
 386 000a 00BFAFF3 		.text
 386      0080
 387              	.Letext0:
 388              		.file 3 "/opt/ARM/gcc-arm-none-eabi-4_7-2013q3/bin/../lib/gcc/arm-none-eabi/4.7.4/../../../../arm-
 389              		.file 4 "../../../os/rt/include/chschd.h"
 390              		.file 5 "../../../os/rt/ports/ARMCMx/compilers/GCC/chtypes.h"
 391              		.file 6 "../../../os/rt/ports/ARMCMx/chcore.h"
 392              		.file 7 "../../../os/rt/ports/ARMCMx/chcore_v7m.h"
 393              		.file 8 "../../../os/hal/ports/STM32/LLD/TIMv1/stm32_tim.h"
 394              		.file 9 "../../../os/rt/include/chmtx.h"
 395              		.file 10 "../../../os/ext/CMSIS/include/core_cm3.h"