ARM GAS  /tmp/ccnWgNJH.s 			page 1


   1              		.syntax unified
   2              		.cpu cortex-m3
   3              		.fpu softvfp
   4              		.eabi_attribute 20, 1
   5              		.eabi_attribute 21, 1
   6              		.eabi_attribute 23, 3
   7              		.eabi_attribute 24, 1
   8              		.eabi_attribute 25, 1
   9              		.eabi_attribute 26, 1
  10              		.eabi_attribute 30, 2
  11              		.eabi_attribute 34, 1
  12              		.eabi_attribute 18, 4
  13              		.thumb
  14              		.file	"st_lld.c"
  15              		.text
  16              	.Ltext0:
  17              		.section	.gnu.lto_.jmpfuncs.3fe885a1ca8733ad,"",%progbits
  18 0000 789C6362 		.ascii	"x\234cb`d`g\300\016\244\2414\023\210`d`b\222dHed`\220"
  18      60646067 
  18      C00EA4A1 
  18      34138860 
  18      64606292 
  19 001a 61803238 		.ascii	"a\20028\030\030\000\024)\001Q"
  19      18180014 
  19      290151
  20              		.text
  21              		.section	.gnu.lto_.inline.3fe885a1ca8733ad,"",%progbits
  22 0000 789C6362 		.ascii	"x\234cb`d\340e\300\016L\2404\023\003\003\207$#\003\023"
  22      6064E065 
  22      C00E4CA0 
  22      34130303 
  22      87242303 
  23 0015 DB073D06 		.ascii	"\333\007=\006\266\005\362L\014\214\\@Q\010\301 \010"
  23      B605F24C 
  23      0C8C5C40 
  23      5108C120 
  23      08
  24 0026 9211FBB0 		.ascii	"\222\021\373\260\232\021\"\305\314\003V\317\000\000"
  24      9A1122C5 
  24      CC0356CF 
  24      0000
  25 0034 94B10524 		.ascii	"\224\261\005$"
  26              		.text
  27              		.section	.gnu.lto_.pureconst.3fe885a1ca8733ad,"",%progbits
  28 0000 789C6362 		.ascii	"x\234cb`d`f```e\200\000&\006+F)\000\001\232\000c"
  28      60646066 
  28      60606065 
  28      80002606 
  28      2B462900 
  29              		.text
  30              		.section	.gnu.lto_VectorB0.3fe885a1ca8733ad,"",%progbits
  31 0000 789CAD52 		.ascii	"x\234\255R1L\024A\024}\177\366\02606\2644\334\205\304"
  31      314C1441 
  31      147D7FF6 
  31      163036B4 
  31      34DC85C4 
  32 0014 C2486E14 		.ascii	"\302Hn\024\013)1\030#\011[p\207\345y9\227I\216d\217"
ARM GAS  /tmp/ccnWgNJH.s 			page 2


  32      0B293118 
  32      23095B70 
  32      87E57939 
  32      97498E64 
  33 0029 25BB7717 		.ascii	"%\273w\027\264\271\001\251\225\230H\320\304\004C\214"
  33      B4B901A9 
  33      959848D0 
  33      C404438C 
  34 0039 06488C5A 		.ascii	"\006H\214Z\030+\215\205\305\235\241\261\261\223\240"
  34      182B8D85 
  34      C59DA1B1 
  34      B193A0
  35 0048 76C6C646 		.ascii	"v\306\306F\253\343\317\336\202w\210J\341\354\356\374"
  35      ABE3CFDE 
  35      8277884A 
  35      E1ECEEFC 
  36 0058 9FFDFFFD 		.ascii	"\237\375\377\375\367\377\233\021 ~~_}\374\275\027@\235"
  36      F7FF9B11 
  36      207E7E5F 
  36      7DFCBD17 
  36      409D
  37 006a 2D5920B1 		.ascii	"-Y \261\264\005\314\247\004\221q\030R\023T\273\334B"
  37      B405CCA7 
  37      04917118 
  37      521354BB 
  37      DC42
  38 007c D65F3E4C 		.ascii	"\326_>L~\336\354z%^o7k\300q\376ecQ\353^\344\343\322"
  38      7EDEEC7A 
  38      255E6F37 
  38      6BC071FE 
  38      656351EB 
  39 0094 13C61A60 		.ascii	"\023\306\032`\206D\344Xu\274\031\376\272\361\214r\264"
  39      8644E458 
  39      75BC19FE 
  39      BAF18C72 
  39      B4
  40 00a5 4A364E61 		.ascii	"J6Na]/\222\"X\367p\227-\211>(N\325\274\022h\371\300"
  40      5D2F9222 
  40      58F77097 
  40      2D893E28 
  40      4ED5BC12 
  41 00bc 0F8BB72B 		.ascii	"\017\213\267+\264\337\241\212\335\267\020\024\023\036"
  41      B4DFA18A 
  41      DDB71014 
  41      131E
  42 00ca 6A5A1C87 		.ascii	"jZ\034\207\255\001<\320\372\366\322\015}ia\273\331L"
  42      AD013CD0 
  42      FAF6D20D 
  42      7D6961BB 
  42      D94C
  43 00dc 2AB20486 		.ascii	"*\262\004\206\310\264\275\323\370\370%j\"\201TDe#qP"
  43      C8B4BDD3 
  43      F8F8256A 
  43      22815444 
  43      65237150 
  44 00f0 214EE720 		.ascii	"!N\347 \320\300\002\255\337\274\363i\270\203\226G{D"
  44      D0C002AD 
ARM GAS  /tmp/ccnWgNJH.s 			page 3


  44      DFBCF369 
  44      B8839647 
  44      7B44
  45 0102 034CBED6 		.ascii	"\003L\276\326An\344\276\305@\036(\332\200~\254\322}"
  45      416EE4BE 
  45      C5401E28 
  45      DA807EAC 
  45      D27D
  46 0114 BD32A2A8 		.ascii	"\2752\242\250\253\243\354~x-\016wG\005\336\301\372\266"
  46      ABA3EC7E 
  46      782D0E77 
  46      4705DEC1 
  46      FAB6
  47 0126 FC74E783 		.ascii	"\374t\347\203\375\257!\257\343\247\356Q\324Cy\242\226"
  47      FDAF21AF 
  47      E3A7EE51 
  47      D44379A2 
  47      96
  48 0137 528A8EFD 		.ascii	"R\212\216\375_\265r\364\230O\306\310\265\361\375Hr\341"
  48      5FB572F4 
  48      984FC6C8 
  48      B5F1FD48 
  48      72E1
  49 0149 6F72BD88 		.ascii	"or\275\210\344z\376'\271r\264\311\316\257:\261>9zB\375"
  49      E47AFE27 
  49      B972B4C9 
  49      CEAF3AB1 
  49      3E397A42 
  50 015e 7BCAD41B 		.ascii	"{\312\324\033\366^\377m\343\213\266\361\267@|W;\207"
  50      F65EFF6D 
  50      E38BB6F1 
  50      B7407C57 
  50      3B87
  51 0170 9C30FAF0 		.ascii	"\2340\372\360\2554\365d:\035\277~(\213\005O\316\372"
  51      AD34F564 
  51      3A1DBF7E 
  51      288B054F 
  51      CEFA
  52 0182 413994D9 		.ascii	"A9\224\331I\347\354\220\034\037\277 '\307\234\352\031"
  52      49E7EC90 
  52      1C1FBF20 
  52      27C79CEA 
  52      19
  53 0193 1996F39E 		.ascii	"\031\226\363\2367\225vaW\013^E\235lG\005\345\030t>\343"
  53      37957661 
  53      570B5E45 
  53      9D6C4705 
  53      E518743E 
  54 01a8 8C3A73D2 		.ascii	"\214:s\322-\272~\240\362\325s\245t\021\203\355\231j"
  54      2DBA7EA0 
  54      F2D573A5 
  54      741183ED 
  54      996A
  55 01ba AE2C479D 		.ascii	"\256,G\235\354XVN\317\270^eJ\311(\323-]\254\314\270"
  55      EC58564E 
  55      CFB85E65 
  55      4AC928D3 
ARM GAS  /tmp/ccnWgNJH.s 			page 4


  55      2D5DACCC 
  56 01cf 9CDCEB64 		.ascii	"\234\334\353d3\251\253\205P\315\006\323\203\251\023"
  56      33A9AB85 
  56      50CD06D3 
  56      83A913
  57 01de A7210274 		.ascii	"\247!\002t\227T\311\017\256!y\260Q?\344\215\271\215"
  57      9754C90F 
  57      AE2179B0 
  57      513FE48D 
  57      B98D
  58 01f0 65EC2E31 		.ascii	"e\354.1\233\300\350"
  58      9BC0E8
  59              		.text
  60              		.section	.gnu.lto_st_lld_init.3fe885a1ca8733ad,"",%progbits
  61 0000 789C9DD3 		.ascii	"x\234\235\323\277K\202A\030\007\360\357s\367\276j?\210"
  61      BF4B8241 
  61      1807F0EF 
  61      73F7BE6A 
  61      3F88
  62 0012 C6822071 		.ascii	"\306\202 q\015<\252\305?\240!\241\206\312\226\300$L"
  62      0D3CAAC5 
  62      3FA021A1 
  62      86CA96C0 
  62      244C
  63 0024 68108A8C 		.ascii	"h\020\212\214\206\026\257rh\214\266Z\37216\330*-E5\204"
  63      8616AF72 
  63      688CB65A 
  63      FA3136D8 
  63      2A2D4535 
  64 0039 4493A383 		.ascii	"D\223\243\203Hm\321\344P\020\274\335\275\357YV\026\361"
  64      486DD1E4 
  64      5010BCDD 
  64      BDEF5956 
  64      16F1
  65 004b 3EAFBECF 		.ascii	">\257\276\317\341{\317\3479\365\216\201\324\3653\372"
  65      E17BCFE7 
  65      39F58E81 
  65      D4F533FA 
  66 005b D55B58C0 		.ascii	"\325[X\300\260\312\304Al\367\036\330\0143\"=P%yF\371"
  66      B0CAC441 
  66      6CF71ED8 
  66      0C33223D 
  66      50257946 
  67 0070 59B79245 		.ascii	"Y\267\222Ep,\345\336\356\365\326\370V\315q\0063\372"
  67      702CE5DE 
  67      EEF5D6F8 
  67      56CD7106 
  67      33FA
  68 0082 D314A1FC 		.ascii	"\323\024\241\374\374H\375\310\020!\014\235\031\254\257"
  68      FC48FDC8 
  68      10210C9D 
  68      19ACAF
  69 0091 3D7EA9C3 		.ascii	"=~\251\303\237E7\305:U\316\003\027\354\262\346\344\201"
  69      9F4537C5 
  69      3A55CE03 
  69      17ECB2E6 
  69      E481
ARM GAS  /tmp/ccnWgNJH.s 			page 5


  70 00a3 3E8E241D 		.ascii	">\216$\035QDMK\322\261\312*l\024\244\354u)\035S:\353"
  70      51444D4B 
  70      D2B1CA2A 
  70      6C14A4EC 
  70      75291D53 
  71 00b9 554F2B4D 		.ascii	"UO+M\017x\031Ws\215bO\222N\310F\232\370\020Ne\2012\304"
  71      0F781957 
  71      738D624F 
  71      924EC846 
  71      9AF8104E 
  72 00d1 F901F655 		.ascii	"\371\001\366U\266\230nmC\036\355H\013\336\330\213yr"
  72      B6986E6D 
  72      431EED48 
  72      0BDED88B 
  72      7972
  73 00e3 BFBC8E32 		.ascii	"\277\274\2162\266\317ts\317\260\024\243'zOU\203\270"
  73      B6CF7473 
  73      CFB014A3 
  73      277A4F55 
  73      83B8
  74 00f5 79E4C356 		.ascii	"y\344\303V\232K\304\356\316\352\324^\011\270J\020R\205"
  74      9A4BC4EE 
  74      CEEAD45E 
  74      09B84A10 
  74      5285
  75 0107 A70455E1 		.ascii	"\247\004U\341\013w\031j\376\205j>\016c\336zb\025\177"
  75      0B77196A 
  75      FE856A3E 
  75      0E63DE7A 
  75      62157F
  76 011a 186BC51C 		.ascii	"\030k\305\034\207\033\255\352O\343\255\032\214\365\360"
  76      871BADEA 
  76      4FE3AD1A 
  76      8CF5F0
  77 0129 6109143D 		.ascii	"a\011\024=\313j\252\241\377\250\326\247\332a~\314[\373"
  77      CB6AAAA1 
  77      FFA8D6A7 
  77      DA617ECC 
  77      5BFB
  78 013b 479B277F 		.ascii	"G\233'\177K\266\333-\271\341\317\012\264\263\336\374"
  78      4BB6DB2D 
  78      B9E1CF0A 
  78      B4B3DEFC 
  79 014b 59C156CB 		.ascii	"Y\301V\313l\272\330M\311\227\025\372n\335\301\256\226"
  79      6CBAD84D 
  79      C99715FA 
  79      6EDDC1AE 
  79      96
  80 015c 8A860236 		.ascii	"\212\206\0026\360*C\031\352\244\024\231\335\245\247"
  80      F02A4319 
  80      EAA41499 
  80      DDA5A7
  81 016b 7661C0E4 		.ascii	"va\300\344\220\272w\003\367\320G\263Y\324<}\344\036"
  81      90BA7703 
  81      F7D047B3 
  81      59D43C7D 
  81      E41E
ARM GAS  /tmp/ccnWgNJH.s 			page 6


  82 017d 3ABD8F44 		.ascii	":\275\217D4j^\3139\261\264\220\025+\313\253k91\223\230"
  82      346A5ECB 
  82      39B1B490 
  82      152BCBAB 
  82      6B393193 
  83 0192 1C1D1113 		.ascii	"\034\035\021\023\023c\"\021\237\\\037\026\271\265T6"
  83      13632211 
  83      9F5C1F16 
  83      B9B55436 
  84 01a2 BB184DE3 		.ascii	"\273\030M\343\035\255\240\331\241"
  84      1DADA0D9 
  84      A1
  85              		.text
  86              		.section	.gnu.lto_.cgraph.3fe885a1ca8733ad,"",%progbits
  87 0000 789C3DCC 		.ascii	"x\234=\314\261\015\2000\020CQ\373.{0\031\2638\025\242"
  87      B10D8030 
  87      104351FB 
  87      2E7B3019 
  87      B33815A2 
  88 0014 64028621 		.ascii	"d\002\206!\201\222\031@i\231\001\021!\210\233\257\327"
  88      81921940 
  88      69990111 
  88      21889BAF 
  88      D7
  89 0025 D8403880 		.ascii	"\330@8\200\036\337l\241\200i\2074\217\264D\261\211+"
  89      1EDF6CA1 
  89      80698734 
  89      8FB444B1 
  89      892B
  90 0037 65AF6224 		.ascii	"e\257b$7\312\0332\025~x},\307]kHg-\003\312pux\000\236"
  90      37CA1B32 
  90      157E787D 
  90      2CC75D6B 
  90      48672D03 
  91 0051 361E55   		.ascii	"6\036U"
  92              		.text
  93              		.section	.gnu.lto_.vars.3fe885a1ca8733ad,"",%progbits
  94 0000 789C6362 		.ascii	"x\234cb`d`f`\000\222P\000\000\000r\000\010"
  94      60646066 
  94      60009250 
  94      00000072 
  94      0008
  95              		.text
  96              		.section	.gnu.lto_.refs.3fe885a1ca8733ad,"",%progbits
  97 0000 789C6362 		.ascii	"x\234cb`d`f```b\200\001\000\000\204\000\011"
  97      60646066 
  97      60606062 
  97      80010000 
  97      840009
  98              		.text
  99              		.section	.gnu.lto_.statics.3fe885a1ca8733ad,"",%progbits
 100 0000 789C6362 		.ascii	"x\234cb`d`b\300\016@\342\214\020&\000\000\375\000\011"
 100      60646062 
 100      C00E40E2 
 100      8C102600 
 100      00FD0009 
 101              		.text
ARM GAS  /tmp/ccnWgNJH.s 			page 7


 102              		.section	.gnu.lto_.decls.3fe885a1ca8733ad,"",%progbits
 103 0000 789CAD96 		.ascii	"x\234\255\226kl\024U\024\307\357\235\335>\226\326\002"
 103      6B6C1455 
 103      14C7EF9D 
 103      DD3E96D6 
 103      02
 104 0011 0D90EA17 		.ascii	"\015\220\352\027\226\017\030\305\264\323\335\242\370"
 104      960F18C5 
 104      B4D3DDA2 
 104      F8
 105 001e 8584765A 		.ascii	"\205\204vZi\023\026\311\354jL\314fm\267\003\335d\037"
 105      691316C9 
 105      EC6A4CCC 
 105      666DB703 
 105      DD641F
 106 0031 65BB10F8 		.ascii	"e\273\020\3706P\224\207\021\253\221\310\0071\253\266"
 106      36509487 
 106      11AB91C8 
 106      0731ABB6 
 107 0041 86978811 		.ascii	"\206\227\210\021\014\222j\032R\011!\225\200\251\020"
 107      0C926A1A 
 107      52092195 
 107      80A910
 108 0050 0422F246 		.ascii	"\004\"\362F\312#\264\242\244\325z\356\235\231;\263t"
 108      CA23B4A2 
 108      A4D57AEE 
 108      9D993BB3 
 108      74
 109 0061 A73343B8 		.ascii	"\2473C\270\331s\366\316\314=\277\363\237;\367\316\034"
 109      D973F6CE 
 109      CC3DBFF3 
 109      9F3BF7CE 
 109      1C
 110 0072 0E6144DA 		.ascii	"\016aD\332\014\370\033\207\366f9B\357r\010\271\340\334"
 110      0CF81B87 
 110      F6663942 
 110      EF7208B9 
 110      E0DC
 111 0084 42307235 		.ascii	"B0r5\213\224V\000\326\015\266\023l\017\330W`_\243\211"
 111      8B945600 
 111      D60DB613 
 111      6C0FD857 
 111      605FA389 
 112 0098 8D8C9902 		.ascii	"\215\214\231\002v\000\354 \330u\225Q\006V\012v\003\354"
 112      7600EC20 
 112      D8759551 
 112      06560A76 
 112      03EC
 113 00aa 36D85DB0 		.ascii	"6\330]\260\0365\307\021\244\344\354V\271{\362pI\336"
 113      1E35C711 
 113      A4E4EC56 
 113      B97BF270 
 113      49DE
 114 00bc A7C08A0C 		.ascii	"\247\300\212\014,\222\343\036\230\007\353\271~\005s"
 114      2C92E31E 
 114      9807EBB9 
 114      7E0573
ARM GAS  /tmp/ccnWgNJH.s 			page 8


 115 00cb 130D58C9 		.ascii	"\023\015X\311\273\237\\'|8>\001\377'\301\216\202\015"
 115      BB9F5C27 
 115      7C383E01 
 115      FF27C18E 
 115      820D
 116 00dd 82F581F5 		.ascii	"\202\365\201\365\202\365\203\035\006\343\324<\371\356"
 116      82F5831D 
 116      06E3D43C 
 116      F9EE
 117 00eb CB8336C9 		.ascii	"\313\2036\311\362z9\373\216\334x\014\362?\215\302\270"
 117      F27A39FB 
 117      8EDC780C 
 117      F23F8DC2 
 117      B8
 118 00fc 0CB85EDA 		.ascii	"\014\270^\332+\365(I\347\242nY\356\222e\031\207q\026"
 118      2BF52849 
 118      E7A26E59 
 118      EE926519 
 118      877116
 119 010f 7B00C861 		.ascii	"{\000\310a4\017\355\222iS&[\235sT\202vo>8\306)\007a"
 119      340FED92 
 119      6953265B 
 119      9D735482 
 119      766F3E38 
 120 0127 5CE43166 		.ascii	"\\\3441f\243\307a\374\005\236\207\224\\\312e\255G\036"
 120      A3C761FC 
 120      059E8794 
 120      5CCA65AD 
 120      471E
 121 0139 D6548466 		.ascii	"\326T\204f\243O\345\354\305\256N\271\361\237\361\361"
 121      A34FE5EC 
 121      C5AE4EB9 
 121      F19FF1F1 
 122 0149 A259681B 		.ascii	"\242Yh\033\311\002\012e\234\011\343\2053MD\022z\017"
 122      C9020A65 
 122      9C09E385 
 122      334D4412 
 122      7A0F
 123 015b 9EA5F642 		.ascii	"\236\245\366B.%#\2076b\254\246\374|\333\360q\254Iy\026"
 123      2E252387 
 123      3662ACA6 
 123      FC7CDBF0 
 123      71AC4979 
 124 0170 F5106CDF 		.ascii	"\365\020l\337\372\012\312$1\335x6\312U\373%\346\214"
 124      FA0ACA24 
 124      31DD7836 
 124      CA55FB25 
 124      E68C
 125 0182 27728529 		.ascii	"'r\205)\3518\324\307\022\364\357{f\022\374\316\011\370"
 125      E938D4C7 
 125      12F4EF7B 
 125      6612FCCE 
 125      09F8
 126 0194 5D13F117 		.ascii	"]\023\361\027\273\272:\2639\370\001\206\377o\307\216"
 126      BBBA3AB3 
 126      39F80186 
 126      FF6FC78E 
ARM GAS  /tmp/ccnWgNJH.s 			page 9


 127 01a4 3315B984 		.ascii	"3\025\271\204\275v\010\2339\215p\277\347\233\251\271"
 127      BD76089B 
 127      398D70BF 
 127      E79BA9B9 
 128 01b4 807D9301 		.ascii	"\200}\223\001\234L\375~u\352]t\271!u\241\344\034\031"
 128      9C4CFD7E 
 128      75EA5D74 
 128      B92175A1 
 128      E41C19
 129 01c7 9F0B9CEF 		.ascii	"\237\013\234\357e\262\036\354\375\2410W\326\267\271"
 129      65B21EEC 
 129      FDA13057 
 129      D6B7B9
 130 01d6 B2E82AED 		.ascii	"\262\350*\355\264X\245a\374\031\236ks\211\225\243\017"
 130      B458A561 
 130      FC199E6B 
 130      738995A3 
 130      0F
 131 01e7 C89D798D 		.ascii	"\310\235y\2154\271\220\341\336B\271\213\376 .\007\301"
 131      34B990E1 
 131      DE42B98B 
 131      FE202E07 
 131      C1
 132 01f8 0F99E0EF 		.ascii	"\017\231\340\357\016\234=\247\336\210\015\022\221v\010"
 132      0E9C3DA7 
 132      DE880D12 
 132      917608
 133 0207 084A2CE5 		.ascii	"\010J,\345\312\012\227\234E\352\371\221[\313\321\304"
 133      CA0A979C 
 133      45EAF991 
 133      5BCBD1C4 
 134 0217 36730ECA 		.ascii	"6s\016\312\312\033:\311\232+\014\343\003t\363\035ra"
 134      CA1B3AC9 
 134      9A2B0CE3 
 134      0374F31D 
 134      7261
 135 0229 953876EB 		.ascii	"\2258v\353\032\316?\031Z_i\332\030\265\345a\3662f\177"
 135      1ACE3F19 
 135      5A5F69DA 
 135      18B5E561 
 135      F632667F 
 136 023d DC09D16B 		.ascii	"\334\011\321kJ\354c\304\001\013b\261M\215?1\342\240"
 136      4AEC63C4 
 136      010B62B1 
 136      4D8D3F31 
 136      E2A0
 137 024f 23A2B9C6 		.ascii	"#\242\271\306\343\214x\336\2028\315\246\306\237\031"
 137      E38C78DE 
 137      8238CDA6 
 137      C69F19
 138 025e F18A23A2 		.ascii	"\361\212#\242\271\306S\2148dA\254\260\251\361\014#\216"
 138      B9C6538C 
 138      386441AC 
 138      B0A9F10C 
 138      238E
 139 0270 38229A6B 		.ascii	"8\"\232k\274\240\257H\013\242\327\246\306K\372zL8!\232"
 139      BCA0AF48 
ARM GAS  /tmp/ccnWgNJH.s 			page 10


 139      0BA2D7A6 
 139      C64BFA7A 
 139      4C38219A 
 140 0284 6BBCA6AF 		.ascii	"k\274\246\257G\013\342s65\376\251\257GGDs\215w\364\365"
 140      470BE273 
 140      3635FEA9 
 140      AF474744 
 140      738D77F4 
 141 0299 6841AC36 		.ascii	"hA\2546\325\270\016\336Y\215\205\323Q\227\372ZR\330"
 141      D5B80EDE 
 141      598D85D3 
 141      5197FA5A 
 141      52D8
 142 02ab ECD5841F 		.ascii	"\354\325\204\037Y\200\306\201\331\311\006\206\361i<"
 142      5980C681 
 142      D9C90686 
 142      F1693C
 143 02ba 9DF6E8DB 		.ascii	"\235\366\350\333XV\337\306t\210\371g\341\014\3660\245"
 143      5856DFC6 
 143      7488F967 
 143      E10CF630 
 143      A5
 144 02cb A51E63CF 		.ascii	"\245\036c\317\205\364\246\217\203I\270\257o\241\204"
 144      85F4A68F 
 144      8349B8AF 
 144      6FA184
 145 02da 899AFCB3 		.ascii	"\211\232\374\263`>\257\017\364=d1\257\213l\022G\365"
 145      603EAF0F 
 145      F43D6431 
 145      AF8B6C12 
 145      47F5
 146 02ec 3D64416C 		.ascii	"=dAl\264\271\232\306\365=\344\210h\256q\203\233\355"
 146      B4B99AC6 
 146      F53DE488 
 146      68AE7183 
 146      9BED
 147 02fe A1E4E4C4 		.ascii	"\241\344\344\304e65nd\304\001GDs\215\3571\342\240\005"
 147      6536356E 
 147      64C40147 
 147      44738DEF 
 147      31E2A005 
 148 0312 F10D9B1A 		.ascii	"\361\015\233\032?d\304\363\216\210^d\322\214\037\357"
 148      3F64C4F3 
 148      8E885E64 
 148      D28C1FEF 
 149 0322 30FE1E6A 		.ascii	"0\376\036j\214\231a|\030\317\201\203^\352\177\244\276"
 149      8C99617C 
 149      18CF8183 
 149      5EEA7FA4 
 149      BE
 150 0333 8FFA23D4 		.ascii	"\217\372#\324\367S\177\224\372c\324\037\247~\200\372"
 150      F7537F94 
 150      FA63D41F 
 150      A77E80FA 
 151 0343 13D49FA4 		.ascii	"\023\324\237\244\376\027\352\007\251?K\3759\352/P\377"
 151      FE17EA07 
 151      A93F4BFD 
ARM GAS  /tmp/ccnWgNJH.s 			page 11


 151      39EA2F50 
 151      FF
 152 0354 3BF57F50 		.ascii	";\365\177P\177\231\372\253\340\325V\202\266\350\245"
 152      7F99FAAB 
 152      E0D55682 
 152      B6E8A5
 153 0363 BB52A398 		.ascii	"\273R\243\230\357\303\353\270D\213Sw|v\321\3662\265"
 153      EFC3EBB8 
 153      448B5377 
 153      7C76D1F6 
 153      32B5
 154 0375 FABFD823 		.ascii	"\372\277\330#WT\3503Q\314\242I\265l\254Wn\322\031\376"
 154      5754E833 
 154      51CCA249 
 154      B56CAC57 
 154      6ED219FE 
 155 0389 D84DCEE3 		.ascii	"\330M\316\343\011\023E\362\3344\354w\265\317\272\343"
 155      091345F2 
 155      DC34EC77 
 155      B5CFBAE3 
 156 0399 58CF318D 		.ascii	"X\3171\215\345\340\324\310\033\217\361v\0312}\273h\352"
 156      E5E0D4C8 
 156      1B8FF176 
 156      19327DBB 
 156      68EA
 157 03ab B4D7DBF6 		.ascii	"\264\327\333\3662E\204\306z\231\215,RY\267\037#\377"
 157      324584C6 
 157      7A998D2C 
 157      5259B71F 
 157      23FF
 158 03bd 1DD3FC5A 		.ascii	"\035\323\374Z=\373\310C\"\005\2719\356\256\376\220\362"
 158      3DFBC843 
 158      2205B939 
 158      EEAEFE90 
 158      F2
 159 03ce 95957D5C 		.ascii	"\225\225}\\\316\007\305X\240\336\243\005\352'n\255@"
 159      CE07C558 
 159      A0DEA305 
 159      EA276EAD 
 159      40
 160 03df BD74F4D4 		.ascii	"\275t\364\324\265\217\212l\243H\362\341\274\025\352"
 160      B58F8A6C 
 160      A348F2E1 
 160      BC15EA
 161 03ee B0A142BD 		.ascii	"\260\241B\275\262\365ji\236\207>%\317&<A\225\220\340"
 161      B2F56A69 
 161      9E873E25 
 161      CF263C41 
 161      9590E0
 162 0401 91AD5767 		.ascii	"\221\255Wg<\231\022\365\024c\216m-x25\352i\206\354\177"
 162      3C9912F5 
 162      14638E6D 
 162      2D783235 
 162      EA6986EC 
 163 0416 DF0269B7 		.ascii	"\337\002i\267H\375\215!\007\234!\315U^f\310A+\244\335"
 163      48FD8D21 
 163      079C21CD 
ARM GAS  /tmp/ccnWgNJH.s 			page 12


 163      555E66C8 
 163      412BA4DD 
 164 042a 32758821 		.ascii	"2u\210!\317;C\232\253\034f\310+VH\273\205\352(C\016"
 164      CF3B439A 
 164      AB1C66C8 
 164      2B5648BB 
 164      85EA2843 
 165 043f 39439AAB 		.ascii	"9C\232\253\354,`\013\323\012\351\265\251r\023C\2169"
 165      EC2C600B 
 165      D30AE9B5 
 165      A9721343 
 165      8E39
 166 0451 437AF36C 		.ascii	"Cz\363l&\332\214\2331\214G\340\2133%\214\377\242\357"
 166      26DA8C9B 
 166      318C47E0 
 166      8B33258C 
 166      FFA2EF
 167 0464 FFBFA97F 		.ascii	"\377\277\251\177H\375(\365\377R?N\375:\216\370N\352"
 167      48FD28F5 
 167      FF523F4E 
 167      FD3A8EF8 
 167      4EEA
 168 0476 DFA67E23 		.ascii	"\337\246~#g\366\275\2707\351\367b3Wb\022\267\177\322"
 168      67F6BDB8 
 168      37E9F762 
 168      33576212 
 168      B77FD2
 169 0489 57D8163D 		.ascii	"W\330\026=\016\025\257\212%35\376H\246p\361\322\327"
 169      0E15AF8A 
 169      253335FE 
 169      48A670F1 
 169      D2D7
 170 049b BC02CAF0 		.ascii	"\274\002\312\360\251\366\014_+\006\370\025\321hes:Q"
 170      A9F60C5F 
 170      2B06F815 
 170      D1686573 
 170      3A51
 171 04ad 994C25A5 		.ascii	"\231L%\245J\251\271%V9?\262\240\322_\355\253YY\303\267"
 171      4AA9B925 
 171      56393FB2 
 171      A0D25FED 
 171      AB5959C3 
 172 04c2 C4927C55 		.ascii	"\304\222|U\025\037\217\265\220q|\3168~~\325\202\252"
 172      151F8FB5 
 172      90717CCE 
 172      387E7ED5 
 172      82AA
 173 04d4 F9E432FB 		.ascii	"\371\3442\373\345^\217%\243\361U\255\022\337\221i\205"
 173      E55E8F25 
 173      A3F155AD 
 173      12DF9169 
 173      85
 174 04e5 E4556DA8 		.ascii	"\344Um\250\370u)\232I\245\353\252\365\210T\007\337\326"
 174      F875299A 
 174      49A5EBAA 
 174      F5885407 
 174      DFD6
ARM GAS  /tmp/ccnWgNJH.s 			page 13


 175 04f7 1CE7DB53 		.ascii	"\034\347\333S\351L\007\037\014\005j\374\374\222%\365"
 175      E94C071F 
 175      0C056AFC 
 175      FC9225F5 
 176 0507 7CA829B0 		.ascii	"|\250)\260\332\007\201\221x\274\265*\212J\224^$\226"
 176      DA078191 
 176      78BCB52A 
 176      8A4A945E 
 176      2496
 177 0519 8C65CA23 		.ascii	"\214e\312#dp$\226^\031\221\332c\361\324\212U\322\363"
 177      64702496 
 177      5E1991DA 
 177      63F1D48A 
 177      55D2F3
 178 052c 465C3AA3 		.ascii	"F\\:\243\322\340\346\204\300\032>\332\026M\245\245\310"
 178      D2E0E684 
 178      C01A3EDA 
 178      164DA5A5 
 178      C8
 179 053d EA050950 		.ascii	"\352\005\011PP\036m\013\256\355\010\305\022R\272\261"
 179      501E6D0B 
 179      AEED08C5 
 179      1252BAB1 
 180 054d 39D91A97 		.ascii	"9\331\032\227\322M\263\037\011\326TG\333:\326v@\310"
 180      D24DB31F 
 180      09D65447 
 180      DB3AD676 
 180      40C8
 181 055f B4E4EA58 		.ascii	"\264\344\352X\264!\331\334\022\227\024\371/\344\027"
 181      B421D9DC 
 181      129714F9 
 181      2FE417
 182 056e 1F4D2512 		.ascii	"\037M%\022\251\244\226\225\004A0\010O\220Y\217%\"\031"
 182      A9A49695 
 182      04413008 
 182      4F90598F 
 182      252219
 183 0581 BFDD9B56 		.ascii	"\277\335\233V# \334%\210>0\277;\030\020Dw}S\203\310"
 183      2320DC25 
 183      883E30BF 
 183      3B181044 
 183      777D5383 
 184 0596 054557C3 		.ascii	"\005EW\303b\261@\020\002\242\217z\277[\020\032D\227"
 184      62B14010 
 184      02A28F7A 
 184      BF5B101A 
 184      4497
 185 05a8 B034E45A 		.ascii	"\2604\344Z\026\024\\\265\242\350\022\0058\206\200\272"
 185      16145CB5 
 185      A2E81205 
 185      388680BA 
 186 05b8 FA90E8AA 		.ascii	"\372\220\350\252'\221\201Z\221{U\211\252\201\361\342"
 186      2791815A 
 186      917B5589 
 186      AA81F1E2 
 187 05c8 8BC4BDE4 		.ascii	"\213\304\275\344\216\2665\247KDA\210\204\326\266K\365"
 187      8EB635A7 
ARM GAS  /tmp/ccnWgNJH.s 			page 14


 187      4B444188 
 187      84D6B64B 
 187      F5
 188 05d9 D2F2B946 		.ascii	"\322\362\271F\211\322\232\014/\004\202MA\220\250\250"
 188      89D29A0C 
 188      2F04824D 
 188      4190A8A8 
 189 05e9 5AEEAB5E 		.ascii	"Z\356\253^\003\2528 \012\257,\206\034Mbq\355\262:\277"
 189      03AA3820 
 189      0AAF2C86 
 189      1C4D6271 
 189      EDB23ABF 
 190 05fd 180CD18E 		.ascii	"\030\014\321\216\217t\012k\033\353\032\226\212E\344"
 190      8F740A6B 
 190      1BEB1A96 
 190      8A45E4
 191 060c 82FAEF83 		.ascii	"\202\372\357\203\177\020CT\005\305\377\001\372\210\252"
 191      7F104354 
 191      05C5FF01 
 191      FA88AA
 192 061b 8A       		.ascii	"\212"
 193              		.text
 194              		.section	.gnu.lto_.symtab.3fe885a1ca8733ad,"",%progbits
 195 0000 56656374 		.ascii	"VectorB0\000\000\000\000\000\000\000\000\000\000\000"
 195      6F724230 
 195      00000000 
 195      00000000 
 195      000000
 196 0013 00A40000 		.ascii	"\000\244\000\000\000st_lld_init\000\000\000\000\000"
 196      0073745F 
 196      6C6C645F 
 196      696E6974 
 196      00000000 
 197 0028 00000000 		.ascii	"\000\000\000\000\000\000\000\250\000\000\000_port_i"
 197      000000A8 
 197      0000005F 
 197      706F7274 
 197      5F69
 198 003a 72715F65 		.ascii	"rq_epilogue\000\000\002\000\000\000\000\000\000\000"
 198      70696C6F 
 198      67756500 
 198      00020000 
 198      00000000 
 199 004f 0000AB00 		.ascii	"\000\000\253\000\000\000chSysTimerHandlerI\000\000\002"
 199      00006368 
 199      53797354 
 199      696D6572 
 199      48616E64 
 200 006a 00000000 		.ascii	"\000\000\000\000\000\000\000\000\000\255\000\000\000"
 200      00000000 
 200      00AD0000 
 200      00
 201 0077 6E766963 		.ascii	"nvicEnableVector\000\000\002\000\000\000\000\000\000"
 201      456E6162 
 201      6C655665 
 201      63746F72 
 201      00000200 
ARM GAS  /tmp/ccnWgNJH.s 			page 15


 202 0090 000000AF 		.ascii	"\000\000\000\257\000\000\000"
 202      000000
 203              		.text
 204              		.section	.gnu.lto_.opts,"",%progbits
 205 0000 272D6D63 		.ascii	"'-mcpu=cortex-m3''-mno-thumb-interwork''-mthumb''-g"
 205      70753D63 
 205      6F727465 
 205      782D6D33 
 205      27272D6D 
 206 0033 67646227 		.ascii	"gdb''-O2''-fomit-frame-pointer''-falign-functions=1"
 206      272D4F32 
 206      27272D66 
 206      6F6D6974 
 206      2D667261 
 207 0066 3627272D 		.ascii	"6''-ffunction-sections''-fdata-sections''-fno-commo"
 207      6666756E 
 207      6374696F 
 207      6E2D7365 
 207      6374696F 
 208 0099 6E27272D 		.ascii	"n''-flto'\000"
 208      666C746F 
 208      2700
 209              		.text
 210              		.cfi_sections	.debug_frame
 211              		.section	.text.VectorB0,"ax",%progbits
 212              		.align	2
 213              		.p2align 4,,15
 214              		.global	VectorB0
 215              		.thumb
 216              		.thumb_func
 217              		.type	VectorB0, %function
 218              	VectorB0:
 219              	.LFB194:
 220              		.file 1 "../../../os/hal/ports/STM32/LLD/TIMv1/st_lld.c"
 221              		.loc 1 153 0
 222              		.cfi_startproc
 223              		@ args = 0, pretend = 0, frame = 0
 224              		@ frame_needed = 0, uses_anonymous_args = 0
 225 0000 10B5     		push	{r4, lr}
 226              	.LCFI0:
 227              		.cfi_def_cfa_offset 8
 228              		.cfi_offset 4, -8
 229              		.cfi_offset 14, -4
 230              		.loc 1 157 0
 231 0002 4FF08043 		mov	r3, #1073741824
 232 0006 0024     		movs	r4, #0
 233 0008 1C61     		str	r4, [r3, #16]
 234              	.LVL0:
 235              	.LBB52:
 236              	.LBB53:
 237              	.LBB54:
 238              	.LBB55:
 239              	.LBB56:
 240              	.LBB57:
 241              		.file 2 "../../../os/ext/CMSIS/include/core_cmFunc.h"
 242              		.loc 2 546 0
 243 000a 2020     		movs	r0, #32
ARM GAS  /tmp/ccnWgNJH.s 			page 16


 244              	@ 546 "../../../os/ext/CMSIS/include/core_cmFunc.h" 1
 245 000c 80F31188 		MSR basepri, r0
 246              	@ 0 "" 2
 247              		.thumb
 248              	.LBE57:
 249              	.LBE56:
 250              	.LBE55:
 251              	.LBE54:
 252              	.LBE53:
 253              	.LBE52:
 254              	.LBB58:
 255              	.LBB59:
 256              		.file 3 "../../../os/hal/osal/rt/osal.h"
 257              		.loc 3 520 0
 258 0010 FFF7FEFF 		bl	chSysTimerHandlerI
 259              	.LVL1:
 260              	.LBE59:
 261              	.LBE58:
 262              	.LBB60:
 263              	.LBB61:
 264              	.LBB62:
 265              	.LBB63:
 266              	.LBB64:
 267              	.LBB65:
 268              		.loc 2 546 0
 269              	@ 546 "../../../os/ext/CMSIS/include/core_cmFunc.h" 1
 270 0014 84F31188 		MSR basepri, r4
 271              	@ 0 "" 2
 272              		.thumb
 273              	.LBE65:
 274              	.LBE64:
 275              	.LBE63:
 276              	.LBE62:
 277              	.LBE61:
 278              	.LBE60:
 279              		.loc 1 164 0
 280 0018 BDE81040 		pop	{r4, lr}
 281              		.loc 1 163 0
 282 001c FFF7FEBF 		b	_port_irq_epilogue
 283              	.LVL2:
 284              		.cfi_endproc
 285              	.LFE194:
 286              		.size	VectorB0, .-VectorB0
 287              		.section	.text.st_lld_init,"ax",%progbits
 288              		.align	2
 289              		.p2align 4,,15
 290              		.global	st_lld_init
 291              		.thumb
 292              		.thumb_func
 293              		.type	st_lld_init, %function
 294              	st_lld_init:
 295              	.LFB195:
 296              		.loc 1 176 0
 297              		.cfi_startproc
 298              		@ args = 0, pretend = 0, frame = 0
 299              		@ frame_needed = 0, uses_anonymous_args = 0
 300              		@ link register save eliminated.
ARM GAS  /tmp/ccnWgNJH.s 			page 17


 301              		.loc 1 182 0
 302 0000 4FF48052 		mov	r2, #4096
 303              		.loc 1 176 0
 304 0004 30B4     		push	{r4, r5}
 305              	.LCFI1:
 306              		.cfi_def_cfa_offset 8
 307              		.cfi_offset 4, -8
 308              		.cfi_offset 5, -4
 309              		.loc 1 182 0
 310 0006 C4F20202 		movt	r2, 16386
 311 000a D169     		ldr	r1, [r2, #28]
 312              		.loc 1 185 0
 313 000c 4FF08043 		mov	r3, #1073741824
 314              		.loc 1 182 0
 315 0010 41F00100 		orr	r0, r1, #1
 316              		.loc 1 185 0
 317 0014 41F61F45 		movw	r5, #7199
 318              		.loc 1 182 0
 319 0018 D061     		str	r0, [r2, #28]
 320              		.loc 1 191 0
 321 001a 0124     		movs	r4, #1
 322              		.loc 1 185 0
 323 001c 9D62     		str	r5, [r3, #40]
 324              		.loc 1 187 0
 325 001e 0022     		movs	r2, #0
 326              		.loc 1 186 0
 327 0020 4FF6FF75 		movw	r5, #65535
 328              		.loc 1 195 0
 329 0024 1C20     		movs	r0, #28
 330 0026 0821     		movs	r1, #8
 331              		.loc 1 186 0
 332 0028 DD62     		str	r5, [r3, #44]
 333              		.loc 1 187 0
 334 002a 9A61     		str	r2, [r3, #24]
 335              		.loc 1 188 0
 336 002c 5A63     		str	r2, [r3, #52]
 337              		.loc 1 189 0
 338 002e DA60     		str	r2, [r3, #12]
 339              		.loc 1 190 0
 340 0030 5A60     		str	r2, [r3, #4]
 341              		.loc 1 191 0
 342 0032 5C61     		str	r4, [r3, #20]
 343              		.loc 1 192 0
 344 0034 1C60     		str	r4, [r3, #0]
 345              		.loc 1 210 0
 346 0036 30BC     		pop	{r4, r5}
 347              		.loc 1 195 0
 348 0038 FFF7FEBF 		b	nvicEnableVector
 349              	.LVL3:
 350              		.cfi_endproc
 351              	.LFE195:
 352              		.size	st_lld_init, .-st_lld_init
 353 003c AFF30080 		.text
 354              	.Letext0:
 355              		.file 4 "/opt/ARM/gcc-arm-none-eabi-4_7-2013q3/bin/../lib/gcc/arm-none-eabi/4.7.4/../../../../arm-
 356              		.file 5 "../../../os/rt/include/chschd.h"
 357              		.file 6 "../../../os/rt/ports/ARMCMx/compilers/GCC/chtypes.h"
ARM GAS  /tmp/ccnWgNJH.s 			page 18


 358              		.file 7 "../../../os/ext/CMSIS/ST/stm32f10x.h"
 359              		.file 8 "../../../os/rt/ports/ARMCMx/chcore.h"
 360              		.file 9 "../../../os/rt/ports/ARMCMx/chcore_v7m.h"
 361              		.file 10 "../../../os/hal/ports/STM32/LLD/TIMv1/stm32_tim.h"
 362              		.file 11 "../../../os/rt/include/chmtx.h"
 363              		.file 12 "../../../os/rt/include/chsys.h"
 364              		.file 13 "../../../os/ext/CMSIS/include/core_cm3.h"
 365              		.file 14 "../../../os/hal/ports/common/ARMCMx/nvic.h"