ARM GAS  /tmp/ccnWgNJH.s 			page 1


   1              		.syntax unified
   2              		.cpu cortex-m3
   3              		.fpu softvfp
   4              		.eabi_attribute 20, 1
   5              		.eabi_attribute 21, 1
   6              		.eabi_attribute 23, 3
   7              		.eabi_attribute 24, 1
   8              		.eabi_attribute 25, 1
   9              		.eabi_attribute 26, 1
  10              		.eabi_attribute 30, 2
  11              		.eabi_attribute 34, 1
  12              		.eabi_attribute 18, 4
  13              		.thumb
  14              		.file	"st_lld.c"
  15              		.text
  16              	.Ltext0:
  17              		.section	.gnu.lto_.jmpfuncs.3fe885a1ca8733ad,"",%progbits
  18 0000 789C6362 		.ascii	"x\234cb`d`g\300\016\244\2414\023\210`d`b\222dHed`\220"
  18      60646067 
  18      C00EA4A1 
  18      34138860 
  18      64606292 
  19 001a 61803238 		.ascii	"a\20028\030\030\000\024)\001Q"
  19      18180014 
  19      290151
  20              		.text
  21              		.section	.gnu.lto_.inline.3fe885a1ca8733ad,"",%progbits
  22 0000 789C6362 		.ascii	"x\234cb`d\340e\300\016L\2404\023\003\003\207$#\003\023"
  22      6064E065 
  22      C00E4CA0 
  22      34130303 
  22      87242303 
  23 0015 DB073D06 		.ascii	"\333\007=\006\266\005\362L\014\214\\@Q\010\301 \010"
  23      B605F24C 
  23      0C8C5C40 
  23      5108C120 
  23      08
  24 0026 9211FBB0 		.ascii	"\222\021\373\260\232\021\"\305\314\003V\317\000\000"
  24      9A1122C5 
  24      CC0356CF 
  24      0000
  25 0034 94B10524 		.ascii	"\224\261\005$"
  26              		.text
  27              		.section	.gnu.lto_.pureconst.3fe885a1ca8733ad,"",%progbits
  28 0000 789C6362 		.ascii	"x\234cb`d`f```e\200\000&\006+F)\000\001\232\000c"
  28      60646066 
  28      60606065 
  28      80002606 
  28      2B462900 
  29              		.text
  30              		.section	.gnu.lto_VectorB0.3fe885a1ca8733ad,"",%progbits
  31 0000 789CAD52 		.ascii	"x\234\255R1L\024A\024}\177\366\02606\2644\334\205\304"
  31      314C1441 
  31      147D7FF6 
  31      163036B4 
  31      34DC85C4 
  32 0014 C2486E14 		.ascii	"\302Hn\024\013)1\030#\011[p\207\345y9\227I\216d\217"
ARM GAS  /tmp/ccnWgNJH.s 			page 2


  32      0B293118 
  32      23095B70 
  32      87E57939 
  32      97498E64 
  33 0029 25BB7717 		.ascii	"%\273w\027\264\271\001\251\225\230H\320\304\004C\214"
  33      B4B901A9 
  33      959848D0 
  33      C404438C 
  34 0039 06488C5A 		.ascii	"\006H\214Z\030+\215\205\305\235\241\261\261\223\240"
  34      182B8D85 
  34      C59DA1B1 
  34      B193A0
  35 0048 76C6C646 		.ascii	"v\306\306F\253\343\317\336\202w\210J\341\354\356\374"
  35      ABE3CFDE 
  35      8277884A 
  35      E1ECEEFC 
  36 0058 9FFDFFFD 		.ascii	"\237\375\377\375\367\377\233\021 ~~_}\374\275\027@\235"
  36      F7FF9B11 
  36      207E7E5F 
  36      7DFCBD17 
  36      409D
  37 006a 2D5920B1 		.ascii	"-Y \261\264\005\314\247\004\221q\030R\023T\273\334B"
  37      B405CCA7 
  37      04917118 
  37      521354BB 
  37      DC42
  38 007c D65F3E4C 		.ascii	"\326_>L~\336\354z%^o7k\300q\376ecQ\353^\344\343\322"
  38      7EDEEC7A 
  38      255E6F37 
  38      6BC071FE 
  38      656351EB 
  39 0094 13C61A60 		.ascii	"\023\306\032`\206D\344Xu\274\031\376\272\361\214r\264"
  39      8644E458 
  39      75BC19FE 
  39      BAF18C72 
  39      B4
  40 00a5 4A364E61 		.ascii	"J6Na]/\222\"X\367p\227-\211>(N\325\274\022h\371\300"
  40      5D2F9222 
  40      58F77097 
  40      2D893E28 
  40      4ED5BC12 
  41 00bc 0F8BB72B 		.ascii	"\017\213\267+\264\337\241\212\335\267\020\024\023\036"
  41      B4DFA18A 
  41      DDB71014 
  41      131E
  42 00ca 6A5A1C87 		.ascii	"jZ\034\207\255\001<\320\372\366\322\015}ia\273\331L"
  42      AD013CD0 
  42      FAF6D20D 
  42      7D6961BB 
  42      D94C
  43 00dc 2AB20486 		.ascii	"*\262\004\206\310\264\275\323\370\370%j\"\201TDe#qP"
  43      C8B4BDD3 
  43      F8F8256A 
  43      22815444 
  43      65237150 
  44 00f0 214EE720 		.ascii	"!N\347 \320\300\002\255\337\274\363i\270\203\226G{D"
  44      D0C002AD 
ARM GAS  /tmp/ccnWgNJH.s 			page 3


  44      DFBCF369 
  44      B8839647 
  44      7B44
  45 0102 034CBED6 		.ascii	"\003L\276\326An\344\276\305@\036(\332\200~\254\322}"
  45      416EE4BE 
  45      C5401E28 
  45      DA807EAC 
  45      D27D
  46 0114 BD32A2A8 		.ascii	"\2752\242\250\253\243\354~x-\016wG\005\336\301\372\266"
  46      ABA3EC7E 
  46      782D0E77 
  46      4705DEC1 
  46      FAB6
  47 0126 FC74E783 		.ascii	"\374t\347\203\375\257!\257\343\247\356Q\324Cy\242\226"
  47      FDAF21AF 
  47      E3A7EE51 
  47      D44379A2 
  47      96
  48 0137 528A8EFD 		.ascii	"R\212\216\375_\265r\364\230O\306\310\265\361\375Hr\341"
  48      5FB572F4 
  48      984FC6C8 
  48      B5F1FD48 
  48      72E1
  49 0149 6F72BD88 		.ascii	"or\275\210\344z\376'\271r\264\311\316\257:\261>9zB\375"
  49      E47AFE27 
  49      B972B4C9 
  49      CEAF3AB1 
  49      3E397A42 
  50 015e 7BCAD41B 		.ascii	"{\312\324\033\366^\377m\343\213\266\361\267@|W;\207"
  50      F65EFF6D 
  50      E38BB6F1 
  50      B7407C57 
  50      3B87
  51 0170 9C30FAF0 		.ascii	"\2340\372\360\2554\365d:\035\277~(\213\005O\316\372"
  51      AD34F564 
  51      3A1DBF7E 
  51      288B054F 
  51      CEFA
  52 0182 413994D9 		.ascii	"A9\224\331I\347\354\220\034\037\277 '\307\234\352\031"
  52      49E7EC90 
  52      1C1FBF20 
  52      27C79CEA 
  52      19
  53 0193 1996F39E 		.ascii	"\031\226\363\2367\225vaW\013^E\235lG\005\345\030t>\343"
  53      37957661 
  53      570B5E45 
  53      9D6C4705 
  53      E518743E 
  54 01a8 8C3A73D2 		.ascii	"\214:s\322-\272~\240\362\325s\245t\021\203\355\231j"
  54      2DBA7EA0 
  54      F2D573A5 
  54      741183ED 
  54      996A
  55 01ba AE2C479D 		.ascii	"\256,G\235\354XVN\317\270^eJ\311(\323-]\254\314\270"
  55      EC58564E 
  55      CFB85E65 
  55      4AC928D3 
ARM GAS  /tmp/ccnWgNJH.s 			page 4


  55      2D5DACCC 
  56 01cf 9CDCEB64 		.ascii	"\234\334\353d3\251\253\205P\315\006\323\203\251\023"
  56      33A9AB85 
  56      50CD06D3 
  56      83A913
  57 01de A7210274 		.ascii	"\247!\002t\227T\311\017\256!y\260Q?\344\215\271\215"
  57      9754C90F 
  57      AE2179B0 
  57      513FE48D 
  57      B98D
  58 01f0 65EC2E31 		.ascii	"e\354.1\233\300\350"
  58      9BC0E8
  59              		.text
  60              		.section	.gnu.lto_st_lld_init.3fe885a1ca8733ad,"",%progbits
  61 0000 789C9DD3 		.ascii	"x\234\235\323\277K\202A\030\007\360\357s\367\276j?\210"
  61      BF4B8241 
  61      1807F0EF 
  61      73F7BE6A 
  61      3F88
  62 0012 C6822071 		.ascii	"\306\202 q\015<\252\305?\240!\241\206\312\226\300$L"
  62      0D3CAAC5 
  62      3FA021A1 
  62      86CA96C0 
  62      244C
  63 0024 68108A8C 		.ascii	"h\020\212\214\206\026\257rh\214\266Z\37216\330*-E5\204"
  63      8616AF72 
  63      688CB65A 
  63      FA3136D8 
  63      2A2D4535 
  64 0039 4493A383 		.ascii	"D\223\243\203Hm\321\344P\020\274\335\275\357YV\026\361"
  64      486DD1E4 
  64      5010BCDD 
  64      BDEF5956 
  64      16F1
  65 004b 3EAFBECF 		.ascii	">\257\276\317\341{\317\3479\365\216\201\324\3653\372"
  65      E17BCFE7 
  65      39F58E81 
  65      D4F533FA 
  66 005b D55B58C0 		.ascii	"\325[X\300\260\312\304Al\367\036\330\0143\"=P%yF\371"
  66      B0CAC441 
  66      6CF71ED8 
  66      0C33223D 
  66      50257946 
  67 0070 59B79245 		.ascii	"Y\267\222Ep,\345\336\356\365\326\370V\315q\0063\372"
  67      702CE5DE 
  67      EEF5D6F8 
  67      56CD7106 
  67      33FA
  68 0082 D314A1FC 		.ascii	"\323\024\241\374\374H\375\310\020!\014\235\031\254\257"
  68      FC48FDC8 
  68      10210C9D 
  68      19ACAF
  69 0091 3D7EA9C3 		.ascii	"=~\251\303\237E7\305:U\316\003\027\354\262\346\344\201"
  69      9F4537C5 
  69      3A55CE03 
  69      17ECB2E6 
  69      E481
ARM GAS  /tmp/ccnWgNJH.s 			page 5


  70 00a3 3E8E241D 		.ascii	">\216$\035QDMK\322\261\312*l\024\244\354u)\035S:\353"
  70      51444D4B 
  70      D2B1CA2A 
  70      6C14A4EC 
  70      75291D53 
  71 00b9 554F2B4D 		.ascii	"UO+M\017x\031Ws\215bO\222N\310F\232\370\020Ne\2012\304"
  71      0F781957 
  71      738D624F 
  71      924EC846 
  71      9AF8104E 
  72 00d1 F901F655 		.ascii	"\371\001\366U\266\230nmC\036\355H\013\336\330\213yr"
  72      B6986E6D 
  72      431EED48 
  72      0BDED88B 
  72      7972
  73 00e3 BFBC8E32 		.ascii	"\277\274\2162\266\317ts\317\260\024\243'zOU\203\270"
  73      B6CF7473 
  73      CFB014A3 
  73      277A4F55 
  73      83B8
  74 00f5 79E4C356 		.ascii	"y\344\303V\232K\304\356\316\352\324^\011\270J\020R\205"
  74      9A4BC4EE 
  74      CEEAD45E 
  74      09B84A10 
  74      5285
  75 0107 A70455E1 		.ascii	"\247\004U\341\013w\031j\376\205j>\016c\336zb\025\177"
  75      0B77196A 
  75      FE856A3E 
  75      0E63DE7A 
  75      62157F
  76 011a 186BC51C 		.ascii	"\030k\305\034\207\033\255\352O\343\255\032\214\365\360"
  76      871BADEA 
  76      4FE3AD1A 
  76      8CF5F0
  77 0129 6109143D 		.ascii	"a\011\024=\313j\252\241\377\250\326\247\332a~\314[\373"
  77      CB6AAAA1 
  77      FFA8D6A7 
  77      DA617ECC 
  77      5BFB
  78 013b 479B277F 		.ascii	"G\233'\177K\266\333-\271\341\317\012\264\263\336\374"
  78      4BB6DB2D 
  78      B9E1CF0A 
  78      B4B3DEFC 
  79 014b 59C156CB 		.ascii	"Y\301V\313l\272\330M\311\227\025\372n\335\301\256\226"
  79      6CBAD84D 
  79      C99715FA 
  79      6EDDC1AE 
  79      96
  80 015c 8A860236 		.ascii	"\212\206\0026\360*C\031\352\244\024\231\335\245\247"
  80      F02A4319 
  80      EAA41499 
  80      DDA5A7
  81 016b 7661C0E4 		.ascii	"va\300\344\220\272w\003\367\320G\263Y\324<}\344\036"
  81      90BA7703 
  81      F7D047B3 
  81      59D43C7D 
  81      E41E
ARM GAS  /tmp/ccnWgNJH.s 			page 6


  82 017d 3ABD8F44 		.ascii	":\275\217D4j^\3139\261\264\220\025+\313\253k91\223\230"
  82      346A5ECB 
  82      39B1B490 
  82      152BCBAB 
  82      6B393193 
  83 0192 1C1D1113 		.ascii	"\034\035\021\023\023c\"\021\237\\\037\026\271\265T6"
  83      13632211 
  83      9F5C1F16 
  83      B9B55436 
  84 01a2 BB184DE3 		.ascii	"\273\030M\343\035\255\240\331\241"
  84      1DADA0D9 
  84      A1
  85              		.text
  86              		.section	.gnu.lto_.cgraph.3fe885a1ca8733ad,"",%progbits
  87 0000 789C3DCC 		.ascii	"x\234=\314\261\015\2000\020CQ\373.{0\031\2638\025\242"
  87      B10D8030 
  87      104351FB 
  87      2E7B3019 
  87      B33815A2 
  88 0014 64028621 		.ascii	"d\002\206!\201\222\031@i\231\001\021!\210\233\257\327"
  88      81921940 
  88      69990111 
  88      21889BAF 
  88      D7
  89 0025 D8403880 		.ascii	"\330@8\200\036\337l\241\200i\2074\217\264D\261\211+"
  89      1EDF6CA1 
  89      80698734 
  89      8FB444B1 
  89      892B
  90 0037 65AF6224 		.ascii	"e\257b$7\312\0332\025~x},\307]kHg-\003\312pux\000\236"
  90      37CA1B32 
  90      157E787D 
  90      2CC75D6B 
  90      48672D03 
  91 0051 361E55   		.ascii	"6\036U"
  92              		.text
  93              		.section	.gnu.lto_.vars.3fe885a1ca8733ad,"",%progbits
  94 0000 789C6362 		.ascii	"x\234cb`d`f`\000\222P\000\000\000r\000\010"
  94      60646066 
  94      60009250 
  94      00000072 
  94      0008
  95              		.text
  96              		.section	.gnu.lto_.refs.3fe885a1ca8733ad,"",%progbits
  97 0000 789C6362 		.ascii	"x\234cb`d`f```b\200\001\000\000\204\000\011"
  97      60646066 
  97      60606062 
  97      80010000 
  97      840009
  98              		.text
  99              		.section	.gnu.lto_.statics.3fe885a1ca8733ad,"",%progbits
 100 0000 789C6362 		.ascii	"x\234cb`d`b\300\016@\342\214\020&\000\000\375\000\011"
 100      60646062 
 100      C00E40E2 
 100      8C102600 
 100      00FD0009 
 101              		.text
ARM GAS  /tmp/ccnWgNJH.s 			page 7


 102              		.section	.gnu.lto_.decls.3fe885a1ca8733ad,"",%progbits
 103 0000 789CAD96 		.ascii	"x\234\255\226kl\024U\024\307\357\235\335>\226\326\002"
 103      6B6C1455 
 103      14C7EF9D 
 103      DD3E96D6 
 103      02
 104 0011 0D90EA17 		.ascii	"\015\220\352\027\226\017\030\305\264\323\335\242\370"
 104      960F18C5 
 104      B4D3DDA2 
 104      F8
 105 001e 8584765A 		.ascii	"\205\204vZi\023\026\311\354jL\314fm\267\003\335d\037"
 105      691316C9 
 105      EC6A4CCC 
 105      666DB703 
 105      DD641F
 106 0031 65BB10F8 		.ascii	"e\273\020\3706P\224\207\021\253\221\310\0071\253\266"
 106      36509487 
 106      11AB91C8 
 106      0731ABB6 
 107 0041 86978811 		.ascii	"\206\227\210\021\014\222j\032R\011!\225\200\251\020"
 107      0C926A1A 
 107      52092195 
 107      80A910
 108 0050 0422F246 		.ascii	"\004\"\362F\312#\264\242\244\325z\356\235\231;\263t"
 108      CA23B4A2 
 108      A4D57AEE 
 108      9D993BB3 
 108      74
 109 0061 A73343B8 		.ascii	"\2473C\270\331s\366\316\314=\277\363\237;\367\316\034"
 109      D973F6CE 
 109      CC3DBFF3 
 109      9F3BF7CE 
 109      1C
 110 0072 0E6144DA 		.ascii	"\016aD\332\014\370\033\207\366f9B\357r\010\271\340\334"
 110      0CF81B87 
 110      F6663942 
 110      EF7208B9 
 110      E0DC
 111 0084 42307235 		.ascii	"B0r5\213\224V\000\326\015\266\023l\017\330W`_\243\211"
 111      8B945600 
 111      D60DB613 
 111      6C0FD857 
 111      605FA389 
 112 0098 8D8C9902 		.ascii	"\215\214\231\002v\000\354 \330u\225Q\006V\012v\003\354"
 112      7600EC20 
 112      D8759551 
 112      06560A76 
 112      03EC
 113 00aa 36D85DB0 		.ascii	"6\330]\260\0365\307\021\244\344\354V\271{\362pI\336"
 113      1E35C711 
 113      A4E4EC56 
 113      B97BF270 
 113      49DE
 114 00bc A7C08A0C 		.ascii	"\247\300\212\014,\222\343\036\230\007\353\271~\005s"
 114      2C92E31E 
 114      9807EBB9 
 114      7E0573
ARM GAS  /tmp/ccnWgNJH.s 			page 8


 115 00cb 130D58C9 		.ascii	"\023\015X\311\273\237\\'|8>\001\377'\301\216\202\015"
 115      BB9F5C27 
 115      7C383E01 
 115      FF27C18E 
 115      820D
 116 00dd 82F581F5 		.ascii	"\202\365\201\365\202\365\203\035\006\343\324<\371\356"
 116      82F5831D 
 116      06E3D43C 
 116      F9EE
 117 00eb CB8336C9 		.ascii	"\313\2036\311\362z9\373\216\334x\014\362?\215\302\270"
 117      F27A39FB 
 117      8EDC780C 
 117      F23F8DC2 
 117      B8
 118 00fc 0CB85EDA 		.ascii	"\014\270^\332+\365(I\347\242nY\356\222e\031\207q\026"
 118      2BF52849 
 118      E7A26E59 
 118      EE926519 
 118      877116
 119 010f 7B00C861 		.ascii	"{\000\310a4\017\355\222iS&[\235sT\202vo>8\306)\007a"
 119      340FED92 
 119      6953265B 
 119      9D735482 
 119      766F3E38 
 120 0127 5CE43166 		.ascii	"\\\3441f\243\307a\374\005\236\207\224\\\312e\255G\036"
 120      A3C761FC 
 120      059E8794 
 120      5CCA65AD 
 120      471E
 121 0139 D6548466 		.ascii	"\326T\204f\243O\345\354\305\256N\271\361\237\361\361"
 121      A34FE5EC 
 121      C5AE4EB9 
 121      F19FF1F1 
 122 0149 A259681B 		.ascii	"\242Yh\033\311\002\012e\234\011\343\2053MD\022z\017"
 122      C9020A65 
 122      9C09E385 
 122      334D4412 
 122      7A0F
 123 015b 9EA5F642 		.ascii	"\236\245\366B.%#\2076b\254\246\374|\333\360q\254Iy\026"
 123      2E252387 
 123      3662ACA6 
 123      FC7CDBF0 
 123      71AC4979 
 124 0170 F5106CDF 		.ascii	"\365\020l\337\372\012\312$1\335x6\312U\373%\346\214"
 124      FA0ACA24 
 124      31DD7836 
 124      CA55FB25 
 124      E68C
 125 0182 27728529 		.ascii	"'r\205)\3518\324\307\022\364\357{f\022\374\316\011\370"
 125      E938D4C7 
 125      12F4EF7B 
 125      6612FCCE 
 125      09F8
 126 0194 5D13F117 		.ascii	"]\023\361\027\273\272:\2639\370\001\206\377o\307\216"
 126      BBBA3AB3 
 126      39F80186 
 126      FF6FC78E 
ARM GAS  /tmp/ccnWgNJH.s 			page 9


 127 01a4 3315B984 		.ascii	"3\025\271\204\275v\010\2339\215p\277\347\233\251\271"
 127      BD76089B 
 127      398D70BF 
 127      E79BA9B9 
 128 01b4 807D9301 		.ascii	"\200}\223\001\234L\375~u\352]t\271!u\241\344\034\031"
 128      9C4CFD7E 
 128      75EA5D74 
 128      B92175A1 
 128      E41C19
 129 01c7 9F0B9CEF 		.ascii	"\237\013\234\357e\262\036\354\375\2410W\326\267\271"
 129      65B21EEC 
 129      FDA13057 
 129      D6B7B9
 130 01d6 B2E82AED 		.ascii	"\262\350*\355\264X\245a\374\031\236ks\211\225\243\017"
 130      B458A561 
 130      FC199E6B 
 130      738995A3 
 130      0F
 131 01e7 C89D798D 		.ascii	"\310\235y\2154\271\220\341\336B\271\213\376 .\007\301"
 131      34B990E1 
 131      DE42B98B 
 131      FE202E07 
 131      C1
 132 01f8 0F99E0EF 		.ascii	"\017\231\340\357\016\234=\247\336\210\015\022\221v\010"
 132      0E9C3DA7 
 132      DE880D12 
 132      917608
 133 0207 084A2CE5 		.ascii	"\010J,\345\312\012\227\234E\352\371\221[\313\321\304"
 133      CA0A979C 
 133      45EAF991 
 133      5BCBD1C4 
 134 0217 36730ECA 		.ascii	"6s\016\312\312\033:\311\232+\014\343\003t\363\035ra"
 134      CA1B3AC9 
 134      9A2B0CE3 
 134      0374F31D 
 134      7261
 135 0229 953876EB 		.ascii	"\2258v\353\032\316?\031Z_i\332\030\265\345a\3662f\177"
 135      1ACE3F19 
 135      5A5F69DA 
 135      18B5E561 
 135      F632667F 
 136 023d DC09D16B 		.ascii	"\334\011\321kJ\354c\304\001\013b\261M\215?1\342\240"
 136      4AEC63C4 
 136      010B62B1 
 136      4D8D3F31 
 136      E2A0
 137 024f 23A2B9C6 		.ascii	"#\242\271\306\343\214x\336\2028\315\246\306\237\031"
 137      E38C78DE 
 137      8238CDA6 
 137      C69F19
 138 025e F18A23A2 		.ascii	"\361\212#\242\271\306S\2148dA\254\260\251\361\014#\216"
 138      B9C6538C 
 138      386441AC 
 138      B0A9F10C 
 138      238E
 139 0270 38229A6B 		.ascii	"8\"\232k\274\240\257H\013\242\327\246\306K\372zL8!\232"
 139      BCA0AF48 
ARM GAS  /tmp/ccnWgNJH.s 			page 10


 139      0BA2D7A6 
 139      C64BFA7A 
 139      4C38219A 
 140 0284 6BBCA6AF 		.ascii	"k\274\246\257G\013\342s65\376\251\257GGDs\215w\364\365"
 140      470BE273 
 140      3635FEA9 
 140      AF474744 
 140      738D77F4 
 141 0299 6841AC36 		.ascii	"hA\2546\325\270\016\336Y\215\205\323Q\227\372ZR\330"
 141      D5B80EDE 
 141      598D85D3 
 141      5197FA5A 
 141      52D8
 142 02ab ECD5841F 		.ascii	"\354\325\204\037Y\200\306\201\331\311\006\206\361i<"
 142      5980C681 
 142      D9C90686 
 142      F1693C
 143 02ba 9DF6E8DB 		.ascii	"\235\366\350\333XV\337\306t\210\371g\341\014\3660\245"
 143      5856DFC6 
 143      7488F967 
 143      E10CF630 
 143      A5
 144 02cb A51E63CF 		.ascii	"\245\036c\317\205\364\246\217\203I\270\257o\241\204"
 144      85F4A68F 
 144      8349B8AF 
 144      6FA184
 145 02da 899AFCB3 		.ascii	"\211\232\374\263`>\257\017\364=d1\257\213l\022G\365"
 145      603EAF0F 
 145      F43D6431 
 145      AF8B6C12 
 145      47F5
 146 02ec 3D64416C 		.ascii	"=dAl\264\271\232\306\365=\344\210h\256q\203\233\355"
 146      B4B99AC6 
 146      F53DE488 
 146      68AE7183 
 146      9BED
 147 02fe A1E4E4C4 		.ascii	"\241\344\344\304e65nd\304\001GDs\215\3571\342\240\005"
 147      6536356E 
 147      64C40147 
 147      44738DEF 
 147      31E2A005 
 148 0312 F10D9B1A 		.ascii	"\361\015\233\032?d\304\363\216\210^d\322\214\037\357"
 148      3F64C4F3 
 148      8E885E64 
 148      D28C1FEF 
 149 0322 30FE1E6A 		.ascii	"0\376\036j\214\231a|\030\317\201\203^\352\177\244\276"
 149      8C99617C 
 149      18CF8183 
 149      5EEA7FA4 
 149      BE
 150 0333 8FFA23D4 		.ascii	"\217\372#\324\367S\177\224\372c\324\037\247~\200\372"
 150      F7537F94 
 150      FA63D41F 
 150      A77E80FA 
 151 0343 13D49FA4 		.ascii	"\023\324\237\244\376\027\352\007\251?K\3759\352/P\377"
 151      FE17EA07 
 151      A93F4BFD 
ARM GAS  /tmp/ccnWgNJH.s 			page 11


 151      39EA2F50 
 151      FF
 152 0354 3BF57F50 		.ascii	";\365\177P\177\231\372\253\340\325V\202\266\350\245"
 152      7F99FAAB 
 152      E0D55682 
 152      B6E8A5
 153 0363 BB52A398 		.ascii	"\273R\243\230\357\303\353\270D\213Sw|v\321\3662\265"
 153      EFC3EBB8 
 153      448B5377 
 153      7C76D1F6 
 153      32B5
 154 0375 FABFD823 		.ascii	"\372\277\330#WT\3503Q\314\242I\265l\254Wn\322\031\376"
 154      5754E833 
 154      51CCA249 
 154      B56CAC57 
 154      6ED219FE 
 155 0389 D84DCEE3 		.ascii	"\330M\316\343\011\023E\362\3344\354w\265\317\272\343"
 155      091345F2 
 155      DC34EC77 
 155      B5CFBAE3 
 156 0399 58CF318D 		.ascii	"X\3171\215\345\340\324\310\033\217\361v\0312}\273h\352"
 156      E5E0D4C8 
 156      1B8FF176 
 156      19327DBB 
 156      68EA
 157 03ab B4D7DBF6 		.ascii	"\264\327\333\3662E\204\306z\231\215,RY\267\037#\377"
 157      324584C6 
 157      7A998D2C 
 157      5259B71F 
 157      23FF
 158 03bd 1DD3FC5A 		.ascii	"\035\323\374Z=\373\310C\"\005\2719\356\256\376\220\362"
 158      3DFBC843 
 158      2205B939 
 158      EEAEFE90 
 158      F2
 159 03ce 95957D5C 		.ascii	"\225\225}\\\316\007\305X\240\336\243\005\352'n\255@"
 159      CE07C558 
 159      A0DEA305 
 159      EA276EAD 
 159      40
 160 03df BD74F4D4 		.ascii	"\275t\364\324\265\217\212l\243H\362\341\274\025\352"
 160      B58F8A6C 
 160      A348F2E1 
 160      BC15EA
 161 03ee B0A142BD 		.ascii	"\260\241B\275\262\365ji\236\207>%\317&<A\225\220\340"
 161      B2F56A69 
 161      9E873E25 
 161      CF263C41 
 161      9590E0
 162 0401 91AD5767 		.ascii	"\221\255Wg<\231\022\365\024c\216m-x25\352i\206\354\177"
 162      3C9912F5 
 162      14638E6D 
 162      2D783235 
 162      EA6986EC 
 163 0416 DF0269B7 		.ascii	"\337\002i\267H\375\215!\007\234!\315U^f\310A+\244\335"
 163      48FD8D21 
 163      079C21CD 
ARM GAS  /tmp/ccnWgNJH.s 			page 12


 163      555E66C8 
 163      412BA4DD 
 164 042a 32758821 		.ascii	"2u\210!\317;C\232\253\034f\310+VH\273\205\352(C\016"
 164      CF3B439A 
 164      AB1C66C8 
 164      2B5648BB 
 164      85EA2843 
 165 043f 39439AAB 		.ascii	"9C\232\253\354,`\013\323\012\351\265\251r\023C\2169"
 165      EC2C600B 
 165      D30AE9B5 
 165      A9721343 
 165      8E39
 166 0451 437AF36C 		.ascii	"Cz\363l&\332\214\2331\214G\340\2133%\214\377\242\357"
 166      26DA8C9B 
 166      318C47E0 
 166      8B33258C 
 166      FFA2EF
 167 0464 FFBFA97F 		.ascii	"\377\277\251\177H\375(\365\377R?N\375:\216\370N\352"
 167      48FD28F5 
 167      FF523F4E 
 167      FD3A8EF8 
 167      4EEA
 168 0476 DFA67E23 		.ascii	"\337\246~#g\366\275\2707\351\367b3Wb\022\267\177\322"
 168      67F6BDB8 
 168      37E9F762 
 168      33576212 
 168      B77FD2
 169 0489 57D8163D 		.ascii	"W\330\026=\016\025\257\212%35\376H\246p\361\322\327"
 169      0E15AF8A 
 169      253335FE 
 169      48A670F1 
 169      D2D7
 170 049b BC02CAF0 		.ascii	"\274\002\312\360\251\366\014_+\006\370\025\321hes:Q"
 170      A9F60C5F 
 170      2B06F815 
 170      D1686573 
 170      3A51
 171 04ad 994C25A5 		.ascii	"\231L%\245J\251\271%V9?\262\240\322_\355\253YY\303\267"
 171      4AA9B925 
 171      56393FB2 
 171      A0D25FED 
 171      AB5959C3 
 172 04c2 C4927C55 		.ascii	"\304\222|U\025\037\217\265\220q|\3168~~\325\202\252"
 172      151F8FB5 
 172      90717CCE 
 172      387E7ED5 
 172      82AA
 173 04d4 F9E432FB 		.ascii	"\371\3442\373\345^\217%\243\361U\255\022\337\221i\205"
 173      E55E8F25 
 173      A3F155AD 
 173      12DF9169 
 173      85
 174 04e5 E4556DA8 		.ascii	"\344Um\250\370u)\232I\245\353\252\365\210T\007\337\326"
 174      F875299A 
 174      49A5EBAA 
 174      F5885407 
 174      DFD6
ARM GAS  /tmp/ccnWgNJH.s 			page 13


 175 04f7 1CE7DB53 		.ascii	"\034\347\333S\351L\007\037\014\005j\374\374\222%\365"
 175      E94C071F 
 175      0C056AFC 
 175      FC9225F5 
 176 0507 7CA829B0 		.ascii	"|\250)\260\332\007\201\221x\274\265*\212J\224^$\226"
 176      DA078191 
 176      78BCB52A 
 176      8A4A945E 
 176      2496
 177 0519 8C65CA23 		.ascii	"\214e\312#dp$\226^\031\221\332c\361\324\212U\322\363"
 177      64702496 
 177      5E1991DA 
 177      63F1D48A 
 177      55D2F3
 178 052c 465C3AA3 		.ascii	"F\\:\243\322\340\346\204\300\032>\332\026M\245\245\310"
 178      D2E0E684 
 178      C01A3EDA 
 178      164DA5A5 
 178      C8
 179 053d EA050950 		.ascii	"\352\005\011PP\036m\013\256\355\010\305\022R\272\261"
 179      501E6D0B 
 179      AEED08C5 
 179      1252BAB1 
 180 054d 39D91A97 		.ascii	"9\331\032\227\322M\263\037\011\326TG\333:\326v@\310"
 180      D24DB31F 
 180      09D65447 
 180      DB3AD676 
 180      40C8
 181 055f B4E4EA58 		.ascii	"\264\344\352X\264!\331\334\022\227\024\371/\344\027"
 181      B421D9DC 
 181      129714F9 
 181      2FE417
 182 056e 1F4D2512 		.ascii	"\037M%\022\251\244\226\225\004A0\010O\220Y\217%\"\031"
 182      A9A49695 
 182      04413008 
 182      4F90598F 
 182      252219
 183 0581 BFDD9B56 		.ascii	"\277\335\233V# \334%\210>0\277;\030\020Dw}S\203\310"
 183      2320DC25 
 183      883E30BF 
 183      3B181044 
 183      777D5383 
 184 0596 054557C3 		.ascii	"\005EW\303b\261@\020\002\242\217z\277[\020\032D\227"
 184      62B14010 
 184      02A28F7A 
 184      BF5B101A 
 184      4497
 185 05a8 B034E45A 		.ascii	"\2604\344Z\026\024\\\265\242\350\022\0058\206\200\272"
 185      16145CB5 
 185      A2E81205 
 185      388680BA 
 186 05b8 FA90E8AA 		.ascii	"\372\220\350\252'\221\201Z\221{U\211\252\201\361\342"
 186      2791815A 
 186      917B5589 
 186      AA81F1E2 
 187 05c8 8BC4BDE4 		.ascii	"\213\304\275\344\216\2665\247KDA\210\204\326\266K\365"
 187      8EB635A7 
ARM GAS  /tmp/ccnWgNJH.s 			page 14


 187      4B444188 
 187      84D6B64B 
 187      F5
 188 05d9 D2F2B946 		.ascii	"\322\362\271F\211\322\232\014/\004\202MA\220\250\250"
 188      89D29A0C 
 188      2F04824D 
 188      4190A8A8 
 189 05e9 5AEEAB5E 		.ascii	"Z\356\253^\003\2528 \012\257,\206\034Mbq\355\262:\277"
 189      03AA3820 
 189      0AAF2C86 
 189      1C4D6271 
 189      EDB23ABF 
 190 05fd 180CD18E 		.ascii	"\030\014\321\216\217t\012k\033\353\032\226\212E\344"
 190      8F740A6B 
 190      1BEB1A96 
 190      8A45E4
 191 060c 82FAEF83 		.ascii	"\202\372\357\203\177\020CT\005\305\377\001\372\210\252"
 191      7F104354 
 191      05C5FF01 
 191      FA88AA
 192 061b 8A       		.ascii	"\212"
 193              		.text
 194              		.section	.gnu.lto_.symtab.3fe885a1ca8733ad,"",%progbits
 195 0000 56656374 		.ascii	"VectorB0\000\000\000\000\000\000\000\000\000\000\000"
 195      6F724230 
 195      00000000 
 195      00000000 
 195      000000
 196 0013 00A40000 		.ascii	"\000\244\000\000\000st_lld_init\000\000\000\000\000"
 196      0073745F 
 196      6C6C645F 
 196      696E6974 
 196      00000000 
 197 0028 00000000 		.ascii	"\000\000\000\000\000\000\000\250\000\000\000_port_i"
 197      000000A8 
 197      0000005F 
 197      706F7274 
 197      5F69
 198 003a 72715F65 		.ascii	"rq_epilogue\000\000\002\000\000\000\000\000\000\000"
 198      70696C6F 
 198      67756500 
 198      00020000 
 198      00000000 
 199 004f 0000AB00 		.ascii	"\000\000\253\000\000\000chSysTimerHandlerI\000\000\002"
 199      00006368 
 199      53797354 
 199      696D6572 
 199      48616E64 
 200 006a 00000000 		.ascii	"\000\000\000\000\000\000\000\000\000\255\000\000\000"
 200      00000000 
 200      00AD0000 
 200      00
 201 0077 6E766963 		.ascii	"nvicEnableVector\000\000\002\000\000\000\000\000\000"
 201      456E6162 
 201      6C655665 
 201      63746F72 
 201      00000200 
ARM GAS  /tmp/ccnWgNJH.s 			page 15


 202 0090 000000AF 		.ascii	"\000\000\000\257\000\000\000"
 202      000000
 203              		.text
 204              		.section	.gnu.lto_.opts,"",%progbits
 205 0000 272D6D63 		.ascii	"'-mcpu=cortex-m3''-mno-thumb-interwork''-mthumb''-g"
 205      70753D63 
 205      6F727465 
 205      782D6D33 
 205      27272D6D 
 206 0033 67646227 		.ascii	"gdb''-O2''-fomit-frame-pointer''-falign-functions=1"
 206      272D4F32 
 206      27272D66 
 206      6F6D6974 
 206      2D667261 
 207 0066 3627272D 		.ascii	"6''-ffunction-sections''-fdata-sections''-fno-commo"
 207      6666756E 
 207      6374696F 
 207      6E2D7365 
 207      6374696F 
 208 0099 6E27272D 		.ascii	"n''-flto'\000"
 208      666C746F 
 208      2700
 209              		.text
 210              		.cfi_sections	.debug_frame
 211              		.section	.text.VectorB0,"ax",%progbits
 212              		.align	2
 213              		.p2align 4,,15
 214              		.global	VectorB0
 215              		.thumb
 216              		.thumb_func
 217              		.type	VectorB0, %function
 218              	VectorB0:
 219              	.LFB194:
 220              		.file 1 "../../../os/hal/ports/STM32/LLD/TIMv1/st_lld.c"
 221              		.loc 1 153 0
 222              		.cfi_startproc
 223              		@ args = 0, pretend = 0, frame = 0
 224              		@ frame_needed = 0, uses_anonymous_args = 0
 225 0000 10B5     		push	{r4, lr}
 226              	.LCFI0:
 227              		.cfi_def_cfa_offset 8
 228              		.cfi_offset 4, -8
 229              		.cfi_offset 14, -4
 230              		.loc 1 157 0
 231 0002 4FF08043 		mov	r3, #1073741824
 232 0006 0024     		movs	r4, #0
 233 0008 1C61     		str	r4, [r3, #16]
 234              	.LVL0:
 235              	.LBB52:
 236              	.LBB53:
 237              	.LBB54:
 238              	.LBB55:
 239              	.LBB56:
 240              	.LBB57:
 241              		.file 2 "../../../os/ext/CMSIS/include/core_cmFunc.h"
 242              		.loc 2 546 0
 243 000a 2020     		movs	r0, #32
ARM GAS  /tmp/ccnWgNJH.s 			page 16


 244              	@ 546 "../../../os/ext/CMSIS/include/core_cmFunc.h" 1
 245 000c 80F31188 		MSR basepri, r0
 246              	@ 0 "" 2
 247              		.thumb
 248              	.LBE57:
 249              	.LBE56:
 250              	.LBE55:
 251              	.LBE54:
 252              	.LBE53:
 253              	.LBE52:
 254              	.LBB58:
 255              	.LBB59:
 256              		.file 3 "../../../os/hal/osal/rt/osal.h"
 257              		.loc 3 520 0
 258 0010 FFF7FEFF 		bl	chSysTimerHandlerI
 259              	.LVL1:
 260              	.LBE59:
 261              	.LBE58:
 262              	.LBB60:
 263              	.LBB61:
 264              	.LBB62:
 265              	.LBB63:
 266              	.LBB64:
 267              	.LBB65:
 268              		.loc 2 546 0
 269              	@ 546 "../../../os/ext/CMSIS/include/core_cmFunc.h" 1
 270 0014 84F31188 		MSR basepri, r4
 271              	@ 0 "" 2
 272              		.thumb
 273              	.LBE65:
 274              	.LBE64:
 275              	.LBE63:
 276              	.LBE62:
 277              	.LBE61:
 278              	.LBE60:
 279              		.loc 1 164 0
 280 0018 BDE81040 		pop	{r4, lr}
 281              		.loc 1 163 0
 282 001c FFF7FEBF 		b	_port_irq_epilogue
 283              	.LVL2:
 284              		.cfi_endproc
 285              	.LFE194:
 286              		.size	VectorB0, .-VectorB0
 287              		.section	.text.st_lld_init,"ax",%progbits
 288              		.align	2
 289              		.p2align 4,,15
 290              		.global	st_lld_init
 291              		.thumb
 292              		.thumb_func
 293              		.type	st_lld_init, %function
 294              	st_lld_init:
 295              	.LFB195:
 296              		.loc 1 176 0
 297              		.cfi_startproc
 298              		@ args = 0, pretend = 0, frame = 0
 299              		@ frame_needed = 0, uses_anonymous_args = 0
 300              		@ link register save eliminated.
ARM GAS  /tmp/ccnWgNJH.s 			page 17


 301              		.loc 1 182 0
 302 0000 4FF48052 		mov	r2, #4096
 303              		.loc 1 176 0
 304 0004 30B4     		push	{r4, r5}
 305              	.LCFI1:
 306              		.cfi_def_cfa_offset 8
 307              		.cfi_offset 4, -8
 308              		.cfi_offset 5, -4
 309              		.loc 1 182 0
 310 0006 C4F20202 		movt	r2, 16386
 311 000a D169     		ldr	r1, [r2, #28]
 312              		.loc 1 185 0
 313 000c 4FF08043 		mov	r3, #1073741824
 314              		.loc 1 182 0
 315 0010 41F00100 		orr	r0, r1, #1
 316              		.loc 1 185 0
 317 0014 41F61F45 		movw	r5, #7199
 318              		.loc 1 182 0
 319 0018 D061     		str	r0, [r2, #28]
 320              		.loc 1 191 0
 321 001a 0124     		movs	r4, #1
 322              		.loc 1 185 0
 323 001c 9D62     		str	r5, [r3, #40]
 324              		.loc 1 187 0
 325 001e 0022     		movs	r2, #0
 326              		.loc 1 186 0
 327 0020 4FF6FF75 		movw	r5, #65535
 328              		.loc 1 195 0
 329 0024 1C20     		movs	r0, #28
 330 0026 0821     		movs	r1, #8
 331              		.loc 1 186 0
 332 0028 DD62     		str	r5, [r3, #44]
 333              		.loc 1 187 0
 334 002a 9A61     		str	r2, [r3, #24]
 335              		.loc 1 188 0
 336 002c 5A63     		str	r2, [r3, #52]
 337              		.loc 1 189 0
 338 002e DA60     		str	r2, [r3, #12]
 339              		.loc 1 190 0
 340 0030 5A60     		str	r2, [r3, #4]
 341              		.loc 1 191 0
 342 0032 5C61     		str	r4, [r3, #20]
 343              		.loc 1 192 0
 344 0034 1C60     		str	r4, [r3, #0]
 345              		.loc 1 210 0
 346 0036 30BC     		pop	{r4, r5}
 347              		.loc 1 195 0
 348 0038 FFF7FEBF 		b	nvicEnableVector
 349              	.LVL3:
 350              		.cfi_endproc
 351              	.LFE195:
 352              		.size	st_lld_init, .-st_lld_init
 353 003c AFF30080 		.text
 354              	.Letext0:
 355              		.file 4 "/opt/ARM/gcc-arm-none-eabi-4_7-2013q3/bin/../lib/gcc/arm-none-eabi/4.7.4/../../../../arm-
 356              		.file 5 "../../../os/rt/include/chschd.h"
 357              		.file 6 "../../../os/rt/ports/ARMCMx/compilers/GCC/chtypes.h"
ARM GAS  /tmp/ccnWgNJH.s 			page 18


 358              		.file 7 "../../../os/ext/CMSIS/ST/stm32f10x.h"
 359              		.file 8 "../../../os/rt/ports/ARMCMx/chcore.h"
 360              		.file 9 "../../../os/rt/ports/ARMCMx/chcore_v7m.h"
 361              		.file 10 "../../../os/hal/ports/STM32/LLD/TIMv1/stm32_tim.h"
 362              		.file 11 "../../../os/rt/include/chmtx.h"
 363              		.file 12 "../../../os/rt/include/chsys.h"
 364              		.file 13 "../../../os/ext/CMSIS/include/core_cm3.h"
 365              		.file 14 "../../../os/hal/ports/common/ARMCMx/nvic.h"
 366              		.section	.debug_info,"",%progbits
 367              	.Ldebug_info0:
 368 0000 3A090000 		.4byte	0x93a
 369 0004 0200     		.2byte	0x2
 370 0006 00000000 		.4byte	.Ldebug_abbrev0
 371 000a 04       		.byte	0x4
 372 000b 01       		.uleb128 0x1
 373 000c F1000000 		.4byte	.LASF111
 374 0010 01       		.byte	0x1
 375 0011 23020000 		.4byte	.LASF112
 376 0015 1B040000 		.4byte	.LASF113
 377 0019 00000000 		.4byte	.Ldebug_ranges0+0
 378 001d 00000000 		.4byte	0
 379 0021 00000000 		.4byte	0
 380 0025 00000000 		.4byte	.Ldebug_line0
 381 0029 02       		.uleb128 0x2
 382 002a 04       		.byte	0x4
 383 002b 05       		.byte	0x5
 384 002c 696E7400 		.ascii	"int\000"
 385 0030 03       		.uleb128 0x3
 386 0031 04       		.byte	0x4
 387 0032 07       		.byte	0x7
 388 0033 E1010000 		.4byte	.LASF0
 389 0037 03       		.uleb128 0x3
 390 0038 01       		.byte	0x1
 391 0039 06       		.byte	0x6
 392 003a BC000000 		.4byte	.LASF1
 393 003e 04       		.uleb128 0x4
 394 003f 00050000 		.4byte	.LASF4
 395 0043 04       		.byte	0x4
 396 0044 2A       		.byte	0x2a
 397 0045 49000000 		.4byte	0x49
 398 0049 03       		.uleb128 0x3
 399 004a 01       		.byte	0x1
 400 004b 08       		.byte	0x8
 401 004c 30030000 		.4byte	.LASF2
 402 0050 03       		.uleb128 0x3
 403 0051 02       		.byte	0x2
 404 0052 05       		.byte	0x5
 405 0053 55030000 		.4byte	.LASF3
 406 0057 04       		.uleb128 0x4
 407 0058 7B010000 		.4byte	.LASF5
 408 005c 04       		.byte	0x4
 409 005d 36       		.byte	0x36
 410 005e 62000000 		.4byte	0x62
 411 0062 03       		.uleb128 0x3
 412 0063 02       		.byte	0x2
 413 0064 07       		.byte	0x7
 414 0065 8C010000 		.4byte	.LASF6
ARM GAS  /tmp/ccnWgNJH.s 			page 19


 415 0069 04       		.uleb128 0x4
 416 006a 28030000 		.4byte	.LASF7
 417 006e 04       		.byte	0x4
 418 006f 4F       		.byte	0x4f
 419 0070 74000000 		.4byte	0x74
 420 0074 03       		.uleb128 0x3
 421 0075 04       		.byte	0x4
 422 0076 05       		.byte	0x5
 423 0077 44010000 		.4byte	.LASF8
 424 007b 04       		.uleb128 0x4
 425 007c 90030000 		.4byte	.LASF9
 426 0080 04       		.byte	0x4
 427 0081 50       		.byte	0x50
 428 0082 86000000 		.4byte	0x86
 429 0086 03       		.uleb128 0x3
 430 0087 04       		.byte	0x4
 431 0088 07       		.byte	0x7
 432 0089 AA030000 		.4byte	.LASF10
 433 008d 03       		.uleb128 0x3
 434 008e 08       		.byte	0x8
 435 008f 05       		.byte	0x5
 436 0090 6D010000 		.4byte	.LASF11
 437 0094 03       		.uleb128 0x3
 438 0095 08       		.byte	0x8
 439 0096 07       		.byte	0x7
 440 0097 36000000 		.4byte	.LASF12
 441 009b 05       		.uleb128 0x5
 442 009c 5F010000 		.4byte	.LASF48
 443 00a0 44       		.byte	0x44
 444 00a1 05       		.byte	0x5
 445 00a2 79       		.byte	0x79
 446 00a3 A4010000 		.4byte	0x1a4
 447 00a7 06       		.uleb128 0x6
 448 00a8 AE020000 		.4byte	.LASF13
 449 00ac 05       		.byte	0x5
 450 00ad 7A       		.byte	0x7a
 451 00ae FC040000 		.4byte	0x4fc
 452 00b2 02       		.byte	0x2
 453 00b3 23       		.byte	0x23
 454 00b4 00       		.uleb128 0
 455 00b5 06       		.uleb128 0x6
 456 00b6 FA020000 		.4byte	.LASF14
 457 00ba 05       		.byte	0x5
 458 00bb 7C       		.byte	0x7c
 459 00bc FC040000 		.4byte	0x4fc
 460 00c0 02       		.byte	0x2
 461 00c1 23       		.byte	0x23
 462 00c2 04       		.uleb128 0x4
 463 00c3 06       		.uleb128 0x6
 464 00c4 92000000 		.4byte	.LASF15
 465 00c8 05       		.byte	0x5
 466 00c9 7E       		.byte	0x7e
 467 00ca DA010000 		.4byte	0x1da
 468 00ce 02       		.byte	0x2
 469 00cf 23       		.byte	0x23
 470 00d0 08       		.uleb128 0x8
 471 00d1 06       		.uleb128 0x6
ARM GAS  /tmp/ccnWgNJH.s 			page 20


 472 00d2 3B050000 		.4byte	.LASF16
 473 00d6 05       		.byte	0x5
 474 00d7 7F       		.byte	0x7f
 475 00d8 D5020000 		.4byte	0x2d5
 476 00dc 02       		.byte	0x2
 477 00dd 23       		.byte	0x23
 478 00de 0C       		.uleb128 0xc
 479 00df 06       		.uleb128 0x6
 480 00e0 84010000 		.4byte	.LASF17
 481 00e4 05       		.byte	0x5
 482 00e5 81       		.byte	0x81
 483 00e6 FC040000 		.4byte	0x4fc
 484 00ea 02       		.byte	0x2
 485 00eb 23       		.byte	0x23
 486 00ec 10       		.uleb128 0x10
 487 00ed 06       		.uleb128 0x6
 488 00ee C1020000 		.4byte	.LASF18
 489 00f2 05       		.byte	0x5
 490 00f3 82       		.byte	0x82
 491 00f4 FC040000 		.4byte	0x4fc
 492 00f8 02       		.byte	0x2
 493 00f9 23       		.byte	0x23
 494 00fa 14       		.uleb128 0x14
 495 00fb 06       		.uleb128 0x6
 496 00fc 19050000 		.4byte	.LASF19
 497 0100 05       		.byte	0x5
 498 0101 89       		.byte	0x89
 499 0102 CC050000 		.4byte	0x5cc
 500 0106 02       		.byte	0x2
 501 0107 23       		.byte	0x23
 502 0108 18       		.uleb128 0x18
 503 0109 06       		.uleb128 0x6
 504 010a 5F030000 		.4byte	.LASF20
 505 010e 05       		.byte	0x5
 506 010f 94       		.byte	0x94
 507 0110 C4010000 		.4byte	0x1c4
 508 0114 02       		.byte	0x2
 509 0115 23       		.byte	0x23
 510 0116 1C       		.uleb128 0x1c
 511 0117 06       		.uleb128 0x6
 512 0118 75030000 		.4byte	.LASF21
 513 011c 05       		.byte	0x5
 514 011d 98       		.byte	0x98
 515 011e B9010000 		.4byte	0x1b9
 516 0122 02       		.byte	0x2
 517 0123 23       		.byte	0x23
 518 0124 1D       		.uleb128 0x1d
 519 0125 06       		.uleb128 0x6
 520 0126 66010000 		.4byte	.LASF22
 521 012a 05       		.byte	0x5
 522 012b 9D       		.byte	0x9d
 523 012c CF010000 		.4byte	0x1cf
 524 0130 02       		.byte	0x2
 525 0131 23       		.byte	0x23
 526 0132 1E       		.uleb128 0x1e
 527 0133 07       		.uleb128 0x7
 528 0134 705F7500 		.ascii	"p_u\000"
ARM GAS  /tmp/ccnWgNJH.s 			page 21


 529 0138 05       		.byte	0x5
 530 0139 CF       		.byte	0xcf
 531 013a 97050000 		.4byte	0x597
 532 013e 02       		.byte	0x2
 533 013f 23       		.byte	0x23
 534 0140 20       		.uleb128 0x20
 535 0141 06       		.uleb128 0x6
 536 0142 9B020000 		.4byte	.LASF23
 537 0146 05       		.byte	0x5
 538 0147 D4       		.byte	0xd4
 539 0148 24050000 		.4byte	0x524
 540 014c 02       		.byte	0x2
 541 014d 23       		.byte	0x23
 542 014e 24       		.uleb128 0x24
 543 014f 06       		.uleb128 0x6
 544 0150 F6010000 		.4byte	.LASF24
 545 0154 05       		.byte	0x5
 546 0155 DA       		.byte	0xda
 547 0156 02050000 		.4byte	0x502
 548 015a 02       		.byte	0x2
 549 015b 23       		.byte	0x23
 550 015c 28       		.uleb128 0x28
 551 015d 06       		.uleb128 0x6
 552 015e 2D050000 		.4byte	.LASF25
 553 0162 05       		.byte	0x5
 554 0163 DE       		.byte	0xde
 555 0164 E5010000 		.4byte	0x1e5
 556 0168 02       		.byte	0x2
 557 0169 23       		.byte	0x23
 558 016a 30       		.uleb128 0x30
 559 016b 06       		.uleb128 0x6
 560 016c 85030000 		.4byte	.LASF26
 561 0170 05       		.byte	0x5
 562 0171 E4       		.byte	0xe4
 563 0172 F0010000 		.4byte	0x1f0
 564 0176 02       		.byte	0x2
 565 0177 23       		.byte	0x23
 566 0178 34       		.uleb128 0x34
 567 0179 06       		.uleb128 0x6
 568 017a 4B030000 		.4byte	.LASF27
 569 017e 05       		.byte	0x5
 570 017f EB       		.byte	0xeb
 571 0180 15060000 		.4byte	0x615
 572 0184 02       		.byte	0x2
 573 0185 23       		.byte	0x23
 574 0186 38       		.uleb128 0x38
 575 0187 06       		.uleb128 0x6
 576 0188 18020000 		.4byte	.LASF28
 577 018c 05       		.byte	0x5
 578 018d EF       		.byte	0xef
 579 018e DA010000 		.4byte	0x1da
 580 0192 02       		.byte	0x2
 581 0193 23       		.byte	0x23
 582 0194 3C       		.uleb128 0x3c
 583 0195 06       		.uleb128 0x6
 584 0196 A7010000 		.4byte	.LASF29
 585 019a 05       		.byte	0x5
ARM GAS  /tmp/ccnWgNJH.s 			page 22


 586 019b F5       		.byte	0xf5
 587 019c D3020000 		.4byte	0x2d3
 588 01a0 02       		.byte	0x2
 589 01a1 23       		.byte	0x23
 590 01a2 40       		.uleb128 0x40
 591 01a3 00       		.byte	0
 592 01a4 08       		.uleb128 0x8
 593 01a5 69000000 		.4byte	0x69
 594 01a9 08       		.uleb128 0x8
 595 01aa 7B000000 		.4byte	0x7b
 596 01ae 04       		.uleb128 0x4
 597 01af 98040000 		.4byte	.LASF30
 598 01b3 06       		.byte	0x6
 599 01b4 46       		.byte	0x46
 600 01b5 7B000000 		.4byte	0x7b
 601 01b9 04       		.uleb128 0x4
 602 01ba 25050000 		.4byte	.LASF31
 603 01be 06       		.byte	0x6
 604 01bf 49       		.byte	0x49
 605 01c0 3E000000 		.4byte	0x3e
 606 01c4 04       		.uleb128 0x4
 607 01c5 56010000 		.4byte	.LASF32
 608 01c9 06       		.byte	0x6
 609 01ca 4A       		.byte	0x4a
 610 01cb 3E000000 		.4byte	0x3e
 611 01cf 04       		.uleb128 0x4
 612 01d0 E2020000 		.4byte	.LASF33
 613 01d4 06       		.byte	0x6
 614 01d5 4B       		.byte	0x4b
 615 01d6 3E000000 		.4byte	0x3e
 616 01da 04       		.uleb128 0x4
 617 01db 01030000 		.4byte	.LASF34
 618 01df 06       		.byte	0x6
 619 01e0 4D       		.byte	0x4d
 620 01e1 7B000000 		.4byte	0x7b
 621 01e5 04       		.uleb128 0x4
 622 01e6 12020000 		.4byte	.LASF35
 623 01ea 06       		.byte	0x6
 624 01eb 4E       		.byte	0x4e
 625 01ec 69000000 		.4byte	0x69
 626 01f0 04       		.uleb128 0x4
 627 01f1 6C020000 		.4byte	.LASF36
 628 01f5 06       		.byte	0x6
 629 01f6 50       		.byte	0x50
 630 01f7 7B000000 		.4byte	0x7b
 631 01fb 03       		.uleb128 0x3
 632 01fc 04       		.byte	0x4
 633 01fd 07       		.byte	0x7
 634 01fe A5020000 		.4byte	.LASF37
 635 0202 09       		.uleb128 0x9
 636 0203 7B000000 		.4byte	0x7b
 637 0207 12020000 		.4byte	0x212
 638 020b 0A       		.uleb128 0xa
 639 020c FB010000 		.4byte	0x1fb
 640 0210 03       		.byte	0x3
 641 0211 00       		.byte	0
 642 0212 0B       		.uleb128 0xb
ARM GAS  /tmp/ccnWgNJH.s 			page 23


 643 0213 28       		.byte	0x28
 644 0214 07       		.byte	0x7
 645 0215 3404     		.2byte	0x434
 646 0217 B1020000 		.4byte	0x2b1
 647 021b 0C       		.uleb128 0xc
 648 021c 435200   		.ascii	"CR\000"
 649 021f 07       		.byte	0x7
 650 0220 3604     		.2byte	0x436
 651 0222 A9010000 		.4byte	0x1a9
 652 0226 02       		.byte	0x2
 653 0227 23       		.byte	0x23
 654 0228 00       		.uleb128 0
 655 0229 0D       		.uleb128 0xd
 656 022a 20050000 		.4byte	.LASF38
 657 022e 07       		.byte	0x7
 658 022f 3704     		.2byte	0x437
 659 0231 A9010000 		.4byte	0x1a9
 660 0235 02       		.byte	0x2
 661 0236 23       		.byte	0x23
 662 0237 04       		.uleb128 0x4
 663 0238 0C       		.uleb128 0xc
 664 0239 43495200 		.ascii	"CIR\000"
 665 023d 07       		.byte	0x7
 666 023e 3804     		.2byte	0x438
 667 0240 A9010000 		.4byte	0x1a9
 668 0244 02       		.byte	0x2
 669 0245 23       		.byte	0x23
 670 0246 08       		.uleb128 0x8
 671 0247 0D       		.uleb128 0xd
 672 0248 4D010000 		.4byte	.LASF39
 673 024c 07       		.byte	0x7
 674 024d 3904     		.2byte	0x439
 675 024f A9010000 		.4byte	0x1a9
 676 0253 02       		.byte	0x2
 677 0254 23       		.byte	0x23
 678 0255 0C       		.uleb128 0xc
 679 0256 0D       		.uleb128 0xd
 680 0257 D9020000 		.4byte	.LASF40
 681 025b 07       		.byte	0x7
 682 025c 3A04     		.2byte	0x43a
 683 025e A9010000 		.4byte	0x1a9
 684 0262 02       		.byte	0x2
 685 0263 23       		.byte	0x23
 686 0264 10       		.uleb128 0x10
 687 0265 0D       		.uleb128 0xd
 688 0266 49050000 		.4byte	.LASF41
 689 026a 07       		.byte	0x7
 690 026b 3B04     		.2byte	0x43b
 691 026d A9010000 		.4byte	0x1a9
 692 0271 02       		.byte	0x2
 693 0272 23       		.byte	0x23
 694 0273 14       		.uleb128 0x14
 695 0274 0D       		.uleb128 0xd
 696 0275 7D030000 		.4byte	.LASF42
 697 0279 07       		.byte	0x7
 698 027a 3C04     		.2byte	0x43c
 699 027c A9010000 		.4byte	0x1a9
ARM GAS  /tmp/ccnWgNJH.s 			page 24


 700 0280 02       		.byte	0x2
 701 0281 23       		.byte	0x23
 702 0282 18       		.uleb128 0x18
 703 0283 0D       		.uleb128 0xd
 704 0284 74040000 		.4byte	.LASF43
 705 0288 07       		.byte	0x7
 706 0289 3D04     		.2byte	0x43d
 707 028b A9010000 		.4byte	0x1a9
 708 028f 02       		.byte	0x2
 709 0290 23       		.byte	0x23
 710 0291 1C       		.uleb128 0x1c
 711 0292 0D       		.uleb128 0xd
 712 0293 F5040000 		.4byte	.LASF44
 713 0297 07       		.byte	0x7
 714 0298 3E04     		.2byte	0x43e
 715 029a A9010000 		.4byte	0x1a9
 716 029e 02       		.byte	0x2
 717 029f 23       		.byte	0x23
 718 02a0 20       		.uleb128 0x20
 719 02a1 0C       		.uleb128 0xc
 720 02a2 43535200 		.ascii	"CSR\000"
 721 02a6 07       		.byte	0x7
 722 02a7 3F04     		.2byte	0x43f
 723 02a9 A9010000 		.4byte	0x1a9
 724 02ad 02       		.byte	0x2
 725 02ae 23       		.byte	0x23
 726 02af 24       		.uleb128 0x24
 727 02b0 00       		.byte	0
 728 02b1 0E       		.uleb128 0xe
 729 02b2 01020000 		.4byte	.LASF45
 730 02b6 07       		.byte	0x7
 731 02b7 4A04     		.2byte	0x44a
 732 02b9 12020000 		.4byte	0x212
 733 02bd 04       		.uleb128 0x4
 734 02be E7030000 		.4byte	.LASF46
 735 02c2 08       		.byte	0x8
 736 02c3 89       		.byte	0x89
 737 02c4 57000000 		.4byte	0x57
 738 02c8 04       		.uleb128 0x4
 739 02c9 AF010000 		.4byte	.LASF47
 740 02cd 08       		.byte	0x8
 741 02ce 8F       		.byte	0x8f
 742 02cf D3020000 		.4byte	0x2d3
 743 02d3 0F       		.uleb128 0xf
 744 02d4 04       		.byte	0x4
 745 02d5 05       		.uleb128 0x5
 746 02d6 7C040000 		.4byte	.LASF49
 747 02da 04       		.byte	0x4
 748 02db 08       		.byte	0x8
 749 02dc B3       		.byte	0xb3
 750 02dd F0020000 		.4byte	0x2f0
 751 02e1 07       		.uleb128 0x7
 752 02e2 72313300 		.ascii	"r13\000"
 753 02e6 08       		.byte	0x8
 754 02e7 B4       		.byte	0xb4
 755 02e8 7D030000 		.4byte	0x37d
 756 02ec 02       		.byte	0x2
ARM GAS  /tmp/ccnWgNJH.s 			page 25


 757 02ed 23       		.byte	0x23
 758 02ee 00       		.uleb128 0
 759 02ef 00       		.byte	0
 760 02f0 05       		.uleb128 0x5
 761 02f1 19000000 		.4byte	.LASF50
 762 02f5 24       		.byte	0x24
 763 02f6 09       		.byte	0x9
 764 02f7 F5       		.byte	0xf5
 765 02f8 7D030000 		.4byte	0x37d
 766 02fc 0C       		.uleb128 0xc
 767 02fd 723400   		.ascii	"r4\000"
 768 0300 09       		.byte	0x9
 769 0301 0801     		.2byte	0x108
 770 0303 C8020000 		.4byte	0x2c8
 771 0307 02       		.byte	0x2
 772 0308 23       		.byte	0x23
 773 0309 00       		.uleb128 0
 774 030a 0C       		.uleb128 0xc
 775 030b 723500   		.ascii	"r5\000"
 776 030e 09       		.byte	0x9
 777 030f 0901     		.2byte	0x109
 778 0311 C8020000 		.4byte	0x2c8
 779 0315 02       		.byte	0x2
 780 0316 23       		.byte	0x23
 781 0317 04       		.uleb128 0x4
 782 0318 0C       		.uleb128 0xc
 783 0319 723600   		.ascii	"r6\000"
 784 031c 09       		.byte	0x9
 785 031d 0A01     		.2byte	0x10a
 786 031f C8020000 		.4byte	0x2c8
 787 0323 02       		.byte	0x2
 788 0324 23       		.byte	0x23
 789 0325 08       		.uleb128 0x8
 790 0326 0C       		.uleb128 0xc
 791 0327 723700   		.ascii	"r7\000"
 792 032a 09       		.byte	0x9
 793 032b 0B01     		.2byte	0x10b
 794 032d C8020000 		.4byte	0x2c8
 795 0331 02       		.byte	0x2
 796 0332 23       		.byte	0x23
 797 0333 0C       		.uleb128 0xc
 798 0334 0C       		.uleb128 0xc
 799 0335 723800   		.ascii	"r8\000"
 800 0338 09       		.byte	0x9
 801 0339 0C01     		.2byte	0x10c
 802 033b C8020000 		.4byte	0x2c8
 803 033f 02       		.byte	0x2
 804 0340 23       		.byte	0x23
 805 0341 10       		.uleb128 0x10
 806 0342 0C       		.uleb128 0xc
 807 0343 723900   		.ascii	"r9\000"
 808 0346 09       		.byte	0x9
 809 0347 0D01     		.2byte	0x10d
 810 0349 C8020000 		.4byte	0x2c8
 811 034d 02       		.byte	0x2
 812 034e 23       		.byte	0x23
 813 034f 14       		.uleb128 0x14
ARM GAS  /tmp/ccnWgNJH.s 			page 26


 814 0350 0C       		.uleb128 0xc
 815 0351 72313000 		.ascii	"r10\000"
 816 0355 09       		.byte	0x9
 817 0356 0E01     		.2byte	0x10e
 818 0358 C8020000 		.4byte	0x2c8
 819 035c 02       		.byte	0x2
 820 035d 23       		.byte	0x23
 821 035e 18       		.uleb128 0x18
 822 035f 0C       		.uleb128 0xc
 823 0360 72313100 		.ascii	"r11\000"
 824 0364 09       		.byte	0x9
 825 0365 0F01     		.2byte	0x10f
 826 0367 C8020000 		.4byte	0x2c8
 827 036b 02       		.byte	0x2
 828 036c 23       		.byte	0x23
 829 036d 1C       		.uleb128 0x1c
 830 036e 0C       		.uleb128 0xc
 831 036f 6C7200   		.ascii	"lr\000"
 832 0372 09       		.byte	0x9
 833 0373 1001     		.2byte	0x110
 834 0375 C8020000 		.4byte	0x2c8
 835 0379 02       		.byte	0x2
 836 037a 23       		.byte	0x23
 837 037b 20       		.uleb128 0x20
 838 037c 00       		.byte	0
 839 037d 10       		.uleb128 0x10
 840 037e 04       		.byte	0x4
 841 037f F0020000 		.4byte	0x2f0
 842 0383 0B       		.uleb128 0xb
 843 0384 60       		.byte	0x60
 844 0385 0A       		.byte	0xa
 845 0386 9E01     		.2byte	0x19e
 846 0388 C6040000 		.4byte	0x4c6
 847 038c 0C       		.uleb128 0xc
 848 038d 43523100 		.ascii	"CR1\000"
 849 0391 0A       		.byte	0xa
 850 0392 9F01     		.2byte	0x19f
 851 0394 A9010000 		.4byte	0x1a9
 852 0398 02       		.byte	0x2
 853 0399 23       		.byte	0x23
 854 039a 00       		.uleb128 0
 855 039b 0C       		.uleb128 0xc
 856 039c 43523200 		.ascii	"CR2\000"
 857 03a0 0A       		.byte	0xa
 858 03a1 A001     		.2byte	0x1a0
 859 03a3 A9010000 		.4byte	0x1a9
 860 03a7 02       		.byte	0x2
 861 03a8 23       		.byte	0x23
 862 03a9 04       		.uleb128 0x4
 863 03aa 0D       		.uleb128 0xd
 864 03ab 0D020000 		.4byte	.LASF51
 865 03af 0A       		.byte	0xa
 866 03b0 A101     		.2byte	0x1a1
 867 03b2 A9010000 		.4byte	0x1a9
 868 03b6 02       		.byte	0x2
 869 03b7 23       		.byte	0x23
 870 03b8 08       		.uleb128 0x8
ARM GAS  /tmp/ccnWgNJH.s 			page 27


 871 03b9 0D       		.uleb128 0xd
 872 03ba 0D000000 		.4byte	.LASF52
 873 03be 0A       		.byte	0xa
 874 03bf A201     		.2byte	0x1a2
 875 03c1 A9010000 		.4byte	0x1a9
 876 03c5 02       		.byte	0x2
 877 03c6 23       		.byte	0x23
 878 03c7 0C       		.uleb128 0xc
 879 03c8 0C       		.uleb128 0xc
 880 03c9 535200   		.ascii	"SR\000"
 881 03cc 0A       		.byte	0xa
 882 03cd A301     		.2byte	0x1a3
 883 03cf A9010000 		.4byte	0x1a9
 884 03d3 02       		.byte	0x2
 885 03d4 23       		.byte	0x23
 886 03d5 10       		.uleb128 0x10
 887 03d6 0C       		.uleb128 0xc
 888 03d7 45475200 		.ascii	"EGR\000"
 889 03db 0A       		.byte	0xa
 890 03dc A401     		.2byte	0x1a4
 891 03de A9010000 		.4byte	0x1a9
 892 03e2 02       		.byte	0x2
 893 03e3 23       		.byte	0x23
 894 03e4 14       		.uleb128 0x14
 895 03e5 0D       		.uleb128 0xd
 896 03e6 AA000000 		.4byte	.LASF53
 897 03ea 0A       		.byte	0xa
 898 03eb A501     		.2byte	0x1a5
 899 03ed A9010000 		.4byte	0x1a9
 900 03f1 02       		.byte	0x2
 901 03f2 23       		.byte	0x23
 902 03f3 18       		.uleb128 0x18
 903 03f4 0D       		.uleb128 0xd
 904 03f5 B0000000 		.4byte	.LASF54
 905 03f9 0A       		.byte	0xa
 906 03fa A601     		.2byte	0x1a6
 907 03fc A9010000 		.4byte	0x1a9
 908 0400 02       		.byte	0x2
 909 0401 23       		.byte	0x23
 910 0402 1C       		.uleb128 0x1c
 911 0403 0D       		.uleb128 0xd
 912 0404 DB030000 		.4byte	.LASF55
 913 0408 0A       		.byte	0xa
 914 0409 A701     		.2byte	0x1a7
 915 040b A9010000 		.4byte	0x1a9
 916 040f 02       		.byte	0x2
 917 0410 23       		.byte	0x23
 918 0411 20       		.uleb128 0x20
 919 0412 0C       		.uleb128 0xc
 920 0413 434E5400 		.ascii	"CNT\000"
 921 0417 0A       		.byte	0xa
 922 0418 A801     		.2byte	0x1a8
 923 041a A9010000 		.4byte	0x1a9
 924 041e 02       		.byte	0x2
 925 041f 23       		.byte	0x23
 926 0420 24       		.uleb128 0x24
 927 0421 0C       		.uleb128 0xc
ARM GAS  /tmp/ccnWgNJH.s 			page 28


 928 0422 50534300 		.ascii	"PSC\000"
 929 0426 0A       		.byte	0xa
 930 0427 A901     		.2byte	0x1a9
 931 0429 A9010000 		.4byte	0x1a9
 932 042d 02       		.byte	0x2
 933 042e 23       		.byte	0x23
 934 042f 28       		.uleb128 0x28
 935 0430 0C       		.uleb128 0xc
 936 0431 41525200 		.ascii	"ARR\000"
 937 0435 0A       		.byte	0xa
 938 0436 AA01     		.2byte	0x1aa
 939 0438 A9010000 		.4byte	0x1a9
 940 043c 02       		.byte	0x2
 941 043d 23       		.byte	0x23
 942 043e 2C       		.uleb128 0x2c
 943 043f 0C       		.uleb128 0xc
 944 0440 52435200 		.ascii	"RCR\000"
 945 0444 0A       		.byte	0xa
 946 0445 AB01     		.2byte	0x1ab
 947 0447 A9010000 		.4byte	0x1a9
 948 044b 02       		.byte	0x2
 949 044c 23       		.byte	0x23
 950 044d 30       		.uleb128 0x30
 951 044e 0C       		.uleb128 0xc
 952 044f 43435200 		.ascii	"CCR\000"
 953 0453 0A       		.byte	0xa
 954 0454 AC01     		.2byte	0x1ac
 955 0456 C6040000 		.4byte	0x4c6
 956 045a 02       		.byte	0x2
 957 045b 23       		.byte	0x23
 958 045c 34       		.uleb128 0x34
 959 045d 0D       		.uleb128 0xd
 960 045e 8D000000 		.4byte	.LASF56
 961 0462 0A       		.byte	0xa
 962 0463 AD01     		.2byte	0x1ad
 963 0465 A9010000 		.4byte	0x1a9
 964 0469 02       		.byte	0x2
 965 046a 23       		.byte	0x23
 966 046b 44       		.uleb128 0x44
 967 046c 0C       		.uleb128 0xc
 968 046d 44435200 		.ascii	"DCR\000"
 969 0471 0A       		.byte	0xa
 970 0472 AE01     		.2byte	0x1ae
 971 0474 A9010000 		.4byte	0x1a9
 972 0478 02       		.byte	0x2
 973 0479 23       		.byte	0x23
 974 047a 48       		.uleb128 0x48
 975 047b 0D       		.uleb128 0xd
 976 047c C1030000 		.4byte	.LASF57
 977 0480 0A       		.byte	0xa
 978 0481 AF01     		.2byte	0x1af
 979 0483 A9010000 		.4byte	0x1a9
 980 0487 02       		.byte	0x2
 981 0488 23       		.byte	0x23
 982 0489 4C       		.uleb128 0x4c
 983 048a 0C       		.uleb128 0xc
 984 048b 4F5200   		.ascii	"OR\000"
ARM GAS  /tmp/ccnWgNJH.s 			page 29


 985 048e 0A       		.byte	0xa
 986 048f B001     		.2byte	0x1b0
 987 0491 A9010000 		.4byte	0x1a9
 988 0495 02       		.byte	0x2
 989 0496 23       		.byte	0x23
 990 0497 50       		.uleb128 0x50
 991 0498 0D       		.uleb128 0xd
 992 0499 B6000000 		.4byte	.LASF58
 993 049d 0A       		.byte	0xa
 994 049e B101     		.2byte	0x1b1
 995 04a0 A9010000 		.4byte	0x1a9
 996 04a4 02       		.byte	0x2
 997 04a5 23       		.byte	0x23
 998 04a6 54       		.uleb128 0x54
 999 04a7 0D       		.uleb128 0xd
 1000 04a8 EB040000 		.4byte	.LASF59
 1001 04ac 0A       		.byte	0xa
 1002 04ad B201     		.2byte	0x1b2
 1003 04af A9010000 		.4byte	0x1a9
 1004 04b3 02       		.byte	0x2
 1005 04b4 23       		.byte	0x23
 1006 04b5 58       		.uleb128 0x58
 1007 04b6 0D       		.uleb128 0xd
 1008 04b7 F0040000 		.4byte	.LASF60
 1009 04bb 0A       		.byte	0xa
 1010 04bc B301     		.2byte	0x1b3
 1011 04be A9010000 		.4byte	0x1a9
 1012 04c2 02       		.byte	0x2
 1013 04c3 23       		.byte	0x23
 1014 04c4 5C       		.uleb128 0x5c
 1015 04c5 00       		.byte	0
 1016 04c6 08       		.uleb128 0x8
 1017 04c7 02020000 		.4byte	0x202
 1018 04cb 0E       		.uleb128 0xe
 1019 04cc C8000000 		.4byte	.LASF61
 1020 04d0 0A       		.byte	0xa
 1021 04d1 B401     		.2byte	0x1b4
 1022 04d3 83030000 		.4byte	0x383
 1023 04d7 11       		.uleb128 0x11
 1024 04d8 08       		.byte	0x8
 1025 04d9 05       		.byte	0x5
 1026 04da 53       		.byte	0x53
 1027 04db FC040000 		.4byte	0x4fc
 1028 04df 06       		.uleb128 0x6
 1029 04e0 AE020000 		.4byte	.LASF13
 1030 04e4 05       		.byte	0x5
 1031 04e5 54       		.byte	0x54
 1032 04e6 FC040000 		.4byte	0x4fc
 1033 04ea 02       		.byte	0x2
 1034 04eb 23       		.byte	0x23
 1035 04ec 00       		.uleb128 0
 1036 04ed 06       		.uleb128 0x6
 1037 04ee FA020000 		.4byte	.LASF14
 1038 04f2 05       		.byte	0x5
 1039 04f3 55       		.byte	0x55
 1040 04f4 FC040000 		.4byte	0x4fc
 1041 04f8 02       		.byte	0x2
ARM GAS  /tmp/ccnWgNJH.s 			page 30


 1042 04f9 23       		.byte	0x23
 1043 04fa 04       		.uleb128 0x4
 1044 04fb 00       		.byte	0
 1045 04fc 10       		.uleb128 0x10
 1046 04fd 04       		.byte	0x4
 1047 04fe 9B000000 		.4byte	0x9b
 1048 0502 04       		.uleb128 0x4
 1049 0503 DB040000 		.4byte	.LASF62
 1050 0507 05       		.byte	0x5
 1051 0508 56       		.byte	0x56
 1052 0509 D7040000 		.4byte	0x4d7
 1053 050d 11       		.uleb128 0x11
 1054 050e 04       		.byte	0x4
 1055 050f 05       		.byte	0x5
 1056 0510 5B       		.byte	0x5b
 1057 0511 24050000 		.4byte	0x524
 1058 0515 06       		.uleb128 0x6
 1059 0516 AE020000 		.4byte	.LASF13
 1060 051a 05       		.byte	0x5
 1061 051b 5C       		.byte	0x5c
 1062 051c FC040000 		.4byte	0x4fc
 1063 0520 02       		.byte	0x2
 1064 0521 23       		.byte	0x23
 1065 0522 00       		.uleb128 0
 1066 0523 00       		.byte	0
 1067 0524 04       		.uleb128 0x4
 1068 0525 8C020000 		.4byte	.LASF63
 1069 0529 05       		.byte	0x5
 1070 052a 5D       		.byte	0x5d
 1071 052b 0D050000 		.4byte	0x50d
 1072 052f 11       		.uleb128 0x11
 1073 0530 1C       		.byte	0x1c
 1074 0531 05       		.byte	0x5
 1075 0532 64       		.byte	0x64
 1076 0533 8C050000 		.4byte	0x58c
 1077 0537 06       		.uleb128 0x6
 1078 0538 99030000 		.4byte	.LASF64
 1079 053c 05       		.byte	0x5
 1080 053d 65       		.byte	0x65
 1081 053e 02050000 		.4byte	0x502
 1082 0542 02       		.byte	0x2
 1083 0543 23       		.byte	0x23
 1084 0544 00       		.uleb128 0
 1085 0545 06       		.uleb128 0x6
 1086 0546 67030000 		.4byte	.LASF65
 1087 054a 05       		.byte	0x5
 1088 054b 66       		.byte	0x66
 1089 054c DA010000 		.4byte	0x1da
 1090 0550 02       		.byte	0x2
 1091 0551 23       		.byte	0x23
 1092 0552 08       		.uleb128 0x8
 1093 0553 06       		.uleb128 0x6
 1094 0554 C9020000 		.4byte	.LASF66
 1095 0558 05       		.byte	0x5
 1096 0559 68       		.byte	0x68
 1097 055a D5020000 		.4byte	0x2d5
 1098 055e 02       		.byte	0x2
ARM GAS  /tmp/ccnWgNJH.s 			page 31


 1099 055f 23       		.byte	0x23
 1100 0560 0C       		.uleb128 0xc
 1101 0561 06       		.uleb128 0x6
 1102 0562 9F010000 		.4byte	.LASF67
 1103 0566 05       		.byte	0x5
 1104 0567 6B       		.byte	0x6b
 1105 0568 FC040000 		.4byte	0x4fc
 1106 056c 02       		.byte	0x2
 1107 056d 23       		.byte	0x23
 1108 056e 10       		.uleb128 0x10
 1109 056f 06       		.uleb128 0x6
 1110 0570 84040000 		.4byte	.LASF68
 1111 0574 05       		.byte	0x5
 1112 0575 6C       		.byte	0x6c
 1113 0576 FC040000 		.4byte	0x4fc
 1114 057a 02       		.byte	0x2
 1115 057b 23       		.byte	0x23
 1116 057c 14       		.uleb128 0x14
 1117 057d 06       		.uleb128 0x6
 1118 057e CF020000 		.4byte	.LASF69
 1119 0582 05       		.byte	0x5
 1120 0583 6F       		.byte	0x6f
 1121 0584 FC040000 		.4byte	0x4fc
 1122 0588 02       		.byte	0x2
 1123 0589 23       		.byte	0x23
 1124 058a 18       		.uleb128 0x18
 1125 058b 00       		.byte	0
 1126 058c 04       		.uleb128 0x4
 1127 058d 00000000 		.4byte	.LASF70
 1128 0591 05       		.byte	0x5
 1129 0592 71       		.byte	0x71
 1130 0593 2F050000 		.4byte	0x52f
 1131 0597 12       		.uleb128 0x12
 1132 0598 04       		.byte	0x4
 1133 0599 05       		.byte	0x5
 1134 059a B1       		.byte	0xb1
 1135 059b CC050000 		.4byte	0x5cc
 1136 059f 13       		.uleb128 0x13
 1137 05a0 12000000 		.4byte	.LASF71
 1138 05a4 05       		.byte	0x5
 1139 05a5 B8       		.byte	0xb8
 1140 05a6 E5010000 		.4byte	0x1e5
 1141 05aa 13       		.uleb128 0x13
 1142 05ab 4D000000 		.4byte	.LASF72
 1143 05af 05       		.byte	0x5
 1144 05b0 BF       		.byte	0xbf
 1145 05b1 E5010000 		.4byte	0x1e5
 1146 05b5 13       		.uleb128 0x13
 1147 05b6 65020000 		.4byte	.LASF73
 1148 05ba 05       		.byte	0x5
 1149 05bb C6       		.byte	0xc6
 1150 05bc D3020000 		.4byte	0x2d3
 1151 05c0 13       		.uleb128 0x13
 1152 05c1 6E030000 		.4byte	.LASF74
 1153 05c5 05       		.byte	0x5
 1154 05c6 CD       		.byte	0xcd
 1155 05c7 F0010000 		.4byte	0x1f0
ARM GAS  /tmp/ccnWgNJH.s 			page 32


 1156 05cb 00       		.byte	0
 1157 05cc 10       		.uleb128 0x10
 1158 05cd 04       		.byte	0x4
 1159 05ce D2050000 		.4byte	0x5d2
 1160 05d2 14       		.uleb128 0x14
 1161 05d3 D7050000 		.4byte	0x5d7
 1162 05d7 03       		.uleb128 0x3
 1163 05d8 01       		.byte	0x1
 1164 05d9 08       		.byte	0x8
 1165 05da BC030000 		.4byte	.LASF75
 1166 05de 05       		.uleb128 0x5
 1167 05df 1C030000 		.4byte	.LASF76
 1168 05e3 10       		.byte	0x10
 1169 05e4 0B       		.byte	0xb
 1170 05e5 3A       		.byte	0x3a
 1171 05e6 15060000 		.4byte	0x615
 1172 05ea 06       		.uleb128 0x6
 1173 05eb D4000000 		.4byte	.LASF77
 1174 05ef 0B       		.byte	0xb
 1175 05f0 3B       		.byte	0x3b
 1176 05f1 02050000 		.4byte	0x502
 1177 05f5 02       		.byte	0x2
 1178 05f6 23       		.byte	0x23
 1179 05f7 00       		.uleb128 0
 1180 05f8 06       		.uleb128 0x6
 1181 05f9 33050000 		.4byte	.LASF78
 1182 05fd 0B       		.byte	0xb
 1183 05fe 3D       		.byte	0x3d
 1184 05ff FC040000 		.4byte	0x4fc
 1185 0603 02       		.byte	0x2
 1186 0604 23       		.byte	0x23
 1187 0605 08       		.uleb128 0x8
 1188 0606 06       		.uleb128 0x6
 1189 0607 E0030000 		.4byte	.LASF79
 1190 060b 0B       		.byte	0xb
 1191 060c 3F       		.byte	0x3f
 1192 060d 48070000 		.4byte	0x748
 1193 0611 02       		.byte	0x2
 1194 0612 23       		.byte	0x23
 1195 0613 0C       		.uleb128 0xc
 1196 0614 00       		.byte	0
 1197 0615 10       		.uleb128 0x10
 1198 0616 04       		.byte	0x4
 1199 0617 DE050000 		.4byte	0x5de
 1200 061b 0E       		.uleb128 0xe
 1201 061c 04040000 		.4byte	.LASF80
 1202 0620 05       		.byte	0x5
 1203 0621 0301     		.2byte	0x103
 1204 0623 27060000 		.4byte	0x627
 1205 0627 10       		.uleb128 0x10
 1206 0628 04       		.byte	0x4
 1207 0629 2D060000 		.4byte	0x62d
 1208 062d 15       		.uleb128 0x15
 1209 062e 01       		.byte	0x1
 1210 062f 39060000 		.4byte	0x639
 1211 0633 16       		.uleb128 0x16
 1212 0634 D3020000 		.4byte	0x2d3
ARM GAS  /tmp/ccnWgNJH.s 			page 33


 1213 0638 00       		.byte	0
 1214 0639 0E       		.uleb128 0xe
 1215 063a EA020000 		.4byte	.LASF81
 1216 063e 05       		.byte	0x5
 1217 063f 0801     		.2byte	0x108
 1218 0641 45060000 		.4byte	0x645
 1219 0645 17       		.uleb128 0x17
 1220 0646 B3040000 		.4byte	.LASF82
 1221 064a 14       		.byte	0x14
 1222 064b 05       		.byte	0x5
 1223 064c 0F01     		.2byte	0x10f
 1224 064e 9E060000 		.4byte	0x69e
 1225 0652 0D       		.uleb128 0xd
 1226 0653 EE010000 		.4byte	.LASF83
 1227 0657 05       		.byte	0x5
 1228 0658 1001     		.2byte	0x110
 1229 065a 9E060000 		.4byte	0x69e
 1230 065e 02       		.byte	0x2
 1231 065f 23       		.byte	0x23
 1232 0660 00       		.uleb128 0
 1233 0661 0D       		.uleb128 0xd
 1234 0662 B8010000 		.4byte	.LASF84
 1235 0666 05       		.byte	0x5
 1236 0667 1101     		.2byte	0x111
 1237 0669 9E060000 		.4byte	0x69e
 1238 066d 02       		.byte	0x2
 1239 066e 23       		.byte	0x23
 1240 066f 04       		.uleb128 0x4
 1241 0670 0D       		.uleb128 0xd
 1242 0671 A1030000 		.4byte	.LASF85
 1243 0675 05       		.byte	0x5
 1244 0676 1201     		.2byte	0x112
 1245 0678 BD020000 		.4byte	0x2bd
 1246 067c 02       		.byte	0x2
 1247 067d 23       		.byte	0x23
 1248 067e 08       		.uleb128 0x8
 1249 067f 0D       		.uleb128 0xd
 1250 0680 41050000 		.4byte	.LASF86
 1251 0684 05       		.byte	0x5
 1252 0685 1301     		.2byte	0x113
 1253 0687 1B060000 		.4byte	0x61b
 1254 068b 02       		.byte	0x2
 1255 068c 23       		.byte	0x23
 1256 068d 0C       		.uleb128 0xc
 1257 068e 0D       		.uleb128 0xd
 1258 068f C1040000 		.4byte	.LASF87
 1259 0693 05       		.byte	0x5
 1260 0694 1501     		.2byte	0x115
 1261 0696 D3020000 		.4byte	0x2d3
 1262 069a 02       		.byte	0x2
 1263 069b 23       		.byte	0x23
 1264 069c 10       		.uleb128 0x10
 1265 069d 00       		.byte	0
 1266 069e 10       		.uleb128 0x10
 1267 069f 04       		.byte	0x4
 1268 06a0 39060000 		.4byte	0x639
 1269 06a4 0B       		.uleb128 0xb
ARM GAS  /tmp/ccnWgNJH.s 			page 34


 1270 06a5 0C       		.byte	0xc
 1271 06a6 05       		.byte	0x5
 1272 06a7 1F01     		.2byte	0x11f
 1273 06a9 EA060000 		.4byte	0x6ea
 1274 06ad 0D       		.uleb128 0xd
 1275 06ae EE010000 		.4byte	.LASF83
 1276 06b2 05       		.byte	0x5
 1277 06b3 2001     		.2byte	0x120
 1278 06b5 9E060000 		.4byte	0x69e
 1279 06b9 02       		.byte	0x2
 1280 06ba 23       		.byte	0x23
 1281 06bb 00       		.uleb128 0
 1282 06bc 0D       		.uleb128 0xd
 1283 06bd B8010000 		.4byte	.LASF84
 1284 06c1 05       		.byte	0x5
 1285 06c2 2201     		.2byte	0x122
 1286 06c4 9E060000 		.4byte	0x69e
 1287 06c8 02       		.byte	0x2
 1288 06c9 23       		.byte	0x23
 1289 06ca 04       		.uleb128 0x4
 1290 06cb 0D       		.uleb128 0xd
 1291 06cc A1030000 		.4byte	.LASF85
 1292 06d0 05       		.byte	0x5
 1293 06d1 2401     		.2byte	0x124
 1294 06d3 BD020000 		.4byte	0x2bd
 1295 06d7 02       		.byte	0x2
 1296 06d8 23       		.byte	0x23
 1297 06d9 08       		.uleb128 0x8
 1298 06da 0D       		.uleb128 0xd
 1299 06db B5020000 		.4byte	.LASF88
 1300 06df 05       		.byte	0x5
 1301 06e0 2C01     		.2byte	0x12c
 1302 06e2 BD020000 		.4byte	0x2bd
 1303 06e6 02       		.byte	0x2
 1304 06e7 23       		.byte	0x23
 1305 06e8 0A       		.uleb128 0xa
 1306 06e9 00       		.byte	0
 1307 06ea 0E       		.uleb128 0xe
 1308 06eb 56000000 		.4byte	.LASF89
 1309 06ef 05       		.byte	0x5
 1310 06f0 2F01     		.2byte	0x12f
 1311 06f2 A4060000 		.4byte	0x6a4
 1312 06f6 17       		.uleb128 0x17
 1313 06f7 3A010000 		.4byte	.LASF90
 1314 06fb 2C       		.byte	0x2c
 1315 06fc 05       		.byte	0x5
 1316 06fd 3601     		.2byte	0x136
 1317 06ff 31070000 		.4byte	0x731
 1318 0703 0D       		.uleb128 0xd
 1319 0704 FA040000 		.4byte	.LASF91
 1320 0708 05       		.byte	0x5
 1321 0709 3A01     		.2byte	0x13a
 1322 070b 8C050000 		.4byte	0x58c
 1323 070f 02       		.byte	0x2
 1324 0710 23       		.byte	0x23
 1325 0711 00       		.uleb128 0
 1326 0712 0D       		.uleb128 0xd
ARM GAS  /tmp/ccnWgNJH.s 			page 35


 1327 0713 25000000 		.4byte	.LASF92
 1328 0717 05       		.byte	0x5
 1329 0718 3E01     		.2byte	0x13e
 1330 071a EA060000 		.4byte	0x6ea
 1331 071e 02       		.byte	0x2
 1332 071f 23       		.byte	0x23
 1333 0720 1C       		.uleb128 0x1c
 1334 0721 0D       		.uleb128 0xd
 1335 0722 C8040000 		.4byte	.LASF93
 1336 0726 05       		.byte	0x5
 1337 0727 4301     		.2byte	0x143
 1338 0729 AE010000 		.4byte	0x1ae
 1339 072d 02       		.byte	0x2
 1340 072e 23       		.byte	0x23
 1341 072f 28       		.uleb128 0x28
 1342 0730 00       		.byte	0
 1343 0731 0E       		.uleb128 0xe
 1344 0732 8C040000 		.4byte	.LASF94
 1345 0736 05       		.byte	0x5
 1346 0737 6501     		.2byte	0x165
 1347 0739 F6060000 		.4byte	0x6f6
 1348 073d 04       		.uleb128 0x4
 1349 073e D3010000 		.4byte	.LASF95
 1350 0742 0B       		.byte	0xb
 1351 0743 35       		.byte	0x35
 1352 0744 DE050000 		.4byte	0x5de
 1353 0748 10       		.uleb128 0x10
 1354 0749 04       		.byte	0x4
 1355 074a 3D070000 		.4byte	0x73d
 1356 074e 03       		.uleb128 0x3
 1357 074f 01       		.byte	0x1
 1358 0750 02       		.byte	0x2
 1359 0751 22030000 		.4byte	.LASF96
 1360 0755 18       		.uleb128 0x18
 1361 0756 0D040000 		.4byte	.LASF114
 1362 075a 02       		.byte	0x2
 1363 075b 2002     		.2byte	0x220
 1364 075d 01       		.byte	0x1
 1365 075e 03       		.byte	0x3
 1366 075f 70070000 		.4byte	0x770
 1367 0763 19       		.uleb128 0x19
 1368 0764 DB010000 		.4byte	.LASF115
 1369 0768 02       		.byte	0x2
 1370 0769 2002     		.2byte	0x220
 1371 076b 7B000000 		.4byte	0x7b
 1372 076f 00       		.byte	0
 1373 0770 1A       		.uleb128 0x1a
 1374 0771 2C000000 		.4byte	.LASF97
 1375 0775 09       		.byte	0x9
 1376 0776 BC01     		.2byte	0x1bc
 1377 0778 01       		.byte	0x1
 1378 0779 03       		.byte	0x3
 1379 077a 1A       		.uleb128 0x1a
 1380 077b E5000000 		.4byte	.LASF98
 1381 077f 09       		.byte	0x9
 1382 0780 CA01     		.2byte	0x1ca
 1383 0782 01       		.byte	0x1
ARM GAS  /tmp/ccnWgNJH.s 			page 36


 1384 0783 03       		.byte	0x3
 1385 0784 1A       		.uleb128 0x1a
 1386 0785 A0040000 		.4byte	.LASF99
 1387 0789 09       		.byte	0x9
 1388 078a D901     		.2byte	0x1d9
 1389 078c 01       		.byte	0x1
 1390 078d 03       		.byte	0x3
 1391 078e 1A       		.uleb128 0x1a
 1392 078f C6030000 		.4byte	.LASF100
 1393 0793 09       		.byte	0x9
 1394 0794 E401     		.2byte	0x1e4
 1395 0796 01       		.byte	0x1
 1396 0797 03       		.byte	0x3
 1397 0798 1A       		.uleb128 0x1a
 1398 0799 08050000 		.4byte	.LASF101
 1399 079d 0C       		.byte	0xc
 1400 079e 5101     		.2byte	0x151
 1401 07a0 01       		.byte	0x1
 1402 07a1 03       		.byte	0x3
 1403 07a2 1A       		.uleb128 0x1a
 1404 07a3 09030000 		.4byte	.LASF102
 1405 07a7 0C       		.byte	0xc
 1406 07a8 6501     		.2byte	0x165
 1407 07aa 01       		.byte	0x1
 1408 07ab 03       		.byte	0x3
 1409 07ac 1A       		.uleb128 0x1a
 1410 07ad C0010000 		.4byte	.LASF103
 1411 07b1 03       		.byte	0x3
 1412 07b2 C001     		.2byte	0x1c0
 1413 07b4 01       		.byte	0x1
 1414 07b5 03       		.byte	0x3
 1415 07b6 1A       		.uleb128 0x1a
 1416 07b7 78020000 		.4byte	.LASF104
 1417 07bb 03       		.byte	0x3
 1418 07bc 0602     		.2byte	0x206
 1419 07be 01       		.byte	0x1
 1420 07bf 03       		.byte	0x3
 1421 07c0 1A       		.uleb128 0x1a
 1422 07c1 6C000000 		.4byte	.LASF105
 1423 07c5 03       		.byte	0x3
 1424 07c6 CB01     		.2byte	0x1cb
 1425 07c8 01       		.byte	0x1
 1426 07c9 03       		.byte	0x3
 1427 07ca 1B       		.uleb128 0x1b
 1428 07cb 01       		.byte	0x1
 1429 07cc DC000000 		.4byte	.LASF106
 1430 07d0 01       		.byte	0x1
 1431 07d1 99       		.byte	0x99
 1432 07d2 01       		.byte	0x1
 1433 07d3 00000000 		.4byte	.LFB194
 1434 07d7 20000000 		.4byte	.LFE194
 1435 07db 00000000 		.4byte	.LLST0
 1436 07df 01       		.byte	0x1
 1437 07e0 C8080000 		.4byte	0x8c8
 1438 07e4 1C       		.uleb128 0x1c
 1439 07e5 AC070000 		.4byte	0x7ac
 1440 07e9 0A000000 		.4byte	.LBB52
ARM GAS  /tmp/ccnWgNJH.s 			page 37


 1441 07ed 10000000 		.4byte	.LBE52
 1442 07f1 01       		.byte	0x1
 1443 07f2 9F       		.byte	0x9f
 1444 07f3 42080000 		.4byte	0x842
 1445 07f7 1D       		.uleb128 0x1d
 1446 07f8 98070000 		.4byte	0x798
 1447 07fc 0A000000 		.4byte	.LBB53
 1448 0800 10000000 		.4byte	.LBE53
 1449 0804 03       		.byte	0x3
 1450 0805 C201     		.2byte	0x1c2
 1451 0807 1D       		.uleb128 0x1d
 1452 0808 84070000 		.4byte	0x784
 1453 080c 0A000000 		.4byte	.LBB54
 1454 0810 10000000 		.4byte	.LBE54
 1455 0814 0C       		.byte	0xc
 1456 0815 5301     		.2byte	0x153
 1457 0817 1D       		.uleb128 0x1d
 1458 0818 70070000 		.4byte	0x770
 1459 081c 0A000000 		.4byte	.LBB55
 1460 0820 10000000 		.4byte	.LBE55
 1461 0824 09       		.byte	0x9
 1462 0825 DB01     		.2byte	0x1db
 1463 0827 1D       		.uleb128 0x1d
 1464 0828 55070000 		.4byte	0x755
 1465 082c 0A000000 		.4byte	.LBB56
 1466 0830 10000000 		.4byte	.LBE56
 1467 0834 09       		.byte	0x9
 1468 0835 BF01     		.2byte	0x1bf
 1469 0837 1E       		.uleb128 0x1e
 1470 0838 63070000 		.4byte	0x763
 1471 083c 20       		.byte	0x20
 1472 083d 00       		.byte	0
 1473 083e 00       		.byte	0
 1474 083f 00       		.byte	0
 1475 0840 00       		.byte	0
 1476 0841 00       		.byte	0
 1477 0842 1C       		.uleb128 0x1c
 1478 0843 B6070000 		.4byte	0x7b6
 1479 0847 10000000 		.4byte	.LBB58
 1480 084b 14000000 		.4byte	.LBE58
 1481 084f 01       		.byte	0x1
 1482 0850 A0       		.byte	0xa0
 1483 0851 5F080000 		.4byte	0x85f
 1484 0855 1F       		.uleb128 0x1f
 1485 0856 14000000 		.4byte	.LVL1
 1486 085a 13090000 		.4byte	0x913
 1487 085e 00       		.byte	0
 1488 085f 1C       		.uleb128 0x1c
 1489 0860 C0070000 		.4byte	0x7c0
 1490 0864 14000000 		.4byte	.LBB60
 1491 0868 18000000 		.4byte	.LBE60
 1492 086c 01       		.byte	0x1
 1493 086d A1       		.byte	0xa1
 1494 086e BD080000 		.4byte	0x8bd
 1495 0872 1D       		.uleb128 0x1d
 1496 0873 A2070000 		.4byte	0x7a2
 1497 0877 14000000 		.4byte	.LBB61
ARM GAS  /tmp/ccnWgNJH.s 			page 38


 1498 087b 18000000 		.4byte	.LBE61
 1499 087f 03       		.byte	0x3
 1500 0880 CD01     		.2byte	0x1cd
 1501 0882 1D       		.uleb128 0x1d
 1502 0883 8E070000 		.4byte	0x78e
 1503 0887 14000000 		.4byte	.LBB62
 1504 088b 18000000 		.4byte	.LBE62
 1505 088f 0C       		.byte	0xc
 1506 0890 6901     		.2byte	0x169
 1507 0892 1D       		.uleb128 0x1d
 1508 0893 7A070000 		.4byte	0x77a
 1509 0897 14000000 		.4byte	.LBB63
 1510 089b 18000000 		.4byte	.LBE63
 1511 089f 09       		.byte	0x9
 1512 08a0 E601     		.2byte	0x1e6
 1513 08a2 1D       		.uleb128 0x1d
 1514 08a3 55070000 		.4byte	0x755
 1515 08a7 14000000 		.4byte	.LBB64
 1516 08ab 18000000 		.4byte	.LBE64
 1517 08af 09       		.byte	0x9
 1518 08b0 CD01     		.2byte	0x1cd
 1519 08b2 1E       		.uleb128 0x1e
 1520 08b3 63070000 		.4byte	0x763
 1521 08b7 00       		.byte	0
 1522 08b8 00       		.byte	0
 1523 08b9 00       		.byte	0
 1524 08ba 00       		.byte	0
 1525 08bb 00       		.byte	0
 1526 08bc 00       		.byte	0
 1527 08bd 20       		.uleb128 0x20
 1528 08be 20000000 		.4byte	.LVL2
 1529 08c2 01       		.byte	0x1
 1530 08c3 1D090000 		.4byte	0x91d
 1531 08c7 00       		.byte	0
 1532 08c8 1B       		.uleb128 0x1b
 1533 08c9 01       		.byte	0x1
 1534 08ca 81000000 		.4byte	.LASF107
 1535 08ce 01       		.byte	0x1
 1536 08cf B0       		.byte	0xb0
 1537 08d0 01       		.byte	0x1
 1538 08d1 00000000 		.4byte	.LFB195
 1539 08d5 3C000000 		.4byte	.LFE195
 1540 08d9 20000000 		.4byte	.LLST1
 1541 08dd 01       		.byte	0x1
 1542 08de F8080000 		.4byte	0x8f8
 1543 08e2 21       		.uleb128 0x21
 1544 08e3 3C000000 		.4byte	.LVL3
 1545 08e7 01       		.byte	0x1
 1546 08e8 28090000 		.4byte	0x928
 1547 08ec 22       		.uleb128 0x22
 1548 08ed 01       		.byte	0x1
 1549 08ee 51       		.byte	0x51
 1550 08ef 01       		.byte	0x1
 1551 08f0 38       		.byte	0x38
 1552 08f1 22       		.uleb128 0x22
 1553 08f2 01       		.byte	0x1
 1554 08f3 50       		.byte	0x50
ARM GAS  /tmp/ccnWgNJH.s 			page 39


 1555 08f4 01       		.byte	0x1
 1556 08f5 4C       		.byte	0x4c
 1557 08f6 00       		.byte	0
 1558 08f7 00       		.byte	0
 1559 08f8 23       		.uleb128 0x23
 1560 08f9 3E030000 		.4byte	.LASF108
 1561 08fd 0D       		.byte	0xd
 1562 08fe 1606     		.2byte	0x616
 1563 0900 A4010000 		.4byte	0x1a4
 1564 0904 01       		.byte	0x1
 1565 0905 01       		.byte	0x1
 1566 0906 24       		.uleb128 0x24
 1567 0907 636800   		.ascii	"ch\000"
 1568 090a 05       		.byte	0x5
 1569 090b 8901     		.2byte	0x189
 1570 090d 31070000 		.4byte	0x731
 1571 0911 01       		.byte	0x1
 1572 0912 01       		.byte	0x1
 1573 0913 25       		.uleb128 0x25
 1574 0914 01       		.byte	0x1
 1575 0915 F1030000 		.4byte	.LASF109
 1576 0919 0C       		.byte	0xc
 1577 091a E8       		.byte	0xe8
 1578 091b 01       		.byte	0x1
 1579 091c 01       		.byte	0x1
 1580 091d 26       		.uleb128 0x26
 1581 091e 01       		.byte	0x1
 1582 091f 52020000 		.4byte	.LASF110
 1583 0923 09       		.byte	0x9
 1584 0924 6601     		.2byte	0x166
 1585 0926 01       		.byte	0x1
 1586 0927 01       		.byte	0x1
 1587 0928 27       		.uleb128 0x27
 1588 0929 01       		.byte	0x1
 1589 092a 99000000 		.4byte	.LASF116
 1590 092e 0E       		.byte	0xe
 1591 092f 4E       		.byte	0x4e
 1592 0930 01       		.byte	0x1
 1593 0931 01       		.byte	0x1
 1594 0932 16       		.uleb128 0x16
 1595 0933 7B000000 		.4byte	0x7b
 1596 0937 16       		.uleb128 0x16
 1597 0938 7B000000 		.4byte	0x7b
 1598 093c 00       		.byte	0
 1599 093d 00       		.byte	0
 1600              		.section	.debug_abbrev,"",%progbits
 1601              	.Ldebug_abbrev0:
 1602 0000 01       		.uleb128 0x1
 1603 0001 11       		.uleb128 0x11
 1604 0002 01       		.byte	0x1
 1605 0003 25       		.uleb128 0x25
 1606 0004 0E       		.uleb128 0xe
 1607 0005 13       		.uleb128 0x13
 1608 0006 0B       		.uleb128 0xb
 1609 0007 03       		.uleb128 0x3
 1610 0008 0E       		.uleb128 0xe
 1611 0009 1B       		.uleb128 0x1b
ARM GAS  /tmp/ccnWgNJH.s 			page 40


 1612 000a 0E       		.uleb128 0xe
 1613 000b 55       		.uleb128 0x55
 1614 000c 06       		.uleb128 0x6
 1615 000d 11       		.uleb128 0x11
 1616 000e 01       		.uleb128 0x1
 1617 000f 52       		.uleb128 0x52
 1618 0010 01       		.uleb128 0x1
 1619 0011 10       		.uleb128 0x10
 1620 0012 06       		.uleb128 0x6
 1621 0013 00       		.byte	0
 1622 0014 00       		.byte	0
 1623 0015 02       		.uleb128 0x2
 1624 0016 24       		.uleb128 0x24
 1625 0017 00       		.byte	0
 1626 0018 0B       		.uleb128 0xb
 1627 0019 0B       		.uleb128 0xb
 1628 001a 3E       		.uleb128 0x3e
 1629 001b 0B       		.uleb128 0xb
 1630 001c 03       		.uleb128 0x3
 1631 001d 08       		.uleb128 0x8
 1632 001e 00       		.byte	0
 1633 001f 00       		.byte	0
 1634 0020 03       		.uleb128 0x3
 1635 0021 24       		.uleb128 0x24
 1636 0022 00       		.byte	0
 1637 0023 0B       		.uleb128 0xb
 1638 0024 0B       		.uleb128 0xb
 1639 0025 3E       		.uleb128 0x3e
 1640 0026 0B       		.uleb128 0xb
 1641 0027 03       		.uleb128 0x3
 1642 0028 0E       		.uleb128 0xe
 1643 0029 00       		.byte	0
 1644 002a 00       		.byte	0
 1645 002b 04       		.uleb128 0x4
 1646 002c 16       		.uleb128 0x16
 1647 002d 00       		.byte	0
 1648 002e 03       		.uleb128 0x3
 1649 002f 0E       		.uleb128 0xe
 1650 0030 3A       		.uleb128 0x3a
 1651 0031 0B       		.uleb128 0xb
 1652 0032 3B       		.uleb128 0x3b
 1653 0033 0B       		.uleb128 0xb
 1654 0034 49       		.uleb128 0x49
 1655 0035 13       		.uleb128 0x13
 1656 0036 00       		.byte	0
 1657 0037 00       		.byte	0
 1658 0038 05       		.uleb128 0x5
 1659 0039 13       		.uleb128 0x13
 1660 003a 01       		.byte	0x1
 1661 003b 03       		.uleb128 0x3
 1662 003c 0E       		.uleb128 0xe
 1663 003d 0B       		.uleb128 0xb
 1664 003e 0B       		.uleb128 0xb
 1665 003f 3A       		.uleb128 0x3a
 1666 0040 0B       		.uleb128 0xb
 1667 0041 3B       		.uleb128 0x3b
 1668 0042 0B       		.uleb128 0xb
ARM GAS  /tmp/ccnWgNJH.s 			page 41


 1669 0043 01       		.uleb128 0x1
 1670 0044 13       		.uleb128 0x13
 1671 0045 00       		.byte	0
 1672 0046 00       		.byte	0
 1673 0047 06       		.uleb128 0x6
 1674 0048 0D       		.uleb128 0xd
 1675 0049 00       		.byte	0
 1676 004a 03       		.uleb128 0x3
 1677 004b 0E       		.uleb128 0xe
 1678 004c 3A       		.uleb128 0x3a
 1679 004d 0B       		.uleb128 0xb
 1680 004e 3B       		.uleb128 0x3b
 1681 004f 0B       		.uleb128 0xb
 1682 0050 49       		.uleb128 0x49
 1683 0051 13       		.uleb128 0x13
 1684 0052 38       		.uleb128 0x38
 1685 0053 0A       		.uleb128 0xa
 1686 0054 00       		.byte	0
 1687 0055 00       		.byte	0
 1688 0056 07       		.uleb128 0x7
 1689 0057 0D       		.uleb128 0xd
 1690 0058 00       		.byte	0
 1691 0059 03       		.uleb128 0x3
 1692 005a 08       		.uleb128 0x8
 1693 005b 3A       		.uleb128 0x3a
 1694 005c 0B       		.uleb128 0xb
 1695 005d 3B       		.uleb128 0x3b
 1696 005e 0B       		.uleb128 0xb
 1697 005f 49       		.uleb128 0x49
 1698 0060 13       		.uleb128 0x13
 1699 0061 38       		.uleb128 0x38
 1700 0062 0A       		.uleb128 0xa
 1701 0063 00       		.byte	0
 1702 0064 00       		.byte	0
 1703 0065 08       		.uleb128 0x8
 1704 0066 35       		.uleb128 0x35
 1705 0067 00       		.byte	0
 1706 0068 49       		.uleb128 0x49
 1707 0069 13       		.uleb128 0x13
 1708 006a 00       		.byte	0
 1709 006b 00       		.byte	0
 1710 006c 09       		.uleb128 0x9
 1711 006d 01       		.uleb128 0x1
 1712 006e 01       		.byte	0x1
 1713 006f 49       		.uleb128 0x49
 1714 0070 13       		.uleb128 0x13
 1715 0071 01       		.uleb128 0x1
 1716 0072 13       		.uleb128 0x13
 1717 0073 00       		.byte	0
 1718 0074 00       		.byte	0
 1719 0075 0A       		.uleb128 0xa
 1720 0076 21       		.uleb128 0x21
 1721 0077 00       		.byte	0
 1722 0078 49       		.uleb128 0x49
 1723 0079 13       		.uleb128 0x13
 1724 007a 2F       		.uleb128 0x2f
 1725 007b 0B       		.uleb128 0xb
ARM GAS  /tmp/ccnWgNJH.s 			page 42


 1726 007c 00       		.byte	0
 1727 007d 00       		.byte	0
 1728 007e 0B       		.uleb128 0xb
 1729 007f 13       		.uleb128 0x13
 1730 0080 01       		.byte	0x1
 1731 0081 0B       		.uleb128 0xb
 1732 0082 0B       		.uleb128 0xb
 1733 0083 3A       		.uleb128 0x3a
 1734 0084 0B       		.uleb128 0xb
 1735 0085 3B       		.uleb128 0x3b
 1736 0086 05       		.uleb128 0x5
 1737 0087 01       		.uleb128 0x1
 1738 0088 13       		.uleb128 0x13
 1739 0089 00       		.byte	0
 1740 008a 00       		.byte	0
 1741 008b 0C       		.uleb128 0xc
 1742 008c 0D       		.uleb128 0xd
 1743 008d 00       		.byte	0
 1744 008e 03       		.uleb128 0x3
 1745 008f 08       		.uleb128 0x8
 1746 0090 3A       		.uleb128 0x3a
 1747 0091 0B       		.uleb128 0xb
 1748 0092 3B       		.uleb128 0x3b
 1749 0093 05       		.uleb128 0x5
 1750 0094 49       		.uleb128 0x49
 1751 0095 13       		.uleb128 0x13
 1752 0096 38       		.uleb128 0x38
 1753 0097 0A       		.uleb128 0xa
 1754 0098 00       		.byte	0
 1755 0099 00       		.byte	0
 1756 009a 0D       		.uleb128 0xd
 1757 009b 0D       		.uleb128 0xd
 1758 009c 00       		.byte	0
 1759 009d 03       		.uleb128 0x3
 1760 009e 0E       		.uleb128 0xe
 1761 009f 3A       		.uleb128 0x3a
 1762 00a0 0B       		.uleb128 0xb
 1763 00a1 3B       		.uleb128 0x3b
 1764 00a2 05       		.uleb128 0x5
 1765 00a3 49       		.uleb128 0x49
 1766 00a4 13       		.uleb128 0x13
 1767 00a5 38       		.uleb128 0x38
 1768 00a6 0A       		.uleb128 0xa
 1769 00a7 00       		.byte	0
 1770 00a8 00       		.byte	0
 1771 00a9 0E       		.uleb128 0xe
 1772 00aa 16       		.uleb128 0x16
 1773 00ab 00       		.byte	0
 1774 00ac 03       		.uleb128 0x3
 1775 00ad 0E       		.uleb128 0xe
 1776 00ae 3A       		.uleb128 0x3a
 1777 00af 0B       		.uleb128 0xb
 1778 00b0 3B       		.uleb128 0x3b
 1779 00b1 05       		.uleb128 0x5
 1780 00b2 49       		.uleb128 0x49
 1781 00b3 13       		.uleb128 0x13
 1782 00b4 00       		.byte	0
ARM GAS  /tmp/ccnWgNJH.s 			page 43


 1783 00b5 00       		.byte	0
 1784 00b6 0F       		.uleb128 0xf
 1785 00b7 0F       		.uleb128 0xf
 1786 00b8 00       		.byte	0
 1787 00b9 0B       		.uleb128 0xb
 1788 00ba 0B       		.uleb128 0xb
 1789 00bb 00       		.byte	0
 1790 00bc 00       		.byte	0
 1791 00bd 10       		.uleb128 0x10
 1792 00be 0F       		.uleb128 0xf
 1793 00bf 00       		.byte	0
 1794 00c0 0B       		.uleb128 0xb
 1795 00c1 0B       		.uleb128 0xb
 1796 00c2 49       		.uleb128 0x49
 1797 00c3 13       		.uleb128 0x13
 1798 00c4 00       		.byte	0
 1799 00c5 00       		.byte	0
 1800 00c6 11       		.uleb128 0x11
 1801 00c7 13       		.uleb128 0x13
 1802 00c8 01       		.byte	0x1
 1803 00c9 0B       		.uleb128 0xb
 1804 00ca 0B       		.uleb128 0xb
 1805 00cb 3A       		.uleb128 0x3a
 1806 00cc 0B       		.uleb128 0xb
 1807 00cd 3B       		.uleb128 0x3b
 1808 00ce 0B       		.uleb128 0xb
 1809 00cf 01       		.uleb128 0x1
 1810 00d0 13       		.uleb128 0x13
 1811 00d1 00       		.byte	0
 1812 00d2 00       		.byte	0
 1813 00d3 12       		.uleb128 0x12
 1814 00d4 17       		.uleb128 0x17
 1815 00d5 01       		.byte	0x1
 1816 00d6 0B       		.uleb128 0xb
 1817 00d7 0B       		.uleb128 0xb
 1818 00d8 3A       		.uleb128 0x3a
 1819 00d9 0B       		.uleb128 0xb
 1820 00da 3B       		.uleb128 0x3b
 1821 00db 0B       		.uleb128 0xb
 1822 00dc 01       		.uleb128 0x1
 1823 00dd 13       		.uleb128 0x13
 1824 00de 00       		.byte	0
 1825 00df 00       		.byte	0
 1826 00e0 13       		.uleb128 0x13
 1827 00e1 0D       		.uleb128 0xd
 1828 00e2 00       		.byte	0
 1829 00e3 03       		.uleb128 0x3
 1830 00e4 0E       		.uleb128 0xe
 1831 00e5 3A       		.uleb128 0x3a
 1832 00e6 0B       		.uleb128 0xb
 1833 00e7 3B       		.uleb128 0x3b
 1834 00e8 0B       		.uleb128 0xb
 1835 00e9 49       		.uleb128 0x49
 1836 00ea 13       		.uleb128 0x13
 1837 00eb 00       		.byte	0
 1838 00ec 00       		.byte	0
 1839 00ed 14       		.uleb128 0x14
ARM GAS  /tmp/ccnWgNJH.s 			page 44


 1840 00ee 26       		.uleb128 0x26
 1841 00ef 00       		.byte	0
 1842 00f0 49       		.uleb128 0x49
 1843 00f1 13       		.uleb128 0x13
 1844 00f2 00       		.byte	0
 1845 00f3 00       		.byte	0
 1846 00f4 15       		.uleb128 0x15
 1847 00f5 15       		.uleb128 0x15
 1848 00f6 01       		.byte	0x1
 1849 00f7 27       		.uleb128 0x27
 1850 00f8 0C       		.uleb128 0xc
 1851 00f9 01       		.uleb128 0x1
 1852 00fa 13       		.uleb128 0x13
 1853 00fb 00       		.byte	0
 1854 00fc 00       		.byte	0
 1855 00fd 16       		.uleb128 0x16
 1856 00fe 05       		.uleb128 0x5
 1857 00ff 00       		.byte	0
 1858 0100 49       		.uleb128 0x49
 1859 0101 13       		.uleb128 0x13
 1860 0102 00       		.byte	0
 1861 0103 00       		.byte	0
 1862 0104 17       		.uleb128 0x17
 1863 0105 13       		.uleb128 0x13
 1864 0106 01       		.byte	0x1
 1865 0107 03       		.uleb128 0x3
 1866 0108 0E       		.uleb128 0xe
 1867 0109 0B       		.uleb128 0xb
 1868 010a 0B       		.uleb128 0xb
 1869 010b 3A       		.uleb128 0x3a
 1870 010c 0B       		.uleb128 0xb
 1871 010d 3B       		.uleb128 0x3b
 1872 010e 05       		.uleb128 0x5
 1873 010f 01       		.uleb128 0x1
 1874 0110 13       		.uleb128 0x13
 1875 0111 00       		.byte	0
 1876 0112 00       		.byte	0
 1877 0113 18       		.uleb128 0x18
 1878 0114 2E       		.uleb128 0x2e
 1879 0115 01       		.byte	0x1
 1880 0116 03       		.uleb128 0x3
 1881 0117 0E       		.uleb128 0xe
 1882 0118 3A       		.uleb128 0x3a
 1883 0119 0B       		.uleb128 0xb
 1884 011a 3B       		.uleb128 0x3b
 1885 011b 05       		.uleb128 0x5
 1886 011c 27       		.uleb128 0x27
 1887 011d 0C       		.uleb128 0xc
 1888 011e 20       		.uleb128 0x20
 1889 011f 0B       		.uleb128 0xb
 1890 0120 01       		.uleb128 0x1
 1891 0121 13       		.uleb128 0x13
 1892 0122 00       		.byte	0
 1893 0123 00       		.byte	0
 1894 0124 19       		.uleb128 0x19
 1895 0125 05       		.uleb128 0x5
 1896 0126 00       		.byte	0
ARM GAS  /tmp/ccnWgNJH.s 			page 45


 1897 0127 03       		.uleb128 0x3
 1898 0128 0E       		.uleb128 0xe
 1899 0129 3A       		.uleb128 0x3a
 1900 012a 0B       		.uleb128 0xb
 1901 012b 3B       		.uleb128 0x3b
 1902 012c 05       		.uleb128 0x5
 1903 012d 49       		.uleb128 0x49
 1904 012e 13       		.uleb128 0x13
 1905 012f 00       		.byte	0
 1906 0130 00       		.byte	0
 1907 0131 1A       		.uleb128 0x1a
 1908 0132 2E       		.uleb128 0x2e
 1909 0133 00       		.byte	0
 1910 0134 03       		.uleb128 0x3
 1911 0135 0E       		.uleb128 0xe
 1912 0136 3A       		.uleb128 0x3a
 1913 0137 0B       		.uleb128 0xb
 1914 0138 3B       		.uleb128 0x3b
 1915 0139 05       		.uleb128 0x5
 1916 013a 27       		.uleb128 0x27
 1917 013b 0C       		.uleb128 0xc
 1918 013c 20       		.uleb128 0x20
 1919 013d 0B       		.uleb128 0xb
 1920 013e 00       		.byte	0
 1921 013f 00       		.byte	0
 1922 0140 1B       		.uleb128 0x1b
 1923 0141 2E       		.uleb128 0x2e
 1924 0142 01       		.byte	0x1
 1925 0143 3F       		.uleb128 0x3f
 1926 0144 0C       		.uleb128 0xc
 1927 0145 03       		.uleb128 0x3
 1928 0146 0E       		.uleb128 0xe
 1929 0147 3A       		.uleb128 0x3a
 1930 0148 0B       		.uleb128 0xb
 1931 0149 3B       		.uleb128 0x3b
 1932 014a 0B       		.uleb128 0xb
 1933 014b 27       		.uleb128 0x27
 1934 014c 0C       		.uleb128 0xc
 1935 014d 11       		.uleb128 0x11
 1936 014e 01       		.uleb128 0x1
 1937 014f 12       		.uleb128 0x12
 1938 0150 01       		.uleb128 0x1
 1939 0151 40       		.uleb128 0x40
 1940 0152 06       		.uleb128 0x6
 1941 0153 9742     		.uleb128 0x2117
 1942 0155 0C       		.uleb128 0xc
 1943 0156 01       		.uleb128 0x1
 1944 0157 13       		.uleb128 0x13
 1945 0158 00       		.byte	0
 1946 0159 00       		.byte	0
 1947 015a 1C       		.uleb128 0x1c
 1948 015b 1D       		.uleb128 0x1d
 1949 015c 01       		.byte	0x1
 1950 015d 31       		.uleb128 0x31
 1951 015e 13       		.uleb128 0x13
 1952 015f 11       		.uleb128 0x11
 1953 0160 01       		.uleb128 0x1
ARM GAS  /tmp/ccnWgNJH.s 			page 46


 1954 0161 12       		.uleb128 0x12
 1955 0162 01       		.uleb128 0x1
 1956 0163 58       		.uleb128 0x58
 1957 0164 0B       		.uleb128 0xb
 1958 0165 59       		.uleb128 0x59
 1959 0166 0B       		.uleb128 0xb
 1960 0167 01       		.uleb128 0x1
 1961 0168 13       		.uleb128 0x13
 1962 0169 00       		.byte	0
 1963 016a 00       		.byte	0
 1964 016b 1D       		.uleb128 0x1d
 1965 016c 1D       		.uleb128 0x1d
 1966 016d 01       		.byte	0x1
 1967 016e 31       		.uleb128 0x31
 1968 016f 13       		.uleb128 0x13
 1969 0170 11       		.uleb128 0x11
 1970 0171 01       		.uleb128 0x1
 1971 0172 12       		.uleb128 0x12
 1972 0173 01       		.uleb128 0x1
 1973 0174 58       		.uleb128 0x58
 1974 0175 0B       		.uleb128 0xb
 1975 0176 59       		.uleb128 0x59
 1976 0177 05       		.uleb128 0x5
 1977 0178 00       		.byte	0
 1978 0179 00       		.byte	0
 1979 017a 1E       		.uleb128 0x1e
 1980 017b 05       		.uleb128 0x5
 1981 017c 00       		.byte	0
 1982 017d 31       		.uleb128 0x31
 1983 017e 13       		.uleb128 0x13
 1984 017f 1C       		.uleb128 0x1c
 1985 0180 0B       		.uleb128 0xb
 1986 0181 00       		.byte	0
 1987 0182 00       		.byte	0
 1988 0183 1F       		.uleb128 0x1f
 1989 0184 898201   		.uleb128 0x4109
 1990 0187 00       		.byte	0
 1991 0188 11       		.uleb128 0x11
 1992 0189 01       		.uleb128 0x1
 1993 018a 31       		.uleb128 0x31
 1994 018b 13       		.uleb128 0x13
 1995 018c 00       		.byte	0
 1996 018d 00       		.byte	0
 1997 018e 20       		.uleb128 0x20
 1998 018f 898201   		.uleb128 0x4109
 1999 0192 00       		.byte	0
 2000 0193 11       		.uleb128 0x11
 2001 0194 01       		.uleb128 0x1
 2002 0195 9542     		.uleb128 0x2115
 2003 0197 0C       		.uleb128 0xc
 2004 0198 31       		.uleb128 0x31
 2005 0199 13       		.uleb128 0x13
 2006 019a 00       		.byte	0
 2007 019b 00       		.byte	0
 2008 019c 21       		.uleb128 0x21
 2009 019d 898201   		.uleb128 0x4109
 2010 01a0 01       		.byte	0x1
ARM GAS  /tmp/ccnWgNJH.s 			page 47


 2011 01a1 11       		.uleb128 0x11
 2012 01a2 01       		.uleb128 0x1
 2013 01a3 9542     		.uleb128 0x2115
 2014 01a5 0C       		.uleb128 0xc
 2015 01a6 31       		.uleb128 0x31
 2016 01a7 13       		.uleb128 0x13
 2017 01a8 00       		.byte	0
 2018 01a9 00       		.byte	0
 2019 01aa 22       		.uleb128 0x22
 2020 01ab 8A8201   		.uleb128 0x410a
 2021 01ae 00       		.byte	0
 2022 01af 02       		.uleb128 0x2
 2023 01b0 0A       		.uleb128 0xa
 2024 01b1 9142     		.uleb128 0x2111
 2025 01b3 0A       		.uleb128 0xa
 2026 01b4 00       		.byte	0
 2027 01b5 00       		.byte	0
 2028 01b6 23       		.uleb128 0x23
 2029 01b7 34       		.uleb128 0x34
 2030 01b8 00       		.byte	0
 2031 01b9 03       		.uleb128 0x3
 2032 01ba 0E       		.uleb128 0xe
 2033 01bb 3A       		.uleb128 0x3a
 2034 01bc 0B       		.uleb128 0xb
 2035 01bd 3B       		.uleb128 0x3b
 2036 01be 05       		.uleb128 0x5
 2037 01bf 49       		.uleb128 0x49
 2038 01c0 13       		.uleb128 0x13
 2039 01c1 3F       		.uleb128 0x3f
 2040 01c2 0C       		.uleb128 0xc
 2041 01c3 3C       		.uleb128 0x3c
 2042 01c4 0C       		.uleb128 0xc
 2043 01c5 00       		.byte	0
 2044 01c6 00       		.byte	0
 2045 01c7 24       		.uleb128 0x24
 2046 01c8 34       		.uleb128 0x34
 2047 01c9 00       		.byte	0
 2048 01ca 03       		.uleb128 0x3
 2049 01cb 08       		.uleb128 0x8
 2050 01cc 3A       		.uleb128 0x3a
 2051 01cd 0B       		.uleb128 0xb
 2052 01ce 3B       		.uleb128 0x3b
 2053 01cf 05       		.uleb128 0x5
 2054 01d0 49       		.uleb128 0x49
 2055 01d1 13       		.uleb128 0x13
 2056 01d2 3F       		.uleb128 0x3f
 2057 01d3 0C       		.uleb128 0xc
 2058 01d4 3C       		.uleb128 0x3c
 2059 01d5 0C       		.uleb128 0xc
 2060 01d6 00       		.byte	0
 2061 01d7 00       		.byte	0
 2062 01d8 25       		.uleb128 0x25
 2063 01d9 2E       		.uleb128 0x2e
 2064 01da 00       		.byte	0
 2065 01db 3F       		.uleb128 0x3f
 2066 01dc 0C       		.uleb128 0xc
 2067 01dd 03       		.uleb128 0x3
ARM GAS  /tmp/ccnWgNJH.s 			page 48


 2068 01de 0E       		.uleb128 0xe
 2069 01df 3A       		.uleb128 0x3a
 2070 01e0 0B       		.uleb128 0xb
 2071 01e1 3B       		.uleb128 0x3b
 2072 01e2 0B       		.uleb128 0xb
 2073 01e3 27       		.uleb128 0x27
 2074 01e4 0C       		.uleb128 0xc
 2075 01e5 3C       		.uleb128 0x3c
 2076 01e6 0C       		.uleb128 0xc
 2077 01e7 00       		.byte	0
 2078 01e8 00       		.byte	0
 2079 01e9 26       		.uleb128 0x26
 2080 01ea 2E       		.uleb128 0x2e
 2081 01eb 00       		.byte	0
 2082 01ec 3F       		.uleb128 0x3f
 2083 01ed 0C       		.uleb128 0xc
 2084 01ee 03       		.uleb128 0x3
 2085 01ef 0E       		.uleb128 0xe
 2086 01f0 3A       		.uleb128 0x3a
 2087 01f1 0B       		.uleb128 0xb
 2088 01f2 3B       		.uleb128 0x3b
 2089 01f3 05       		.uleb128 0x5
 2090 01f4 27       		.uleb128 0x27
 2091 01f5 0C       		.uleb128 0xc
 2092 01f6 3C       		.uleb128 0x3c
 2093 01f7 0C       		.uleb128 0xc
 2094 01f8 00       		.byte	0
 2095 01f9 00       		.byte	0
 2096 01fa 27       		.uleb128 0x27
 2097 01fb 2E       		.uleb128 0x2e
 2098 01fc 01       		.byte	0x1
 2099 01fd 3F       		.uleb128 0x3f
 2100 01fe 0C       		.uleb128 0xc
 2101 01ff 03       		.uleb128 0x3
 2102 0200 0E       		.uleb128 0xe
 2103 0201 3A       		.uleb128 0x3a
 2104 0202 0B       		.uleb128 0xb
 2105 0203 3B       		.uleb128 0x3b
 2106 0204 0B       		.uleb128 0xb
 2107 0205 27       		.uleb128 0x27
 2108 0206 0C       		.uleb128 0xc
 2109 0207 3C       		.uleb128 0x3c
 2110 0208 0C       		.uleb128 0xc
 2111 0209 00       		.byte	0
 2112 020a 00       		.byte	0
 2113 020b 00       		.byte	0
 2114              		.section	.debug_loc,"",%progbits
 2115              	.Ldebug_loc0:
 2116              	.LLST0:
 2117 0000 00000000 		.4byte	.LFB194
 2118 0004 02000000 		.4byte	.LCFI0
 2119 0008 0200     		.2byte	0x2
 2120 000a 7D       		.byte	0x7d
 2121 000b 00       		.sleb128 0
 2122 000c 02000000 		.4byte	.LCFI0
 2123 0010 20000000 		.4byte	.LFE194
 2124 0014 0200     		.2byte	0x2
ARM GAS  /tmp/ccnWgNJH.s 			page 49


 2125 0016 7D       		.byte	0x7d
 2126 0017 08       		.sleb128 8
 2127 0018 00000000 		.4byte	0
 2128 001c 00000000 		.4byte	0
 2129              	.LLST1:
 2130 0020 00000000 		.4byte	.LFB195
 2131 0024 06000000 		.4byte	.LCFI1
 2132 0028 0200     		.2byte	0x2
 2133 002a 7D       		.byte	0x7d
 2134 002b 00       		.sleb128 0
 2135 002c 06000000 		.4byte	.LCFI1
 2136 0030 3C000000 		.4byte	.LFE195
 2137 0034 0200     		.2byte	0x2
 2138 0036 7D       		.byte	0x7d
 2139 0037 08       		.sleb128 8
 2140 0038 00000000 		.4byte	0
 2141 003c 00000000 		.4byte	0
 2142              		.section	.debug_aranges,"",%progbits
 2143 0000 24000000 		.4byte	0x24
 2144 0004 0200     		.2byte	0x2
 2145 0006 00000000 		.4byte	.Ldebug_info0
 2146 000a 04       		.byte	0x4
 2147 000b 00       		.byte	0
 2148 000c 0000     		.2byte	0
 2149 000e 0000     		.2byte	0
 2150 0010 00000000 		.4byte	.LFB194
 2151 0014 20000000 		.4byte	.LFE194-.LFB194
 2152 0018 00000000 		.4byte	.LFB195
 2153 001c 3C000000 		.4byte	.LFE195-.LFB195
 2154 0020 00000000 		.4byte	0
 2155 0024 00000000 		.4byte	0
 2156              		.section	.debug_ranges,"",%progbits
 2157              	.Ldebug_ranges0:
 2158 0000 00000000 		.4byte	.LFB194
 2159 0004 20000000 		.4byte	.LFE194
 2160 0008 00000000 		.4byte	.LFB195
 2161 000c 3C000000 		.4byte	.LFE195
 2162 0010 00000000 		.4byte	0
 2163 0014 00000000 		.4byte	0
 2164              		.section	.debug_line,"",%progbits
 2165              	.Ldebug_line0:
 2166 0000 89020000 		.section	.debug_str,"MS",%progbits,1
 2166      02002802 
 2166      00000201 
 2166      FB0E0D00 
 2166      01010101 
 2167              	.LASF70:
 2168 0000 72656164 		.ascii	"ready_list_t\000"
 2168      795F6C69 
 2168      73745F74 
 2168      00
 2169              	.LASF52:
 2170 000d 44494552 		.ascii	"DIER\000"
 2170      00
 2171              	.LASF71:
 2172 0012 7264796D 		.ascii	"rdymsg\000"
 2172      736700
ARM GAS  /tmp/ccnWgNJH.s 			page 50


 2173              	.LASF50:
 2174 0019 706F7274 		.ascii	"port_intctx\000"
 2174      5F696E74 
 2174      63747800 
 2175              	.LASF92:
 2176 0025 76746C69 		.ascii	"vtlist\000"
 2176      737400
 2177              	.LASF97:
 2178 002c 706F7274 		.ascii	"port_lock\000"
 2178      5F6C6F63 
 2178      6B00
 2179              	.LASF12:
 2180 0036 6C6F6E67 		.ascii	"long long unsigned int\000"
 2180      206C6F6E 
 2180      6720756E 
 2180      7369676E 
 2180      65642069 
 2181              	.LASF72:
 2182 004d 65786974 		.ascii	"exitcode\000"
 2182      636F6465 
 2182      00
 2183              	.LASF89:
 2184 0056 76697274 		.ascii	"virtual_timers_list_t\000"
 2184      75616C5F 
 2184      74696D65 
 2184      72735F6C 
 2184      6973745F 
 2185              	.LASF105:
 2186 006c 6F73616C 		.ascii	"osalSysUnlockFromISR\000"
 2186      53797355 
 2186      6E6C6F63 
 2186      6B46726F 
 2186      6D495352 
 2187              	.LASF107:
 2188 0081 73745F6C 		.ascii	"st_lld_init\000"
 2188      6C645F69 
 2188      6E697400 
 2189              	.LASF56:
 2190 008d 42445452 		.ascii	"BDTR\000"
 2190      00
 2191              	.LASF15:
 2192 0092 705F7072 		.ascii	"p_prio\000"
 2192      696F00
 2193              	.LASF116:
 2194 0099 6E766963 		.ascii	"nvicEnableVector\000"
 2194      456E6162 
 2194      6C655665 
 2194      63746F72 
 2194      00
 2195              	.LASF53:
 2196 00aa 43434D52 		.ascii	"CCMR1\000"
 2196      3100
 2197              	.LASF54:
 2198 00b0 43434D52 		.ascii	"CCMR2\000"
 2198      3200
 2199              	.LASF58:
 2200 00b6 43434D52 		.ascii	"CCMR3\000"
ARM GAS  /tmp/ccnWgNJH.s 			page 51


 2200      3300
 2201              	.LASF1:
 2202 00bc 7369676E 		.ascii	"signed char\000"
 2202      65642063 
 2202      68617200 
 2203              	.LASF61:
 2204 00c8 73746D33 		.ascii	"stm32_tim_t\000"
 2204      325F7469 
 2204      6D5F7400 
 2205              	.LASF77:
 2206 00d4 6D5F7175 		.ascii	"m_queue\000"
 2206      65756500 
 2207              	.LASF106:
 2208 00dc 56656374 		.ascii	"VectorB0\000"
 2208      6F724230 
 2208      00
 2209              	.LASF98:
 2210 00e5 706F7274 		.ascii	"port_unlock\000"
 2210      5F756E6C 
 2210      6F636B00 
 2211              	.LASF111:
 2212 00f1 474E5520 		.ascii	"GNU C 4.7.4 20130913 (release) [ARM/embedded-4_7-br"
 2212      4320342E 
 2212      372E3420 
 2212      32303133 
 2212      30393133 
 2213 0124 616E6368 		.ascii	"anch revision 202601]\000"
 2213      20726576 
 2213      6973696F 
 2213      6E203230 
 2213      32363031 
 2214              	.LASF90:
 2215 013a 63685F73 		.ascii	"ch_system\000"
 2215      79737465 
 2215      6D00
 2216              	.LASF8:
 2217 0144 6C6F6E67 		.ascii	"long int\000"
 2217      20696E74 
 2217      00
 2218              	.LASF39:
 2219 014d 41504232 		.ascii	"APB2RSTR\000"
 2219      52535452 
 2219      00
 2220              	.LASF32:
 2221 0156 74737461 		.ascii	"tstate_t\000"
 2221      74655F74 
 2221      00
 2222              	.LASF48:
 2223 015f 74687265 		.ascii	"thread\000"
 2223      616400
 2224              	.LASF22:
 2225 0166 705F7265 		.ascii	"p_refs\000"
 2225      667300
 2226              	.LASF11:
 2227 016d 6C6F6E67 		.ascii	"long long int\000"
 2227      206C6F6E 
 2227      6720696E 
ARM GAS  /tmp/ccnWgNJH.s 			page 52


 2227      7400
 2228              	.LASF5:
 2229 017b 75696E74 		.ascii	"uint16_t\000"
 2229      31365F74 
 2229      00
 2230              	.LASF17:
 2231 0184 705F6E65 		.ascii	"p_newer\000"
 2231      77657200 
 2232              	.LASF6:
 2233 018c 73686F72 		.ascii	"short unsigned int\000"
 2233      7420756E 
 2233      7369676E 
 2233      65642069 
 2233      6E7400
 2234              	.LASF67:
 2235 019f 725F6E65 		.ascii	"r_newer\000"
 2235      77657200 
 2236              	.LASF29:
 2237 01a7 705F6D70 		.ascii	"p_mpool\000"
 2237      6F6F6C00 
 2238              	.LASF47:
 2239 01af 72656761 		.ascii	"regarm_t\000"
 2239      726D5F74 
 2239      00
 2240              	.LASF84:
 2241 01b8 76745F70 		.ascii	"vt_prev\000"
 2241      72657600 
 2242              	.LASF103:
 2243 01c0 6F73616C 		.ascii	"osalSysLockFromISR\000"
 2243      5379734C 
 2243      6F636B46 
 2243      726F6D49 
 2243      535200
 2244              	.LASF95:
 2245 01d3 6D757465 		.ascii	"mutex_t\000"
 2245      785F7400 
 2246              	.LASF115:
 2247 01db 76616C75 		.ascii	"value\000"
 2247      6500
 2248              	.LASF0:
 2249 01e1 756E7369 		.ascii	"unsigned int\000"
 2249      676E6564 
 2249      20696E74 
 2249      00
 2250              	.LASF83:
 2251 01ee 76745F6E 		.ascii	"vt_next\000"
 2251      65787400 
 2252              	.LASF24:
 2253 01f6 705F6D73 		.ascii	"p_msgqueue\000"
 2253      67717565 
 2253      756500
 2254              	.LASF45:
 2255 0201 5243435F 		.ascii	"RCC_TypeDef\000"
 2255      54797065 
 2255      44656600 
 2256              	.LASF51:
 2257 020d 534D4352 		.ascii	"SMCR\000"
ARM GAS  /tmp/ccnWgNJH.s 			page 53


 2257      00
 2258              	.LASF35:
 2259 0212 6D73675F 		.ascii	"msg_t\000"
 2259      7400
 2260              	.LASF28:
 2261 0218 705F7265 		.ascii	"p_realprio\000"
 2261      616C7072 
 2261      696F00
 2262              	.LASF112:
 2263 0223 2E2E2F2E 		.ascii	"../../../os/hal/ports/STM32/LLD/TIMv1/st_lld.c\000"
 2263      2E2F2E2E 
 2263      2F6F732F 
 2263      68616C2F 
 2263      706F7274 
 2264              	.LASF110:
 2265 0252 5F706F72 		.ascii	"_port_irq_epilogue\000"
 2265      745F6972 
 2265      715F6570 
 2265      696C6F67 
 2265      756500
 2266              	.LASF73:
 2267 0265 77746F62 		.ascii	"wtobjp\000"
 2267      6A7000
 2268              	.LASF36:
 2269 026c 6576656E 		.ascii	"eventmask_t\000"
 2269      746D6173 
 2269      6B5F7400 
 2270              	.LASF104:
 2271 0278 6F73616C 		.ascii	"osalOsTimerHandlerI\000"
 2271      4F735469 
 2271      6D657248 
 2271      616E646C 
 2271      65724900 
 2272              	.LASF63:
 2273 028c 74687265 		.ascii	"threads_list_t\000"
 2273      6164735F 
 2273      6C697374 
 2273      5F7400
 2274              	.LASF23:
 2275 029b 705F7761 		.ascii	"p_waiting\000"
 2275      6974696E 
 2275      6700
 2276              	.LASF37:
 2277 02a5 73697A65 		.ascii	"sizetype\000"
 2277      74797065 
 2277      00
 2278              	.LASF13:
 2279 02ae 705F6E65 		.ascii	"p_next\000"
 2279      787400
 2280              	.LASF88:
 2281 02b5 76745F6C 		.ascii	"vt_lasttime\000"
 2281      61737474 
 2281      696D6500 
 2282              	.LASF18:
 2283 02c1 705F6F6C 		.ascii	"p_older\000"
 2283      64657200 
 2284              	.LASF66:
ARM GAS  /tmp/ccnWgNJH.s 			page 54


 2285 02c9 725F6374 		.ascii	"r_ctx\000"
 2285      7800
 2286              	.LASF69:
 2287 02cf 725F6375 		.ascii	"r_current\000"
 2287      7272656E 
 2287      7400
 2288              	.LASF40:
 2289 02d9 41504231 		.ascii	"APB1RSTR\000"
 2289      52535452 
 2289      00
 2290              	.LASF33:
 2291 02e2 74726566 		.ascii	"trefs_t\000"
 2291      735F7400 
 2292              	.LASF81:
 2293 02ea 76697274 		.ascii	"virtual_timer_t\000"
 2293      75616C5F 
 2293      74696D65 
 2293      725F7400 
 2294              	.LASF14:
 2295 02fa 705F7072 		.ascii	"p_prev\000"
 2295      657600
 2296              	.LASF34:
 2297 0301 74707269 		.ascii	"tprio_t\000"
 2297      6F5F7400 
 2298              	.LASF102:
 2299 0309 63685379 		.ascii	"chSysUnlockFromISR\000"
 2299      73556E6C 
 2299      6F636B46 
 2299      726F6D49 
 2299      535200
 2300              	.LASF76:
 2301 031c 6D757465 		.ascii	"mutex\000"
 2301      7800
 2302              	.LASF96:
 2303 0322 5F426F6F 		.ascii	"_Bool\000"
 2303      6C00
 2304              	.LASF7:
 2305 0328 696E7433 		.ascii	"int32_t\000"
 2305      325F7400 
 2306              	.LASF2:
 2307 0330 756E7369 		.ascii	"unsigned char\000"
 2307      676E6564 
 2307      20636861 
 2307      7200
 2308              	.LASF108:
 2309 033e 49544D5F 		.ascii	"ITM_RxBuffer\000"
 2309      52784275 
 2309      66666572 
 2309      00
 2310              	.LASF27:
 2311 034b 705F6D74 		.ascii	"p_mtxlist\000"
 2311      786C6973 
 2311      7400
 2312              	.LASF3:
 2313 0355 73686F72 		.ascii	"short int\000"
 2313      7420696E 
 2313      7400
ARM GAS  /tmp/ccnWgNJH.s 			page 55


 2314              	.LASF20:
 2315 035f 705F7374 		.ascii	"p_state\000"
 2315      61746500 
 2316              	.LASF65:
 2317 0367 725F7072 		.ascii	"r_prio\000"
 2317      696F00
 2318              	.LASF74:
 2319 036e 65776D61 		.ascii	"ewmask\000"
 2319      736B00
 2320              	.LASF21:
 2321 0375 705F666C 		.ascii	"p_flags\000"
 2321      61677300 
 2322              	.LASF42:
 2323 037d 41504232 		.ascii	"APB2ENR\000"
 2323      454E5200 
 2324              	.LASF26:
 2325 0385 705F6570 		.ascii	"p_epending\000"
 2325      656E6469 
 2325      6E6700
 2326              	.LASF9:
 2327 0390 75696E74 		.ascii	"uint32_t\000"
 2327      33325F74 
 2327      00
 2328              	.LASF64:
 2329 0399 725F7175 		.ascii	"r_queue\000"
 2329      65756500 
 2330              	.LASF85:
 2331 03a1 76745F64 		.ascii	"vt_delta\000"
 2331      656C7461 
 2331      00
 2332              	.LASF10:
 2333 03aa 6C6F6E67 		.ascii	"long unsigned int\000"
 2333      20756E73 
 2333      69676E65 
 2333      6420696E 
 2333      7400
 2334              	.LASF75:
 2335 03bc 63686172 		.ascii	"char\000"
 2335      00
 2336              	.LASF57:
 2337 03c1 444D4152 		.ascii	"DMAR\000"
 2337      00
 2338              	.LASF100:
 2339 03c6 706F7274 		.ascii	"port_unlock_from_isr\000"
 2339      5F756E6C 
 2339      6F636B5F 
 2339      66726F6D 
 2339      5F697372 
 2340              	.LASF55:
 2341 03db 43434552 		.ascii	"CCER\000"
 2341      00
 2342              	.LASF79:
 2343 03e0 6D5F6E65 		.ascii	"m_next\000"
 2343      787400
 2344              	.LASF46:
 2345 03e7 73797374 		.ascii	"systime_t\000"
 2345      696D655F 
ARM GAS  /tmp/ccnWgNJH.s 			page 56


 2345      7400
 2346              	.LASF109:
 2347 03f1 63685379 		.ascii	"chSysTimerHandlerI\000"
 2347      7354696D 
 2347      65724861 
 2347      6E646C65 
 2347      724900
 2348              	.LASF80:
 2349 0404 76746675 		.ascii	"vtfunc_t\000"
 2349      6E635F74 
 2349      00
 2350              	.LASF114:
 2351 040d 5F5F7365 		.ascii	"__set_BASEPRI\000"
 2351      745F4241 
 2351      53455052 
 2351      4900
 2352              	.LASF113:
 2353 041b 2F686F6D 		.ascii	"/home/joerg/repos/chibios-projects/ChibiOS-RT/demos"
 2353      652F6A6F 
 2353      6572672F 
 2353      7265706F 
 2353      732F6368 
 2354 044e 2F53544D 		.ascii	"/STM32/RT-STM32F103-OLIMEX_STM32_P103\000"
 2354      33322F52 
 2354      542D5354 
 2354      4D333246 
 2354      3130332D 
 2355              	.LASF43:
 2356 0474 41504231 		.ascii	"APB1ENR\000"
 2356      454E5200 
 2357              	.LASF49:
 2358 047c 636F6E74 		.ascii	"context\000"
 2358      65787400 
 2359              	.LASF68:
 2360 0484 725F6F6C 		.ascii	"r_older\000"
 2360      64657200 
 2361              	.LASF94:
 2362 048c 63685F73 		.ascii	"ch_system_t\000"
 2362      79737465 
 2362      6D5F7400 
 2363              	.LASF30:
 2364 0498 7274636E 		.ascii	"rtcnt_t\000"
 2364      745F7400 
 2365              	.LASF99:
 2366 04a0 706F7274 		.ascii	"port_lock_from_isr\000"
 2366      5F6C6F63 
 2366      6B5F6672 
 2366      6F6D5F69 
 2366      737200
 2367              	.LASF82:
 2368 04b3 76697274 		.ascii	"virtual_timer\000"
 2368      75616C5F 
 2368      74696D65 
 2368      7200
 2369              	.LASF87:
 2370 04c1 76745F70 		.ascii	"vt_par\000"
 2370      617200
ARM GAS  /tmp/ccnWgNJH.s 			page 57


 2371              	.LASF93:
 2372 04c8 6D656173 		.ascii	"measurement_offset\000"
 2372      7572656D 
 2372      656E745F 
 2372      6F666673 
 2372      657400
 2373              	.LASF62:
 2374 04db 74687265 		.ascii	"threads_queue_t\000"
 2374      6164735F 
 2374      71756575 
 2374      655F7400 
 2375              	.LASF59:
 2376 04eb 43435235 		.ascii	"CCR5\000"
 2376      00
 2377              	.LASF60:
 2378 04f0 43435236 		.ascii	"CCR6\000"
 2378      00
 2379              	.LASF44:
 2380 04f5 42444352 		.ascii	"BDCR\000"
 2380      00
 2381              	.LASF91:
 2382 04fa 726C6973 		.ascii	"rlist\000"
 2382      7400
 2383              	.LASF4:
 2384 0500 75696E74 		.ascii	"uint8_t\000"
 2384      385F7400 
 2385              	.LASF101:
 2386 0508 63685379 		.ascii	"chSysLockFromISR\000"
 2386      734C6F63 
 2386      6B46726F 
 2386      6D495352 
 2386      00
 2387              	.LASF19:
 2388 0519 705F6E61 		.ascii	"p_name\000"
 2388      6D6500
 2389              	.LASF38:
 2390 0520 43464752 		.ascii	"CFGR\000"
 2390      00
 2391              	.LASF31:
 2392 0525 746D6F64 		.ascii	"tmode_t\000"
 2392      655F7400 
 2393              	.LASF25:
 2394 052d 705F6D73 		.ascii	"p_msg\000"
 2394      6700
 2395              	.LASF78:
 2396 0533 6D5F6F77 		.ascii	"m_owner\000"
 2396      6E657200 
 2397              	.LASF16:
 2398 053b 705F6374 		.ascii	"p_ctx\000"
 2398      7800
 2399              	.LASF86:
 2400 0541 76745F66 		.ascii	"vt_func\000"
 2400      756E6300 
 2401              	.LASF41:
 2402 0549 41484245 		.ascii	"AHBENR\000"
 2402      4E5200
 2403              		.comm	__gnu_lto_v1,1,1
ARM GAS  /tmp/ccnWgNJH.s 			page 58


 2404              		.ident	"GCC: (GNU Tools for ARM Embedded Processors) 4.7.4 20130913 (release) [ARM/embedded-4_7-br
ARM GAS  /tmp/ccnWgNJH.s 			page 59


DEFINED SYMBOLS
                            *ABS*:00000000 st_lld.c
     /tmp/ccnWgNJH.s:212    .text.VectorB0:00000000 $t
     /tmp/ccnWgNJH.s:218    .text.VectorB0:00000000 VectorB0
     /tmp/ccnWgNJH.s:288    .text.st_lld_init:00000000 $t
     /tmp/ccnWgNJH.s:294    .text.st_lld_init:00000000 st_lld_init
                            *COM*:00000001 __gnu_lto_v1
                     .debug_frame:00000010 $d

UNDEFINED SYMBOLS
chSysTimerHandlerI
_port_irq_epilogue
nvicEnableVector
