ARM GAS  /tmp/ccDAwPgc.s 			page 1


   1              		.syntax unified
   2              		.cpu cortex-m3
   3              		.fpu softvfp
   4              		.eabi_attribute 20, 1
   5              		.eabi_attribute 21, 1
   6              		.eabi_attribute 23, 3
   7              		.eabi_attribute 24, 1
   8              		.eabi_attribute 25, 1
   9              		.eabi_attribute 26, 1
  10              		.eabi_attribute 30, 2
  11              		.eabi_attribute 34, 1
  12              		.eabi_attribute 18, 4
  13              		.thumb
  14              		.file	"testmsg.c"
  15              		.text
  16              	.Ltext0:
  17              		.section	.gnu.lto_.jmpfuncs.42bbe761910aa893,"",%progbits
  18 0000 789C6362 		.ascii	"x\234cb`d`g\300\016z\201X\021\210\231\200\210I\222!"
  18      60646067 
  18      C00E7A81 
  18      58118899 
  18      80884992 
  19 0015 959101A8 		.ascii	"\225\221\001\250\230\251\212\341g\203D*##\243\034\003"
  19      98A98AE1 
  19      6783442A 
  19      2323A31C 
  19      03
  20 0026 E3DC8619 		.ascii	"\343\334\206\031\016\251\214L\014\267v<\006J\202d\321"
  20      0EA98C4C 
  20      0CB7763C 
  20      064A8264 
  20      D1
  21 0037 485606A8 		.ascii	"HV\006\250\306\023 C@Z9R\031\231\031\343\031\031\256"
  21      C6132043 
  21      405A3952 
  21      199919E3 
  21      1919AE
  22 004a CC5C0652 		.ascii	"\314\\\006R\300\300\310\310\304\002\244J\300\352X\030"
  22      C0C0C8C8 
  22      C402A44A 
  22      C0EA5818 
  23 005a 9C1950B8 		.ascii	"\234\031P\270N\250\\G\006\006\026G'g\006i==}\010*I-"
  23      4EA85C47 
  23      06061647 
  23      27670669 
  23      3D3D7D08 
  24 0071 2ED12F2A 		.ascii	".\321/*\001\323\271\305\351z\311\014\000\321\212\033"
  24      01D3B9C5 
  24      E97AC90C 
  24      00D18A1B 
  25 0081 C2       		.ascii	"\302"
  26              		.text
  27              		.section	.gnu.lto_.inline.42bbe761910aa893,"",%progbits
  28 0000 789C6362 		.ascii	"x\234cb`d\340e\300\016z\2414\023\003\203V\017##\003"
  28      6064E065 
  28      C00E7AA1 
  28      34130383 
ARM GAS  /tmp/ccDAwPgc.s 			page 2


  28      560F2323 
  29 0015 9340432D 		.ascii	"\223@C-\003\333\002y&\006f\036\260(\0237\003\003\343"
  29      03DB0279 
  29      2606661E 
  29      B0281337 
  29      0303E3
  30 0028 043F306F 		.ascii	"\004?0o\202\337\004?\020\237\004Av\001\006\006\326\011"
  30      82DF043F 
  30      109F0441 
  30      76010606 
  30      D609
  31 003a 7E0C60C4 		.ascii	"~\014`\304\310\300\243\306\0102\024\311\006\240\004"
  31      C8C0A3C6 
  31      083214C9 
  31      06A004
  32 0049 3ACD0000 		.ascii	":\315\000\000.\313\022\021"
  32      2ECB1211 
  33              		.text
  34              		.section	.gnu.lto_.pureconst.42bbe761910aa893,"",%progbits
  35 0000 789C6362 		.ascii	"x\234cb`d`f```e\200\000&\006IF\011\000\0015\000@"
  35      60646066 
  35      60606065 
  35      80002606 
  35      49460900 
  36              		.text
  37              		.section	.gnu.lto_msg1_execute.42bbe761910aa893,"",%progbits
  38 0000 789CAD55 		.ascii	"x\234\255U\317O\023A\024~ofwii\255\370\003-`K\251\034"
  38      CF4F1341 
  38      147E6F66 
  38      776969AD 
  38      F8032D60 
  39 0017 8C26EDBF 		.ascii	"\214&\355\277\340\217\213\0361\361bR\210)\253\220\210"
  39      E08F8B1E 
  39      31F16252 
  39      8829AB90 
  39      88
  40 0028 1A5A3D78 		.ascii	"\032Z=x\260K\361\246\00741\266%$\"J\200D\343\211\243"
  40      B04BF1A6 
  40      073431B6 
  40      2524224A 
  40      8044E389 
  41 003d 1A25482A 		.ascii	"\032%H*\341\304\311p \201\030M<x\360b\202\3017\263\263"
  41      E1C4C970 
  41      2081184D 
  41      3C78F062 
  41      82C137B3 
  42 0052 A5A56B5B 		.ascii	"\245\245k[\023\266-\337\314\356\373\336\373\3367\263"
  42      13B62DDF 
  42      CCEEFBDE 
  42      FBDE37B3 
  43 0062 0303A44F 		.ascii	"\003\003\244O\365\325F\277y\017\300\020!r@6\266\002"
  43      F5D546BF 
  43      790FC010 
  43      21724036 
  43      B602
  44 0074 30126188 		.ascii	"0\022a\210b@\224\014\303\314%\311\364Da\322\262\036"
  44      6240940C 
ARM GAS  /tmp/ccDAwPgc.s 			page 3


  44      C3CC25C9 
  44      F44461D2 
  44      B21E
  45 0086 8F7DCC9E 		.ascii	"\217}\314\236\317\256oow\232\342n\037B\261\260\321\335"
  45      CFAE6F6F 
  45      779AE26E 
  45      1F42B1B0 
  45      D1DD
  46 0098 06262244 		.ascii	"\006&\"D@ \003\255\262F\025\217K\036\374\037Ik\230\364"
  46      402003AD 
  46      B246158F 
  46      4B1EFC1F 
  46      496B98F4 
  47 00ac F34336A8 		.ascii	"\363C6\250H\272$m\345\347\320\346y\024\017]\213\215"
  47      48BA246D 
  47      E5E7D0E6 
  47      79140F5D 
  47      8B8D
  48 00be 5AA5620C 		.ascii	"Z\245b\014\302(\250\233\271;\365+\216\2251\015\006]"
  48      C228A89B 
  48      B93BF52B 
  48      8E95310D 
  48      065D
  49 00d0 92F92377 		.ascii	"\222\371#w\265>\263P\326`\223\324\272\326H\301B\225"
  49      B53EB350 
  49      D66093D4 
  49      BAD648C1 
  49      4295
  50 00e2 2FF35F9E 		.ascii	"/\363_\236\376a5\211\305\007S\335\313\343\306;\366~"
  50      FE613589 
  50      C50753DD 
  50      CBE3C63B 
  50      F67E
  51 00f4 7D3B0370 		.ascii	"};\003p\002!\201\3170\012\234p\222P'|Nh\020\276 \364"
  51      022181CF 
  51      300A9C70 
  51      9250277C 
  51      4E6810BE 
  52 010a 104E117A 		.ascii	"\020N\021z\325\334\247\346~5\017\250y\210p\2260L8C\030"
  52      D5DCA7E6 
  52      7E350FA8 
  52      79887096 
  52      304C3843 
  53 011f 219C26EC 		.ascii	"!\234&\354R\030UH\227\016\367-\253\205\331|\373n\237"
  53      52185548 
  53      970EF72D 
  53      AB85D97C 
  53      FB6E9F
  54 0132 5A891E81 		.ascii	"Z\211\036\201b\313]$\345b\300\213\220\355]\315OS\364"
  54      62CB5D24 
  54      E562C08B 
  54      90ED5DCD 
  54      4F53F4
  55 0145 1C2D6312 		.ascii	"\034-c\0221\016\257\255\026\023=Z\001\362#4\360\262"
  55      310EAFAD 
  55      16133D5A 
  55      01F22334 
ARM GAS  /tmp/ccDAwPgc.s 			page 4


  55      F0B2
  56 0157 BBF0DB0A 		.ascii	"\273\360\333\012\232\330\214\203\366\346\026}7\313]"
  56      9AD88C83 
  56      F6E6167D 
  56      37CB5D
  57 0166 6B8F7D95 		.ascii	"k\217}\225\006@\366\362|\361I\310V\001\256`\027s\273"
  57      0640F6F2 
  57      7CF149C8 
  57      5601AE60 
  57      1773BB
  58 0179 92183A05 		.ascii	"\222\030:\005'\311n.\301\317I\005\232\270O\212\360\230"
  58      27C96E2E 
  58      C1CF4905 
  58      9AB84F8A 
  58      F098
  59 018b 182011E8 		.ascii	"\030 \021\350\024\016(\021\275\342\317\022\227#\032"
  59      140E2811 
  59      BDE2CF12 
  59      97231A
  60 019a CEE82521 		.ascii	"\316\350%![\237\003\011|#\033\013\313\204M*\341~F\225"
  60      5B9F0309 
  60      7C231B0B 
  60      CB844D2A 
  60      E17E4695 
  61 01ae 440EAD94 		.ascii	"D\016\255\224\203\014\3115)\346hF\274n\216'\234\330"
  61      830CC935 
  61      29E66846 
  61      BC6E8E27 
  61      9CD8
  62 01c0 2296CBC8 		.ascii	"\"\226\313\310e\010\202\363DW\262Z\260\317\226%:\220"
  62      650882F3 
  62      4457B25A 
  62      B0CF9625 
  62      3A90
  63 01d2 2FC10158 		.ascii	"/\301\001Xb\202\252\002\016R\000S\015\232xH\252\273"
  63      6282AA02 
  63      0E520053 
  63      0D9A7848 
  63      AABB
  64 01e4 F08DDB79 		.ascii	"\360\215\333y\342\020#!\232\255\354\260\323j+\265\312"
  64      E2102321 
  64      9AADECB0 
  64      D36A2BB5 
  64      CA
  65 01f5 9C565B5D 		.ascii	"\234V[]\374\236\3412\237.$\361\315|\273#\312P\011\216"
  65      FC9EE132 
  65      9F2E24F1 
  65      CD7CBB23 
  65      CA50098E 
  66 0209 504D6E8B 		.ascii	"PMn\2132\361(\300\"0%\334\336\032\024Y~\263\372\355"
  66      32F128C0 
  66      223025DC 
  66      DE1A1459 
  66      7EB3FAED 
  67 021d 4CE04B12 		.ascii	"L\340K\022\335\300\333\"3\011\277\277>|\364\211W\254"
  67      DDC0DB22 
  67      3309BFBF 
ARM GAS  /tmp/ccDAwPgc.s 			page 5


  67      3E7CF489 
  67      57AC
  68 022f 3526F0AD 		.ascii	"5&\360\255\334\206\225+\236\304\210\\\017\243l=\214"
  68      DC86952B 
  68      9EC4885C 
  68      0FA36C3D 
  68      8C
  69 0240 CAF5E06A 		.ascii	"\312\365\340jM\245\306\342\304\006w\264\253mN]\353\277"
  69      4DA5C6E2 
  69      C40677B4 
  69      AB6D4E5D 
  69      EBBF
  70 0252 F2F79CCC 		.ascii	"\362\367\234\314\252\351 5\2559+aP\031\223\226Ch\373"
  70      AAE92035 
  70      AD392B61 
  70      50199396 
  70      4368FB
  71 0265 CEC5F9E4 		.ascii	"\316\305\371\344x\344\241'\"\203\006\273\370\355\304"
  71      78E4A127 
  71      228306BB 
  71      F8EDC4
  72 0274 D71D3ECD 		.ascii	"\327\035>\315;\244\273\013\205\222\273\336\206\335\365"
  72      3BA4BB0B 
  72      8592BBDE 
  72      86DDF5
  73 0283 EE99BBDE 		.ascii	"\356\231\273\336\032\356.\272\272\333U\345\256\267\226"
  73      1AEE2EBA 
  73      BADB55E5 
  73      AEB796
  74 0292 BBB3AEEE 		.ascii	"\273\263\256\356\256\026j\272\353\2452;\356\256\025"
  74      AE166ABA 
  74      EBA5323B 
  74      EEAE15
  75 02a1 76DCF5D1 		.ascii	"v\334\365\321\223\372\356\372\034w7w\334\3657\354\256"
  75      93FAEEFA 
  75      1C773777 
  75      DCF537EC 
  75      AE
  76 02b2 7FCFDCF5 		.ascii	"\177\317\334\365\327pw\305\325\335h\225\273\376Z\356"
  76      D77077C5 
  76      D5DD6895 
  76      BBFE5AEE 
  77 02c2 BE72DFBB 		.ascii	"\276r\337\273\265\335\365S\231\262\275[\346n )\222\324"
  77      B5DDF553 
  77      99B2BD5B 
  77      E66E2029 
  77      92D4
  78 02d4 7337A0DC 		.ascii	"s7\240\334\325\027\306\003\273\342\216Q\234a\307\331"
  78      D517C603 
  78      BBE28E51 
  78      9C61C7D9 
  79 02e4 4715823A 		.ascii	"G\025\202:\343C\030\206\301\011+w\332\244\201m~'\300"
  79      E3431886 
  79      C1092B77 
  79      DAA4816D 
  79      7E27C0
  80 02f7 0AE02E13 		.ascii	"\012\340.\023z\304aG\377>\304\221\326\021\213\305\355"
ARM GAS  /tmp/ccDAwPgc.s 			page 6


  80      7AC46147 
  80      FF3EC491 
  80      D6118BC5 
  80      ED
  81 0308 6FDA4CA5 		.ascii	"o\332L\245\343\303i\211C\251k\261$\260\364-N\243\343"
  81      E3C36989 
  81      43A96BB1 
  81      24B0F42D 
  81      4EA3E3
  82 031b A5909B29 		.ascii	"\245\220\233)\0210x#y\375v\277\031O\016\244\007\206"
  82      11307823 
  82      79FD76BF 
  82      194F0EA4 
  82      0786
  83 032d CD2BFDA9 		.ascii	"\315+\375\251\330\000t\3763F\244\032\000\355\314\331"
  83      D80074FE 
  83      3346A41A 
  83      00EDCCD9 
  84 033d 73F017DF 		.ascii	"s\360\027\337\344\302\020"
  84      E4C210
  85              		.text
  86              		.section	.gnu.lto_thread.42bbe761910aa893,"",%progbits
  87 0000 789C6362 		.ascii	"x\234cb`\004BL \011\304\312@\011y \315\310\314\300\310"
  87      6004424C 
  87      2009C4CA 
  87      40097920 
  87      CDC8CCC0 
  88 0015 34E11C03 		.ascii	"4\341\034\003C\243\002\023##\210\001\324R\317\304X\037"
  88      43A30213 
  88      23238801 
  88      D452CFC4 
  88      581F
  89 0027 0AD179EA 		.ascii	"\012\321y\352\367/\30633\330\3663\035x\360\277^\205"
  89      F72FC633 
  89      33D8F633 
  89      1D78F0BF 
  89      5E85
  90 0039 617143C3 		.ascii	"aqC\303\244\011\315\015\036\251\214\014L\014r\214\014"
  90      A409CD0D 
  90      1EA98C0C 
  90      4C0C728C 
  90      0C
  91 004a F18C0C77 		.ascii	"\361\214\014w\276\363I2\244222(0\200h&\006\026\220>"
  91      BEF34932 
  91      A4323232 
  91      28308068 
  91      26061690 
  92 005f A0020676 		.ascii	"\240\002\006vF\306X\306\005\214* >+CKC\203\000H=\030"
  92      46C658C6 
  92      058C2A20 
  92      3E2B434B 
  92      43830048 
  93 0075 04826890 		.ascii	"\004\202h\220mA@\015 \006\363\031\006\3267\323\331c"
  93      6D41400D 
  93      2006F319 
  93      06D637D3 
  93      D963
ARM GAS  /tmp/ccDAwPgc.s 			page 7


  94 0087 191731B2 		.ascii	"\031\0271\262\002\245\252\030~6p\244223\30632B\264$"
  94      02A5AA18 
  94      7E3670A4 
  94      323233C6 
  94      333242B4 
  95 009c 3332828C 		.ascii	"32\202\214gap\004\222@%@\365_\210Q\356\004W\376\207"
  95      67617004 
  95      92402540 
  95      F55F8851 
  95      EE0457FE 
  96 00b1 18E5CE10 		.ascii	"\030\345\316\020\345\347\030\030\217\314\340\203\250"
  96      E5E71818 
  96      8FCCE083 
  96      A8
  97 00be 8748C040 		.ascii	"\207H\300@ H\007\320\301@g3H\353\351\351CPIjq\211~Q"
  97      204807D0 
  97      C1406733 
  97      48EBE9E9 
  97      4350496A 
  98 00d6 0998CE2D 		.ascii	"\011\230\316-N\327Kf`,\000\000R\335@\233"
  98      4ED74B66 
  98      602C0000 
  98      52DD409B 
  99              		.text
 100              		.section	.gnu.lto_.cgraph.42bbe761910aa893,"",%progbits
 101 0000 789C3D8E 		.ascii	"x\234=\216;\012\002A\020\005\337\233\331\3171<\233'"
 101      3B0A0241 
 101      1005DF9B 
 101      D9CF313C 
 101      9B27
 102 0012 E9850545 		.ascii	"\351\205\005E\027\324\003\230-\032\210\037<\303\344"
 102      17D40398 
 102      2D1A881F 
 102      3CC3E4
 103 0021 7B0203C5 		.ascii	"{\002\003\305\3243\210=C\333\235\024U\301\243\003\210"
 103      D433883D 
 103      43DB9D14 
 103      55C1A303 
 103      88
 104 0032 08E001BB 		.ascii	"\010\340\001\273p\244\020\273\011\"\373\325<\034(p\343"
 104      70A410BB 
 104      0922FBD5 
 104      3C1C2870 
 104      E3
 105 0043 8D128A75 		.ascii	"\215\022\212u\035y\245D\227\013\245r9Sj\227\023\245"
 105      1D79A544 
 105      970BA572 
 105      39536A97 
 105      13A5
 106 0055 71B953DA 		.ascii	"q\271S\332\277D4\350__e\215TX\341\275\370\314\242>4"
 106      BF4434E8 
 106      5F5F658D 
 106      5458E1BD 
 106      F8CCA23E 
 107 006a 2E33B517 		.ascii	".3\265\027j_[\037\254\017\3267\326\267\231\001)\223"
 107      6A5F5B1F 
 107      AC0FD637 
ARM GAS  /tmp/ccDAwPgc.s 			page 8


 107      D6B79901 
 107      2993
 108 007c 2DFAA7EE 		.ascii	"-\372\247\356)GcR\342\007\274\234Eu"
 108      29476352 
 108      E207BC9C 
 108      4575
 109              		.text
 110              		.section	.gnu.lto_.vars.42bbe761910aa893,"",%progbits
 111 0000 789C25C4 		.ascii	"x\234%\304\301\015\000 \010\004\301=\220:,\225r\324"
 111      C10D0020 
 111      0804C13D 
 111      903A2C95 
 111      72D4
 112 0012 F8B14449 		.ascii	"\370\261DI\230\307\030\302\201I\213#H\236T_Y\275\345"
 112      98C718C2 
 112      81498B23 
 112      489E545F 
 112      59BDE5
 113 0025 912C8DFA 		.ascii	"\221,\215\372\003f\\\006\022"
 113      03665C06 
 113      12
 114              		.text
 115              		.section	.gnu.lto_.refs.42bbe761910aa893,"",%progbits
 116 0000 789C25C7 		.ascii	"x\234%\307\301\015\0000\014\302@\023\350\036\335\177"
 116      C10D0030 
 116      0CC24013 
 116      E81EDD7F 
 117 0010 CA44C2F7 		.ascii	"\312D\302\367\362 \014|Z\356\245\310C\374R\027\305\002"
 117      F2200C7C 
 117      5AEEA5C8 
 117      43FC5217 
 117      C502
 118 0022 0B82007B 		.ascii	"\013\202\000{"
 119              		.text
 120              		.section	.gnu.lto_.statics.42bbe761910aa893,"",%progbits
 121 0000 789C6362 		.ascii	"x\234cb`d`b\300\016@\342\214\020&\000\000\375\000\011"
 121      60646062 
 121      C00E40E2 
 121      8C102600 
 121      00FD0009 
 122              		.text
 123              		.section	.gnu.lto_.decls.42bbe761910aa893,"",%progbits
 124 0000 789CAD5B 		.ascii	"x\234\255[\177p\024\325\035\177o7w\227\020L\000\253"
 124      7F7014D5 
 124      1D7F6F37 
 124      7797104C 
 124      00AB
 125 0012 13FC456C 		.ascii	"\023\374El\245\203\216\344@\250\300\264:\264tF\354\230"
 125      A5838EE4 
 125      40A8C0B4 
 125      3AB47446 
 125      EC98
 126 0024 DA513B9D 		.ascii	"\332Q;\235\351\314\365z\\\226\344jrw\356m \370G\347"
 126      E9CCF57A 
 126      5C96E46A 
 126      7277EE6D 
 126      20F847E7 
ARM GAS  /tmp/ccDAwPgc.s 			page 9


 127 0038 007FE02F 		.ascii	"\000\177\340/\032\260\216)?\003\012\001\025\201\010"
 127      1AB08E29 
 127      3F030A01 
 127      158108
 128 0047 861F8251 		.ascii	"\206\037\202Qb\020\010\277l\370\021\215\2106Z\220T\021"
 128      621008BF 
 128      6CF8118D 
 128      88365A90 
 128      5411
 129 0059 D2803448 		.ascii	"\322\2004H\277\357\355\356\333\267{\273\267w\011;y\273"
 129      BFEFEDEE 
 129      DBB77BBB 
 129      B777093B 
 129      79BB
 130 006b 7BEFDEFB 		.ascii	"{\357\336\373|\177\177\337w\337^\004\204\0219\236\200"
 130      7C7F7FDF 
 130      77DF5E04 
 130      8411399E 
 130      80
 131 007c CB15385A 		.ascii	"\313\0258Z\306!4\307\203\220\010}\367@\363h\255\036"
 131      C62134C7 
 131      8390087D 
 131      F740F368 
 131      AD1E
 132 008e DA0A68AB 		.ascii	"\332\012h\253\241\255A\352\221\013m\003\264\315\320"
 132      A1AD41EA 
 132      910B6D03 
 132      B4CDD0
 133 009d B6427B1F 		.ascii	"\266B{\037Z+\264\007\000\353Ah\001\254\316\235\006\327"
 133      5A2BB407 
 133      00EB4168 
 133      01ACCE9D 
 133      06D7
 134 00af 72681BA0 		.ascii	"rh\033\240m\202\266\027#\323A\346\027C\273\027Z\001"
 134      6D82B617 
 134      23D341E6 
 134      1743BB17 
 134      5A01
 135 00c1 B4C1D07C 		.ascii	"\264\301\320|\320\366@[\251\321;\014\255\014\346\205"
 135      D0F6405B 
 135      A9D13B0C 
 135      AD0CE685 
 136 00d1 A1B543CB 		.ascii	"\241\265C\313\201\3171\270V@;B0\341\363Q\215\036\341"
 136      81CF31B8 
 136      56403B42 
 136      30E1F351 
 136      8D1EE1
 137 00e4 F17770BF 		.ascii	"\361wp\277\021\3321h\307\241\225B\353\200\266\033\276"
 137      11DA3168 
 137      C7A19542 
 137      EB80B61B 
 137      BE
 138 00f5 FB18AEBB 		.ascii	"\373\030\256\273\340\372\0116\344\332\206T\314(\364"
 138      E0FA0936 
 138      E4DA8654 
 138      CC28F4
 139 0104 FD15DA21 		.ascii	"\375\025\332!\270\277\013\253|\020\376\210<\0334\331"
ARM GAS  /tmp/ccDAwPgc.s 			page 10


 139      B8BF0BAB 
 139      7C10FE88 
 139      3C1B34D9 
 140 0114 5A355989 		.ascii	"Z5Y\211\314\242E>\376 \343\275\026\271:\261*\317\237"
 140      CCA2453E 
 140      FE20E3BD 
 140      16B93AB1 
 140      2ACF9F
 141 0127 B4B18236 		.ascii	"\264\261\2026.`\231K\216|\364l29'Y\377Tr\352\207\005"
 141      2E60994B 
 141      8E7CF46C 
 141      32392759 
 141      FF5472EA 
 142 013d 43516D12 		.ascii	"CQm\022\216\372\311u\005yh\036\351?\271*YT\204\320p"
 142      8EFAC975 
 142      0579681E 
 142      E93FB92A 
 142      595484D0 
 143 0152 980B5D60 		.ascii	"\230\013]`\015r7\030\356\010\324H\364j\222\0368\200"
 143      0D723718 
 143      EE08D448 
 143      F46A921E 
 143      3880
 144 0164 57E23CA0 		.ascii	"W\342<\240#\220n\033*H\035@\216\341\306=\273\275\202"
 144      23906E1B 
 144      2A481D40 
 144      8EE1C63D 
 144      BBBD82
 145 0177 0D12C58C 		.ascii	"\015\022\305\214D\2166s\005\036J\357(KI\215U:\304y\316"
 145      448E3673 
 145      051E4AEF 
 145      284B498D 
 145      553AC479 
 146 018c 2A8EDAE0 		.ascii	"*\216\332\340<\376N\3248r\236[\217\363m\265s=zI\243"
 146      3CFE4ED4 
 146      38729E5B 
 146      8FF36DB5 
 146      733D7A49 
 147 01a1 9FC48A89 		.ascii	"\237\304\212\211\031'4\252\240ZUAk\250\202|\030\335"
 147      192734AA 
 147      A05A5541 
 147      6BA8827C 
 147      18DD
 148 01b3 81D66A5A 		.ascii	"\201\326jZSih\227kP\343\351\267\2725\356\262F\177\203"
 148      53696897 
 148      6B50E3E9 
 148      B7BA35EE 
 148      B2467F83 
 149 01c7 A2DF8FE1 		.ascii	"\242\337\217\341\353\327\361\035h\365\013\357\266\216"
 149      EBD7F11D 
 149      68F50BEF 
 149      B68E
 150 01d5 D635EFCD 		.ascii	"\3265\357\3153[\002>\253\243T`\3625!v\221\204&\276\242"
 150      335B023E 
 150      ABA35460 
 150      F2352176 
 150      918426BE 
ARM GAS  /tmp/ccDAwPgc.s 			page 11


 151 01ea 1F58FF8E 		.ascii	"\037X\377\216|\360\241\253\001\341\254\362\006|=\275"
 151      7CF0A1AB 
 151      01E1ACF2 
 151      067C3DBD 
 152 01fa 13A9AF42 		.ascii	"\023\251\257B\307\275\371\010\244z\304\335X\253\301"
 152      C7BDF908 
 152      A47AC4DD 
 152      58ABC1
 153 0209 583A2B70 		.ascii	"X:+p\214@\313\222\315gk\347&\247\002/>\025X@\255XWL"
 153      8C40CB92 
 153      CD676BE7 
 153      26A7022F 
 153      3E155840 
 154 0221 EF920BFF 		.ascii	"\357\222\013\377\325\024~\033z%\231\\H\206Rr\002:MG"
 154      D5147E1B 
 154      7A25995C 
 154      48865272 
 154      023A4D47 
 155 0235 6DC023D0 		.ascii	"m\300#\320\026\237\003A:\022\375\024\255\002akw\315"
 155      169F0341 
 155      3A12FD14 
 155      AD02616B 
 155      77CD
 156 0247 99AA9A15 		.ascii	"\231\252\232\025i\323N\211N|\322!\033\261\300k\321\314"
 156      69D34E89 
 156      4E7CD221 
 156      1BB1C06B 
 156      D1CC
 157 0259 AAC9B902 		.ascii	"\252\311\271\002\370\236\353\322\310\374\266\246-CA"
 157      F89EEBD2 
 157      C8FCB6A6 
 157      2D4341
 158 0268 023AC344 		.ascii	"\002:\303D\354\254\233\241\223P\031M6\317)\242\210d"
 158      ECAC9BA1 
 158      9350194D 
 158      36CF29A2 
 158      8864
 159 027a C666E0D3 		.ascii	"\306f\340\323l\313\246T\266N\326\326\316\255Oe+\027"
 159      6CCBA654 
 159      B64ED6D6 
 159      CEAD4F65 
 159      2B17
 160 028c 3D4D73C2 		.ascii	"=Ms\302\223\311\331\370\261L\222\302v\234\013\254]\304"
 160      93C9D9F8 
 160      B14C92C2 
 160      769C0BAC 
 160      5DC4
 161 029e CE59818C 		.ascii	"\316Y\201\214\320\015\254\335\263\333\264Ia\233\325"
 161      D00DACDD 
 161      B3DBB449 
 161      619BD5
 162 02ad 633C1000 		.ascii	"c<\020\000\332\007S\324\252)\306\031\250\331\210v^\243"
 162      DA0753D4 
 162      AA29C619 
 162      A8D98876 
 162      5EA3
 163 02bf 80F40353 		.ascii	"\200\364\003Si\343\252\363\255Ef\306\337\313Xk.\306"
ARM GAS  /tmp/ccDAwPgc.s 			page 12


 163      69E3AAF3 
 163      AD4566C6 
 163      DFCB586B 
 163      2EC6
 164 02d1 DC651584 		.ascii	"\334e\025\204\260\213M\214\254\023tFzn0s\361\301\325"
 164      B08B4D8C 
 164      AC137446 
 164      7A6E3073 
 164      F1C1D5
 165 02e4 E262B799 		.ascii	"\342b\267\231\013\223\006\207\241\005\004\247\230\317"
 165      0B930687 
 165      A10504A7 
 165      98CF
 166 02f2 44F5390C 		.ascii	"D\3659\014\342\327Hw\356\000\336\213\207i\234\362n@"
 166      E2D74877 
 166      EE00DE8B 
 166      87699CF2 
 166      6E40
 167 0304 7A911E80 		.ascii	"z\221\036\200\015\347\315\311D=\206\335\212\352\201"
 167      0DE7CDC9 
 167      443D86DD 
 167      8AEA81
 168 0313 2289066F 		.ascii	"\"\211\006o\000\357\301$\036OP\261\311\344\366\345_"
 168      00EFC124 
 168      1E4F50B1 
 168      C9E4F6E5 
 168      5F
 169 0324 637BDE8D 		.ascii	"c{\336\215\374\256\273N\201\221\355l0\277d\230]#\262"
 169      FCAEBB4E 
 169      8191ED6C 
 169      30BF6498 
 169      5D23B2
 170 0337 412C4E41 		.ascii	"A,NA\324\026\310\314S\364a\232\242\273\231-\033;\314"
 170      D416C8CC 
 170      53F4619A 
 170      A2BB992D 
 170      1B3BCC
 171 034a E93E1BAC 		.ascii	"\351>\033\254v\212\325#\030\371\376p\253_w\012\237%"
 171      768AD523 
 171      18F9FE70 
 171      AB5F770A 
 171      9F25
 172 035c DFFBCCC9 		.ascii	"\337\373\314\311\332\307\226C\237\226\232\013Q\366\023"
 172      DAC79643 
 172      9F969A0B 
 172      51F613
 173 036b 047499A9 		.ascii	"\004t\231\251\262\267\341\362\356I\351\265iD\271\325"
 173      B2B7E1F2 
 173      EE49E9B5 
 173      6944B9D5 
 174 037b 3E49AA4D 		.ascii	">I\252M\315\307\352\275\316\362\013\350\011\221P\354"
 174      CDC7EABD 
 174      CEF20BE8 
 174      099150EC 
 175 038b B0F5B10E 		.ascii	"\260\365\261\016\316\307\316m:\266\317\024\256\332\201"
 175      CEC7CE6D 
 175      3AB6CF14 
ARM GAS  /tmp/ccDAwPgc.s 			page 13


 175      AEDA81
 176 039a 39F3B97B 		.ascii	"9\363\271{\270\300\250\337F\2517R\352'l\251\237\340"
 176      B8C0A8DF 
 176      46A93752 
 176      EA276CA9 
 176      9FE0
 177 03ac A85F6AFA 		.ascii	"\250_j\372\244\320\206x\236\023\3614\221\311\233\374"
 177      A4D08678 
 177      9E13F134 
 177      91C99BFC 
 178 03bc 0BEABFA7 		.ascii	"\013\352\277\247D\314\204|w\357\010\335b\367\346\363"
 178      44CC847C 
 178      77EF08DD 
 178      62F7E6F3 
 179 03cc A4E8676E 		.ascii	"\244\350gnQ\024\320w\214\367KM\033?\272}\240\261\244"
 179      5114D077 
 179      8CF74B4D 
 179      1B3FBA7D 
 179      A0B1A4
 180 03df F2D2C340 		.ascii	"\362\322\303@\333\356\037X,\351\210\027\030b\273\013"
 180      DBEE1F58 
 180      2CE98817 
 180      1862BB0B 
 181 03ef A2B33F99 		.ascii	"\242\263?\231\021/1\304\316\254\020\235y\274\314\020"
 181      112F31C4 
 181      CEAC109D 
 181      79BCCC10 
 182 03ff BB5C1087 		.ascii	"\273\\\020\207d\310c2GG\354\316\012\321\231\307\271"
 182      64C86332 
 182      4747ECCE 
 182      0AD199C7 
 182      B9
 183 0410 0CB1C705 		.ascii	"\014\261\307\005\261(C\036\237f\210}Y!:\363\370\034"
 183      B128431E 
 183      9F66887D 
 183      59213AF3 
 183      F81C
 184 0422 436CF94D 		.ascii	"Cl\371Mz\304b;\036S|\312\272\242}j\254\353\002\232\237"
 184      7AC4623B 
 184      1E537CCA 
 184      BAA27D6A 
 184      ACEB029A 
 185 0437 A3678E73 		.ascii	"\243g\216s\233:\366\371\373\341\377\014ja\216\221\366"
 185      9B3AF6F9 
 185      FBE1FF0C 
 185      6A618E91 
 185      F6
 186 0448 AE6497F6 		.ascii	"\256d\227\366\354\224\241.Ku\014\264m\215\333R\347\356"
 186      EC94A12E 
 186      4B750CB4 
 186      6D8DDB52 
 186      E7EE
 187 045a 562A663D 		.ascii	"V*f=\303l\03750\2672\245+\366`\330\\T\307\245Ks\021"
 187      C36C1F35 
 187      30B732A5 
 187      2BF660D8 
 187      5C54C7A5 
ARM GAS  /tmp/ccDAwPgc.s 			page 14


 188 0471 18C0AFE0 		.ascii	"\030\300\257\340\221h \017}\227y\363\2551\324\343\222"
 188      9168200F 
 188      7D9779F3 
 188      AD31D4E3 
 188      92
 189 0482 BBD2F8F3 		.ascii	"\273\322\370\363\3319\311\"/\367X\353\314=\237vg\013"
 189      D939C922 
 189      2FF758EB 
 189      CC3D9F76 
 189      670B
 190 0494 64A55D9F 		.ascii	"d\245]\237\303V\355\265\326U;s\254'(\326\226\034c\325"
 190      C356EDB5 
 190      D6553B73 
 190      AC2728D6 
 190      961C63D5 
 191 04a8 DE7C59AB 		.ascii	"\336|Y\253\337\002\030[Vml^\204\015\345\351\272\313"
 191      DF02185B 
 191      566D6C5E 
 191      840DE5E9 
 191      BACB
 192 04ba 6EB4809A 		.ascii	"n\264\200\2329\307\355\330;\311\236\335\014\242\270"
 192      39C7EDD8 
 192      3BC99EDD 
 192      0CA2B8
 193 04c9 7F7A7C86 		.ascii	"\177z|\206\312\376\241\241\307\1770=\252\212\311V\234"
 193      CAFEA1A1 
 193      C77F303D 
 193      AA8AC956 
 193      9C
 194 04da 439C38DF 		.ascii	"C\2348\337e'\316\250\201\2133\237\212s\334\020g\353"
 194      6527CEA8 
 194      818B339F 
 194      8A73DC10 
 194      67EB
 195 04ec 00C539C9 		.ascii	"\000\3059\311\211\363\277\354\304\031\303\211\243VS"
 195      89F3BFEC 
 195      C419C389 
 195      A35653
 196 04fb D7A2856E 		.ascii	"\327\242\205n\325\024a\353E\341Z\224Z\313\220^\275\226"
 196      D51461EB 
 196      45E15A94 
 196      5ACB905E 
 196      BD96
 197 050d 697BB300 		.ascii	"i{\263\000\245\0369\034)}c\343\337\224\1772\267e\375"
 197      A51E391C 
 197      297D63E3 
 197      DF947F32 
 197      B765FD
 198 0520 57FD2ED6 		.ascii	"W\375.\326\315\230\3370\314\276\376\244lSN\244O\370"
 198      CD98DF30 
 198      CCBEFEA4 
 198      6C534EA4 
 198      4FF8
 199 0532 171860CF 		.ascii	"\027\030`\317\226\201>Qd]\263/\241.\363\203\3412\317"
 199      96813E51 
 199      645DB32F 
 199      A12EF383 
ARM GAS  /tmp/ccDAwPgc.s 			page 15


 199      E132CF
 200 0545 6C365CA6 		.ascii	"l6\\\246\335\032\376\231\325\340\317zt\201z\033\266"
 200      DD1AFE99 
 200      D5E0CF7A 
 200      74817A1B 
 200      B6
 201 0556 1F70598C 		.ascii	"\037pY\214l%\322\016\001-\360\350\016\330\347\202S\354"
 201      6C25D20E 
 201      012DF0E8 
 201      0ED8E782 
 201      53EC
 202 0568 62BE0C6A 		.ascii	"b\276\014jy^/+\205a@\376%\217\256\227\356\305\232\317"
 202      795E2F2B 
 202      856140FE 
 202      258FAE97 
 202      EEC59ACF 
 203 057c 658043B7 		.ascii	"e\200C\267\372\004\273\212\234\364\352^\334\271x\272"
 203      FA04BB8A 
 203      9CF4EA5E 
 203      DCB978BA 
 204 058c 8D17E394 		.ascii	"\215\027\343\22453\200\367\323\247X2\267kq\277\034$"
 204      353380F7 
 204      D3A75832 
 204      B76B71BF 
 204      1C24
 205 059e F5E0190C 		.ascii	"\365\340\031\014\340\325\302H\362p\337 \334jh\376U\246"
 205      E0D5C248 
 205      F270DF20 
 205      DC6A68FE 
 205      55A6
 206 05b0 F9AE6D6E 		.ascii	"\371\256mn\241c\326}\261I\367IN\367\223y\235M6\325#"
 206      A163D67D 
 206      B149F749 
 206      4EF79379 
 206      9D4D36D5 
 207 05c5 BCEE5FA3 		.ascii	"\274\356_\243\272\177\223\351\276g\221E\367ip\210h\353"
 207      BA7F93E9 
 207      BE679145 
 207      F7697088 
 207      68EB
 208 05d7 6C75BF8E 		.ascii	"lu\277\216\327\375\";\335\013\216\272's\273\026]\235"
 208      D7FD223B 
 208      DD0B8EBA 
 208      2773BB16 
 208      5D9D
 209 05e9 C7FD003E 		.ascii	"\307\375\000>\3100\273o\310\006\261\330\331\232\353"
 209      C830BB6F 
 209      C806B1D8 
 209      D99AEB
 210 05f8 386BBE09 		.ascii	"8k\276\011\326\024\002x=\210\023\300\033x\233\356d6"
 210      D6140278 
 210      3D8813C0 
 210      1B789BEE 
 210      6436
 211 060a 6DDF6ED8 		.ascii	"m\337n\330\324\254@\375~\224\2430\346t\270\207a\366"
 211      D4AC40FD 
 211      7E94A330 
ARM GAS  /tmp/ccDAwPgc.s 			page 16


 211      E674B887 
 211      61F6
 212 061c FC3CBD30 		.ascii	"\374<\2750c\\\325\243&\243\203\206\347\375\"\033\304"
 212      635CD5A3 
 212      26A38386 
 212      E7FD221B 
 212      C4
 213 062d E21444D7 		.ascii	"\342\024D\327\307\351$6\225\233\002\372\230\322\336"
 213      C7E92436 
 213      959B02FA 
 213      98D2DE
 214 063c 62EB405B 		.ascii	"b\353@[8\007Zy\342\360\011\273\207y\221\363z\335\221"
 214      38075A79 
 214      E2F009BB 
 214      877991F3 
 214      7ADD91
 215 064f 935E1DB3 		.ascii	"\223^\035\263\263\251 \275\3223\363 \001\315c\220\335"
 215      B3A920BD 
 215      D233F320 
 215      01CD6390 
 215      DD
 216 0660 C70AD2EB 		.ascii	"\307\012\322\353\310\355\2314[\035\361\201\372\036\225"
 216      C8ED9934 
 216      5B1DF181 
 216      FA1E95
 217 066f AFD6CB92 		.ascii	"\257\326\313\222\344\321|\335!Ueq\036\272\205\363\320"
 217      E4D17CDD 
 217      21556571 
 217      1EBA85F3 
 217      D0
 218 0680 6DE0A162 		.ascii	"m\340\241b\000o\247\036\272\203\236\3375\374\3249\251"
 218      006FA71E 
 218      BA839EDF 
 218      35FCD439 
 218      A9
 219 0691 360B5CF9 		.ascii	"6\013\\\371]\307t\320\227\235\016\212M\026s\246\326"
 219      5DC774D0 
 219      979D0E8A 
 219      4D1673A6 
 219      D6
 220 06a2 C4535BEE 		.ascii	"\304S[\3565*\241\246\302\364\344&\272ZQ\335u[\3130\373"
 220      352AA1A6 
 220      C2F4E426 
 220      BA5A51DD 
 220      755BCB30 
 221 06b7 76B8A5D8 		.ascii	"v\270\245\330\211\026fS1i-\261\211Av\357tKW\223\355"
 221      89166653 
 221      31692DB1 
 221      894176EF 
 221      744B5793 
 222 06cc D874D5CA 		.ascii	"\330t\325\312\036\363\253\015\201\355\020\353\357\034"
 222      1EF3AB0D 
 222      81ED10EB 
 222      EF1C
 223 06da B82DE277 		.ascii	"\270-\342w\230g|\325\375\335g\226\275\352}B\346\273"
 223      98677CD5 
 223      FDDD6796 
ARM GAS  /tmp/ccDAwPgc.s 			page 17


 223      BDEA7D42 
 223      E6BB
 224 06ec C484A833 		.ascii	"\304\204\2503K\373\205\3247\017\247\031\351\236c>3\341"
 224      4BFB85D4 
 224      370FA719 
 224      E99E633E 
 224      33E1
 225 06fe 03578DF0 		.ascii	"\003W\215\360!!\365\005\221G\373\220u%\366O\232\374"
 225      2121F505 
 225      9147FB90 
 225      7525F64F 
 225      9AFC
 226 0710 CE33BEBF 		.ascii	"\3163\276\277\376v\343\231\357=:\323\036K%\3461Wb\036"
 226      FE76E399 
 226      EF3D3AD3 
 226      1E4B25E6 
 226      3157621E 
 227 0724 568979F2 		.ascii	"V\211y\362\270\355S\306\330aj\034\3737\021\344m\224"
 227      B8ED53C6 
 227      D8616A1C 
 227      FB3711E4 
 227      6D94
 228 0736 3B7BC705 		.ascii	";{\307\005\342_G|\354\235\325\345\005\275u\214\275\325"
 228      E25F477C 
 228      EC9DD5E5 
 228      05BD758C 
 228      BDD5
 229 0748 D8B2D767 		.ascii	"\330\262\327gy\003f\326\221\305Mf\347\352\240-;g\230"
 229      790366D6 
 229      91C54D66 
 229      E7EAA02D 
 229      3B6798
 230 075b 613AB3B0 		.ascii	"a:\263\260\325\232\264oTNXmE3i:\357}1\327\360\336\215"
 230      D59AB46F 
 230      544E586D 
 230      4533693A 
 230      EF7D31D7 
 231 0772 9F0D3733 		.ascii	"\237\01573\366\271\231\261\037\243\025\311\015\265\265"
 231      F6B999B1 
 231      1FA315C9 
 231      0DB5B5
 232 0781 C9FAA9C9 		.ascii	"\311\372\251\311\223W\256\214\320^YC\036e\272nN\277"
 232      9357AE8C 
 232      D05E5943 
 232      1E65BA6E 
 232      4EBF
 233 0793 A99ABA3F 		.ascii	"\251\232\272?\252\037\006\226iG5\200\277\024\206\"\373"
 233      AA1F0696 
 233      69473580 
 233      BF148622 
 233      FB
 234 07a4 43404B19 		.ascii	"C@K\031\357\215\253\226\357\233hL\372\312\340\233\360"
 234      EF8DAB96 
 234      EF9B684C 
 234      FACAE09B 
 234      F0
 235 07b5 7CD2E0D9 		.ascii	"|\322\340\331.\367\2374\266\233\357Df\1778Es\177=\243"
ARM GAS  /tmp/ccDAwPgc.s 			page 18


 235      2EF79F34 
 235      B69BEF44 
 235      667F3845 
 235      737F3DA3 
 236 07c9 D3DBB0F8 		.ascii	"\323\333\260\370\230\246\273"
 236      98A6BB
 237 07d0 0C9004F4 		.ascii	"\014\220\004\364\006\235y\306v\245=\303\255\264=\007"
 237      069D79C6 
 237      76A53DC3 
 237      ADB43D07 
 238 07e0 56DABDA4 		.ascii	"V\332\275\244\023S\313K3=c\325\272\311\302\371\267\224"
 238      1353CB4B 
 238      333D63D5 
 238      BAC9C2F9 
 238      B794
 239 07f2 F3B719E7 		.ascii	"\363\267\031\347m\313\012\322\360m\306!\\\235\263\345"
 239      6DCB0AD2 
 239      F06DC621 
 239      5C9DB3E5 
 240 0802 F91CC773 		.ascii	"\371\034\307s\327\022\273\362\322kS\033\354\242\\\220"
 240      D712BBF2 
 240      D26B531B 
 240      ECA25C90 
 241 0812 B9DD4BDC 		.ascii	"\271\335K\334*2\365p_V\3661\314\236\233\372[\033\350"
 241      2A32F570 
 241      5F56F631 
 241      CC9E9BFA 
 241      5B1BE8
 242 0825 351ED99C 		.ascii	"5\036\331\234\024\320G\014\261\345\346~\254\2646\005"
 242      14D0470C 
 242      B1E5E67E 
 242      ACB43605 
 243 0835 CC7186D8 		.ascii	"\314q\206\330\271\364jm-\236d\230].\\\272\357X\253\210"
 243      B9F46A6D 
 243      2D9E6498 
 243      5D2E5CBA 
 243      EF58AB88 
 244 0849 A718629F 		.ascii	"\247\030b\237\013\242\355\016_\352\301;O\000\237\207"
 244      0BA2ED0E 
 244      5FEAC13B 
 244      4F009F87 
 245 0859 320868F5 		.ascii	"2\010h\365\320\002\250\227\236/\322\363%z\356\243\347"
 245      D002A897 
 245      9E2FD2F3 
 245      257AEEA3 
 245      E7
 246 086a 1FF802FE 		.ascii	"\037\370\002\376\034\013\232\366\203\206\273X|\324\335"
 246      1C0B9AF6 
 246      8386BB58 
 246      7CD4DD
 247 0879 5F9CC3E6 		.ascii	"_\234\303\346\317l6\371\311\016\0375sD\342\011\027Y"
 247      CF6C36F9 
 247      C90E1F35 
 247      7344E209 
 247      1759
 248 088b D4F4ED4F 		.ascii	"\324\364\355O\0235f\030\"\367\223\242]\320\220^=h\372"
 248      13356618 
ARM GAS  /tmp/ccDAwPgc.s 			page 19


 248      22F793A2 
 248      5DD0905E 
 248      3D68FA
 249 089e F6D9054D 		.ascii	"\366\331\005MNVo\307\014E\374\310\302\3763\224\375\371"
 249      4E566FC7 
 249      0C45FCC8 
 249      C2FE3394 
 249      FDF9
 250 08b0 796CA5D9 		.ascii	"yl\245\331s\011;\363o\001\022\3202:\361y[!\236\347\205"
 250      73093BF3 
 250      6F0112D0 
 250      323AF179 
 250      5B219EE7 
 251 08c5 D833CD46 		.ascii	"\3303\315F\010\217\311\267\346\211\304\267\336`\210"
 251      088FC9B7 
 251      E689C4B7 
 251      DE6088
 252 08d4 2D7B07FE 		.ascii	"-{\007\376`\251bnb\230m.o/\314\210\246\010H\316M\216"
 252      60A9626E 
 252      62986D2E 
 252      6F2FCC88 
 252      A60848CE 
 253 08ea D2F79192 		.ascii	"\322\367\221\222O%G\255\341\3642\204\001\010\026\375"
 253      4F2547AD 
 253      E1F43284 
 253      010816FD 
 254 08fa FE5D24A9 		.ascii	"\376]$\251\347\035\246\337s\233\336\332\253-dYc\275"
 254      E71DA6DF 
 254      739BDEDA 
 254      AB2D6459 
 254      63BD
 255 090c 4CB15A19 		.ascii	"L\261Z\031\326\352\027>\375\200\355I\211\226BH4\027"
 255      D6EA173E 
 255      FD80ED49 
 255      89964248 
 255      3417
 256 091e 42222B84 		.ascii	"B\"+\204DZ\010\211(\333\341\360\000\312\324\330\333"
 256      445A0889 
 256      28DBE1F0 
 256      00CAD4D8 
 256      DB
 257 092f 70E4A349 		.ascii	"p\344\243I\366\014\367\353\371*\233\037?,\025\373\363"
 257      F60CF7EB 
 257      F92A9B1F 
 257      3F2C15FB 
 257      F3
 258 0940 EB23D3DE 		.ascii	"\353#\323\336\036u\212\343L\217\235\037\352K\251\245"
 258      1E758AE3 
 258      4C8F9D1F 
 258      EA4BA9A5 
 259 0950 0224A49C 		.ascii	"\002$\244\234\031Y!\332\326%v\337\011\350s\246\273\316"
 259      195921DA 
 259      D62576DF 
 259      09E873A6 
 259      BBCE
 260 0962 BD6ECF34 		.ascii	"\275n\3174\356\213\205\372\013(\006\331\355\032)\266"
 260      EE8B85FA 
ARM GAS  /tmp/ccDAwPgc.s 			page 20


 260      0B2806D9 
 260      ED1A29B6 
 261 0972 6B45EAC1 		.ascii	"kE\352\301\207r\000\317\027G\"O\000\377M$\371v\001="
 261      877200CF 
 261      1747224F 
 261      00FF4D24 
 261      F976013D 
 262 0986 BF48CF8B 		.ascii	"\277H\317\213\351\371\0251\203GS\022\200\014\274V\024"
 262      E9F91531 
 262      83475312 
 262      800CBC56 
 262      14
 263 0997 B494D7F2 		.ascii	"\264\224\327\362\300\325\210\354\000^\310\020\333\263"
 263      C0D588EC 
 263      005EC810 
 263      DBB3
 264 09a5 42342995 		.ascii	"B4)\225F\266\032\252\001\274\210!v\265\031\206\312\332"
 264      46B61AAA 
 264      01BC8821 
 264      76B51986 
 264      CADA
 265 09b7 C7394C01 		.ascii	"\3079L\001\235\245\226\242\230\245\331 \016q\266\323"
 265      9DA596A2 
 265      98A5D920 
 265      0E71B6D3 
 266 09c7 939C9D9E 		.ascii	"\223\234\235\236\002;\345\004\360\323\324*\253\350y"
 266      023BE504 
 266      F0D3D42A 
 266      ABE879
 267 09d6 353D3788 		.ascii	"5=7\210\334\032\331\227\247\257\221=\017\332\257G\366"
 267      DC1AD997 
 267      A7AF913D 
 267      0FDAAF47 
 267      F6
 268 09e7 8B76AAFF 		.ascii	"\213v\252\377e\375\010\367:\325\302\334A\254\366>\275"
 268      65FD08F7 
 268      3AD5C2DC 
 268      41ACF63E 
 268      BD
 269 09f8 71C09BE9 		.ascii	"q\300\233\351\317\015\322\305\351mx\371\250\313&\270"
 269      CF0DD2C5 
 269      E96D78F9 
 269      A8CB26B8 
 270 0a08 EDA69D9D 		.ascii	"\355\246\235\235Z\317pe\310\177\324\335\230oh\2711\233"
 270      5ACF7065 
 270      C87FD4DD 
 270      986F68B9 
 270      319B
 271 0a1a 2AF4355E 		.ascii	"*\3645^\241\313\230<m\247\033\215\242\303\\\320\023"
 271      A1CB983C 
 271      6DA71B8D 
 271      A2C35CD0 
 271      13
 272 0a2b D0F5A2E9 		.ascii	"\320\365\242\351\331\242\336\356y\310\374HmYg\351O\266"
 272      D9A2DEEE 
 272      79C8FC48 
 272      6D5967E9 
ARM GAS  /tmp/ccDAwPgc.s 			page 21


 272      4FB6
 273 0a3d C4EC7F57 		.ascii	"\304\354\177W\333\250-\012F\014\230G\020)V\030VY\265"
 273      DBA82D0A 
 273      460C9847 
 273      10295618 
 273      5659B5
 274 0a50 78DF1D69 		.ascii	"x\337\035i8x\313,\306\206fR-\361b\220\375g\323s\235"
 274      3878CB2C 
 274      C6866652 
 274      2DF16290 
 274      FD67D373 
 275 0a65 BE2F0D4E 		.ascii	"\276/\015N\220vwq-\360\220\301\026[\000o\241\301\271"
 275      90767771 
 275      2DF090C1 
 275      165B006F 
 275      A1C1B9
 276 0a78 D5B6DCD8 		.ascii	"\325\266\334\330\312\225\033\235/{m\314\233cJ \227i"
 276      CA951B9D 
 276      2F7B6DCC 
 276      9B634A20 
 276      9769
 277 0a8a 29DB48C5 		.ascii	")\333H\305's\273.8\374\2164\323\234dY<\336v\334> \\"
 277      2773BB2E 
 277      38FC8E34 
 277      D39C6459 
 277      3CDE76DC 
 278 0aa1 EE14B94D 		.ascii	"\356\024\271M\264&\306D\3671o\277\323\230&\327N\272"
 278      B426C644 
 278      F7316FBF 
 278      D39826D7 
 278      4EBA
 279 0ab3 BAED6090 		.ascii	"\272\355`\220=.b\271\3778GEle\210}Y!\026[BL\215l\310"
 279      3D2E62B9 
 279      FF384745 
 279      6C65887D 
 279      5921165B 
 280 0acc 57DB6948 		.ascii	"W\333iH\355\240\347fz~\337}E\261(\271\011\330qVr\213"
 280      EDA0E766 
 280      7A7EDF7D 
 280      45B128B9 
 280      09D87156 
 281 0ae2 68DA7DE1 		.ascii	"h\332}\341`'[\230\345<X\235\34640\200?\350G \266:\006"
 281      60275B98 
 281      E53C589D 
 281      E6343080 
 281      3FE84720 
 282 0af9 22FF0C6F 		.ascii	"\"\377\014o\214\003u\037`q\331\273d\371\356Rg~vka9\016"
 282      8C03751F 
 282      6071D9BB 
 282      64F9EE52 
 282      677E766B 
 283 0b10 3526E74D 		.ascii	"5&\347M\016\340\315\300\237`\230\363q\364}\262H\225"
 283      0EE0CDC0 
 283      9F6098F3 
 283      71F47DB2 
 283      4895
 284 0b22 0993B03D 		.ascii	"\011\223\260={\210\205\255\252>\001u0R\235\334{4K\360"
ARM GAS  /tmp/ccDAwPgc.s 			page 22


 284      7B8885AD 
 284      AA3E0175 
 284      30529DDC 
 284      7B344BF0 
 285 0b36 D1AD4920 		.ascii	"\321\255I u\013\372b\320\322d\256\211$\201\321\014J"
 285      750BFA62 
 285      D0D264AE 
 285      892481D1 
 285      0C4A
 286 0b48 C9D9FD9B 		.ascii	"\311\331\375\233Bq\235\345\307\2755\014\276P\203?\324"
 286      42719DE5 
 286      C7BD350C 
 286      BE50833F 
 286      D4
 287 0b59 0FCD1E76 		.ascii	"\017\315\036v\324\254\376.\334y\356A\303=\360-\350<"
 287      D4ACFE2E 
 287      DC79EE41 
 287      C33DF02D 
 287      E83C
 288 0b6b 88553759 		.ascii	"\210U7Y\343\242\213\276\326T\275s\270\021\256\252\243"
 288      E3A28BBE 
 288      D654BD73 
 288      B811AEAA 
 288      A3
 289 0b7c 9A3ADED7 		.ascii	"\232:\336\327\204\316U\373\260\372\243\355\276\033)"
 289      84CE55FB 
 289      B0FAA3ED 
 289      BE1B29
 290 0b8b 6CDBCD1C 		.ascii	"l\333\315\034\003\252>\231OZ<\371_\302\3204\254\266"
 290      03AA3E99 
 290      4F5A3CF9 
 290      5FC2D034 
 290      ACB6
 291 0b9d 8BF6FFE5 		.ascii	"\213\366\377\345\240\35679\317;\3428\217\354\321:\317"
 291      A0EE3739 
 291      CF3BE238 
 291      8FECD13A 
 291      CF
 292 0bae 3BEA388F 		.ascii	";\3528\217\254C\316\363\2169\316\333\237\226\336q\307"
 292      AC43CEF3 
 292      8E39CEDB 
 292      9F96DE71 
 292      C7
 293 0bbf 79BBD3A6 		.ascii	"y\273\323\246\321\016\307y\273\322\316\373\330q\336"
 293      D10EC779 
 293      BBD2CEFB 
 293      D871DE
 294 0bce B6B4F33E 		.ascii	"\266\264\363>q\234w\"\255|\235\\&\312\011W\204dOU\242"
 294      719C7722 
 294      AD7C9D5C 
 294      26CA0957 
 294      84644F55 
 295 0be3 3CA878EF 		.ascii	"<\250x\357\373\355\357\213\247\240\361%%~\365/\226\360"
 295      FBEDEF8B 
 295      A7A0F125 
 295      257EF52F 
 295      96F0
ARM GAS  /tmp/ccDAwPgc.s 			page 23


 296 0bf5 CB8A3F1E 		.ascii	"\313\212?\036\223\225\204\377\227\017\225N)\255\361"
 296      939584FF 
 296      970F954E 
 296      29ADF1
 297 0c04 876355F1 		.ascii	"\207cU\361H\245$'\374\367M\231\342\017W(\263\342R\242"
 297      48A52427 
 297      FCF74D99 
 297      E20F5728 
 297      B3E252A2 
 298 0c18 A402F922 		.ascii	"\244\002\371\"Qe\334]AE\361\307\342\012\031\354/\017"
 298      5165DC5D 
 298      4145F1C7 
 298      E20A19EC 
 298      2F0F
 299 0c2a 874787E4 		.ascii	"\207G\207\344\252\321\321XT\032-\205\246EF\217\017N"
 299      AAD1D158 
 299      541A2D85 
 299      A645468F 
 299      0F4E
 300 0c3c 187DD798 		.ascii	"\030}\327\230\261\343\036\033\347\237\026\211\022\002"
 300      B1E31E1B 
 300      E79F1689 
 300      1202
 301 0c4a 95916964 		.ascii	"\225\221id\234\3374\316?\276dB\311x?\343\002\376\314"
 301      9CDF34CE 
 301      3FBE6442 
 301      C9783FE3 
 301      02FECC
 302 0c5d DF47A2E1 		.ascii	"\337G\242\341\312\3522\311\237P\312\200*\020\367*\025"
 302      CAEA32C9 
 302      9F50CA80 
 302      2A10F72A 
 302      15
 303 0c6e B2142ABB 		.ascii	"\262\024*\273\221\215W\244\204BX'W\020\255$\214p|0\334"
 303      918D57A4 
 303      84425827 
 303      5710AD24 
 303      8C707C30 
 304 0c83 8C0D4A35 		.ascii	"\214\015J5R\270Z\221<\301_\305b\225\327\005\311\200"
 304      52B85A91 
 304      3CC15FC5 
 304      6295D705 
 304      C980
 305 0c95 60289190 		.ascii	"`(\221\220d%\230\220\036\253\226\242a\251\310\026\006"
 305      64259890 
 305      1EAB96A2 
 305      61A9C816 
 305      06
 306 0ca6 C814D2D1 		.ascii	"\310\024\322\321RUD\011*\261G\245h\261EQ:_\341\212D"
 306      52554409 
 306      2AB147A5 
 306      68B14551 
 306      3A5FE18A 
 307 0cbb B8A28CF0 		.ascii	"\270\242\214\360\025\017F\245\032\005.qY\232\341S\342"
 307      150F46A5 
 307      1A052E71 
 307      599AE153 
ARM GAS  /tmp/ccDAwPgc.s 			page 24


 307      E2
 308 0ccc 72241654 		.ascii	"r$\026Tr\2535]\321\376H\314\027\216E\025\03062\255\336"
 308      72AB355D 
 308      D1FE48CC 
 308      178E4515 
 308      183632AD 
 309 0ce1 2BC23159 		.ascii	"+\3021Y\002\314|\322\035\004\204\260Rs\273\373\214\340"
 309      02CC7CD2 
 309      1D0484B0 
 309      5273BBFB 
 309      8CE0
 310 0cf3 8C095530 		.ascii	"\214\011U0+W\226\312A\211AE\220\307\013\362\317\004"
 310      2B5796CA 
 310      41894145 
 310      90C70BF2 
 310      CF04
 311 0d05 F96E419E 		.ascii	"\371nA\236 \310\023\005y\222(\217\035\003m\254P)\303"
 311      20C81305 
 311      7992288F 
 311      1D036DAC 
 311      5029C3
 312 0d18 659C271E 		.ascii	"e\234'\036\004d\037\341|\246$\3035VY&\311D\222P\225"
 312      04641FE1 
 312      7CA624C3 
 312      35565926 
 312      C9449250 
 313 0d2d 94AB2494 		.ascii	"\224\253$\224\220\"\005\025\037\221a\"\\\343A\332\343"
 313      90220515 
 313      1F916122 
 313      5CE341DA 
 313      E3
 314 0d3e 53AA6265 		.ascii	"S\252be\022\375<\2752T\236\360)\2624=AE$7^\271l\026"
 314      12FD3CBD 
 314      32549EF0 
 314      29B2343D 
 314      41452437 
 315 0d56 A83F57AA 		.ascii	"\250?W\252\211(a\030\350\235\251\304\246\375%\236/\315"
 315      89286118 
 315      E89DA9C4 
 315      A6FD259E 
 315      2FCD
 316 0d68 90A24A55 		.ascii	"\220\242JU(\361(\214\224f\222\0331\036\254.P\315\231"
 316      28F1288C 
 316      9466921B 
 316      311EAC2E 
 316      50CD99
 317 0d7b 08564640 		.ascii	"\010VF@\337J^<83\024Q\"\321\362B\375\0130T5P\033\024"
 317      DF4A5E3C 
 317      38331451 
 317      22D1F242 
 317      FD0B3054 
 318 0d93 0F022AFD 		.ascii	"\017\002*\375\340\241\267\320!\305\245(\270E\271\247"
 318      E0A1B7D0 
 318      21C5A528 
 318      B845B9A7 
 319 0da3 0ACC5C33 		.ascii	"\012\314\\3\302\321DUJ\015q\333*\025\013\256\261\231"
 319      C2D14455 
ARM GAS  /tmp/ccDAwPgc.s 			page 25


 319      4A0D71DB 
 319      2A150BAE 
 319      B199
 320 0db5 519097CE 		.ascii	"Q\220\227\316\002n\252\250\345\2004\214#l\014\"\202"
 320      026EAAA8 
 320      E580348C 
 320      236C0C22 
 320      82
 321 0dc6 842AA9BD 		.ascii	"\204*\251\275\2403\016\33638\\Q\232(\177H\252\224B\011"
 321      A0330EDE 
 321      33385C51 
 321      9A287F48 
 321      AA944209 
 322 0dda 290D21F0 		.ascii	")\015!\360\277\012\224G\007\377\001\344\360&\"\217\003"
 322      BF0A9447 
 322      07FF01E4 
 322      F026228F 
 322      03
 323 0deb EF7FBC6A 		.ascii	"\357\177\274j\201\302\205C\2314\235\010\245L\257\216"
 323      81C28543 
 323      99349D08 
 323      A54CAF8E 
 324 0dfb 8683CA4F 		.ascii	"\206\203\312O\034y\322\364\010c\207\206+\036\251(\233"
 324      1C79D2F4 
 324      08638786 
 324      2B1EA928 
 324      9B
 325 0e0c 021F15E9 		.ascii	"\002\037\025\351a\260d$\254r\3720hQ\230\031\312\017"
 325      61B06424 
 325      AC72FA30 
 325      68519819 
 325      CA0F
 326 0e1e 570413B3 		.ascii	"W\004\023\263\022\212\004\256\223\307\356\007\223\331"
 326      128A04AE 
 326      93C7EE07 
 326      93D9
 327 0e2c B334F3F8 		.ascii	"\2634\363\370dU\205^\231z\263G\246\376#k\376#\253\376"
 327      6455855E 
 327      997AB347 
 327      A6FE236B 
 327      FE23ABFE 
 328 0e40 9307BDD5 		.ascii	"\223\007\275\325\262\014\326\366\310d\332u3\"\262R\035"
 328      B20CD6F6 
 328      C864DA75 
 328      3322B252 
 328      1D
 329 0e51 AA0C2A91 		.ascii	"\252\014*\221*H&\032T\241\2517\250\\c\372\354\233\241"
 329      2A48261A 
 329      54A1A937 
 329      A85C63FA 
 329      EC9BA1
 330 0e64 50A3902B 		.ascii	"P\243\220+\211\247<\302\014|\241E\324\330\273\341\006"
 330      89A73CC2 
 330      0C7CA145 
 330      D4D8BBE1 
 330      06
 331 0e75 BE2A932A 		.ascii	"\276*\223*\225\020\334\250: \203\311\235\227L\012\311"
ARM GAS  /tmp/ccDAwPgc.s 			page 26


 331      9510DCA8 
 331      3A2083C9 
 331      9D974C0A 
 331      C9
 332 0e86 F970A90C 		.ascii	"\371p\251\014%\0242\017\272\010Y\237\254\204\243@|X"
 332      2514320F 
 332      BA08599F 
 332      AC84A340 
 332      7C58
 333 0e98 15D8B15A 		.ascii	"\025\330\261Z\226\252\200\311`l\372\364\204\244\010"
 333      96AA80C9 
 333      606CFAF4 
 333      84A408
 334 0ea7 E10A9FA6 		.ascii	"\341\012\237\246\252\\\022\373a0t\016\211\003\017|Y"
 334      AA5C12FB 
 334      6130740E 
 334      89030F7C 
 334      59
 335 0eb8 1D87BE90 		.ascii	"\035\207\276\220\\\006~\343\323\262\312\240xHQ$9J\\"
 335      5C067EE3 
 335      D3B2CAA0 
 335      78485124 
 335      394A5C
 336 0ecb 5D4B3D63 		.ascii	"]K=c\207\224\310\261\262\220\022*\321;\012K\245D\"T"
 336      8794C8B1 
 336      B290122A 
 336      D13B0A4B 
 336      A5442254 
 337 0edf 2E25EE2C 		.ascii	".%\356,\256\214\305\342\350\377'\265S\345"
 337      AE8CC5E2 
 337      E8FF27B5 
 337      53E5
 338              		.text
 339              		.section	.gnu.lto_.symtab.42bbe761910aa893,"",%progbits
 340 0000 5F746573 		.ascii	"_test_assert_sequence\000\000\002\000\000\000\000\000"
 340      745F6173 
 340      73657274 
 340      5F736571 
 340      75656E63 
 341 001d 00000000 		.ascii	"\000\000\000\000\271\000\000\000test_emit_token\000"
 341      B9000000 
 341      74657374 
 341      5F656D69 
 341      745F746F 
 342 0035 00020000 		.ascii	"\000\002\000\000\000\000\000\000\000\000\000\302\000"
 342      00000000 
 342      000000C2 
 342      00
 343 0042 00006368 		.ascii	"\000\000chMsgRelease\000\000\002\000\000\000\000\000"
 343      4D736752 
 343      656C6561 
 343      73650000 
 343      02000000 
 344 0058 00000000 		.ascii	"\000\000\000\000\306\000\000\000chMsgWait\000\000\002"
 344      C6000000 
 344      63684D73 
 344      67576169 
ARM GAS  /tmp/ccDAwPgc.s 			page 27


 344      74000002 
 345 006c 00000000 		.ascii	"\000\000\000\000\000\000\000\000\000L\001\000\000ch"
 345      00000000 
 345      004C0100 
 345      006368
 346 007b 54686443 		.ascii	"ThdCreateStatic\000\000\002\000\000\000\000\000\000"
 346      72656174 
 346      65537461 
 346      74696300 
 346      00020000 
 347 0093 0000004F 		.ascii	"\000\000\000O\001\000\000chMsgSend\000\000\002\000\000"
 347      01000063 
 347      684D7367 
 347      53656E64 
 347      00000200 
 348 00a8 00000000 		.ascii	"\000\000\000\000\000\000\000]\001\000\000patternmsg"
 348      0000005D 
 348      01000070 
 348      61747465 
 348      726E6D73 
 349 00bd 00000000 		.ascii	"\000\000\000\000\000\000\000\000\000\000\000\000\264"
 349      00000000 
 349      00000000 
 349      B4
 350 00ca 01000074 		.ascii	"\001\000\000testmsg1\000\000\000\000\000\000\000\000"
 350      6573746D 
 350      73673100 
 350      00000000 
 350      000000
 351 00dd 00000000 		.ascii	"\000\000\000\000\312\001\000\000wa\000\000\002\000\000"
 351      CA010000 
 351      77610000 
 351      020000
 352 00ec 00000000 		.ascii	"\000\000\000\000\000\000\000b\001\000\000ch\000\000"
 352      00000062 
 352      01000063 
 352      680000
 353 00fb 02000000 		.ascii	"\002\000\000\000\000\000\000\000\000\000g\001\000\000"
 353      00000000 
 353      00006701 
 353      0000
 354 0109 74687265 		.ascii	"threads\000\000\002\000\000\000\000\000\000\000\000"
 354      61647300 
 354      00020000 
 354      00000000 
 354      0000
 355 011b 00B00100 		.ascii	"\000\260\001\000\000"
 355      00
 356              		.text
 357              		.section	.gnu.lto_.opts,"",%progbits
 358 0000 272D6D63 		.ascii	"'-mcpu=cortex-m3''-mno-thumb-interwork''-mthumb''-g"
 358      70753D63 
 358      6F727465 
 358      782D6D33 
 358      27272D6D 
 359 0033 67646227 		.ascii	"gdb''-O2''-fomit-frame-pointer''-falign-functions=1"
 359      272D4F32 
ARM GAS  /tmp/ccDAwPgc.s 			page 28


 359      27272D66 
 359      6F6D6974 
 359      2D667261 
 360 0066 3627272D 		.ascii	"6''-ffunction-sections''-fdata-sections''-fno-commo"
 360      6666756E 
 360      6374696F 
 360      6E2D7365 
 360      6374696F 
 361 0099 6E27272D 		.ascii	"n''-flto'\000"
 361      666C746F 
 361      2700
 362              		.text
 363              		.cfi_sections	.debug_frame
 364              		.section	.text.msg1_execute,"ax",%progbits
 365              		.align	2
 366              		.p2align 4,,15
 367              		.thumb
 368              		.thumb_func
 369              		.type	msg1_execute, %function
 370              	msg1_execute:
 371              	.LFB166:
 372              		.file 1 "../../../test/rt/testmsg.c"
 373              		.loc 1 67 0
 374              		.cfi_startproc
 375              		@ args = 0, pretend = 0, frame = 0
 376              		@ frame_needed = 0, uses_anonymous_args = 0
 377 0000 10B5     		push	{r4, lr}
 378              	.LCFI0:
 379              		.cfi_def_cfa_offset 8
 380              		.cfi_offset 4, -8
 381              		.cfi_offset 14, -4
 382              	.LBB16:
 383              	.LBB17:
 384              	.LBB18:
 385              	.LBB19:
 386              		.file 2 "../../../os/rt/include/chthreads.h"
 387              		.loc 2 276 0
 388 0002 40F20003 		movw	r3, #:lower16:ch
 389 0006 C0F20003 		movt	r3, #:upper16:ch
 390 000a 9C69     		ldr	r4, [r3, #24]
 391              	.LBE19:
 392              	.LBE18:
 393              	.LBE17:
 394              	.LBE16:
 395              		.loc 1 74 0
 396 000c 40F20000 		movw	r0, #:lower16:wa
 397 0010 A268     		ldr	r2, [r4, #8]
 398              		.loc 1 67 0
 399 0012 82B0     		sub	sp, sp, #8
 400              	.LCFI1:
 401              		.cfi_def_cfa_offset 16
 402              		.loc 1 74 0
 403 0014 C0F20000 		movt	r0, #:upper16:wa
 404 0018 40F20003 		movw	r3, #:lower16:thread
 405 001c 0132     		adds	r2, r2, #1
 406 001e C0F20003 		movt	r3, #:upper16:thread
 407 0022 0094     		str	r4, [sp, #0]
ARM GAS  /tmp/ccDAwPgc.s 			page 29


 408 0024 4FF4A471 		mov	r1, #328
 409 0028 0068     		ldr	r0, [r0, #0]
 410 002a FFF7FEFF 		bl	chThdCreateStatic
 411              	.LVL0:
 412 002e 40F20001 		movw	r1, #:lower16:threads
 413 0032 C0F20001 		movt	r1, #:upper16:threads
 414 0036 0860     		str	r0, [r1, #0]
 415              		.loc 1 76 0
 416 0038 FFF7FEFF 		bl	chMsgWait
 417              	.LVL1:
 418              	.LBB20:
 419              	.LBB21:
 420              		.file 3 "../../../os/rt/include/chmsg.h"
 421              		.loc 3 96 0
 422 003c 046B     		ldr	r4, [r0, #48]
 423              	.LBE21:
 424              	.LBE20:
 425              		.loc 1 78 0
 426 003e 2146     		mov	r1, r4
 427 0040 FFF7FEFF 		bl	chMsgRelease
 428              	.LVL2:
 429              		.loc 1 79 0
 430 0044 E0B2     		uxtb	r0, r4
 431 0046 FFF7FEFF 		bl	test_emit_token
 432              	.LVL3:
 433              		.loc 1 80 0
 434 004a FFF7FEFF 		bl	chMsgWait
 435              	.LVL4:
 436              	.LBB22:
 437              	.LBB23:
 438              		.loc 3 96 0
 439 004e 046B     		ldr	r4, [r0, #48]
 440              	.LBE23:
 441              	.LBE22:
 442              		.loc 1 82 0
 443 0050 2146     		mov	r1, r4
 444 0052 FFF7FEFF 		bl	chMsgRelease
 445              	.LVL5:
 446              		.loc 1 83 0
 447 0056 E0B2     		uxtb	r0, r4
 448 0058 FFF7FEFF 		bl	test_emit_token
 449              	.LVL6:
 450              		.loc 1 84 0
 451 005c FFF7FEFF 		bl	chMsgWait
 452              	.LVL7:
 453              	.LBB24:
 454              	.LBB25:
 455              		.loc 3 96 0
 456 0060 046B     		ldr	r4, [r0, #48]
 457              	.LBE25:
 458              	.LBE24:
 459              		.loc 1 86 0
 460 0062 2146     		mov	r1, r4
 461 0064 FFF7FEFF 		bl	chMsgRelease
 462              	.LVL8:
 463              		.loc 1 87 0
 464 0068 E0B2     		uxtb	r0, r4
ARM GAS  /tmp/ccDAwPgc.s 			page 30


 465 006a FFF7FEFF 		bl	test_emit_token
 466              	.LVL9:
 467              		.loc 1 88 0
 468 006e 40F20001 		movw	r1, #:lower16:.LC0
 469 0072 0120     		movs	r0, #1
 470 0074 C0F20001 		movt	r1, #:upper16:.LC0
 471              		.loc 1 89 0
 472 0078 02B0     		add	sp, sp, #8
 473 007a BDE81040 		pop	{r4, lr}
 474              		.loc 1 88 0
 475 007e FFF7FEBF 		b	_test_assert_sequence
 476              	.LVL10:
 477              		.cfi_endproc
 478              	.LFE166:
 479              		.size	msg1_execute, .-msg1_execute
 480 0082 00BFAFF3 		.section	.text.thread,"ax",%progbits
 480      0080AFF3 
 480      0080AFF3 
 480      0080
 481              		.align	2
 482              		.p2align 4,,15
 483              		.thumb
 484              		.thumb_func
 485              		.type	thread, %function
 486              	thread:
 487              	.LFB165:
 488              		.loc 1 59 0
 489              		.cfi_startproc
 490              		@ args = 0, pretend = 0, frame = 0
 491              		@ frame_needed = 0, uses_anonymous_args = 0
 492              	.LVL11:
 493 0000 10B5     		push	{r4, lr}
 494              	.LCFI2:
 495              		.cfi_def_cfa_offset 8
 496              		.cfi_offset 4, -8
 497              		.cfi_offset 14, -4
 498              		.loc 1 61 0
 499 0002 4121     		movs	r1, #65
 500              		.loc 1 59 0
 501 0004 0446     		mov	r4, r0
 502              		.loc 1 61 0
 503 0006 FFF7FEFF 		bl	chMsgSend
 504              	.LVL12:
 505              		.loc 1 62 0
 506 000a 4221     		movs	r1, #66
 507 000c 2046     		mov	r0, r4
 508 000e FFF7FEFF 		bl	chMsgSend
 509              	.LVL13:
 510              		.loc 1 63 0
 511 0012 2046     		mov	r0, r4
 512 0014 4321     		movs	r1, #67
 513 0016 FFF7FEFF 		bl	chMsgSend
 514              	.LVL14:
 515              		.loc 1 65 0
 516 001a 0020     		movs	r0, #0
 517 001c 10BD     		pop	{r4, pc}
 518              		.cfi_endproc
ARM GAS  /tmp/ccDAwPgc.s 			page 31


 519              	.LFE165:
 520              		.size	thread, .-thread
 521              		.global	patternmsg
 522              		.global	testmsg1
 523 001e 00BF     		.section	.rodata.testmsg1,"a",%progbits
 524              		.align	2
 525              		.type	testmsg1, %object
 526              		.size	testmsg1, 16
 527              	testmsg1:
 528 0000 04000000 		.word	.LC1
 529 0004 00000000 		.word	0
 530 0008 00000000 		.word	0
 531 000c 00000000 		.word	msg1_execute
 532              		.section	.rodata.str1.4,"aMS",%progbits,1
 533              		.align	2
 534              	.LC0:
 535 0000 41424300 		.ascii	"ABC\000"
 536              	.LC1:
 537 0004 4D657373 		.ascii	"Messages, loop\000"
 537      61676573 
 537      2C206C6F 
 537      6F7000
 538 0013 00       		.section	.rodata.patternmsg,"a",%progbits
 539              		.align	2
 540              		.type	patternmsg, %object
 541              		.size	patternmsg, 8
 542              	patternmsg:
 543 0000 00000000 		.word	testmsg1
 544 0004 00000000 		.word	0
 545              		.text
 546              	.Letext0:
 547              		.file 4 "../../../os/rt/include/chschd.h"
 548              		.file 5 "/opt/ARM/gcc-arm-none-eabi-4_7-2013q3/bin/../lib/gcc/arm-none-eabi/4.7.4/include/stddef.h
 549              		.file 6 "/opt/ARM/gcc-arm-none-eabi-4_7-2013q3/bin/../lib/gcc/arm-none-eabi/4.7.4/../../../../arm-
 550              		.file 7 "../../../os/rt/ports/ARMCMx/compilers/GCC/chtypes.h"
 551              		.file 8 "../../../os/rt/ports/ARMCMx/chcore.h"
 552              		.file 9 "../../../os/rt/ports/ARMCMx/chcore_v7m.h"
 553              		.file 10 "../../../os/rt/include/chmtx.h"
 554              		.file 11 "../../../test/rt/test.h"
 555              		.file 12 "../../../os/ext/CMSIS/include/core_cm3.h"