ARM GAS  /tmp/cccORKxm.s 			page 1


   1              		.syntax unified
   2              		.cpu cortex-m3
   3              		.fpu softvfp
   4              		.eabi_attribute 20, 1
   5              		.eabi_attribute 21, 1
   6              		.eabi_attribute 23, 3
   7              		.eabi_attribute 24, 1
   8              		.eabi_attribute 25, 1
   9              		.eabi_attribute 26, 1
  10              		.eabi_attribute 30, 2
  11              		.eabi_attribute 34, 1
  12              		.eabi_attribute 18, 4
  13              		.thumb
  14              		.file	"testheap.c"
  15              		.text
  16              	.Ltext0:
  17              		.section	.gnu.lto_.jmpfuncs.8a6c082164e4c36e,"",%progbits
  18 0000 789C6362 		.ascii	"x\234cb`d`g\300\016\272\231\031\030d\2014\023\0201I"
  18      60646067 
  18      C00EBA99 
  18      19186481 
  18      34131031 
  19 0015 32A43232 		.ascii	"2\244220\360 \230\334 f\025\303\317\006\216TFF\306L"
  19      30F02098 
  19      DC206615 
  19      C3CF068E 
  19      544646C6 
  20 002a 468663B3 		.ascii	"F\206c\263\2362\202\2641\302\225p\241+\371\243\001R"
  20      9E3282B4 
  20      31C29570 
  20      A12BF9A3 
  20      0152
  21 003c 802AF665 		.ascii	"\200*\366e\305:FL\3217+\266AE!Fq\242+\270\262\202\017"
  21      C53A464C 
  21      D1372BB6 
  21      41452146 
  21      71A22BB8 
  22 0053 621923BA 		.ascii	"b\031#\272\035\363\301\346\201\36511(\300M\340\300\260"
  22      1DF3C1E6 
  22      81F53131 
  22      28C04DE0 
  22      C0B0
  23 0065 783E1FCC 		.ascii	"x>\037\314\271\310\302OP\364\013\240\311\336\221G\225"
  23      B9C8C24F 
  23      50F40BA0 
  23      C9DE9147 
  23      95
  24 0076 8398CD8E 		.ascii	"\203\230\315\216n\366\221\371H\256\203\250aCW\363D\016"
  24      6EF691F9 
  24      48AE83A8 
  24      614357F3 
  24      440E
  25 0088 D3DB0C98 		.ascii	"\323\333\014\230Bg\346\241\273\007b\036+\206\235\363"
  25      4267E6A1 
  25      BB07621E 
  25      2B869DF3 
  26 0098 B0FAE7CB 		.ascii	"\260\372\347\313\\|\376y#\213\220\023\204\233\315\202"
ARM GAS  /tmp/cccORKxm.s 			page 2


  26      5C7CFE79 
  26      238B9013 
  26      849BCD82 
  27 00a8 11DA73E1 		.ascii	"\021\332s\341\376\3010\177\016^\363ep\313=\221\301\346"
  27      FEC1307F 
  27      0E5EF365 
  27      70CB3D91 
  27      C1E6
  28 00ba 2F668C00 		.ascii	"/f\214\000\230\203\323\3567\263\361\331\375D\032O<\342"
  28      9883D3EE 
  28      37B3F1D9 
  28      FD441A4F 
  28      3CE2
  29 00cc 913B321B 		.ascii	"\221;2\0335\355\301\323?\334.\006\206\206\177\377\377"
  29      35EDC1D3 
  29      3FDC2E06 
  29      86867FFF 
  29      FF
  30 00dd F323C52E 		.ascii	"\363#\305.#\206\032\204\237 \321\312\310\300\214\032"
  30      23861A84 
  30      9F20D1CA 
  30      C8C08C1A 
  31 00ed A433206E 		.ascii	"\2443 n\207\21213j3h\2452\2620g22\306\201$N\000\223"
  31      878A3133 
  31      6A3368A5 
  31      32B23067 
  31      3232C681 
  32 0105 3C430727 		.ascii	"<C\007'\302\312\027\300\314'\243\247\247\017A%\251\305"
  32      C2CA17C0 
  32      CC27A3A7 
  32      A70F4125 
  32      A9C5
  33 0117 25FA4525 		.ascii	"%\372E%`:#5\261@/\231\001\000\262\242\226\216"
  33      603A2335 
  33      B1402F99 
  33      0100B2A2 
  33      968E
  34              		.text
  35              		.section	.gnu.lto_.inline.8a6c082164e4c36e,"",%progbits
  36 0000 789C6362 		.ascii	"x\234cb`d\340e\300\016\2663Bh&\006\216\347\214g\201"
  36      6064E065 
  36      C00EB633 
  36      42682606 
  36      8EE78C67 
  37 0015 0A99429A 		.ascii	"\012\231B\232\234\030\330\026\31031\260\360\202\204"
  37      9C18D816 
  37      C83331B0 
  37      F08284
  38 0024 27F8A1D2 		.ascii	"'\370\241\322\014L\334\014\014\214\030\2420.3\017\012"
  38      0C4CDC0C 
  38      0C8C18A2 
  38      302E330F 
  38      0A
  39 0035 17550F8A 		.ascii	"\027U\017\212V\034jP$\2111\007\273\026\312M\307\243"
  39      561C6A50 
  39      24893107 
  39      BB16CA4D 
ARM GAS  /tmp/cccORKxm.s 			page 3


  39      C7A3
  40 0047 837C8D78 		.ascii	"\203|\215x\203\007M\024\252\226\221\013\030=\214\014"
  40      83074D14 
  40      AA96910B 
  40      183D8C0C 
  41 0057 ECFC8C20 		.ascii	"\354\374\214 \036\"j\230A\321\006\000\220\357 \212"
  41      1E226A98 
  41      41D10600 
  41      90EF208A 
  42              		.text
  43              		.section	.gnu.lto_.pureconst.8a6c082164e4c36e,"",%progbits
  44 0000 789C6362 		.ascii	"x\234cb`d`f```e\200\000&\006\011F\011\000\0012\000?"
  44      60646066 
  44      60606065 
  44      80002606 
  44      09460900 
  45              		.text
  46              		.section	.gnu.lto_heap1_execute.8a6c082164e4c36e,"",%progbits
  47 0000 789CCD58 		.ascii	"x\234\315XIlSW\024}\357\017\266\343y\014\231\210C\022"
  47      496C5357 
  47      147DEF0F 
  47      B6E3790C 
  47      99884312 
  48 0014 88438893 		.ascii	"\210C\210\223\020 \255\252\356\333%H]RTEF\200T\024\225"
  48      1020ADAA 
  48      EEDB2548 
  48      5D525445 
  48      46805414 
  49 0029 A86AD9E0 		.ascii	"\250j\331\340\006\026\335TB]Qf:\320\204\316t\202\026"
  49      0616DD54 
  49      425D5166 
  49      3AD084CE 
  49      748216
  50 003c 150A06DA 		.ascii	"\025\012\006\332\310\215PeU,\262@j\324v\341\005\013"
  50      C88D5065 
  50      552CB240 
  50      6AD476E1 
  50      050B
  51 004e 6F2A454D 		.ascii	"o*EM\317\033\376\367\300\377\277!6\252\235\310\307\367"
  51      CF1BFEF7 
  51      C0FFBF21 
  51      36AA9DC8 
  51      C7F7
  52 0060 FD7BEEBB 		.ascii	"\375{\356\273\303\361\177\266\025B\361\367\350\303\203"
  52      C3F17FB6 
  52      1542F1F7 
  52      E8C383
  53 006f C517BB08 		.ascii	"\305\027\273\010y\026\257i\202P\345\370\002!o\364(J"
  53      7916AF69 
  53      8250E5F8 
  53      02216FF4 
  53      284A
  54 0081 F4DA04C9 		.ascii	"\364\332\004\311\246\324B+\311\216\252\322\322\270\245"
  54      A6D4422B 
  54      C98EAAD2 
  54      D2B8A5
  55 0090 494BE796 		.ascii	"IK\347\226.-\027\267\\\322rs\313\255x\337\332\004\313"
ARM GAS  /tmp/cccORKxm.s 			page 4


  55      2E2D17B7 
  55      5CD27273 
  55      CBAD78DF 
  55      DA04CB
  56 00a3 733405CB 		.ascii	"s4\005\313\243\304\037&`y\317?\005+N\275l+\352\225\014"
  56      A3C41F26 
  56      6079CF3F 
  56      052B4EBD 
  56      6C2BEA95 
  57 00b8 1F67F8A4 		.ascii	"\037g\370\244\345\347\226_Z\001n\005\244\025\344VPZ"
  57      E5E7965F 
  57      5A016E05 
  57      A415E456 
  57      505A
  58 00ca 216E85A4 		.ascii	"!n\205\244\025\346VX\211\026F`E\256u\303\212\320\230"
  58      15E65658 
  58      89164660 
  58      45AE75C3 
  58      8AD098
  59 00dd 282A6ABC 		.ascii	"(*j\274\210Q\312^\240!G\024U\323]nO\334\353\363\007"
  59      8851CA5E 
  59      A0214714 
  59      55D35D6E 
  59      4FDCEBF3 
  60 00f2 82A17024 		.ascii	"\202\241p$\032\243G^\340\215\332\334K.d\263o?\2749\323"
  60      1AA3475E 
  60      E08DDADC 
  60      4B2E64B3 
  60      6F3FBC39 
  61 0107 36F36065 		.ascii	"6\363`e%\231a\253{(\231\277\364;m'\031J\211\2070Tj\373"
  61      259961AB 
  61      7B2899BF 
  61      F43B6D27 
  61      194A8987 
  62 011f 6AC3236B 		.ascii	"j\303#k!\025;\236\324V\307o\315<'I*'\345\273\004\253"
  62      21153B9E 
  62      D456C76F 
  62      CD3C2749 
  62      2A27E5BB 
  63 0135 47B2B427 		.ascii	"G\262\264'W\325\232\362+\254o\356\374r\335\315\224\337"
  63      57D59AF2 
  63      2BAC6FEE 
  63      FC72DDCD 
  63      94DF
  64 0147 F18AFC34 		.ascii	"\361\212\3744\205$)\343-\255&\305G\012#O\212\364\177"
  64      852429E3 
  64      2DAD26C5 
  64      470A234F 
  64      8AF47F
  65 015a 0E2BD9DC 		.ascii	"\016+\331\334\371\225\232<\277B\252i\363S\310\000\027"
  65      F9959A3C 
  65      BF42AA69 
  65      F353C800 
  65      17
  66 016b 7B69F653 		.ascii	"{i\366S\272\026\345.\317\006\233\2666\321\373\301\246"
  66      BA16E52E 
  66      CF069BB6 
ARM GAS  /tmp/cccORKxm.s 			page 5


  66      36D1FBC1 
  66      A6
  67 017c CD4F2143 		.ascii	"\315O!C\274\367\213M\226\342\321\254\221\242\256\220"
  67      BCF78B4D 
  67      96E2D1AC 
  67      91A2AE90 
  68 018c 51218F13 		.ascii	"Q!\217\023{W\243\216*\3468g\376\245>6q\007'^\321\377"
  68      7B57A38E 
  68      2AE63867 
  68      FEA53E36 
  68      7107275E 
  69 01a2 9378A392 		.ascii	"\223x\243\222\350R\310\323\234\270|\342\300c3\237\341"
  69      E852C8D3 
  69      9CB87CE2 
  69      C063339F 
  69      E1
  70 01b3 CCFBCEB9 		.ascii	"\314\373\316\271\026O\\T\226\346\\\327\225\033\017V"
  70      164F5C54 
  70      96E65CD7 
  70      951B0F56 
  71 01c3 8E10F21A 		.ascii	"\216\020\362\032%\273\351'\264\227(\300\237\200*\360"
  71      25BBE927 
  71      B49728C0 
  71      9F802AF0 
  72 01d3 3C50035E 		.ascii	"<P\003^\000\352r\335\005|\027\350\006\276\007\364\310"
  72      00EA72DD 
  72      057C17E8 
  72      06BE07F4 
  72      C8
  73 01e4 F516E03C 		.ascii	"\365\026\340<\320\013\314\003}\300\367\201~\340\007"
  73      D00BCC03 
  73      7DC0F781 
  73      7EE007
  74 01f3 C000F022 		.ascii	"\300\000\360\"0(\375C\322?,\375#\300\017\201Q\340,0"
  74      3028FD43 
  74      D23F2CFD 
  74      23C00F81 
  74      51E02C30 
  75 0207 069C03C6 		.ascii	"\006\234\003\306\245\177B\372\267\002/\001\327\001?"
  75      A57F42FA 
  75      B7022F01 
  75      D7013F
  76 0216 02B6013F 		.ascii	"\002\266\001?\006\266K\277\016\340g\300N\340\347\300"
  76      06B64BBF 
  76      0EE067C0 
  76      4EE0E7C0 
  77 0226 6EE017C0 		.ascii	"n\340\027\300$\3602\260\007\370%p\003\360+`/\360k`\237"
  77      24F032B0 
  77      07F82570 
  77      03F02B60 
  77      2FF06B60 
  78 023b E4F7CB7D 		.ascii	"\344\367\313}6\002\277\001n\002~\013\034\000^\001\246"
  78      3602BF01 
  78      6E027E0B 
  78      1C005E01 
  78      A6
  79 024c A4DF20F0 		.ascii	"\244\337 \360*p3\360;\340\020\360{\340\026\3405\340"
ARM GAS  /tmp/cccORKxm.s 			page 6


  79      2A7033F0 
  79      3BE010F0 
  79      7BE016E0 
  79      35E0
  80 025e B0F44B03 		.ascii	"\260\364K\003\177\000\216\000\257\003G\2017\200c\300"
  80      7F008E00 
  80      AF034781 
  80      378063C0 
  81 026e 1F815B81 		.ascii	"\037\201[\2017\201\343\300[\300m\222\277\035\230\003"
  81      3781E3C0 
  81      5BC06D92 
  81      BF1D9803 
  82 027e EE00DE01 		.ascii	"\356\000\336\001N\000\357\002\361\320\311\261l6\254"
  82      4E00EF02 
  82      F1D0C9B1 
  82      6C36AC
  83 028d 8BF8225B 		.ascii	"\213\370\"[\321\303\335t\201?\337\303\363\036\371v\330"
  83      D1C3DD74 
  83      813FDFC3 
  83      F31EF976 
  83      D8
  84 029e C9907DE4 		.ascii	"\311\220}\344\335\005\015\260\027j\236\250\205w\202"
  84      DD050DB0 
  84      176A9EA8 
  84      857782
  85 02ad BBE9AF54 		.ascii	"\273\351\257T\307\245\303\344\357\254'C\335t\017\245"
  85      C7A5C3E4 
  85      EFAC2743 
  85      DD740FA5 
  86 02bd 8292A11E 		.ascii	"\202\222\241\036B\362D\317u\324\370\264\300G\021>LR"
  86      42F244CF 
  86      75D4F8B4 
  86      C047113E 
  86      4C52
  87 02cf 5E7EE5F5 		.ascii	"^~\345\365\014\365Q\261\345}\235\263\375\234\235?)\351"
  87      0CF551B1 
  87      E57D9DB3 
  87      FD9C9D3F 
  87      29E9
  88 02e1 935491FC 		.ascii	"\223T\221\374\000\370j5\237\241\013\032\310\320 !w\270"
  88      00F86A35 
  88      9FA10B1A 
  88      C8D02021 
  88      77B8
  89 02f3 F8184794 		.ascii	"\370\030G\2246\3112\236'G\027\324\302\311\240\021L\305"
  89      36C9329E 
  89      274717D4 
  89      C2C9A011 
  89      4CC5
  90 0305 2A63E93C 		.ascii	"*c\351<N\236\353R\\\321\3446!l\243\225\267Qqc\000-C"
  90      4E9EEB52 
  90      5CD1E436 
  90      216CA395 
  90      B7517163 
  91 031c C384DC26 		.ascii	"\303\204\334&\307\376\244e\002\273\\\375\256\330\305"
  91      C7FEA465 
  91      02BB5CFD 
ARM GAS  /tmp/cccORKxm.s 			page 7


  91      AED8C5
  92 032b 6EB48556 		.ascii	"n\264\205V\364H[<\371jM\375\021\004\326\005\001Idh\224"
  92      F4485B3C 
  92      F96A4DFD 
  92      1104D605 
  92      01496468 
  93 0340 EFBF542E 		.ascii	"\357\277T.Tw.T%\331\177VVBv\305\352\274\330_\324b\271"
  93      54772E54 
  93      25D97F56 
  93      564276C5 
  93      EABCD85F 
  94 0357 581756AD 		.ascii	"X\027V\255\213u\333\025\2530\232E\261n\253bqO\370\331"
  94      8B75DB15 
  94      AB309A45 
  94      B16EAB62 
  94      714FF8D9 
  95 036b A5B25977 		.ascii	"\245\262Yw\332\317Z\256x\351~*F\\5tR1\363\305Sf+<\217"
  95      DACF5AAE 
  95      78E97E2A 
  95      465C3574 
  95      5231F3C5 
  96 0384 B6A232CE 		.ascii	"\266\2422\316\025\335b\370\373\252\373!T\270\324i\204"
  96      15DD62F8 
  96      FBAAFB21 
  96      54B8D469 
  96      84
  97 0395 6CA927E4 		.ascii	"l\251'\344<\017\331\302C\026\315\220\336zB\346yH/\013"
  97      3C0FD9C2 
  97      4316CD90 
  97      DE7A42E6 
  97      79482F0B 
  98 03a9 A9954E39 		.ascii	"\251\225N9\212\305#\305\242-\327\366\271\312\255\305"
  98      8AC523C5 
  98      A22DD7F6 
  98      B9CAADC5 
  99 03b9 70CB7539 		.ascii	"p\313u9\271y\015\351\345O\233J\3619\317\215T\216m\241"
  99      B9790DE9 
  99      E54F9B4A 
  99      F139CF8D 
  99      548E6DA1 
 100 03cd 726C5C72 		.ascii	"rl\\r\246J\374\210$\012\2465\202\013\330\011Ne4\013"
 100      A64AFC88 
 100      240AA635 
 100      820BD809 
 100      4E65340B 
 101 03e1 C105AC04 		.ascii	"\301\005\254\004\207\222J\224\011n\351\264)\225`\375"
 101      87924A94 
 101      096EE9B4 
 101      299560FD 
 102 03f1 52098AB9 		.ascii	"R\011\212\271v\031!C\365K%\304C\226\314\220\341\372"
 102      76192143 
 102      F54B25C4 
 102      4396CC90 
 102      E1FA
 103 0403 A5121612 		.ascii	"\245\022\026\0228\355(\225\260\251\201\365Nn!\303-\357"
 103      38ED2895 
 103      B0A981F5 
ARM GAS  /tmp/cccORKxm.s 			page 8


 103      4E6E21C3 
 103      2DEF
 104 0415 E81634A4 		.ascii	"\350\0264\244R8cJ%\322\030\251D\021\311Z*1;\251h\214"
 104      5238634A 
 104      25D218A9 
 104      4411C95A 
 104      2A313BA9 
 105 042b 66219598 		.ascii	"f!\225\230\225T\\\204\334e\207\225^<cJ%\276\352!D\354"
 105      95545C84 
 105      DC658795 
 105      5E3C634A 
 105      25BEEA21 
 106 0441 A4121773 		.ascii	"\244\022\027s]o\204L\324/\225\204\230\353\031\307\271"
 106      5D6F844C 
 106      D42F9584 
 106      98EB19C7 
 106      B9
 107 0452 C68D49E4 		.ascii	"\306\215I\344\316\232\223hm\314$\326!\222HQ\251\231"
 107      CE9A9368 
 107      6DCC24D6 
 107      21924851 
 107      A999
 108 0464 449BDD24 		.ascii	"D\233\335$8\315b\022mV\223p\023\222`\203\310\2375\007"
 108      38CD6212 
 108      6D569370 
 108      13926083 
 108      C89F3507 
 109 0478 D15EFF7B 		.ascii	"\321^\377{\266]\334\336\313\335\350Xk7n\223\334\037"
 109      B65DDCDE 
 109      CBDDE858 
 109      6B376E93 
 109      DC1F
 110 048a E5123ACA 		.ascii	"\345\022:\312\242,\227\200\263\304\247Vv\246\2631\233"
 110      A22C9780 
 110      B3C4A756 
 110      76A6B331 
 110      9B
 111 049b 7596FB6E 		.ascii	"u\226\373n<v2\211\251t\027;\031\022\352<\231)\226'\325"
 111      3C763289 
 111      A974173B 
 111      1912EA3C 
 111      99299627 
 112 04b0 3DC93E63 		.ascii	"=\311>cU\346\221\264\233\220\213\271[L(Y;\241\337\010"
 112      55E691B4 
 112      9B908BB9 
 112      5B4C2859 
 112      3BA1DF08 
 113 04c4 FFAEABA1 		.ascii	"\377\256\253\241\3428\021\257\210\374N\304\326\334\274"
 113      E23811AF 
 113      88FC4EC4 
 113      D6DCBC
 114 04d3 7E1F21EC 		.ascii	"~\037!\354\234\327Jg\035E\2320\317\251n'\267vS\313\347"
 114      9CD74A67 
 114      1D459A30 
 114      CFA96E27 
 114      B77653CB 
 115 04e8 CCE9F534 		.ascii	"\314\351\3654F\313\033\020\311\372\256\322k\327)7\243"
ARM GAS  /tmp/cccORKxm.s 			page 9


 115      46CB1B10 
 115      C9FAAED2 
 115      6BD72937 
 115      A3
 116 04f9 5974AAD7 		.ascii	"Yt\252\327J\313\330PaBX<gj\271\257~-\367\011-'\215\220"
 116      4ACBD850 
 116      6142583C 
 116      676AB9AF 
 116      7E2DF709 
 117 0511 FDF5DF54 		.ascii	"\375\365\337T\372\371\034\212\347\034\347\325g\014\242"
 117      FAF91C8A 
 117      E71CE7D5 
 117      670CA2
 118 0520 541EC4C6 		.ascii	"T\036\304\306\306\014b\023\"Y\337T\006\354\006\341a"
 118      C60C6213 
 118      2259DF54 
 118      06EC06E1 
 118      61
 119 0531 348B410C 		.ascii	"4\213A\014X\015\"@\010\377 \260\\\036Dj\325]\353\261"
 119      580D2240 
 119      08FF20B0 
 119      5C1E446A 
 119      D55DEBB1 
 120 0545 1B444A1C 		.ascii	"\033DJ\034\235\263\216]K\231gg\312\311\255\337<;g\315"
 120      9DB38E5D 
 120      4B996767 
 120      CAC9ADDF 
 120      3C3B67CD 
 121 0559 E60E36A6 		.ascii	"\346\0166\246\271\233\021\311Z\345Cv\315ma4\213\346"
 121      B99B11C9 
 121      5AE54376 
 121      CD6D6134 
 121      8BE6
 122 056b 0E593517 		.ascii	"\016Y5\027\275\021Ggm\201\253\372X_\223\370\314\363"
 122      BD114767 
 122      6D81ABFA 
 122      585F93F8 
 122      CCF3
 123 057d ECF73463 		.ascii	"\354\3674c\277-\306u\204\337g,\016\257br\240\332\014"
 123      BF2DC675 
 123      84DF672C 
 123      0EAF6272 
 123      A0DA0C
 124 0590 6D98075B 		.ascii	"m\230\007[.w9\335\230.\217 \222\3502\251\351\362\250"
 124      2E7739DD 
 124      982E8F20 
 124      92E832A9 
 124      E9F2A8
 125 05a3 5D97BD8C 		.ascii	"]\227\275\214f\321\345Q\253.\207D\227\265\334\234\243"
 125      66D1E551 
 125      AB2E8744 
 125      97B5DC9C 
 125      A3
 126 05b4 DC864D1D 		.ascii	"\334\206M\035\315\231\025\2165\246\302\255\210d\255"
 126      CD99158E 
 126      35A6C2AD 
 126      8864AD
ARM GAS  /tmp/cccORKxm.s 			page 10


 127 05c3 A371BB0A 		.ascii	"\243q\273\012}\214fQ\341\270U\205aV!S\300\342\240\341"
 127      7D8C6651 
 127      E1B85585 
 127      61562153 
 127      C0E2A0E1 
 128 05d7 B7CD4888 		.ascii	"\267\315H\210-\233\354\355\306\227\301\352\374v\300"
 128      2D9BECED 
 128      C697C1EA 
 128      FC76C0
 129 05e6 1F17AB53 		.ascii	"\037\027\253S\233\260K\315\317\030\026\251MX\245\026"
 129      9BB04BCD 
 129      CF1816A9 
 129      4D58A516 
 130 05f6 11A9DD3C 		.ascii	"\021\251\335<@\0151-\360_Q.g\337\244r\344UW\357\325"
 130      400D312D 
 130      F05F512E 
 130      67DFA472 
 130      E45557EF 
 131 060b 5E1561A2 		.ascii	"^\025a\242\3427\221\372\003\305D\240\005B\251!\006\361"
 131      E23791FA 
 131      03C544A0 
 131      0542A921 
 131      06F1
 132 061d D8C98E7C 		.ascii	"\330\311\216|\\b\267\321\256tzD\374Og\016M\217\2742"
 132      5C62B7D1 
 132      AE747A44 
 132      FC4F670E 
 132      4D8FBC32 
 133 0631 CD715FE6 		.ascii	"\315q_\346\245\251\364$q\357\337;\375\362TzT=\230\036"
 133      A5A9F424 
 133      71EFDF3B 
 133      FDF2547A 
 133      543D981E 
 134 0645 D30E1D4E 		.ascii	"\323\016\035NoU\246\306\224)<\217\323\203\312\241\303"
 134      6F55A6C6 
 134      94293C8F 
 134      D383CAA1 
 134      C3
 135 0656 FF026F3E 		.ascii	"\377\002o>_Z"
 135      5F5A
 136              		.text
 137              		.section	.gnu.lto_heap1_setup.8a6c082164e4c36e,"",%progbits
 138 0000 789C6362 		.ascii	"x\234cb`\004BL \011\304\273\201X\016\210\031\231\031"
 138      6004424C 
 138      2009C4BB 
 138      81580E88 
 138      199919
 139 0013 1899269C 		.ascii	"\030\231&\234c`hT`bd\0041\200Z\352\231\030\353C!:Ou"
 139      63606854 
 139      60626404 
 139      31805AEA 
 139      9918EB43 
 140 002b 3C96BF33 		.ascii	"<\226\2773\203m?\323\201\007\377\353\031\030\230\201"
 140      836D3FD3 
 140      8107FFEB 
 140      19189881 
 141 003b 42AC0C2D 		.ascii	"B\254\014-\015\015\002\014\361P\243\003A4Hc\020#\023"
ARM GAS  /tmp/cccORKxm.s 			page 11


 141      0D0D020C 
 141      F150A303 
 141      41344863 
 141      102313
 142 004e 98C17C86 		.ascii	"\230\301|\206\201\355\312\214u\214\261\214\013\030Y"
 142      81EDCA8C 
 142      758CB18C 
 142      0B1859
 143 005d 8172550C 		.ascii	"\201rU\014?\0338R\201N\211gd\204\350\201\21202f\242"
 143      3F1B3852 
 143      814E8967 
 143      6484E881 
 143      8A303266 
 144 0072 F09918B5 		.ascii	"\360\231\030\265\031\264R\031\231\2313\031\031\343@"
 144      19B45219 
 144      99993319 
 144      19E340
 145 0081 32273881 		.ascii	"2'8\201D\007'\330\311\251\214,\014/x\200\024\320\310"
 145      440727D8 
 145      C9A98C2C 
 145      0C2F7880 
 145      14D0C8
 146 0094 730C8C40 		.ascii	"s\014\214@7\301\314\2079\203\021l;\320\015\0142zz\372"
 146      37C1CC87 
 146      3983116C 
 146      3BD00D0C 
 146      327A7AFA 
 147 00a8 1054925A 		.ascii	"\020T\222Z\\\242_T\002\2463R\023\013\364\222\031\000"
 147      5CA25F54 
 147      02A63352 
 147      130BF492 
 147      1900
 148 00ba 22BF312B 		.ascii	"\"\2771+"
 149              		.text
 150              		.section	.gnu.lto_.cgraph.8a6c082164e4c36e,"",%progbits
 151 0000 789C3D90 		.ascii	"x\234=\220\315JC1\020\205g\222\333\366%J\273\363\245"
 151      CD4A4331 
 151      10856792 
 151      DBF6254A 
 151      BBF3A5
 152 0013 5CD90B2D 		.ascii	"\\\331\013-\264P\301\027\230B@Q\241\212\335\025q\023"
 152      B450C117 
 152      98424051 
 152      A18ADD15 
 152      7113
 153 0025 50FC7F88 		.ascii	"P\374\177\210\354]\266[%\270\364\025\304\314\231k\356"
 153      EC5DB65B 
 153      25B8F415 
 153      C4CC996B 
 153      EE
 154 0036 225FCEFC 		.ascii	"\"_\316\374\234\231\\GL\236\210~\230\354s\017,D\327"
 154      9C995C47 
 154      4C9E887E 
 154      98EC730F 
 154      2C44D7
 155 0049 1F24727B 		.ascii	"\037$r{~\344\356Y\270*~eqP\253\025\3633\213\257\342"
 155      7EE4EE59 
ARM GAS  /tmp/cccORKxm.s 			page 12


 155      B82A7E65 
 155      7150AB15 
 155      F3338BAF 
 156 005e 8DA5A9E2 		.ascii	"\215\245\251\342\205\245W\305\023K\277\212w\226\301"
 156      85A557C5 
 156      134BBF8A 
 156      7796C1
 157 006d BFF0D4A7 		.ascii	"\277\360\324\247\360\371[\350)\202=J\240\243\370\245"
 157      F0F95BE8 
 157      29823D4A 
 157      A0A3F8A5 
 158 007d 6C283F1E 		.ascii	"l(?\036h8\234~7\032\316`)?\333Yy\307p\321i\260\241p"
 158      68389C7E 
 158      371ACE60 
 158      293FDB59 
 158      79C770D1 
 159 0095 698C1D13 		.ascii	"i\214\035\023\350)\203\305~m\365y=T\304+ +J\323\015"
 159      E82983C5 
 159      7E6DF579 
 159      3D54C42B 
 159      202B4AD3 
 160 00aa 900C59E1 		.ascii	"\220\014Y\341)l\206\332\2306\250\014;\217q\2122m\357"
 160      296C86DA 
 160      9836A80C 
 160      3B8F718A 
 160      326DEF
 161 00bd B194A2EC 		.ascii	"\261\224\242\354\270G.nm\242!\036j*\334\3316#\030\217"
 161      B8472E6E 
 161      6DA2211E 
 161      6A2ADCD9 
 161      3623188F 
 162 00d1 E03B86ED 		.ascii	"\340;\206\355\030\256\023\230N\340\331\242\255\205c"
 162      18AE1398 
 162      4EE0D9A2 
 162      AD8563
 163 00e0 0BC329BA 		.ascii	"\013\303)\272p\206\031\2623d\355>\307\013\346\270/\020"
 163      708619B2 
 163      3364ED3E 
 163      C70BE6B8 
 163      2F10
 164 00f2 5FE0314B 		.ascii	"_\3401K\215\244%\306\037\343\355'\236\007\370\361\364"
 164      8DA425C6 
 164      1FE3ED27 
 164      9E07F8F1 
 164      F4
 165 0103 07E67478 		.ascii	"\007\346tx\306"
 165      C6
 166              		.text
 167              		.section	.gnu.lto_.vars.8a6c082164e4c36e,"",%progbits
 168 0000 789C6362 		.ascii	"x\234cb`d`f``\220d\200\000\226\245\214\014,\365\314"
 168      60646066 
 168      60609064 
 168      800096A5 
 168      8C0C2CF5 
 169 0015 1B181919 		.ascii	"\033\030\031\031\352\031V22\261\3263\254`d\006\222\000"
 169      EA195632 
 169      32B1D633 
ARM GAS  /tmp/cccORKxm.s 			page 13


 169      AC606406 
 169      9200
 170 0027 436704E1 		.ascii	"Cg\004\341"
 171              		.text
 172              		.section	.gnu.lto_.refs.8a6c082164e4c36e,"",%progbits
 173 0000 789C6362 		.ascii	"x\234cb`d`f``\210`\200\000I\006V\222!\023#\220dd`ab"
 173      60646066 
 173      60608860 
 173      80004906 
 173      56922113 
 174 001b 6586400E 		.ascii	"e\206@\016f\026F\026\006d\314\000\000RR\001X"
 174      66164616 
 174      0664CC00 
 174      00525201 
 174      58
 175              		.text
 176              		.section	.gnu.lto_.statics.8a6c082164e4c36e,"",%progbits
 177 0000 789C6362 		.ascii	"x\234cb`d`b\300\016@\342\214\020&\000\000\375\000\011"
 177      60646062 
 177      C00E40E2 
 177      8C102600 
 177      00FD0009 
 178              		.text
 179              		.section	.gnu.lto_.decls.8a6c082164e4c36e,"",%progbits
 180 0000 789CAD5A 		.ascii	"x\234\255Z\177p\024\325\035\177\357\355\375$1\242\266"
 180      7F7014D5 
 180      1D7FEFED 
 180      FD2431A2 
 180      B6
 181 0011 4C701C38 		.ascii	"Lp\0348\333\322\242-\011\010\025\254\312\304\342T\354"
 181      DBD2A22D 
 181      090815AC 
 181      CAC4E254 
 181      EC
 182 0022 8CED4C4B 		.ascii	"\214\355LK\377\351\364\346\346\270l\222\323\344\356"
 182      FFE9F4E6 
 182      E6B86C92 
 182      D3E4EE
 183 0031 DCDB40B4 		.ascii	"\334\333@\264\355\314\002V#U\007P4!\"\241\002\002*\032"
 183      EDCC0256 
 183      23550750 
 183      342122A1 
 183      02022A1A 
 184 0045 7F302208 		.ascii	"\1770\"\010\247\004p$R(AD\002(\206\370+\303\210F\321"
 184      A7047024 
 184      52284144 
 184      022886F8 
 184      2BC38846 
 185 005a 319A7EDF 		.ascii	"1\232~\337\333\335wo/\273\267w\011;\331\354\273\335"
 185      DBDD776F 
 185      2FBBB777 
 185      093BD9EC 
 185      BBDD
 186 006c F73EDFCF 		.ascii	"\367>\337\317\367\327\373\265K\020F\364\250\202\313"
 186      F7D7FBB5 
 186      4B1046F4 
 186      A882CB
ARM GAS  /tmp/cccORKxm.s 			page 14


 187 007b 101C5B2A 		.ascii	"\020\034[*\021\372\215\027!\011\356\335\010\247\327"
 187      11FA8D17 
 187      2109EEDD 
 187      08A7D7
 188 008a 38DBE17C 		.ascii	"8\333\341|\006\316\277A\2750\234\264U\004\376\005\340"
 188      06CEBF41 
 188      BD309CB4 
 188      5504FE05 
 188      E0
 189 009b AAC2B509 		.ascii	"\252\302\265\011\316\277\303\271\004\316\373\341|\020"
 189      CEBFC3B9 
 189      04CEFBE1 
 189      7C10
 190 00a9 CE1570AE 		.ascii	"\316\025p\256\204\323\003u\332\340\272\032\3165p\276"
 190      84D30375 
 190      DAE0BA1A 
 190      CE3570BE 
 191 00b9 AC8BE407 		.ascii	"\254\213\344\007m\177\031\\\377\011\3272\270\226\032"
 191      6D7F195C 
 191      FF09D732 
 191      B8961A
 192 00c8 3269BBD9 		.ascii	"2i\273\331\206\334\014<{\030\316\327\261\316\345>\270"
 192      86DC0C3C 
 192      7B18CED7 
 192      B1CEE53E 
 192      B8
 193 00d9 DE03E71B 		.ascii	"\336\003\347\033p>\004\347n8\377\001g'\234K\015|\237"
 193      703E04E7 
 193      6E38FF01 
 193      67279C4B 
 193      0D7C9F
 194 00ec 81BDC2E0 		.ascii	"\201\275\302\340\365\240\301\361~\203\177[\016\017\252"
 194      F5A0C1F1 
 194      7E837F5B 
 194      0E0FAA
 195 00fb 036DB3C7 		.ascii	"\003m\263\307\220a\352J\271<*\350L\214\272+\215\262"
 195      9061EA4A 
 195      B93C2AE8 
 195      4C8CBA2B 
 195      8DB2
 196 010d A99B7894 		.ascii	"\251\233x\224\240\245\232\266Xk\277W\233\373f\331\245"
 196      A0A59AB6 
 196      586BBF57 
 196      9BFB66D9 
 196      A5
 197 011e 68B90647 		.ascii	"h\271\006G\250\371C\2505\0360\313\202\010i\204\025K"
 197      A8F943A8 
 197      351E30CB 
 197      82086984 
 197      154B
 198 0130 A1188206 		.ascii	"\241\030\202\006\223\320:M[\006\265p\030\257\305\227"
 198      93D03A4D 
 198      5B06B570 
 198      18AFC597 
 199 0140 0230C1E8 		.ascii	"\0020\301\350j\264Ic\207\201n\\\306\242\235\307\236"
 199      6AB44963 
 199      87816E5C 
ARM GAS  /tmp/cccORKxm.s 			page 15


 199      C6A29DC7 
 199      9E
 200 0151 9BA0970B 		.ascii	"\233\240\227\013\301&h\026\206\237\353\0016\214\327"
 200      C1266816 
 200      869FEB01 
 200      368CD7
 201 0160 E1AB7561 		.ascii	"\341\253ua\232.\214\336E\306\375\316U\363\321\360C\272"
 201      9A2E8CDE 
 201      45C6FDCE 
 201      55F3D1F0 
 201      43BA
 202 0172 12B58332 		.ascii	"\022\265\2032\313\226hs}\026\275\306\241\225\024\004"
 202      CB966873 
 202      7D16BDC6 
 202      A1951404 
 203 0182 7E68580D 		.ascii	"~hX\015\343\331%\234@\210\313\3670\2100\336\214\307"
 203      E3D9259C 
 203      4088CBF7 
 203      308830DE 
 203      8CC7
 204 0194 E960CC64 		.ascii	"\351`\314d(\210\232\2638\310\241\235h\223gp\020Z\336"
 204      28889AB3 
 204      38C8A19D 
 204      68936770 
 204      105ADE
 205 01a7 8C0DA667 		.ascii	"\214\015\246g\0378~\240\022\031\330\336\240H\227\375"
 205      1F387EA0 
 205      1219D8DE 
 205      A04897FD 
 206 01b7 D66BE9C0 		.ascii	"\326k\351\300\372c\263D\243\374b0e\030\317\223\214\026"
 206      FA63B344 
 206      A3FC6230 
 206      6518CF93 
 206      8C16
 207 01c9 EED237E1 		.ascii	"\356\3227\341\022\220\276\001\233\342\267<v\352mb\343"
 207      1290BE01 
 207      9BE2B73C 
 207      76EA6D62 
 207      E3
 208 01da 695D4F67 		.ascii	"i]Og+t\000\216I\315z\014{F\320Qlzmg\353\313]\222=\252"
 208      2B74008E 
 208      49CD7A0C 
 208      7B46D051 
 208      6C7A6D67 
 209 01f4 59B66A62 		.ascii	"Y\266jb\034\314qZ\373\022\255Y\362]\206VPge|\226H\251"
 209      1CCC715A 
 209      FB12AD59 
 209      F25D8656 
 209      5067657C 
 210 020b E2000126 		.ascii	"\342\000\001&\3634\223\371\022\276\314&R\350]3R\272"
 210      F33493F9 
 210      12BECC26 
 210      52E85D33 
 210      52BA
 211 021d 5B26D844 		.ascii	"[&\330D\012\321#E\027h\2708s\257\326\214\027u\\\341"
 211      0AD12345 
 211      1768B838 
ARM GAS  /tmp/cccORKxm.s 			page 16


 211      73AFD68C 
 211      17755CE1 
 212 0231 245334F3 		.ascii	"$S4\363+\314\311g\271\231\373\326\234z\3130\307\010"
 212      2BCCC967 
 212      B999FBD6 
 212      9C7ACB30 
 212      C708
 213 0243 D0B633B4 		.ascii	"\320\2663\2645\304D;\275\341\334\276\033Lk\007sb&h\215"
 213      35C4443B 
 213      BDE1DCBE 
 213      1B4C6B07 
 213      73622668 
 214 0258 99208F99 		.ascii	"\231 \217\231\240\0213\354\260fy\021\255\010Z-\231\226"
 214      A01133EC 
 214      B0667911 
 214      AD085A2D 
 214      9996
 215 026a DDB9AD63 		.ascii	"\335\271\255c\000\333\323/\300\233\240\334\\\237\221"
 215      00DBD32F 
 215      C09BA0DC 
 215      5C9F91
 216 0279 F5ED5562 		.ascii	"\365\355Ub\362X\241(\275\214m\306g\204\214\357m)s\364"
 216      F258A128 
 216      BD8C6DC6 
 216      67848CEF 
 216      6D2973F4 
 217 028d A3C632DE 		.ascii	"\243\3062\336\210\233v\237s\236R\260\335\266!\263[\010"
 217      889B769F 
 217      739E52B0 
 217      DDB621B3 
 217      5B08
 218 029f 99FE9671 		.ascii	"\231\376\226q\316!3\274s\321m\345,p/\244\213\211\201"
 218      CE2133BC 
 218      73D16DE5 
 218      2C702FA4 
 218      8B8981
 219 02b2 9E64C6A5 		.ascii	"\236d\306\245\322\006Z>\305#\315\024\235E\030\267\263"
 219      D2065A3E 
 219      C523CD14 
 219      9D4518B7 
 219      B3
 220 02c3 6CDFC831 		.ascii	"l\337\3101\007\313G\200\310\271=\313p\250\321;['\214"
 220      07CB4780 
 220      C8B93DCB 
 220      70A8D13B 
 220      5B278C
 221 02d6 969ADE0D 		.ascii	"\226\232\336\015>\307!\273Z\373\212R7\224C\356%\036"
 221      3EC721BB 
 221      5AFB8A52 
 221      379443EE 
 221      251E
 222 02e8 95DDADE3 		.ascii	"\225\335\255\343F\020\223\034h\253dvV=\253\372\\\242"
 222      4610931C 
 222      68AB6476 
 222      563DABFA 
 222      5CA2
 223 02fa 3BE0A8A6 		.ascii	";\340\250\246%\272Cb\304\301\020h6\037\213\254y~\220"
ARM GAS  /tmp/cccORKxm.s 			page 17


 223      25BA4362 
 223      C4C11068 
 223      361F8BAC 
 223      797E90
 224 030d 0D97AF49 		.ascii	"\015\227\257If\236o\335q\374+\243s.\000\211\2403\254"
 224      669E6FDD 
 224      71FC2BA3 
 224      732E0089 
 224      A033AC
 225 0320 E561DB5C 		.ascii	"\345a\333\\9,\344J\367c\276\\\275\2219:\026\234\226"
 225      392CE44A 
 225      F763BE5C 
 225      BD91393A 
 225      169C96
 226 0333 22F1A38C 		.ascii	"\"\361\243\214\370g\234\370\331]'\366J\026\342n\011"
 226      F8679CF8 
 226      D95D27F6 
 226      4A16E26E 
 226      09
 227 0344 FE9E2DE9 		.ascii	"\376\236-\351\367\004\322=\253jlH;f\235\235\301\332"
 227      F704D23D 
 227      AB6A6C48 
 227      3B669D9D 
 227      C1DA
 228 0356 3D5CEECD 		.ascii	"=\\\356\315\314`\217{(\343\223\266\262O\012\262\273"
 228      CC608F7B 
 228      28E393B6 
 228      B24F0AB2 
 228      BB
 229 0367 D6D84D27 		.ascii	"\326\330M'.\265\004\364\011\226kOr\304\3565\243\317"
 229      2EB504F4 
 229      09966B4F 
 229      72C4EE35 
 229      A3CF
 230 0379 5F1D7333 		.ascii	"_\035s3\307\354\2358\202\024\021\020\213\236\254\364"
 230      C7EC9D38 
 230      82141110 
 230      8B9EACF4 
 231 0389 B12CEDF0 		.ascii	"\261,\355\360\360ql_\307G\357\372u\334\242\301>\321"
 231      F0716C5F 
 231      C747EFFA 
 231      75DCA2C1 
 231      3ED1
 232 039b 07454F76 		.ascii	"\007EOv\030;\264\227O}\3749\303\230\337: \371\371\200"
 232      183BB497 
 232      4F7DFC39 
 232      C398DF3A 
 232      20F9F980 
 233 03af E4CF4E7D 		.ascii	"\344\317N}\212n@\320yn\313\263\273\276\337w]~s\346K"
 233      8A6E40D0 
 233      796ECBB3 
 233      BBBEDF77 
 233      5D7E73E6 
 234 03c4 EF254296 		.ascii	"\357%B\226\344\031Q\010\372\201I<k\033cg\205\030\353"
 234      E4195108 
 234      FA81493C 
 234      6B1B6367 
ARM GAS  /tmp/cccORKxm.s 			page 18


 234      8518EB
 235 03d7 5B73747F 		.ascii	"[st\177\271M\224\341\242\"<;_\376\031\223~\257\227J"
 235      B94D94E1 
 235      A2223C3B 
 235      5FFE1993 
 235      7EAF974A 
 236 03eb FFD256FA 		.ascii	"\377\322V\372\227\202\364\315G:\276\3036\322\203\316"
 236      9782F4CD 
 236      473ABEC3 
 236      36D283CE 
 237 03fb A3DA8D3F 		.ascii	"\243\332\215?.\300\347\347Y\004\357\360f'B\273\336\232"
 237      2EC0E7E7 
 237      5904EFF0 
 237      662742BB 
 237      DE9A
 238 040d 68BA6C76 		.ascii	"h\272lv\211(\212\375\266\314\033\367p\362\233\217,\337"
 238      89288AFD 
 238      B6CC1BF7 
 238      70F29B8F 
 238      2CDF
 239 041f B0CA3BDA 		.ascii	"\260\312;\332t\322\311\274\311Q\273n\035]:\231\210\373"
 239      74D2C9BC 
 239      C951BB6E 
 239      1D5D3A99 
 239      88FB
 240 0431 3962B70B 		.ascii	"9b\267\013\242sDY\021\017p\304\236\242\020\2359\036"
 240      A2734459 
 240      110F70C4 
 240      9EA2109D 
 240      391E
 241 0443 E288BD2E 		.ascii	"\342\210\275.\210c\013\344\330\315\021\373\213Bt\346"
 241      88630BE4 
 241      D8CD11FB 
 241      8B4274E6 
 242 0453 7894230E 		.ascii	"x\224#\016\270 \226\027\310\3618G\034,\012\321\231\343"
 242      B8209617 
 242      C8F13847 
 242      1C2C0AD1 
 242      99E3
 243 0465 298ED8F9 		.ascii	")\216\330\371\373\374\210!;\216\303b*w6\370\2058\033"
 243      FBFC8821 
 243      3B8EC362 
 243      2A7736F8 
 243      85381B
 244 0478 3CED35FB 		.ascii	"<\3555\373\216\2765\307\366W\216f\362\326\347\315v|"
 244      8EBE35C7 
 244      F6578E66 
 244      F2D6E7CD 
 244      767C
 245 048a 43C5757C 		.ascii	"C\305u|v\306\320G\246~\016\332\265\321m\264s\017+\035"
 245      76C6D047 
 245      A67E0EDA 
 245      B5D16DB4 
 245      730F2B1D 
 246 049e 73806376 		.ascii	"s\200cvO\036]XY\372+c\264z\177}\246\274E\3500\003\034"
 246      4F1E5D58 
 246      59FA2B63 
ARM GAS  /tmp/cccORKxm.s 			page 19


 246      B47A7F7D 
 246      A6BC45E8 
 247 04b5 8DF67ED9 		.ascii	"\215\366~\331\336\221W\327\312\313\235j\207\361#d\022"
 247      DE9157D7 
 247      CACB9D6A 
 247      87F12364 
 247      12
 248 04c6 FC5F4982 		.ascii	"\374_I\202\234\211Q\346E}\3114\350\245\365\355\372W"
 248      9C8951E6 
 248      457DC934 
 248      E8A5F5ED 
 248      FA57
 249 04d8 F7D6CEA1 		.ascii	"\367\326\316\241\262\202\010\241\262\310\307]q\325\210"
 249      B28208A1 
 249      B2C8C75D 
 249      71D588
 250 04e7 73E7F3C5 		.ascii	"s\347\363\305Z\271OP\335\305RF\037\337J\350\270\336"
 250      5AB94F50 
 250      DDC55246 
 250      1FDF4AE8 
 250      B8DE
 251 04f9 ECCB4E12 		.ascii	"\354\313N\022\016\365\345L\022\012\007{\234\201-\367"
 251      0EF5E54C 
 251      120A077B 
 251      9C812DF7 
 252 0509 6527092F 		.ascii	"e'\011/\177OL[\341\234I\002\266\216\371\230[\017\033"
 252      7F4F4C5B 
 252      E19C4902 
 252      B68EF998 
 252      5B0F1B
 253 051c C62BAE36 		.ascii	"\306+\2566A\255\276l\226\034{\353:{\272\005t\031#3\344"
 253      41ADBE6C 
 253      961C7BEB 
 253      3A7BBA05 
 253      74192333 
 254 0531 5AA6FB5A 		.ascii	"Z\246\373Z\301\220\035\334\220\272e\212\325g\223\240"
 254      C1901DDC 
 254      90BA658A 
 254      D56793A0 
 255 0541 CFB9E2F4 		.ascii	"\317\271\342\364\231<z}60}:\004}\316\215R\237m\202>"
 255      993C7A7D 
 255      36307D3A 
 255      047DCE8D 
 255      529F6D82 
 256 0556 DF15A7CF 		.ascii	"\337\025\247\317TA\237\2426\004\236&v\033\002\364._"
 256      54419FA2 
 256      36049E26 
 256      761B02F4 
 256      2E5F
 257 0568 1E6CB1DB 		.ascii	"\036l\261\333{\360\010\242\230\351\264\"\346\312[\230"
 257      7BF008A2 
 257      98E9B422 
 257      E6CA5B98 
 258 0578 E932624E 		.ascii	"\3512bNY'\336\305\200u0\260\275BN\355\332;\305\264\272"
 258      5927DEC5 
 258      807530B0 
 258      BD424EED 
ARM GAS  /tmp/cccORKxm.s 			page 20


 258      DA3BC5B4 
 259 058d 2FC70B3E 		.ascii	"/\307\013>\253\027\350c*\355\033\266\377\223\335\011"
 259      AB17E863 
 259      2AED1BB6 
 259      FF93DD09 
 260 059d 329FD11F 		.ascii	"2\237\321\037~t! `\326\303\030R\313B\264\356w\031\243"
 260      7E742120 
 260      60D6C318 
 260      52CB42B4 
 260      EE7719A3 
 261 05b1 90C5BB68 		.ascii	"\220\305\273h\230wM\033\036\341\240\203#\031@-#\324"
 261      98774D1B 
 261      1EE1A083 
 261      2319402D 
 261      23D4
 262 05c3 6C3A409D 		.ascii	"l:@\235\344\200\003\257\214v\211W\364\032\352U\246\323"
 262      E48003AF 
 262      8C768957 
 262      F41AEA55 
 262      A6D3
 263 05d5 19212E96 		.ascii	"\031!.\226\177\232M\251Or;\310\302\026E\347\004\273"
 263      7F9A4DA9 
 263      4F723BC8 
 263      C21645E7 
 263      04BB
 264 05e7 6F3F3012 		.ascii	"o?0\022\273\033\007A\337\360\004\035t\301\011\271\370"
 264      BB1B0741 
 264      DFF0041D 
 264      74C109B9 
 264      F8
 265 05f8 AF80C595 		.ascii	"\257\200\305\225h\230\014\241[\020\203\3340\375mFN\026"
 265      68980CA1 
 265      5B1083DC 
 265      30FD6D46 
 265      4E16
 266 060a 80C3B6FD 		.ascii	"\200\303\266\375\210\335\022\211\336\345\033\020mv\033"
 266      88DD1289 
 266      DEE51B10 
 266      6D761B
 267 0619 1078D814 		.ascii	"\020x\330\024&\214Ocb \366\266\215(B\206\037\"\3010"
 267      268C4F63 
 267      6220F6B6 
 267      8D284286 
 267      1F22C130 
 268 062d EE847907 		.ascii	"\356\204y\007\260\333C\256\314Z\376\337~\276K\360\252"
 268      B0DB43AE 
 268      CC5AFEDF 
 268      7EBE4BF0 
 268      AA
 269 063e DB569AD5 		.ascii	"\333V\232\325\366!\213\3555\246\210\276\243\263\222"
 269      F6218BED 
 269      35A688BE 
 269      A3B392
 270 064d 63765F6F 		.ascii	"cv_o\326\256\262\314\022\315\362d\027o\232\331\330\316"
 270      D6AEB2CC 
 270      12CDF264 
 270      176F9AD9 
ARM GAS  /tmp/cccORKxm.s 			page 21


 270      D8CE
 271 065f 1107AECF 		.ascii	"\021\007\256\317\317q\252#\242il=\0276d\365\276\241"
 271      CF71AA23 
 271      A2696C3D 
 271      173664F5 
 271      BEA1
 272 0671 18C4D030 		.ascii	"\030\304\3200\304\234\365-\3351s\216\227\003\342\344"
 272      C49CF52D 
 272      DD31738E 
 272      9703E2E4 
 273 0681 AB8373E8 		.ascii	"\253\203s\350y\315\315\341\263\\\365\3227]\266s\314"
 273      79CDCDE1 
 273      B35CF5D2 
 273      375DB673 
 273      CC
 274 0692 C1D7DCFC 		.ascii	"\301\327\334\3749\313E3\243\347\332\313!\373w\272\321"
 274      39CB4533 
 274      A3E7DACB 
 274      21FB77BA 
 274      D1
 275 06a3 ACCA1397 		.ascii	"\254\312\023\227\316V9a}\365c\246\002\335\307\353\275"
 275      CE563961 
 275      7DF563A6 
 275      02DDC7EB 
 275      BD
 276 06b4 7CB4BDAF 		.ascii	"|\264\275\257\016\336\313\021\373\213B\014\345ja\036"
 276      0EDECB11 
 276      FB8B420C 
 276      E56A611E 
 277 06c4 E2E66318 		.ascii	"\342\346c\030\037\307\223\020\011\343\036\310\3530\356"
 277      1FC79310 
 277      09E31EC8 
 277      EB30EE
 278 06d3 1613EC80 		.ascii	"\026\023\354\200\337\334]\335\272\343\374\333\374-\226"
 278      DFDC5DDD 
 278      BAE3FCDB 
 278      FC2D96
 279 06e2 7D3E14A6 		.ascii	"}>\024\246\015A\357p\320\376\243e\371\325q\333;\310"
 279      0D41EF70 
 279      D0FEA365 
 279      F9D571DB 
 279      3BC8
 280 06f4 09DF8379 		.ascii	"\011\337\203y\303\367\230\030\276'9\211A\1771\034\362"
 280      C3F79818 
 280      BE273989 
 280      417F311C 
 280      F2
 281 0705 98F4B060 		.ascii	"\230\364\260`\322#`R)\214\337a&}\207\320\377\357\212"
 281      D2236052 
 281      298CDF61 
 281      267D87D0 
 281      FFEF8A
 282 0718 863DE3E7 		.ascii	"\206=\343\347\257\007\217\011\257\007s\266\267\305r"
 282      AF078F09 
 282      AF0773B6 
 282      B7C572
 283 0727 411DE67A 		.ascii	"A\035\346z\201\302S:\205\215\214\302\213\354\377\177"
ARM GAS  /tmp/cccORKxm.s 			page 22


 283      81C2533A 
 283      858D8CC2 
 283      8BECFF7F 
 284 0737 31A7E06C 		.ascii	"1\247\340l\246\366\354j\334b\336K\3202\266\367\326R"
 284      A6F6EC6A 
 284      DC62DE4B 
 284      D032B6F7 
 284      D652
 285 0749 A6CF634D 		.ascii	"\246\317cM\204L\015\207\370\270\324\3008A.a%\313\264"
 285      844C0D87 
 285      F8B8D4C0 
 285      38412E61 
 285      25CBB4
 286 075c 8DD57196 		.ascii	"\215\325q\226{RX\024\226\006\305\322G\245\256\244{\262"
 286      7B525814 
 286      9606C5D2 
 286      47A5AEA4 
 286      7BB2
 287 076e BEE57D7A 		.ascii	"\276\345}z\271O'B\320g`mc\346k}\327\236\313\235\240"
 287      B94F2742 
 287      D067606D 
 287      63E66B7D 
 287      D79ECB9D 
 288 0783 2F98633E 		.ascii	"/\230c>\260\235\377~ \314\177\177\030:w\272\311\306"
 288      B09DFF7E 
 288      20CC7F7F 
 288      183A77BA 
 288      C9C6
 289 0795 07848B6F 		.ascii	"\007\204\213o\226|\266\357\367\355\354u\306v$>C\334"
 289      967CB6EF 
 289      F7EDEC75 
 289      C676243E 
 289      43DC
 290 07a7 DEF57945 		.ascii	"\336\365yEi\246\203@\232\3766\226K\374\021\227\370&"
 290      69A68340 
 290      9AFE3696 
 290      4BFC1197 
 290      F826
 291 07b9 31247E3C 		.ascii	"1$~<\002\017}\342\350\241\311\246\366\250%\200\015}"
 291      020F7DE2 
 291      E8A1C9A6 
 291      F6A82580 
 291      0D7D
 292 07cb FA5BC639 		.ascii	"\372[\3069\021"
 292      11
 293 07d0 28643ECB 		.ascii	"(d>\313T\322y\022\324\306Q\007\312\335@\015\025\013"
 293      54D27912 
 293      D4C65107 
 293      CADD400D 
 293      150B
 294 07e2 407D82A3 		.ascii	"@}\202\243\016\272\242.\363\026\212\272\226\243v\216"
 294      0EBAA22E 
 294      F3168ABA 
 294      96A3768E 
 295 07f2 774335A6 		.ascii	"wC5\246\261\005\240\256\343\250]\256\250\355c\354P\271"
 295      B105A0AE 
 295      E3A85DAE 
ARM GAS  /tmp/cccORKxm.s 			page 23


 295      A8ED63EC 
 295      50B9
 296 0804 8B9E0A98 		.ascii	"\213\236\012\230!\336=\336)(\363z(\214Oe\373\262\236"
 296      21DE3DDE 
 296      2928F37A 
 296      288C4F65 
 296      FBB29E
 297 0817 D6C48840 		.ascii	"\326\304\210@&\242'\264\314\347\264\027\2075\222?\347"
 297      26A227B4 
 297      CCE7B417 
 297      8735923F 
 297      E7
 298 0828 6B14C77D 		.ascii	"k\024\307}v*\374+2\316(\231\037\201\020\2649\300\027"
 298      762AFC2B 
 298      32CE2899 
 298      1F8110B4 
 298      39C017
 299 083b 7AFB5EF8 		.ascii	"z\373^\370\360]\363\343\020\364s\264\236\342f\026\227"
 299      F05DF3E3 
 299      10F473B4 
 299      9EE26616 
 299      97
 300 084c 3350DA68 		.ascii	"3P\332h\200L\264\030$\214\277&D\274ae\246\313\2035\025"
 300      804CB418 
 300      248CBF26 
 300      44BC6165 
 300      A6CB8335 
 301 0861 97D0599E 		.ascii	"\227\320Y\236\007\375\233a\350\337\016G\177\177\331"
 301      07FD9B61 
 301      E8DF0E47 
 301      7F7FD9
 302 0870 B225EDC3 		.ascii	"\262%\355\303\365\016\240\373\330f\303\277\264E\370"
 302      F50EA0FB 
 302      D866C3BF 
 302      B445F8
 303 087f CEBC9B0D 		.ascii	"\316\274\233\015F\007\361=\011\000\263\017\002\316;"
 303      4607F13D 
 303      0900B30F 
 303      02CE3B
 304 088e 6DB48669 		.ascii	"m\264\206i|\243\314\213y7\332\006\211\345\223\037\366"
 304      7CA3CC8B 
 304      7937DA06 
 304      89E5931F 
 304      F6
 305 089f F90DE13F 		.ascii	"\371\015\341?t(\341+\034\202>\342\366\371ah\371\331"
 305      7428E12B 
 305      1C823EE2 
 305      F6F96168 
 305      F9D9
 306 08b1 66C9CA63 		.ascii	"f\311\312c\261T\250\021\364\327\344\316\304\356\221"
 306      B154A811 
 306      F4D7E4CE 
 306      C4EE91
 307 08c0 7288B117 		.ascii	"r\210\261\027\376\306\257\234\371@~\244\373\244\022"
 307      FEC6AF9C 
 307      F9407EA4 
 307      FBA412
ARM GAS  /tmp/cccORKxm.s 			page 24


 308 08cf 91A2A0CB 		.ascii	"\221\242\240\313\000\327e\347\246\355\335\026\313\206"
 308      00D765E7 
 308      A6EDDD16 
 308      CB86
 309 08dd 717311AA 		.ascii	"qs\021\252\344\215\343\245\271\232\300\204\025[x,\012"
 309      E48DE3A5 
 309      B99AC084 
 309      155B782C 
 309      0A
 310 08ee 9A3CBA56 		.ascii	"\232<\272V[\336\306\206\361\003E\260\310\373m\327C\371"
 310      5BDEC686 
 310      F10345B0 
 310      C8FB6DD7 
 310      43F9
 311 0900 ECA99B30 		.ascii	"\354\251\2330\307:\017pV\235\253-\313\3030^~\301\334"
 311      C73A0F70 
 311      569DAB2D 
 311      CBC3305E 
 311      7EC1DC
 312 0913 FCB0343C 		.ascii	"\374\2604<\311[\270\340-\217\265\355\273\334*\372\221"
 312      C95BB8E0 
 312      2D8FB5ED 
 312      BBDC2AFA 
 312      91
 313 0924 0BE59647 		.ascii	"\013\345\226G\355\014\"\211N\022\236\331\230g=g\271"
 313      ED0C2289 
 313      4E129ED9 
 313      98673D67 
 313      B9
 314 0935 F3DB6D9D 		.ascii	"\363\333m\2359\301\263\312\312\362'h\255\2269\310zz"
 314      39C1B3CA 
 314      CAF22768 
 314      AD9639C8 
 314      7A7A
 315 0947 4D1B1C1A 		.ascii	"M\033\034\032\222\314\357\007\267\006\263\375\331\027"
 315      92CCEF07 
 315      B706B3FD 
 315      D917
 316 0955 EF55F0F9 		.ascii	"\357U\360\371\241\365\333@\266\245\230E\244h\240\263"
 316      A1F5DB40 
 316      B6A59845 
 316      A468A0B3 
 317 0965 D69E45A3 		.ascii	"\326\236E\243\275<A\231`67\017\275\270\315\357\324a"
 317      BD3C4199 
 317      6036370F 
 317      BDB8CDEF 
 317      D461
 318 0977 53BC27AC 		.ascii	"S\274'\254x\317g\350\352X{\177hh\2421\277\240\2375\360"
 318      78CF67E8 
 318      EA587B7F 
 318      6868A231 
 318      BFA09F35 
 319 098c 3CCB645F 		.ascii	"<\313d_\312\302\230\205\363~\252\261\007X\024\360MG"
 319      CAC29885 
 319      F37EAAB1 
 319      075814F0 
 319      4D47
ARM GAS  /tmp/cccORKxm.s 			page 25


 320 099e 183F29D1 		.ascii	"\030?)\321\345\316:\311nND\357\362\335\011\333o:<\226"
 320      E5CE3AC9 
 320      6E4E44EF 
 320      F2DD09DB 
 320      6F3A3C96 
 321 09b2 25077D61 		.ascii	"%\007}a\000\353\030\335\000\320\266\367\274\313t_?\012"
 321      00EB18DD 
 321      00D0B6F7 
 321      BCCB745F 
 321      3F0A
 322 09c4 5E72D0C1 		.ascii	"^r\320\301\3019\2266I\302\222\3430'\321\177\3247\202"
 322      C1399636 
 322      49C292E3 
 322      3027D17F 
 322      D43782
 323 09d7 659C452F 		.ascii	"e\234E/\212L\3201\0169P\324*f\270Z&\342i\2168\232u\221"
 323      8A4CD031 
 323      0E3950D4 
 323      2A66B85A 
 323      26E2698E 
 324 09ef B91EF684 		.ascii	"\271\036\366\204\361\006\211\256<6\262\377O\263\377"
 324      F10689AE 
 324      3C36B2FF 
 324      4FB3FF
 325 09fe CF4AAEAB 		.ascii	"\317J\256\253\220\034#\377G\312\267\256{N\262\274S\027"
 325      901C23FF 
 325      47CAB7AE 
 325      7B4EB2BC 
 325      5317
 326 0a10 60AB72C8 		.ascii	"`\253r\310\012\021\2547s\252\030\306\317K\305\317\217"
 326      0A11AC37 
 326      73AA18C6 
 326      CF4BC5CF 
 326      8F
 327 0a21 3B24A7F9 		.ascii	";$\247\371\261\330\013d\353\201\271?\025\362\374\177"
 327      B1D80B64 
 327      EB81B93F 
 327      15F2FC7F 
 328 0a31 5B8E059D 		.ascii	"[\216\005\235\011\275`\344\345t\364\202\326\\\005\275"
 328      09BD60E4 
 328      E574F482 
 328      D65C05BD 
 329 0a41 12102459 		.ascii	"\022\020$Y\177\336\215\276\325\312u\2450\315\333\317"
 329      7FDE8DBE 
 329      D5CA75A5 
 329      30CDDBCF 
 330 0a51 0FF2BCD5 		.ascii	"\017\362\274\325\355G\320\327\\\326\300\246\354VHN\366"
 330      ED47D0D7 
 330      5CD6C0A6 
 330      EC56484E 
 330      F6
 331 0a62 51515B41 		.ascii	"QQ[A\324\004\244\215Y\255\005,\")\214\341Q&\316qy\270"
 331      D404A48D 
 331      59AD052C 
 331      22298CE1 
 331      5126CE71 
 332 0a78 525C1E66 		.ascii	"R\\\036f\273\254\311\006\376\366\021\330v\207\243m\177"
ARM GAS  /tmp/cccORKxm.s 			page 26


 332      BBACC906 
 332      FEF611D8 
 332      7687A36D 
 332      7F
 333 0a89 E1124B61 		.ascii	"\341\022Ka\374j6@\360\004\264\002\364j\2512X\014n*c"
 333      FC6A3640 
 333      F004B402 
 333      F46AA932 
 333      580C6E2A 
 334 0a9e 55361A3A 		.ascii	"U6\032:\005\364<\300\372D\256\363j\366\220\206\355\370"
 334      05F43CC0 
 334      FA44AEF3 
 334      6AF69086 
 334      EDF8
 335 0ab0 6C36EB11 		.ascii	"l6\353\021l\255M'\225\335\372\016P\357/\0052\272qy\204"
 335      6CAD4D27 
 335      95DDFA0E 
 335      50EF2F05 
 335      32BA7179 
 336 0ac5 E6C4351D 		.ascii	"\346\3045\035\344\234ig$\373\205\270>\007rn\367\272"
 336      E49C6967 
 336      24FB85B8 
 336      3E07726E 
 336      F7BA
 337 0ad7 63BB87F2 		.ascii	"c\273\207\362\266{\303\261\335`\336Nn\267c\273\245y"
 337      B67BC3B1 
 337      DD60DE4E 
 337      6EB763BB 
 337      A579
 338 0ae9 E5754A96 		.ascii	"\345uJ\226\215\263\234\266\217\346m\273G\310\371\213"
 338      8DB39CB6 
 338      8FE66DBB 
 338      47C8F98B 
 339 0af9 1AE486A4 		.ascii	"\032\344\206\244rW\244N\216\246\"\252\357\226?\374%"
 339      7257A44E 
 339      8EA622AA 
 339      EF963FFC 
 339      25
 340 0b0a 3407852A 		.ascii	"4\007\205***\365\277d\272RQ+\343\211X}c\265\\\031\253"
 340      2A2AF5BF 
 340      64BA5251 
 340      2BE38958 
 340      7D63B55C 
 341 0b20 A3D52AEA 		.ascii	"\243\325*\352P\211\320\312\227\216\337-G\324\277V&S"
 341      5089D0CA 
 341      978EDF2D 
 341      47D4BF56 
 341      2653
 342 0b32 6AE54D7F 		.ascii	"j\345M\177\272\255\2626\026\233\022U\032\246$\222\011"
 342      BAADB236 
 342      169B1255 
 342      1AA62492 
 342      09
 343 0b43 798A1C9D 		.ascii	"y\212\034\235\037\2372#2s\3125S\247M\277sz\345\374x"
 343      1F9F3223 
 343      3273CA35 
 343      53A74DBF 
ARM GAS  /tmp/cccORKxm.s 			page 27


 343      737AE5FC 
 344 0b58 82E2D6C7 		.ascii	"\202\342\326\307\347\323z\225\226z\2253*fV\314\340\322"
 344      E7D37A95 
 344      967A9533 
 344      2A6656CC 
 344      E0D2
 345 0b6a D26A75B5 		.ascii	"\322ju\265\\\003\322JAZ\255\254\3264&b\021\365\247\216"
 345      5C03D24A 
 345      415AADAC 
 345      D6342662 
 345      11F5A78E 
 346 0b7e DCA0562C 		.ascii	"\334\240V,\251\310\320`L]$\245$\027\304\253e\245\204"
 346      A9C8D060 
 346      4C5D24A5 
 346      2417C4AB 
 346      65A584
 347 0b91 2906FFA0 		.ascii	")\006\377\240<&\255\336\021\255\217\327&\"\352\244\034"
 347      3C26ADDE 
 347      11AD8FD7 
 347      2622EAA4 
 347      1C
 348 0ba2 94545251 		.ascii	"\224TRQ\323\224\375\234\333\232\000\312\300\0114\306"
 348      D394FD9C 
 348      DB9A00CA 
 348      C00934C6 
 349 0bb2 13EAB533 		.ascii	"\023\352\2653\"\252z\301\224\343r\341\317\372\\P\033"
 349      22AA7AC1 
 349      94E372E1 
 349      CFFA5C50 
 349      1B
 350 0bc3 A482742F 		.ascii	"\244\202t/\343\352I\310M\252\207j\201\033=\324\324\270"
 350      E3EA49C8 
 350      4DAA876A 
 350      811B3DD4 
 350      D4B8
 351 0bd5 CE5717A9 		.ascii	"\316W\027\251Qd\331\337\320\250\312M\021u\242\263E\324"
 351      5164D9DF 
 351      D0A8CA4D 
 351      1175A2B3 
 351      45D4
 352 0be7 268AC3EA 		.ascii	"&\212\303\352]\254\326)`\205t\344\316F\271\021\374\345"
 352      5DACD629 
 352      608574E4 
 352      CE46B911 
 352      FCE5
 353 0bf9 ECE374AC 		.ascii	"\354\343t\254\256\032\232\371\364\006\276T\2042\200"
 353      AE1A9AF9 
 353      F406BE54 
 353      843280
 354 0c08 4B4A9117 		.ascii	"KJ\221\027\370\325\224\022OF\324\031y\355\227lH\305"
 354      F8D59412 
 354      4F46D419 
 354      79ED976C 
 354      48C5
 355 0c1a EB65255D 		.ascii	"\353e%]y\313\2349\000\250\336\225\222\323\2469\247_"
 355      79CB9C39 
 355      00A8DE95 
ARM GAS  /tmp/cccORKxm.s 			page 28


 355      92D3A639 
 355      A75F
 356 0c2c 13D1C1E2 		.ascii	"\023\321\301\342I\177,\231\000fj\011m\035\201g1\265"
 356      497F2C99 
 356      00666A09 
 356      6D1D8167 
 356      31B5
 357 0c3e E92A77C7 		.ascii	"\351*w\307D\026\314l\240h\212\\\013\026\214\250D\231"
 357      4416CC6C 
 357      A0688A5C 
 357      0B168CA8 
 357      4499
 358 0c50 41945F13 		.ascii	"A\224_\023\345Z\242\314$\312,\242\\')\323\246\3029\215"
 358      E55AA2CC 
 358      24CA2CA2 
 358      5C2729D3 
 358      A6C2398D 
 359 0c64 D42B7099 		.ascii	"\324+p\231\356ME\000\331O\025Y(+pM\326C4xbuQ\205j\027"
 359      EE4D4500 
 359      D94F1559 
 359      282B704D 
 359      D6433478 
 360 0c7e 6D90036A 		.ascii	"m\220\003jZ\215\252`\025?\2458\013\256\251\010\273\343"
 360      5A8DAA60 
 360      153FA538 
 360      0BAEA908 
 360      BBE3
 361 0c90 571B92D5 		.ascii	"W\033\222\3252\373]S\037\255M\373UE\256I3\015h\301\333"
 361      32FB5D53 
 361      1FAD4DFB 
 361      5545AE49 
 361      330D68C1 
 362 0ca5 90AE8587 		.ascii	"\220\256\205\207\246ZJ\365]p# 7\305\325\0304\363-T\223"
 362      A65A4AF5 
 362      5D702320 
 362      37C5D518 
 362      34F32D54 
 363 0cba F36F4F95 		.ascii	"\363oO\225\310\013\344\204\332\020M\337\001U\344\205"
 363      C80BE484 
 363      DA104DDF 
 363      0155E485 
 364 0cca B420A522 		.ascii	"\264 \245\"\215e\246C\352\343i5\242\006S\221\205\321"
 364      8D65A643 
 364      EAE36935 
 364      A2065391 
 364      85D1
 365 0cdc B81A4FD4 		.ascii	"\270\032O\324\216IE\000\205\271\311\313\212pCN\311\011"
 365      8E494500 
 365      85B9C9CB 
 365      8A70434E 
 365      C909
 366 0cee 088B5AA8 		.ascii	"\010\213Z\250\005N\245-\306P\006\321zfG\270\231J&\353"
 366      054EA52D 
 366      C65006D1 
 366      7A6647B8 
 366      994A26EB 
 367 0d02 FD0DBA73 		.ascii	"\375\015\272s\341\232\\\230\220\025_\003s\235\267\216"
ARM GAS  /tmp/cccORKxm.s 			page 29


 367      E19A5C98 
 367      90155F03 
 367      739DB78E 
 368 0d12 B6F1CD6F 		.ascii	"\266\361\315o\254\251\221\225RU\006iz9]\316\215M\357"
 368      ACA99195 
 368      52550669 
 368      7A395DCE 
 368      8D4DEF
 369 0d25 5273D32B 		.ascii	"Rs\323+\330\226\314\233J\346M#\363\256!\363\246\223"
 369      D896CC9B 
 369      4AE64D23 
 369      F3AE21F3 
 369      A693
 370 0d37 7933C8C2 		.ascii	"y3\310\302\350E4\002\247E\344&9\006\321t\205mC\3269"
 370      E8453402 
 370      A745E426 
 370      3906D174 
 370      856D43D6 
 371 0d4c C450895E 		.ascii	"\304P\211^5-\253\215)o\344\267@\2544\302\244F\323iY"
 371      352DAB8D 
 371      296FE4B7 
 371      40AC34C2 
 371      A446D369 
 372 0d61 514B6375 		.ascii	"QKcus\241\302\237\301\274\215\3511\372\217\337A8\227"
 372      73A1C29F 
 372      C1BC8DE9 
 372      31FA8FDF 
 372      413897
 373 0d74 E8C59BEA 		.ascii	"\350\305\233\352\353\2231\2503\007<\255\327\031\253"
 373      EB9331A8 
 373      33073CAD 
 373      D719AB
 374 0d83 3FF8E3FC 		.ascii	"?\370\343\374\333\345\230zk\"\256\006\031\032\225\342"
 374      DBE5987A 
 374      6B22AE06 
 374      191A95E2 
 375 0d93 A1A500FD 		.ascii	"\241\245\000\375\027\213\246e\017u\245\227\311\205{"
 375      178BA665 
 375      0F75A597 
 375      C9857B
 376 0da2 51A51AAC 		.ascii	"Q\245\032\254\3407\030\227\244\242\252*+\011\332*h\222"
 376      E0371897 
 376      A4A2AA2A 
 376      2B09DA2A 
 376      6892
 377 0db4 9D764985 		.ascii	"\235vI\205\222\254\216\252\321\012~g2\025\365\253P\224"
 377      92AC8EAA 
 377      D10A7E67 
 377      3215F5AB 
 377      5094
 378 0dc6 B288AAF1 		.ascii	"\262\210\252\361d\"\024MT\207j\224hm\0038Q\277C+\243"
 378      6422144D 
 378      54876A94 
 378      686D0338 
 378      51BF432B 
 379 0ddb FF031866 		.ascii	"\377\003\030f\245\313"
 379      A5CB
ARM GAS  /tmp/cccORKxm.s 			page 30


 380              		.text
 381              		.section	.gnu.lto_.symtab.8a6c082164e4c36e,"",%progbits
 382 0000 5F746573 		.ascii	"_test_assert\000\000\002\000\000\000\000\000\000\000"
 382      745F6173 
 382      73657274 
 382      00000200 
 382      00000000 
 383 0016 00007B01 		.ascii	"\000\000{\001\000\000chHeapStatus\000\000\002\000\000"
 383      00006368 
 383      48656170 
 383      53746174 
 383      75730000 
 384 002d 00000000 		.ascii	"\000\000\000\000\000\000\000\203\001\000\000chHeapF"
 384      00000083 
 384      01000063 
 384      68486561 
 384      7046
 385 003f 72656500 		.ascii	"ree\000\000\002\000\000\000\000\000\000\000\000\000"
 385      00020000 
 385      00000000 
 385      000000
 386 004e 89010000 		.ascii	"\211\001\000\000chHeapAlloc\000\000\002\000\000\000"
 386      63684865 
 386      6170416C 
 386      6C6F6300 
 386      00020000 
 387 0063 00000000 		.ascii	"\000\000\000\000\000\000\215\001\000\000chCoreStatu"
 387      00008D01 
 387      00006368 
 387      436F7265 
 387      53746174 
 388 0078 73000002 		.ascii	"s\000\000\002\000\000\000\000\000\000\000\000\000\222"
 388      00000000 
 388      00000000 
 388      0092
 389 0086 01000063 		.ascii	"\001\000\000chHeapObjectInit\000\000\002\000\000\000"
 389      68486561 
 389      704F626A 
 389      65637449 
 389      6E697400 
 390 009f 00000000 		.ascii	"\000\000\000\000\000\000\225\001\000\000patternheap"
 390      00009501 
 390      00007061 
 390      74746572 
 390      6E686561 
 391 00b4 00000000 		.ascii	"\000\000\000\000\000\000\000\000\000\000\000\000\237"
 391      00000000 
 391      00000000 
 391      9F
 392 00c1 01000074 		.ascii	"\001\000\000testheap1\000\000\000\000\000\000\000\000"
 392      65737468 
 392      65617031 
 392      00000000 
 392      00000000 
 393 00d5 00000000 		.ascii	"\000\000\000\000\265\001\000\000test\000\000\002\000"
 393      B5010000 
 393      74657374 
ARM GAS  /tmp/cccORKxm.s 			page 31


 393      00000200 
 394 00e5 00000000 		.ascii	"\000\000\000\000\000\000\000\000\235\001\000\000"
 394      00000000 
 394      9D010000 
 395              		.text
 396              		.section	.gnu.lto_.opts,"",%progbits
 397 0000 272D6D63 		.ascii	"'-mcpu=cortex-m3''-mno-thumb-interwork''-mthumb''-g"
 397      70753D63 
 397      6F727465 
 397      782D6D33 
 397      27272D6D 
 398 0033 67646227 		.ascii	"gdb''-O2''-fomit-frame-pointer''-falign-functions=1"
 398      272D4F32 
 398      27272D66 
 398      6F6D6974 
 398      2D667261 
 399 0066 3627272D 		.ascii	"6''-ffunction-sections''-fdata-sections''-fno-commo"
 399      6666756E 
 399      6374696F 
 399      6E2D7365 
 399      6374696F 
 400 0099 6E27272D 		.ascii	"n''-flto'\000"
 400      666C746F 
 400      2700
 401              		.text
 402              		.cfi_sections	.debug_frame
 403              		.section	.text.heap1_execute,"ax",%progbits
 404              		.align	2
 405              		.p2align 4,,15
 406              		.thumb
 407              		.thumb_func
 408              		.type	heap1_execute, %function
 409              	heap1_execute:
 410              	.LFB166:
 411              		.file 1 "../../../test/rt/testheap.c"
 412              		.loc 1 69 0
 413              		.cfi_startproc
 414              		@ args = 0, pretend = 0, frame = 8
 415              		@ frame_needed = 0, uses_anonymous_args = 0
 416 0000 70B5     		push	{r4, r5, r6, lr}
 417              	.LCFI0:
 418              		.cfi_def_cfa_offset 16
 419              		.cfi_offset 4, -16
 420              		.cfi_offset 5, -12
 421              		.cfi_offset 6, -8
 422              		.cfi_offset 14, -4
 423 0002 82B0     		sub	sp, sp, #8
 424              	.LCFI1:
 425              		.cfi_def_cfa_offset 24
 426              		.loc 1 74 0
 427 0004 FFF7FEFF 		bl	chCoreStatus
 428              	.LVL0:
 429              		.loc 1 80 0
 430 0008 01A9     		add	r1, sp, #4
 431 000a 0020     		movs	r0, #0
 432 000c FFF7FEFF 		bl	chHeapStatus
 433              	.LVL1:
ARM GAS  /tmp/cccORKxm.s 			page 32


 434              		.loc 1 81 0
 435 0010 1021     		movs	r1, #16
 436 0012 0020     		movs	r0, #0
 437 0014 FFF7FEFF 		bl	chHeapAlloc
 438              	.LVL2:
 439              		.loc 1 82 0
 440 0018 011C     		adds	r1, r0, #0
 441 001a 18BF     		it	ne
 442 001c 0121     		movne	r1, #1
 443 001e 0446     		mov	r4, r0
 444 0020 0120     		movs	r0, #1
 445              	.LVL3:
 446 0022 FFF7FEFF 		bl	_test_assert
 447              	.LVL4:
 448 0026 0546     		mov	r5, r0
 449 0028 08B1     		cbz	r0, .L7
 450              	.LVL5:
 451              	.L1:
 452              		.loc 1 140 0
 453 002a 02B0     		add	sp, sp, #8
 454 002c 70BD     		pop	{r4, r5, r6, pc}
 455              	.LVL6:
 456              	.L7:
 457              		.loc 1 83 0
 458 002e 2046     		mov	r0, r4
 459 0030 FFF7FEFF 		bl	chHeapFree
 460              	.LVL7:
 461              		.loc 1 84 0
 462 0034 6FF0FF01 		mvn	r1, #255
 463 0038 2846     		mov	r0, r5
 464 003a FFF7FEFF 		bl	chHeapAlloc
 465              	.LVL8:
 466              		.loc 1 85 0
 467 003e D0F10101 		rsbs	r1, r0, #1
 468 0042 38BF     		it	cc
 469 0044 0021     		movcc	r1, #0
 470 0046 0220     		movs	r0, #2
 471              	.LVL9:
 472 0048 FFF7FEFF 		bl	_test_assert
 473              	.LVL10:
 474 004c 0028     		cmp	r0, #0
 475 004e ECD1     		bne	.L1
 476              		.loc 1 88 0
 477 0050 01A9     		add	r1, sp, #4
 478 0052 7E48     		ldr	r0, .L8
 479 0054 FFF7FEFF 		bl	chHeapStatus
 480              	.LVL11:
 481              		.loc 1 91 0
 482 0058 1021     		movs	r1, #16
 483 005a 7C48     		ldr	r0, .L8
 484 005c FFF7FEFF 		bl	chHeapAlloc
 485              	.LVL12:
 486              		.loc 1 92 0
 487 0060 1021     		movs	r1, #16
 488              		.loc 1 91 0
 489 0062 0546     		mov	r5, r0
 490              	.LVL13:
ARM GAS  /tmp/cccORKxm.s 			page 33


 491              		.loc 1 92 0
 492 0064 7948     		ldr	r0, .L8
 493              	.LVL14:
 494 0066 FFF7FEFF 		bl	chHeapAlloc
 495              	.LVL15:
 496              		.loc 1 93 0
 497 006a 1021     		movs	r1, #16
 498              		.loc 1 92 0
 499 006c 0446     		mov	r4, r0
 500              	.LVL16:
 501              		.loc 1 93 0
 502 006e 7748     		ldr	r0, .L8
 503              	.LVL17:
 504 0070 FFF7FEFF 		bl	chHeapAlloc
 505              	.LVL18:
 506 0074 0646     		mov	r6, r0
 507              	.LVL19:
 508              		.loc 1 94 0
 509 0076 2846     		mov	r0, r5
 510              	.LVL20:
 511 0078 FFF7FEFF 		bl	chHeapFree
 512              	.LVL21:
 513              		.loc 1 95 0
 514 007c 2046     		mov	r0, r4
 515 007e FFF7FEFF 		bl	chHeapFree
 516              	.LVL22:
 517              		.loc 1 96 0
 518 0082 3046     		mov	r0, r6
 519 0084 FFF7FEFF 		bl	chHeapFree
 520              	.LVL23:
 521              		.loc 1 97 0
 522 0088 6946     		mov	r1, sp
 523 008a 7048     		ldr	r0, .L8
 524 008c FFF7FEFF 		bl	chHeapStatus
 525              	.LVL24:
 526 0090 B0F1010E 		subs	lr, r0, #1
 527 0094 DEF10001 		rsbs	r1, lr, #0
 528 0098 51EB0E01 		adcs	r1, r1, lr
 529 009c 0320     		movs	r0, #3
 530 009e FFF7FEFF 		bl	_test_assert
 531              	.LVL25:
 532 00a2 0028     		cmp	r0, #0
 533 00a4 C1D1     		bne	.L1
 534              		.loc 1 100 0
 535 00a6 1021     		movs	r1, #16
 536 00a8 6848     		ldr	r0, .L8
 537 00aa FFF7FEFF 		bl	chHeapAlloc
 538              	.LVL26:
 539              		.loc 1 101 0
 540 00ae 1021     		movs	r1, #16
 541              		.loc 1 100 0
 542 00b0 0446     		mov	r4, r0
 543              	.LVL27:
 544              		.loc 1 101 0
 545 00b2 6648     		ldr	r0, .L8
 546              	.LVL28:
 547 00b4 FFF7FEFF 		bl	chHeapAlloc
ARM GAS  /tmp/cccORKxm.s 			page 34


 548              	.LVL29:
 549              		.loc 1 102 0
 550 00b8 1021     		movs	r1, #16
 551              		.loc 1 101 0
 552 00ba 0546     		mov	r5, r0
 553              	.LVL30:
 554              		.loc 1 102 0
 555 00bc 6348     		ldr	r0, .L8
 556              	.LVL31:
 557 00be FFF7FEFF 		bl	chHeapAlloc
 558              	.LVL32:
 559              		.loc 1 103 0
 560 00c2 FFF7FEFF 		bl	chHeapFree
 561              	.LVL33:
 562              		.loc 1 104 0
 563 00c6 2846     		mov	r0, r5
 564 00c8 FFF7FEFF 		bl	chHeapFree
 565              	.LVL34:
 566              		.loc 1 105 0
 567 00cc 2046     		mov	r0, r4
 568 00ce FFF7FEFF 		bl	chHeapFree
 569              	.LVL35:
 570              		.loc 1 106 0
 571 00d2 6946     		mov	r1, sp
 572 00d4 5D48     		ldr	r0, .L8
 573 00d6 FFF7FEFF 		bl	chHeapStatus
 574              	.LVL36:
 575 00da 0138     		subs	r0, r0, #1
 576 00dc 4242     		rsbs	r2, r0, #0
 577 00de 52EB0001 		adcs	r1, r2, r0
 578 00e2 0420     		movs	r0, #4
 579 00e4 FFF7FEFF 		bl	_test_assert
 580              	.LVL37:
 581 00e8 0028     		cmp	r0, #0
 582 00ea 9ED1     		bne	.L1
 583              		.loc 1 109 0
 584 00ec 1121     		movs	r1, #17
 585 00ee 5748     		ldr	r0, .L8
 586 00f0 FFF7FEFF 		bl	chHeapAlloc
 587              	.LVL38:
 588              		.loc 1 110 0
 589 00f4 1021     		movs	r1, #16
 590              		.loc 1 109 0
 591 00f6 0446     		mov	r4, r0
 592              	.LVL39:
 593              		.loc 1 110 0
 594 00f8 5448     		ldr	r0, .L8
 595              	.LVL40:
 596 00fa FFF7FEFF 		bl	chHeapAlloc
 597              	.LVL41:
 598 00fe 0546     		mov	r5, r0
 599              	.LVL42:
 600              		.loc 1 111 0
 601 0100 2046     		mov	r0, r4
 602              	.LVL43:
 603 0102 FFF7FEFF 		bl	chHeapFree
 604              	.LVL44:
ARM GAS  /tmp/cccORKxm.s 			page 35


 605              		.loc 1 112 0
 606 0106 6946     		mov	r1, sp
 607 0108 5048     		ldr	r0, .L8
 608 010a FFF7FEFF 		bl	chHeapStatus
 609              	.LVL45:
 610 010e 831E     		subs	r3, r0, #2
 611 0110 5942     		rsbs	r1, r3, #0
 612 0112 5941     		adcs	r1, r1, r3
 613 0114 0520     		movs	r0, #5
 614 0116 FFF7FEFF 		bl	_test_assert
 615              	.LVL46:
 616 011a 0028     		cmp	r0, #0
 617 011c 85D1     		bne	.L1
 618              		.loc 1 113 0
 619 011e 1021     		movs	r1, #16
 620 0120 4A48     		ldr	r0, .L8
 621 0122 FFF7FEFF 		bl	chHeapAlloc
 622              	.LVL47:
 623              		.loc 1 116 0
 624 0126 6946     		mov	r1, sp
 625              		.loc 1 113 0
 626 0128 0446     		mov	r4, r0
 627              	.LVL48:
 628              		.loc 1 116 0
 629 012a 4848     		ldr	r0, .L8
 630              	.LVL49:
 631 012c FFF7FEFF 		bl	chHeapStatus
 632              	.LVL50:
 633 0130 0128     		cmp	r0, #1
 634 0132 00F08980 		beq	.L5
 635              		.loc 1 116 0 is_stmt 0 discriminator 2
 636 0136 6946     		mov	r1, sp
 637 0138 4448     		ldr	r0, .L8
 638 013a FFF7FEFF 		bl	chHeapStatus
 639              	.LVL51:
 640 013e 0238     		subs	r0, r0, #2
 641 0140 4242     		rsbs	r2, r0, #0
 642 0142 52EB0001 		adcs	r1, r2, r0
 643              	.L3:
 644              		.loc 1 116 0 discriminator 4
 645 0146 0620     		movs	r0, #6
 646 0148 FFF7FEFF 		bl	_test_assert
 647              	.LVL52:
 648 014c 0028     		cmp	r0, #0
 649 014e 7FF46CAF 		bne	.L1
 650              		.loc 1 118 0 is_stmt 1
 651 0152 2846     		mov	r0, r5
 652 0154 FFF7FEFF 		bl	chHeapFree
 653              	.LVL53:
 654              		.loc 1 119 0
 655 0158 2046     		mov	r0, r4
 656 015a FFF7FEFF 		bl	chHeapFree
 657              	.LVL54:
 658              		.loc 1 120 0
 659 015e 6946     		mov	r1, sp
 660 0160 3A48     		ldr	r0, .L8
 661 0162 FFF7FEFF 		bl	chHeapStatus
ARM GAS  /tmp/cccORKxm.s 			page 36


 662              	.LVL55:
 663 0166 B0F1010C 		subs	ip, r0, #1
 664 016a DCF10003 		rsbs	r3, ip, #0
 665 016e 53EB0C01 		adcs	r1, r3, ip
 666 0172 0720     		movs	r0, #7
 667 0174 FFF7FEFF 		bl	_test_assert
 668              	.LVL56:
 669 0178 0028     		cmp	r0, #0
 670 017a 7FF456AF 		bne	.L1
 671              		.loc 1 123 0
 672 017e 1021     		movs	r1, #16
 673 0180 3248     		ldr	r0, .L8
 674 0182 FFF7FEFF 		bl	chHeapAlloc
 675              	.LVL57:
 676              		.loc 1 124 0
 677 0186 1021     		movs	r1, #16
 678              		.loc 1 123 0
 679 0188 0546     		mov	r5, r0
 680              	.LVL58:
 681              		.loc 1 124 0
 682 018a 3048     		ldr	r0, .L8
 683              	.LVL59:
 684 018c FFF7FEFF 		bl	chHeapAlloc
 685              	.LVL60:
 686 0190 0446     		mov	r4, r0
 687              	.LVL61:
 688              		.loc 1 125 0
 689 0192 2846     		mov	r0, r5
 690              	.LVL62:
 691 0194 FFF7FEFF 		bl	chHeapFree
 692              	.LVL63:
 693              		.loc 1 126 0
 694 0198 6946     		mov	r1, sp
 695 019a 2C48     		ldr	r0, .L8
 696 019c FFF7FEFF 		bl	chHeapStatus
 697              	.LVL64:
 698 01a0 B0F1020E 		subs	lr, r0, #2
 699 01a4 DEF10001 		rsbs	r1, lr, #0
 700 01a8 51EB0E01 		adcs	r1, r1, lr
 701 01ac 0820     		movs	r0, #8
 702 01ae FFF7FEFF 		bl	_test_assert
 703              	.LVL65:
 704 01b2 0028     		cmp	r0, #0
 705 01b4 7FF439AF 		bne	.L1
 706              		.loc 1 127 0
 707 01b8 2021     		movs	r1, #32
 708 01ba 2448     		ldr	r0, .L8
 709 01bc FFF7FEFF 		bl	chHeapAlloc
 710              	.LVL66:
 711              		.loc 1 128 0
 712 01c0 FFF7FEFF 		bl	chHeapFree
 713              	.LVL67:
 714              		.loc 1 129 0
 715 01c4 2046     		mov	r0, r4
 716 01c6 FFF7FEFF 		bl	chHeapFree
 717              	.LVL68:
 718              		.loc 1 130 0
ARM GAS  /tmp/cccORKxm.s 			page 37


 719 01ca 6946     		mov	r1, sp
 720 01cc 1F48     		ldr	r0, .L8
 721 01ce FFF7FEFF 		bl	chHeapStatus
 722              	.LVL69:
 723 01d2 0138     		subs	r0, r0, #1
 724 01d4 4242     		rsbs	r2, r0, #0
 725 01d6 52EB0001 		adcs	r1, r2, r0
 726 01da 0920     		movs	r0, #9
 727 01dc FFF7FEFF 		bl	_test_assert
 728              	.LVL70:
 729 01e0 0028     		cmp	r0, #0
 730 01e2 7FF422AF 		bne	.L1
 731              		.loc 1 133 0
 732 01e6 6946     		mov	r1, sp
 733 01e8 1848     		ldr	r0, .L8
 734 01ea FFF7FEFF 		bl	chHeapStatus
 735              	.LVL71:
 736              		.loc 1 134 0
 737 01ee 0099     		ldr	r1, [sp, #0]
 738 01f0 1648     		ldr	r0, .L8
 739 01f2 FFF7FEFF 		bl	chHeapAlloc
 740              	.LVL72:
 741              		.loc 1 135 0
 742 01f6 6946     		mov	r1, sp
 743              		.loc 1 134 0
 744 01f8 0446     		mov	r4, r0
 745              	.LVL73:
 746              		.loc 1 135 0
 747 01fa 1448     		ldr	r0, .L8
 748              	.LVL74:
 749 01fc FFF7FEFF 		bl	chHeapStatus
 750              	.LVL75:
 751 0200 D0F10101 		rsbs	r1, r0, #1
 752 0204 38BF     		it	cc
 753 0206 0021     		movcc	r1, #0
 754 0208 0A20     		movs	r0, #10
 755 020a FFF7FEFF 		bl	_test_assert
 756              	.LVL76:
 757 020e 0028     		cmp	r0, #0
 758 0210 7FF40BAF 		bne	.L1
 759              		.loc 1 136 0
 760 0214 2046     		mov	r0, r4
 761 0216 FFF7FEFF 		bl	chHeapFree
 762              	.LVL77:
 763              		.loc 1 138 0
 764 021a 6946     		mov	r1, sp
 765 021c 0B48     		ldr	r0, .L8
 766 021e FFF7FEFF 		bl	chHeapStatus
 767              	.LVL78:
 768 0222 431E     		subs	r3, r0, #1
 769 0224 5942     		rsbs	r1, r3, #0
 770 0226 5941     		adcs	r1, r1, r3
 771 0228 0B20     		movs	r0, #11
 772 022a FFF7FEFF 		bl	_test_assert
 773              	.LVL79:
 774 022e 0028     		cmp	r0, #0
 775 0230 7FF4FBAE 		bne	.L1
ARM GAS  /tmp/cccORKxm.s 			page 38


 776              	.LVL80:
 777              		.loc 1 139 0
 778 0234 9DE80A00 		ldmia	sp, {r1, r3}
 779 0238 0C20     		movs	r0, #12
 780 023a CA1A     		subs	r2, r1, r3
 781              	.LVL81:
 782 023c 5342     		rsbs	r3, r2, #0
 783 023e 53EB0201 		adcs	r1, r3, r2
 784              	.LVL82:
 785 0242 FFF7FEFF 		bl	_test_assert
 786              	.LVL83:
 787 0246 F0E6     		b	.L1
 788              	.LVL84:
 789              	.L5:
 790              		.loc 1 116 0
 791 0248 0146     		mov	r1, r0
 792 024a 7CE7     		b	.L3
 793              	.L9:
 794              		.align	2
 795              	.L8:
 796 024c 00000000 		.word	.LANCHOR0
 797              		.cfi_endproc
 798              	.LFE166:
 799              		.size	heap1_execute, .-heap1_execute
 800              		.section	.text.heap1_setup,"ax",%progbits
 801              		.align	2
 802              		.p2align 4,,15
 803              		.thumb
 804              		.thumb_func
 805              		.type	heap1_setup, %function
 806              	heap1_setup:
 807              	.LFB165:
 808              		.loc 1 64 0
 809              		.cfi_startproc
 810              		@ args = 0, pretend = 0, frame = 0
 811              		@ frame_needed = 0, uses_anonymous_args = 0
 812              		@ link register save eliminated.
 813              		.loc 1 66 0
 814 0000 40F20000 		movw	r0, #:lower16:.LANCHOR0
 815 0004 40F20001 		movw	r1, #:lower16:test
 816 0008 C0F20000 		movt	r0, #:upper16:.LANCHOR0
 817 000c C0F20001 		movt	r1, #:upper16:test
 818 0010 4FF4CD62 		mov	r2, #1640
 819              		.loc 1 67 0
 820              		.loc 1 66 0
 821 0014 FFF7FEBF 		b	chHeapObjectInit
 822              	.LVL85:
 823              		.cfi_endproc
 824              	.LFE165:
 825              		.size	heap1_setup, .-heap1_setup
 826              		.global	patternheap
 827              		.global	testheap1
 828 0018 AFF30080 		.section	.rodata.patternheap,"a",%progbits
 828      AFF30080 
 829              		.align	2
 830              		.type	patternheap, %object
 831              		.size	patternheap, 8
ARM GAS  /tmp/cccORKxm.s 			page 39


 832              	patternheap:
 833 0000 00000000 		.word	testheap1
 834 0004 00000000 		.word	0
 835              		.section	.rodata.str1.4,"aMS",%progbits,1
 836              		.align	2
 837              	.LC0:
 838 0000 48656170 		.ascii	"Heap, allocation and fragmentation test\000"
 838      2C20616C 
 838      6C6F6361 
 838      74696F6E 
 838      20616E64 
 839              		.section	.rodata.testheap1,"a",%progbits
 840              		.align	2
 841              		.type	testheap1, %object
 842              		.size	testheap1, 16
 843              	testheap1:
 844 0000 00000000 		.word	.LC0
 845 0004 00000000 		.word	heap1_setup
 846 0008 00000000 		.word	0
 847 000c 00000000 		.word	heap1_execute
 848              		.section	.bss.test_heap,"aw",%nobits
 849              		.align	3
 850              		.set	.LANCHOR0,. + 0
 851              		.type	test_heap, %object
 852              		.size	test_heap, 32
 853              	test_heap:
 854 0000 00000000 		.space	32
 854      00000000 
 854      00000000 
 854      00000000 
 854      00000000 
 855              		.text
 856              	.Letext0:
 857              		.file 2 "../../../os/rt/include/chschd.h"
 858              		.file 3 "/opt/ARM/gcc-arm-none-eabi-4_7-2013q3/bin/../lib/gcc/arm-none-eabi/4.7.4/include/stddef.h
 859              		.file 4 "/opt/ARM/gcc-arm-none-eabi-4_7-2013q3/bin/../lib/gcc/arm-none-eabi/4.7.4/../../../../arm-
 860              		.file 5 "../../../os/rt/ports/ARMCMx/compilers/GCC/chtypes.h"
 861              		.file 6 "../../../os/rt/ports/ARMCMx/chcore.h"
 862              		.file 7 "../../../os/rt/ports/ARMCMx/chcore_v7m.h"
 863              		.file 8 "../../../os/rt/include/chmtx.h"
 864              		.file 9 "../../../os/rt/include/chmemcore.h"
 865              		.file 10 "../../../os/rt/include/chheap.h"
 866              		.file 11 "../../../test/rt/test.h"
 867              		.file 12 "../../../os/ext/CMSIS/include/core_cm3.h"
 868              		.section	.debug_info,"",%progbits
 869              	.Ldebug_info0:
 870 0000 C50D0000 		.4byte	0xdc5
 871 0004 0200     		.2byte	0x2
 872 0006 00000000 		.4byte	.Ldebug_abbrev0
 873 000a 04       		.byte	0x4
 874 000b 01       		.uleb128 0x1
 875 000c EE000000 		.4byte	.LASF109
 876 0010 01       		.byte	0x1
 877 0011 88040000 		.4byte	.LASF110
 878 0015 C8030000 		.4byte	.LASF111
 879 0019 00000000 		.4byte	.Ldebug_ranges0+0
 880 001d 00000000 		.4byte	0
ARM GAS  /tmp/cccORKxm.s 			page 40


 881 0021 00000000 		.4byte	0
 882 0025 00000000 		.4byte	.Ldebug_line0
 883 0029 02       		.uleb128 0x2
 884 002a C1030000 		.4byte	.LASF43
 885 002e 44       		.byte	0x44
 886 002f 02       		.byte	0x2
 887 0030 79       		.byte	0x79
 888 0031 32010000 		.4byte	0x132
 889 0035 03       		.uleb128 0x3
 890 0036 10030000 		.4byte	.LASF0
 891 003a 02       		.byte	0x2
 892 003b 7A       		.byte	0x7a
 893 003c 09030000 		.4byte	0x309
 894 0040 02       		.byte	0x2
 895 0041 23       		.byte	0x23
 896 0042 00       		.uleb128 0
 897 0043 03       		.uleb128 0x3
 898 0044 95020000 		.4byte	.LASF1
 899 0048 02       		.byte	0x2
 900 0049 7C       		.byte	0x7c
 901 004a 09030000 		.4byte	0x309
 902 004e 02       		.byte	0x2
 903 004f 23       		.byte	0x23
 904 0050 04       		.uleb128 0x4
 905 0051 03       		.uleb128 0x3
 906 0052 98000000 		.4byte	.LASF2
 907 0056 02       		.byte	0x2
 908 0057 7E       		.byte	0x7e
 909 0058 EB010000 		.4byte	0x1eb
 910 005c 02       		.byte	0x2
 911 005d 23       		.byte	0x23
 912 005e 08       		.uleb128 0x8
 913 005f 03       		.uleb128 0x3
 914 0060 E7040000 		.4byte	.LASF3
 915 0064 02       		.byte	0x2
 916 0065 7F       		.byte	0x7f
 917 0066 36020000 		.4byte	0x236
 918 006a 02       		.byte	0x2
 919 006b 23       		.byte	0x23
 920 006c 0C       		.uleb128 0xc
 921 006d 03       		.uleb128 0x3
 922 006e 71010000 		.4byte	.LASF4
 923 0072 02       		.byte	0x2
 924 0073 81       		.byte	0x81
 925 0074 09030000 		.4byte	0x309
 926 0078 02       		.byte	0x2
 927 0079 23       		.byte	0x23
 928 007a 10       		.uleb128 0x10
 929 007b 03       		.uleb128 0x3
 930 007c 57020000 		.4byte	.LASF5
 931 0080 02       		.byte	0x2
 932 0081 82       		.byte	0x82
 933 0082 09030000 		.4byte	0x309
 934 0086 02       		.byte	0x2
 935 0087 23       		.byte	0x23
 936 0088 14       		.uleb128 0x14
 937 0089 03       		.uleb128 0x3
ARM GAS  /tmp/cccORKxm.s 			page 41


 938 008a B6040000 		.4byte	.LASF6
 939 008e 02       		.byte	0x2
 940 008f 89       		.byte	0x89
 941 0090 D9030000 		.4byte	0x3d9
 942 0094 02       		.byte	0x2
 943 0095 23       		.byte	0x23
 944 0096 18       		.uleb128 0x18
 945 0097 03       		.uleb128 0x3
 946 0098 FA020000 		.4byte	.LASF7
 947 009c 02       		.byte	0x2
 948 009d 94       		.byte	0x94
 949 009e D5010000 		.4byte	0x1d5
 950 00a2 02       		.byte	0x2
 951 00a3 23       		.byte	0x23
 952 00a4 1C       		.uleb128 0x1c
 953 00a5 03       		.uleb128 0x3
 954 00a6 17030000 		.4byte	.LASF8
 955 00aa 02       		.byte	0x2
 956 00ab 98       		.byte	0x98
 957 00ac CA010000 		.4byte	0x1ca
 958 00b0 02       		.byte	0x2
 959 00b1 23       		.byte	0x23
 960 00b2 1D       		.uleb128 0x1d
 961 00b3 03       		.uleb128 0x3
 962 00b4 69040000 		.4byte	.LASF9
 963 00b8 02       		.byte	0x2
 964 00b9 9D       		.byte	0x9d
 965 00ba E0010000 		.4byte	0x1e0
 966 00be 02       		.byte	0x2
 967 00bf 23       		.byte	0x23
 968 00c0 1E       		.uleb128 0x1e
 969 00c1 04       		.uleb128 0x4
 970 00c2 705F7500 		.ascii	"p_u\000"
 971 00c6 02       		.byte	0x2
 972 00c7 CF       		.byte	0xcf
 973 00c8 A4030000 		.4byte	0x3a4
 974 00cc 02       		.byte	0x2
 975 00cd 23       		.byte	0x23
 976 00ce 20       		.uleb128 0x20
 977 00cf 03       		.uleb128 0x3
 978 00d0 38020000 		.4byte	.LASF10
 979 00d4 02       		.byte	0x2
 980 00d5 D4       		.byte	0xd4
 981 00d6 31030000 		.4byte	0x331
 982 00da 02       		.byte	0x2
 983 00db 23       		.byte	0x23
 984 00dc 24       		.uleb128 0x24
 985 00dd 03       		.uleb128 0x3
 986 00de BB010000 		.4byte	.LASF11
 987 00e2 02       		.byte	0x2
 988 00e3 DA       		.byte	0xda
 989 00e4 0F030000 		.4byte	0x30f
 990 00e8 02       		.byte	0x2
 991 00e9 23       		.byte	0x23
 992 00ea 28       		.uleb128 0x28
 993 00eb 03       		.uleb128 0x3
 994 00ec D9040000 		.4byte	.LASF12
ARM GAS  /tmp/cccORKxm.s 			page 42


 995 00f0 02       		.byte	0x2
 996 00f1 DE       		.byte	0xde
 997 00f2 F6010000 		.4byte	0x1f6
 998 00f6 02       		.byte	0x2
 999 00f7 23       		.byte	0x23
 1000 00f8 30       		.uleb128 0x30
 1001 00f9 03       		.uleb128 0x3
 1002 00fa 34030000 		.4byte	.LASF13
 1003 00fe 02       		.byte	0x2
 1004 00ff E4       		.byte	0xe4
 1005 0100 01020000 		.4byte	0x201
 1006 0104 02       		.byte	0x2
 1007 0105 23       		.byte	0x23
 1008 0106 34       		.uleb128 0x34
 1009 0107 03       		.uleb128 0x3
 1010 0108 E6020000 		.4byte	.LASF14
 1011 010c 02       		.byte	0x2
 1012 010d EB       		.byte	0xeb
 1013 010e 22040000 		.4byte	0x422
 1014 0112 02       		.byte	0x2
 1015 0113 23       		.byte	0x23
 1016 0114 38       		.uleb128 0x38
 1017 0115 03       		.uleb128 0x3
 1018 0116 AD030000 		.4byte	.LASF15
 1019 011a 02       		.byte	0x2
 1020 011b EF       		.byte	0xef
 1021 011c EB010000 		.4byte	0x1eb
 1022 0120 02       		.byte	0x2
 1023 0121 23       		.byte	0x23
 1024 0122 3C       		.uleb128 0x3c
 1025 0123 03       		.uleb128 0x3
 1026 0124 D3000000 		.4byte	.LASF16
 1027 0128 02       		.byte	0x2
 1028 0129 F5       		.byte	0xf5
 1029 012a 29020000 		.4byte	0x229
 1030 012e 02       		.byte	0x2
 1031 012f 23       		.byte	0x23
 1032 0130 40       		.uleb128 0x40
 1033 0131 00       		.byte	0
 1034 0132 05       		.uleb128 0x5
 1035 0133 04       		.byte	0x4
 1036 0134 05       		.byte	0x5
 1037 0135 696E7400 		.ascii	"int\000"
 1038 0139 06       		.uleb128 0x6
 1039 013a 0D000000 		.4byte	.LASF19
 1040 013e 03       		.byte	0x3
 1041 013f D5       		.byte	0xd5
 1042 0140 44010000 		.4byte	0x144
 1043 0144 07       		.uleb128 0x7
 1044 0145 04       		.byte	0x4
 1045 0146 07       		.byte	0x7
 1046 0147 A6010000 		.4byte	.LASF17
 1047 014b 07       		.uleb128 0x7
 1048 014c 01       		.byte	0x1
 1049 014d 06       		.byte	0x6
 1050 014e C1000000 		.4byte	.LASF18
 1051 0152 06       		.uleb128 0x6
ARM GAS  /tmp/cccORKxm.s 			page 43


 1052 0153 76040000 		.4byte	.LASF20
 1053 0157 04       		.byte	0x4
 1054 0158 2A       		.byte	0x2a
 1055 0159 5D010000 		.4byte	0x15d
 1056 015d 07       		.uleb128 0x7
 1057 015e 01       		.byte	0x1
 1058 015f 08       		.byte	0x8
 1059 0160 CC020000 		.4byte	.LASF21
 1060 0164 07       		.uleb128 0x7
 1061 0165 02       		.byte	0x2
 1062 0166 05       		.byte	0x5
 1063 0167 F0020000 		.4byte	.LASF22
 1064 016b 06       		.uleb128 0x6
 1065 016c 61010000 		.4byte	.LASF23
 1066 0170 04       		.byte	0x4
 1067 0171 36       		.byte	0x36
 1068 0172 76010000 		.4byte	0x176
 1069 0176 07       		.uleb128 0x7
 1070 0177 02       		.byte	0x2
 1071 0178 07       		.byte	0x7
 1072 0179 D9010000 		.4byte	.LASF24
 1073 017d 06       		.uleb128 0x6
 1074 017e C4020000 		.4byte	.LASF25
 1075 0182 04       		.byte	0x4
 1076 0183 4F       		.byte	0x4f
 1077 0184 88010000 		.4byte	0x188
 1078 0188 07       		.uleb128 0x7
 1079 0189 04       		.byte	0x4
 1080 018a 05       		.byte	0x5
 1081 018b 41010000 		.4byte	.LASF26
 1082 018f 06       		.uleb128 0x6
 1083 0190 3F030000 		.4byte	.LASF27
 1084 0194 04       		.byte	0x4
 1085 0195 50       		.byte	0x50
 1086 0196 9A010000 		.4byte	0x19a
 1087 019a 07       		.uleb128 0x7
 1088 019b 04       		.byte	0x4
 1089 019c 07       		.byte	0x7
 1090 019d 5E030000 		.4byte	.LASF28
 1091 01a1 07       		.uleb128 0x7
 1092 01a2 08       		.byte	0x8
 1093 01a3 05       		.byte	0x5
 1094 01a4 B3000000 		.4byte	.LASF29
 1095 01a8 06       		.uleb128 0x6
 1096 01a9 1B000000 		.4byte	.LASF30
 1097 01ad 04       		.byte	0x4
 1098 01ae 78       		.byte	0x78
 1099 01af B3010000 		.4byte	0x1b3
 1100 01b3 07       		.uleb128 0x7
 1101 01b4 08       		.byte	0x8
 1102 01b5 07       		.byte	0x7
 1103 01b6 44000000 		.4byte	.LASF31
 1104 01ba 08       		.uleb128 0x8
 1105 01bb 7D010000 		.4byte	0x17d
 1106 01bf 06       		.uleb128 0x6
 1107 01c0 29040000 		.4byte	.LASF32
 1108 01c4 05       		.byte	0x5
ARM GAS  /tmp/cccORKxm.s 			page 44


 1109 01c5 46       		.byte	0x46
 1110 01c6 8F010000 		.4byte	0x18f
 1111 01ca 06       		.uleb128 0x6
 1112 01cb FE010000 		.4byte	.LASF33
 1113 01cf 05       		.byte	0x5
 1114 01d0 49       		.byte	0x49
 1115 01d1 52010000 		.4byte	0x152
 1116 01d5 06       		.uleb128 0x6
 1117 01d6 4A010000 		.4byte	.LASF34
 1118 01da 05       		.byte	0x5
 1119 01db 4A       		.byte	0x4a
 1120 01dc 52010000 		.4byte	0x152
 1121 01e0 06       		.uleb128 0x6
 1122 01e1 7D020000 		.4byte	.LASF35
 1123 01e5 05       		.byte	0x5
 1124 01e6 4B       		.byte	0x4b
 1125 01e7 52010000 		.4byte	0x152
 1126 01eb 06       		.uleb128 0x6
 1127 01ec A4020000 		.4byte	.LASF36
 1128 01f0 05       		.byte	0x5
 1129 01f1 4D       		.byte	0x4d
 1130 01f2 8F010000 		.4byte	0x18f
 1131 01f6 06       		.uleb128 0x6
 1132 01f7 EC010000 		.4byte	.LASF37
 1133 01fb 05       		.byte	0x5
 1134 01fc 4E       		.byte	0x4e
 1135 01fd 7D010000 		.4byte	0x17d
 1136 0201 06       		.uleb128 0x6
 1137 0202 06020000 		.4byte	.LASF38
 1138 0206 05       		.byte	0x5
 1139 0207 50       		.byte	0x50
 1140 0208 8F010000 		.4byte	0x18f
 1141 020c 07       		.uleb128 0x7
 1142 020d 04       		.byte	0x4
 1143 020e 07       		.byte	0x7
 1144 020f 42020000 		.4byte	.LASF39
 1145 0213 06       		.uleb128 0x6
 1146 0214 A3030000 		.4byte	.LASF40
 1147 0218 06       		.byte	0x6
 1148 0219 89       		.byte	0x89
 1149 021a 6B010000 		.4byte	0x16b
 1150 021e 06       		.uleb128 0x6
 1151 021f 81010000 		.4byte	.LASF41
 1152 0223 06       		.byte	0x6
 1153 0224 8F       		.byte	0x8f
 1154 0225 29020000 		.4byte	0x229
 1155 0229 09       		.uleb128 0x9
 1156 022a 04       		.byte	0x4
 1157 022b 06       		.uleb128 0x6
 1158 022c 12020000 		.4byte	.LASF42
 1159 0230 06       		.byte	0x6
 1160 0231 97       		.byte	0x97
 1161 0232 A8010000 		.4byte	0x1a8
 1162 0236 02       		.uleb128 0x2
 1163 0237 21040000 		.4byte	.LASF44
 1164 023b 04       		.byte	0x4
 1165 023c 06       		.byte	0x6
ARM GAS  /tmp/cccORKxm.s 			page 45


 1166 023d B3       		.byte	0xb3
 1167 023e 51020000 		.4byte	0x251
 1168 0242 04       		.uleb128 0x4
 1169 0243 72313300 		.ascii	"r13\000"
 1170 0247 06       		.byte	0x6
 1171 0248 B4       		.byte	0xb4
 1172 0249 DE020000 		.4byte	0x2de
 1173 024d 02       		.byte	0x2
 1174 024e 23       		.byte	0x23
 1175 024f 00       		.uleb128 0
 1176 0250 00       		.byte	0
 1177 0251 02       		.uleb128 0x2
 1178 0252 24000000 		.4byte	.LASF45
 1179 0256 24       		.byte	0x24
 1180 0257 07       		.byte	0x7
 1181 0258 F5       		.byte	0xf5
 1182 0259 DE020000 		.4byte	0x2de
 1183 025d 0A       		.uleb128 0xa
 1184 025e 723400   		.ascii	"r4\000"
 1185 0261 07       		.byte	0x7
 1186 0262 0801     		.2byte	0x108
 1187 0264 1E020000 		.4byte	0x21e
 1188 0268 02       		.byte	0x2
 1189 0269 23       		.byte	0x23
 1190 026a 00       		.uleb128 0
 1191 026b 0A       		.uleb128 0xa
 1192 026c 723500   		.ascii	"r5\000"
 1193 026f 07       		.byte	0x7
 1194 0270 0901     		.2byte	0x109
 1195 0272 1E020000 		.4byte	0x21e
 1196 0276 02       		.byte	0x2
 1197 0277 23       		.byte	0x23
 1198 0278 04       		.uleb128 0x4
 1199 0279 0A       		.uleb128 0xa
 1200 027a 723600   		.ascii	"r6\000"
 1201 027d 07       		.byte	0x7
 1202 027e 0A01     		.2byte	0x10a
 1203 0280 1E020000 		.4byte	0x21e
 1204 0284 02       		.byte	0x2
 1205 0285 23       		.byte	0x23
 1206 0286 08       		.uleb128 0x8
 1207 0287 0A       		.uleb128 0xa
 1208 0288 723700   		.ascii	"r7\000"
 1209 028b 07       		.byte	0x7
 1210 028c 0B01     		.2byte	0x10b
 1211 028e 1E020000 		.4byte	0x21e
 1212 0292 02       		.byte	0x2
 1213 0293 23       		.byte	0x23
 1214 0294 0C       		.uleb128 0xc
 1215 0295 0A       		.uleb128 0xa
 1216 0296 723800   		.ascii	"r8\000"
 1217 0299 07       		.byte	0x7
 1218 029a 0C01     		.2byte	0x10c
 1219 029c 1E020000 		.4byte	0x21e
 1220 02a0 02       		.byte	0x2
 1221 02a1 23       		.byte	0x23
 1222 02a2 10       		.uleb128 0x10
ARM GAS  /tmp/cccORKxm.s 			page 46


 1223 02a3 0A       		.uleb128 0xa
 1224 02a4 723900   		.ascii	"r9\000"
 1225 02a7 07       		.byte	0x7
 1226 02a8 0D01     		.2byte	0x10d
 1227 02aa 1E020000 		.4byte	0x21e
 1228 02ae 02       		.byte	0x2
 1229 02af 23       		.byte	0x23
 1230 02b0 14       		.uleb128 0x14
 1231 02b1 0A       		.uleb128 0xa
 1232 02b2 72313000 		.ascii	"r10\000"
 1233 02b6 07       		.byte	0x7
 1234 02b7 0E01     		.2byte	0x10e
 1235 02b9 1E020000 		.4byte	0x21e
 1236 02bd 02       		.byte	0x2
 1237 02be 23       		.byte	0x23
 1238 02bf 18       		.uleb128 0x18
 1239 02c0 0A       		.uleb128 0xa
 1240 02c1 72313100 		.ascii	"r11\000"
 1241 02c5 07       		.byte	0x7
 1242 02c6 0F01     		.2byte	0x10f
 1243 02c8 1E020000 		.4byte	0x21e
 1244 02cc 02       		.byte	0x2
 1245 02cd 23       		.byte	0x23
 1246 02ce 1C       		.uleb128 0x1c
 1247 02cf 0A       		.uleb128 0xa
 1248 02d0 6C7200   		.ascii	"lr\000"
 1249 02d3 07       		.byte	0x7
 1250 02d4 1001     		.2byte	0x110
 1251 02d6 1E020000 		.4byte	0x21e
 1252 02da 02       		.byte	0x2
 1253 02db 23       		.byte	0x23
 1254 02dc 20       		.uleb128 0x20
 1255 02dd 00       		.byte	0
 1256 02de 0B       		.uleb128 0xb
 1257 02df 04       		.byte	0x4
 1258 02e0 51020000 		.4byte	0x251
 1259 02e4 0C       		.uleb128 0xc
 1260 02e5 08       		.byte	0x8
 1261 02e6 02       		.byte	0x2
 1262 02e7 53       		.byte	0x53
 1263 02e8 09030000 		.4byte	0x309
 1264 02ec 03       		.uleb128 0x3
 1265 02ed 10030000 		.4byte	.LASF0
 1266 02f1 02       		.byte	0x2
 1267 02f2 54       		.byte	0x54
 1268 02f3 09030000 		.4byte	0x309
 1269 02f7 02       		.byte	0x2
 1270 02f8 23       		.byte	0x23
 1271 02f9 00       		.uleb128 0
 1272 02fa 03       		.uleb128 0x3
 1273 02fb 95020000 		.4byte	.LASF1
 1274 02ff 02       		.byte	0x2
 1275 0300 55       		.byte	0x55
 1276 0301 09030000 		.4byte	0x309
 1277 0305 02       		.byte	0x2
 1278 0306 23       		.byte	0x23
 1279 0307 04       		.uleb128 0x4
ARM GAS  /tmp/cccORKxm.s 			page 47


 1280 0308 00       		.byte	0
 1281 0309 0B       		.uleb128 0xb
 1282 030a 04       		.byte	0x4
 1283 030b 29000000 		.4byte	0x29
 1284 030f 06       		.uleb128 0x6
 1285 0310 59040000 		.4byte	.LASF46
 1286 0314 02       		.byte	0x2
 1287 0315 56       		.byte	0x56
 1288 0316 E4020000 		.4byte	0x2e4
 1289 031a 0C       		.uleb128 0xc
 1290 031b 04       		.byte	0x4
 1291 031c 02       		.byte	0x2
 1292 031d 5B       		.byte	0x5b
 1293 031e 31030000 		.4byte	0x331
 1294 0322 03       		.uleb128 0x3
 1295 0323 10030000 		.4byte	.LASF0
 1296 0327 02       		.byte	0x2
 1297 0328 5C       		.byte	0x5c
 1298 0329 09030000 		.4byte	0x309
 1299 032d 02       		.byte	0x2
 1300 032e 23       		.byte	0x23
 1301 032f 00       		.uleb128 0
 1302 0330 00       		.byte	0
 1303 0331 06       		.uleb128 0x6
 1304 0332 CA040000 		.4byte	.LASF47
 1305 0336 02       		.byte	0x2
 1306 0337 5D       		.byte	0x5d
 1307 0338 1A030000 		.4byte	0x31a
 1308 033c 0C       		.uleb128 0xc
 1309 033d 1C       		.byte	0x1c
 1310 033e 02       		.byte	0x2
 1311 033f 64       		.byte	0x64
 1312 0340 99030000 		.4byte	0x399
 1313 0344 03       		.uleb128 0x3
 1314 0345 48030000 		.4byte	.LASF48
 1315 0349 02       		.byte	0x2
 1316 034a 65       		.byte	0x65
 1317 034b 0F030000 		.4byte	0x30f
 1318 034f 02       		.byte	0x2
 1319 0350 23       		.byte	0x23
 1320 0351 00       		.uleb128 0
 1321 0352 03       		.uleb128 0x3
 1322 0353 02030000 		.4byte	.LASF49
 1323 0357 02       		.byte	0x2
 1324 0358 66       		.byte	0x66
 1325 0359 EB010000 		.4byte	0x1eb
 1326 035d 02       		.byte	0x2
 1327 035e 23       		.byte	0x23
 1328 035f 08       		.uleb128 0x8
 1329 0360 03       		.uleb128 0x3
 1330 0361 5F020000 		.4byte	.LASF50
 1331 0365 02       		.byte	0x2
 1332 0366 68       		.byte	0x68
 1333 0367 36020000 		.4byte	0x236
 1334 036b 02       		.byte	0x2
 1335 036c 23       		.byte	0x23
 1336 036d 0C       		.uleb128 0xc
ARM GAS  /tmp/cccORKxm.s 			page 48


 1337 036e 03       		.uleb128 0x3
 1338 036f 79010000 		.4byte	.LASF51
 1339 0373 02       		.byte	0x2
 1340 0374 6B       		.byte	0x6b
 1341 0375 09030000 		.4byte	0x309
 1342 0379 02       		.byte	0x2
 1343 037a 23       		.byte	0x23
 1344 037b 10       		.uleb128 0x10
 1345 037c 03       		.uleb128 0x3
 1346 037d 75020000 		.4byte	.LASF52
 1347 0381 02       		.byte	0x2
 1348 0382 6C       		.byte	0x6c
 1349 0383 09030000 		.4byte	0x309
 1350 0387 02       		.byte	0x2
 1351 0388 23       		.byte	0x23
 1352 0389 14       		.uleb128 0x14
 1353 038a 03       		.uleb128 0x3
 1354 038b 6B020000 		.4byte	.LASF53
 1355 038f 02       		.byte	0x2
 1356 0390 6F       		.byte	0x6f
 1357 0391 09030000 		.4byte	0x309
 1358 0395 02       		.byte	0x2
 1359 0396 23       		.byte	0x23
 1360 0397 18       		.uleb128 0x18
 1361 0398 00       		.byte	0
 1362 0399 06       		.uleb128 0x6
 1363 039a 00000000 		.4byte	.LASF54
 1364 039e 02       		.byte	0x2
 1365 039f 71       		.byte	0x71
 1366 03a0 3C030000 		.4byte	0x33c
 1367 03a4 0D       		.uleb128 0xd
 1368 03a5 04       		.byte	0x4
 1369 03a6 02       		.byte	0x2
 1370 03a7 B1       		.byte	0xb1
 1371 03a8 D9030000 		.4byte	0x3d9
 1372 03ac 0E       		.uleb128 0xe
 1373 03ad 14000000 		.4byte	.LASF55
 1374 03b1 02       		.byte	0x2
 1375 03b2 B8       		.byte	0xb8
 1376 03b3 F6010000 		.4byte	0x1f6
 1377 03b7 0E       		.uleb128 0xe
 1378 03b8 5B000000 		.4byte	.LASF56
 1379 03bc 02       		.byte	0x2
 1380 03bd BF       		.byte	0xbf
 1381 03be F6010000 		.4byte	0x1f6
 1382 03c2 0E       		.uleb128 0xe
 1383 03c3 AF040000 		.4byte	.LASF57
 1384 03c7 02       		.byte	0x2
 1385 03c8 C6       		.byte	0xc6
 1386 03c9 29020000 		.4byte	0x229
 1387 03cd 0E       		.uleb128 0xe
 1388 03ce 09030000 		.4byte	.LASF58
 1389 03d2 02       		.byte	0x2
 1390 03d3 CD       		.byte	0xcd
 1391 03d4 01020000 		.4byte	0x201
 1392 03d8 00       		.byte	0
 1393 03d9 0B       		.uleb128 0xb
ARM GAS  /tmp/cccORKxm.s 			page 49


 1394 03da 04       		.byte	0x4
 1395 03db DF030000 		.4byte	0x3df
 1396 03df 0F       		.uleb128 0xf
 1397 03e0 E4030000 		.4byte	0x3e4
 1398 03e4 07       		.uleb128 0x7
 1399 03e5 01       		.byte	0x1
 1400 03e6 08       		.byte	0x8
 1401 03e7 7D030000 		.4byte	.LASF59
 1402 03eb 02       		.uleb128 0x2
 1403 03ec B8020000 		.4byte	.LASF60
 1404 03f0 10       		.byte	0x10
 1405 03f1 08       		.byte	0x8
 1406 03f2 3A       		.byte	0x3a
 1407 03f3 22040000 		.4byte	0x422
 1408 03f7 03       		.uleb128 0x3
 1409 03f8 DB000000 		.4byte	.LASF61
 1410 03fc 08       		.byte	0x8
 1411 03fd 3B       		.byte	0x3b
 1412 03fe 0F030000 		.4byte	0x30f
 1413 0402 02       		.byte	0x2
 1414 0403 23       		.byte	0x23
 1415 0404 00       		.uleb128 0
 1416 0405 03       		.uleb128 0x3
 1417 0406 DF040000 		.4byte	.LASF62
 1418 040a 08       		.byte	0x8
 1419 040b 3D       		.byte	0x3d
 1420 040c 09030000 		.4byte	0x309
 1421 0410 02       		.byte	0x2
 1422 0411 23       		.byte	0x23
 1423 0412 08       		.uleb128 0x8
 1424 0413 03       		.uleb128 0x3
 1425 0414 9C030000 		.4byte	.LASF63
 1426 0418 08       		.byte	0x8
 1427 0419 3F       		.byte	0x3f
 1428 041a 55050000 		.4byte	0x555
 1429 041e 02       		.byte	0x2
 1430 041f 23       		.byte	0x23
 1431 0420 0C       		.uleb128 0xc
 1432 0421 00       		.byte	0
 1433 0422 0B       		.uleb128 0xb
 1434 0423 04       		.byte	0x4
 1435 0424 EB030000 		.4byte	0x3eb
 1436 0428 10       		.uleb128 0x10
 1437 0429 B8030000 		.4byte	.LASF64
 1438 042d 02       		.byte	0x2
 1439 042e 0301     		.2byte	0x103
 1440 0430 34040000 		.4byte	0x434
 1441 0434 0B       		.uleb128 0xb
 1442 0435 04       		.byte	0x4
 1443 0436 3A040000 		.4byte	0x43a
 1444 043a 11       		.uleb128 0x11
 1445 043b 01       		.byte	0x1
 1446 043c 46040000 		.4byte	0x446
 1447 0440 12       		.uleb128 0x12
 1448 0441 29020000 		.4byte	0x229
 1449 0445 00       		.byte	0
 1450 0446 10       		.uleb128 0x10
ARM GAS  /tmp/cccORKxm.s 			page 50


 1451 0447 85020000 		.4byte	.LASF65
 1452 044b 02       		.byte	0x2
 1453 044c 0801     		.2byte	0x108
 1454 044e 52040000 		.4byte	0x452
 1455 0452 13       		.uleb128 0x13
 1456 0453 31040000 		.4byte	.LASF66
 1457 0457 14       		.byte	0x14
 1458 0458 02       		.byte	0x2
 1459 0459 0F01     		.2byte	0x10f
 1460 045b AB040000 		.4byte	0x4ab
 1461 045f 14       		.uleb128 0x14
 1462 0460 B3010000 		.4byte	.LASF67
 1463 0464 02       		.byte	0x2
 1464 0465 1001     		.2byte	0x110
 1465 0467 AB040000 		.4byte	0x4ab
 1466 046b 02       		.byte	0x2
 1467 046c 23       		.byte	0x23
 1468 046d 00       		.uleb128 0
 1469 046e 14       		.uleb128 0x14
 1470 046f 8A010000 		.4byte	.LASF68
 1471 0473 02       		.byte	0x2
 1472 0474 1101     		.2byte	0x111
 1473 0476 AB040000 		.4byte	0x4ab
 1474 047a 02       		.byte	0x2
 1475 047b 23       		.byte	0x23
 1476 047c 04       		.uleb128 0x4
 1477 047d 14       		.uleb128 0x14
 1478 047e 50030000 		.4byte	.LASF69
 1479 0482 02       		.byte	0x2
 1480 0483 1201     		.2byte	0x112
 1481 0485 13020000 		.4byte	0x213
 1482 0489 02       		.byte	0x2
 1483 048a 23       		.byte	0x23
 1484 048b 08       		.uleb128 0x8
 1485 048c 14       		.uleb128 0x14
 1486 048d ED040000 		.4byte	.LASF70
 1487 0491 02       		.byte	0x2
 1488 0492 1301     		.2byte	0x113
 1489 0494 28040000 		.4byte	0x428
 1490 0498 02       		.byte	0x2
 1491 0499 23       		.byte	0x23
 1492 049a 0C       		.uleb128 0xc
 1493 049b 14       		.uleb128 0x14
 1494 049c 3F040000 		.4byte	.LASF71
 1495 04a0 02       		.byte	0x2
 1496 04a1 1501     		.2byte	0x115
 1497 04a3 29020000 		.4byte	0x229
 1498 04a7 02       		.byte	0x2
 1499 04a8 23       		.byte	0x23
 1500 04a9 10       		.uleb128 0x10
 1501 04aa 00       		.byte	0
 1502 04ab 0B       		.uleb128 0xb
 1503 04ac 04       		.byte	0x4
 1504 04ad 46040000 		.4byte	0x446
 1505 04b1 15       		.uleb128 0x15
 1506 04b2 0C       		.byte	0xc
 1507 04b3 02       		.byte	0x2
ARM GAS  /tmp/cccORKxm.s 			page 51


 1508 04b4 1F01     		.2byte	0x11f
 1509 04b6 F7040000 		.4byte	0x4f7
 1510 04ba 14       		.uleb128 0x14
 1511 04bb B3010000 		.4byte	.LASF67
 1512 04bf 02       		.byte	0x2
 1513 04c0 2001     		.2byte	0x120
 1514 04c2 AB040000 		.4byte	0x4ab
 1515 04c6 02       		.byte	0x2
 1516 04c7 23       		.byte	0x23
 1517 04c8 00       		.uleb128 0
 1518 04c9 14       		.uleb128 0x14
 1519 04ca 8A010000 		.4byte	.LASF68
 1520 04ce 02       		.byte	0x2
 1521 04cf 2201     		.2byte	0x122
 1522 04d1 AB040000 		.4byte	0x4ab
 1523 04d5 02       		.byte	0x2
 1524 04d6 23       		.byte	0x23
 1525 04d7 04       		.uleb128 0x4
 1526 04d8 14       		.uleb128 0x14
 1527 04d9 50030000 		.4byte	.LASF69
 1528 04dd 02       		.byte	0x2
 1529 04de 2401     		.2byte	0x124
 1530 04e0 13020000 		.4byte	0x213
 1531 04e4 02       		.byte	0x2
 1532 04e5 23       		.byte	0x23
 1533 04e6 08       		.uleb128 0x8
 1534 04e7 14       		.uleb128 0x14
 1535 04e8 4B020000 		.4byte	.LASF72
 1536 04ec 02       		.byte	0x2
 1537 04ed 2C01     		.2byte	0x12c
 1538 04ef 13020000 		.4byte	0x213
 1539 04f3 02       		.byte	0x2
 1540 04f4 23       		.byte	0x23
 1541 04f5 0A       		.uleb128 0xa
 1542 04f6 00       		.byte	0
 1543 04f7 10       		.uleb128 0x10
 1544 04f8 70000000 		.4byte	.LASF73
 1545 04fc 02       		.byte	0x2
 1546 04fd 2F01     		.2byte	0x12f
 1547 04ff B1040000 		.4byte	0x4b1
 1548 0503 13       		.uleb128 0x13
 1549 0504 37010000 		.4byte	.LASF74
 1550 0508 2C       		.byte	0x2c
 1551 0509 02       		.byte	0x2
 1552 050a 3601     		.2byte	0x136
 1553 050c 3E050000 		.4byte	0x53e
 1554 0510 14       		.uleb128 0x14
 1555 0511 70040000 		.4byte	.LASF75
 1556 0515 02       		.byte	0x2
 1557 0516 3A01     		.2byte	0x13a
 1558 0518 99030000 		.4byte	0x399
 1559 051c 02       		.byte	0x2
 1560 051d 23       		.byte	0x23
 1561 051e 00       		.uleb128 0
 1562 051f 14       		.uleb128 0x14
 1563 0520 30000000 		.4byte	.LASF76
 1564 0524 02       		.byte	0x2
ARM GAS  /tmp/cccORKxm.s 			page 52


 1565 0525 3E01     		.2byte	0x13e
 1566 0527 F7040000 		.4byte	0x4f7
 1567 052b 02       		.byte	0x2
 1568 052c 23       		.byte	0x23
 1569 052d 1C       		.uleb128 0x1c
 1570 052e 14       		.uleb128 0x14
 1571 052f 46040000 		.4byte	.LASF77
 1572 0533 02       		.byte	0x2
 1573 0534 4301     		.2byte	0x143
 1574 0536 BF010000 		.4byte	0x1bf
 1575 053a 02       		.byte	0x2
 1576 053b 23       		.byte	0x23
 1577 053c 28       		.uleb128 0x28
 1578 053d 00       		.byte	0
 1579 053e 10       		.uleb128 0x10
 1580 053f F2010000 		.4byte	.LASF78
 1581 0543 02       		.byte	0x2
 1582 0544 6501     		.2byte	0x165
 1583 0546 03050000 		.4byte	0x503
 1584 054a 06       		.uleb128 0x6
 1585 054b AB000000 		.4byte	.LASF79
 1586 054f 08       		.byte	0x8
 1587 0550 35       		.byte	0x35
 1588 0551 EB030000 		.4byte	0x3eb
 1589 0555 0B       		.uleb128 0xb
 1590 0556 04       		.byte	0x4
 1591 0557 4A050000 		.4byte	0x54a
 1592 055b 06       		.uleb128 0x6
 1593 055c 37000000 		.4byte	.LASF80
 1594 0560 09       		.byte	0x9
 1595 0561 37       		.byte	0x37
 1596 0562 66050000 		.4byte	0x566
 1597 0566 0B       		.uleb128 0xb
 1598 0567 04       		.byte	0x4
 1599 0568 6C050000 		.4byte	0x56c
 1600 056c 16       		.uleb128 0x16
 1601 056d 01       		.byte	0x1
 1602 056e 29020000 		.4byte	0x229
 1603 0572 7C050000 		.4byte	0x57c
 1604 0576 12       		.uleb128 0x12
 1605 0577 39010000 		.4byte	0x139
 1606 057b 00       		.byte	0
 1607 057c 06       		.uleb128 0x6
 1608 057d 53010000 		.4byte	.LASF81
 1609 0581 0A       		.byte	0xa
 1610 0582 3D       		.byte	0x3d
 1611 0583 87050000 		.4byte	0x587
 1612 0587 02       		.uleb128 0x2
 1613 0588 F5040000 		.4byte	.LASF82
 1614 058c 20       		.byte	0x20
 1615 058d 0A       		.byte	0xa
 1616 058e 50       		.byte	0x50
 1617 058f BE050000 		.4byte	0x5be
 1618 0593 03       		.uleb128 0x3
 1619 0594 A4040000 		.4byte	.LASF83
 1620 0598 0A       		.byte	0xa
 1621 0599 51       		.byte	0x51
ARM GAS  /tmp/cccORKxm.s 			page 53


 1622 059a 5B050000 		.4byte	0x55b
 1623 059e 02       		.byte	0x2
 1624 059f 23       		.byte	0x23
 1625 05a0 00       		.uleb128 0
 1626 05a1 03       		.uleb128 0x3
 1627 05a2 64000000 		.4byte	.LASF84
 1628 05a6 0A       		.byte	0xa
 1629 05a7 53       		.byte	0x53
 1630 05a8 DD050000 		.4byte	0x5dd
 1631 05ac 02       		.byte	0x2
 1632 05ad 23       		.byte	0x23
 1633 05ae 08       		.uleb128 0x8
 1634 05af 03       		.uleb128 0x3
 1635 05b0 CD000000 		.4byte	.LASF85
 1636 05b4 0A       		.byte	0xa
 1637 05b5 55       		.byte	0x55
 1638 05b6 4A050000 		.4byte	0x54a
 1639 05ba 02       		.byte	0x2
 1640 05bb 23       		.byte	0x23
 1641 05bc 10       		.uleb128 0x10
 1642 05bd 00       		.byte	0
 1643 05be 0D       		.uleb128 0xd
 1644 05bf 04       		.byte	0x4
 1645 05c0 0A       		.byte	0xa
 1646 05c1 45       		.byte	0x45
 1647 05c2 DD050000 		.4byte	0x5dd
 1648 05c6 0E       		.uleb128 0xe
 1649 05c7 93000000 		.4byte	.LASF86
 1650 05cb 0A       		.byte	0xa
 1651 05cc 46       		.byte	0x46
 1652 05cd FE050000 		.4byte	0x5fe
 1653 05d1 0E       		.uleb128 0xe
 1654 05d2 59030000 		.4byte	.LASF87
 1655 05d6 0A       		.byte	0xa
 1656 05d7 47       		.byte	0x47
 1657 05d8 04060000 		.4byte	0x604
 1658 05dc 00       		.byte	0
 1659 05dd 17       		.uleb128 0x17
 1660 05de DA020000 		.4byte	.LASF95
 1661 05e2 08       		.byte	0x8
 1662 05e3 0A       		.byte	0xa
 1663 05e4 42       		.byte	0x42
 1664 05e5 FE050000 		.4byte	0x5fe
 1665 05e9 0E       		.uleb128 0xe
 1666 05ea A0010000 		.4byte	.LASF88
 1667 05ee 0A       		.byte	0xa
 1668 05ef 43       		.byte	0x43
 1669 05f0 2B020000 		.4byte	0x22b
 1670 05f4 18       		.uleb128 0x18
 1671 05f5 6800     		.ascii	"h\000"
 1672 05f7 0A       		.byte	0xa
 1673 05f8 4A       		.byte	0x4a
 1674 05f9 0A060000 		.4byte	0x60a
 1675 05fd 00       		.byte	0
 1676 05fe 0B       		.uleb128 0xb
 1677 05ff 04       		.byte	0x4
 1678 0600 DD050000 		.4byte	0x5dd
ARM GAS  /tmp/cccORKxm.s 			page 54


 1679 0604 0B       		.uleb128 0xb
 1680 0605 04       		.byte	0x4
 1681 0606 7C050000 		.4byte	0x57c
 1682 060a 0C       		.uleb128 0xc
 1683 060b 08       		.byte	0x8
 1684 060c 0A       		.byte	0xa
 1685 060d 44       		.byte	0x44
 1686 060e 2D060000 		.4byte	0x62d
 1687 0612 04       		.uleb128 0x4
 1688 0613 7500     		.ascii	"u\000"
 1689 0615 0A       		.byte	0xa
 1690 0616 48       		.byte	0x48
 1691 0617 BE050000 		.4byte	0x5be
 1692 061b 02       		.byte	0x2
 1693 061c 23       		.byte	0x23
 1694 061d 00       		.uleb128 0
 1695 061e 03       		.uleb128 0x3
 1696 061f D4010000 		.4byte	.LASF89
 1697 0623 0A       		.byte	0xa
 1698 0624 49       		.byte	0x49
 1699 0625 39010000 		.4byte	0x139
 1700 0629 02       		.byte	0x2
 1701 062a 23       		.byte	0x23
 1702 062b 04       		.uleb128 0x4
 1703 062c 00       		.byte	0
 1704 062d 02       		.uleb128 0x2
 1705 062e 2B030000 		.4byte	.LASF90
 1706 0632 10       		.byte	0x10
 1707 0633 0B       		.byte	0xb
 1708 0634 3B       		.byte	0x3b
 1709 0635 72060000 		.4byte	0x672
 1710 0639 03       		.uleb128 0x3
 1711 063a CF010000 		.4byte	.LASF91
 1712 063e 0B       		.byte	0xb
 1713 063f 3C       		.byte	0x3c
 1714 0640 D9030000 		.4byte	0x3d9
 1715 0644 02       		.byte	0x2
 1716 0645 23       		.byte	0x23
 1717 0646 00       		.uleb128 0
 1718 0647 03       		.uleb128 0x3
 1719 0648 65020000 		.4byte	.LASF92
 1720 064c 0B       		.byte	0xb
 1721 064d 3D       		.byte	0x3d
 1722 064e 74060000 		.4byte	0x674
 1723 0652 02       		.byte	0x2
 1724 0653 23       		.byte	0x23
 1725 0654 04       		.uleb128 0x4
 1726 0655 03       		.uleb128 0x3
 1727 0656 C6010000 		.4byte	.LASF93
 1728 065a 0B       		.byte	0xb
 1729 065b 3E       		.byte	0x3e
 1730 065c 74060000 		.4byte	0x674
 1731 0660 02       		.byte	0x2
 1732 0661 23       		.byte	0x23
 1733 0662 08       		.uleb128 0x8
 1734 0663 03       		.uleb128 0x3
 1735 0664 9C020000 		.4byte	.LASF94
ARM GAS  /tmp/cccORKxm.s 			page 55


 1736 0668 0B       		.byte	0xb
 1737 0669 3F       		.byte	0x3f
 1738 066a 74060000 		.4byte	0x674
 1739 066e 02       		.byte	0x2
 1740 066f 23       		.byte	0x23
 1741 0670 0C       		.uleb128 0xc
 1742 0671 00       		.byte	0
 1743 0672 19       		.uleb128 0x19
 1744 0673 01       		.byte	0x1
 1745 0674 0B       		.uleb128 0xb
 1746 0675 04       		.byte	0x4
 1747 0676 72060000 		.4byte	0x672
 1748 067a 1A       		.uleb128 0x1a
 1749 067b 6806     		.2byte	0x668
 1750 067d 0B       		.byte	0xb
 1751 067e 44       		.byte	0x44
 1752 067f C9060000 		.4byte	0x6c9
 1753 0683 04       		.uleb128 0x4
 1754 0684 543000   		.ascii	"T0\000"
 1755 0687 0B       		.byte	0xb
 1756 0688 45       		.byte	0x45
 1757 0689 C9060000 		.4byte	0x6c9
 1758 068d 02       		.byte	0x2
 1759 068e 23       		.byte	0x23
 1760 068f 00       		.uleb128 0
 1761 0690 04       		.uleb128 0x4
 1762 0691 543100   		.ascii	"T1\000"
 1763 0694 0B       		.byte	0xb
 1764 0695 46       		.byte	0x46
 1765 0696 C9060000 		.4byte	0x6c9
 1766 069a 03       		.byte	0x3
 1767 069b 23       		.byte	0x23
 1768 069c C802     		.uleb128 0x148
 1769 069e 04       		.uleb128 0x4
 1770 069f 543200   		.ascii	"T2\000"
 1771 06a2 0B       		.byte	0xb
 1772 06a3 47       		.byte	0x47
 1773 06a4 C9060000 		.4byte	0x6c9
 1774 06a8 03       		.byte	0x3
 1775 06a9 23       		.byte	0x23
 1776 06aa 9005     		.uleb128 0x290
 1777 06ac 04       		.uleb128 0x4
 1778 06ad 543300   		.ascii	"T3\000"
 1779 06b0 0B       		.byte	0xb
 1780 06b1 48       		.byte	0x48
 1781 06b2 C9060000 		.4byte	0x6c9
 1782 06b6 03       		.byte	0x3
 1783 06b7 23       		.byte	0x23
 1784 06b8 D807     		.uleb128 0x3d8
 1785 06ba 04       		.uleb128 0x4
 1786 06bb 543400   		.ascii	"T4\000"
 1787 06be 0B       		.byte	0xb
 1788 06bf 49       		.byte	0x49
 1789 06c0 C9060000 		.4byte	0x6c9
 1790 06c4 03       		.byte	0x3
 1791 06c5 23       		.byte	0x23
 1792 06c6 A00A     		.uleb128 0x520
ARM GAS  /tmp/cccORKxm.s 			page 56


 1793 06c8 00       		.byte	0
 1794 06c9 1B       		.uleb128 0x1b
 1795 06ca 2B020000 		.4byte	0x22b
 1796 06ce D9060000 		.4byte	0x6d9
 1797 06d2 1C       		.uleb128 0x1c
 1798 06d3 0C020000 		.4byte	0x20c
 1799 06d7 28       		.byte	0x28
 1800 06d8 00       		.byte	0
 1801 06d9 1D       		.uleb128 0x1d
 1802 06da 82030000 		.4byte	.LASF96
 1803 06de 6806     		.2byte	0x668
 1804 06e0 0B       		.byte	0xb
 1805 06e1 43       		.byte	0x43
 1806 06e2 FC060000 		.4byte	0x6fc
 1807 06e6 18       		.uleb128 0x18
 1808 06e7 776100   		.ascii	"wa\000"
 1809 06ea 0B       		.byte	0xb
 1810 06eb 4A       		.byte	0x4a
 1811 06ec 7A060000 		.4byte	0x67a
 1812 06f0 0E       		.uleb128 0xe
 1813 06f1 6A010000 		.4byte	.LASF97
 1814 06f5 0B       		.byte	0xb
 1815 06f6 4B       		.byte	0x4b
 1816 06f7 FC060000 		.4byte	0x6fc
 1817 06fb 00       		.byte	0
 1818 06fc 1B       		.uleb128 0x1b
 1819 06fd 52010000 		.4byte	0x152
 1820 0701 0D070000 		.4byte	0x70d
 1821 0705 1E       		.uleb128 0x1e
 1822 0706 0C020000 		.4byte	0x20c
 1823 070a 6706     		.2byte	0x667
 1824 070c 00       		.byte	0
 1825 070d 1F       		.uleb128 0x1f
 1826 070e 92010000 		.4byte	.LASF98
 1827 0712 01       		.byte	0x1
 1828 0713 45       		.byte	0x45
 1829 0714 01       		.byte	0x1
 1830 0715 00000000 		.4byte	.LFB166
 1831 0719 50020000 		.4byte	.LFE166
 1832 071d 00000000 		.4byte	.LLST0
 1833 0721 01       		.byte	0x1
 1834 0722 770C0000 		.4byte	0xc77
 1835 0726 20       		.uleb128 0x20
 1836 0727 703100   		.ascii	"p1\000"
 1837 072a 01       		.byte	0x1
 1838 072b 46       		.byte	0x46
 1839 072c 29020000 		.4byte	0x229
 1840 0730 2C000000 		.4byte	.LLST1
 1841 0734 20       		.uleb128 0x20
 1842 0735 703200   		.ascii	"p2\000"
 1843 0738 01       		.byte	0x1
 1844 0739 46       		.byte	0x46
 1845 073a 29020000 		.4byte	0x229
 1846 073e E4000000 		.4byte	.LLST2
 1847 0742 20       		.uleb128 0x20
 1848 0743 703300   		.ascii	"p3\000"
 1849 0746 01       		.byte	0x1
ARM GAS  /tmp/cccORKxm.s 			page 57


 1850 0747 46       		.byte	0x46
 1851 0748 29020000 		.4byte	0x229
 1852 074c 4F010000 		.4byte	.LLST3
 1853 0750 20       		.uleb128 0x20
 1854 0751 6E00     		.ascii	"n\000"
 1855 0753 01       		.byte	0x1
 1856 0754 47       		.byte	0x47
 1857 0755 39010000 		.4byte	0x139
 1858 0759 6D010000 		.4byte	.LLST4
 1859 075d 20       		.uleb128 0x20
 1860 075e 737A00   		.ascii	"sz\000"
 1861 0761 01       		.byte	0x1
 1862 0762 47       		.byte	0x47
 1863 0763 39010000 		.4byte	0x139
 1864 0767 A4010000 		.4byte	.LLST5
 1865 076b 21       		.uleb128 0x21
 1866 076c 08000000 		.4byte	.LVL0
 1867 0770 280D0000 		.4byte	0xd28
 1868 0774 22       		.uleb128 0x22
 1869 0775 10000000 		.4byte	.LVL1
 1870 0779 360D0000 		.4byte	0xd36
 1871 077d 8D070000 		.4byte	0x78d
 1872 0781 23       		.uleb128 0x23
 1873 0782 01       		.byte	0x1
 1874 0783 51       		.byte	0x51
 1875 0784 02       		.byte	0x2
 1876 0785 91       		.byte	0x91
 1877 0786 6C       		.sleb128 -20
 1878 0787 23       		.uleb128 0x23
 1879 0788 01       		.byte	0x1
 1880 0789 50       		.byte	0x50
 1881 078a 01       		.byte	0x1
 1882 078b 30       		.byte	0x30
 1883 078c 00       		.byte	0
 1884 078d 22       		.uleb128 0x22
 1885 078e 18000000 		.4byte	.LVL2
 1886 0792 590D0000 		.4byte	0xd59
 1887 0796 A5070000 		.4byte	0x7a5
 1888 079a 23       		.uleb128 0x23
 1889 079b 01       		.byte	0x1
 1890 079c 51       		.byte	0x51
 1891 079d 01       		.byte	0x1
 1892 079e 40       		.byte	0x40
 1893 079f 23       		.uleb128 0x23
 1894 07a0 01       		.byte	0x1
 1895 07a1 50       		.byte	0x50
 1896 07a2 01       		.byte	0x1
 1897 07a3 30       		.byte	0x30
 1898 07a4 00       		.byte	0
 1899 07a5 22       		.uleb128 0x22
 1900 07a6 26000000 		.4byte	.LVL4
 1901 07aa 760D0000 		.4byte	0xd76
 1902 07ae C8070000 		.4byte	0x7c8
 1903 07b2 23       		.uleb128 0x23
 1904 07b3 01       		.byte	0x1
 1905 07b4 51       		.byte	0x51
 1906 07b5 0C       		.byte	0xc
ARM GAS  /tmp/cccORKxm.s 			page 58


 1907 07b6 31       		.byte	0x31
 1908 07b7 74       		.byte	0x74
 1909 07b8 00       		.sleb128 0
 1910 07b9 74       		.byte	0x74
 1911 07ba 00       		.sleb128 0
 1912 07bb 30       		.byte	0x30
 1913 07bc 2E       		.byte	0x2e
 1914 07bd 28       		.byte	0x28
 1915 07be 0100     		.2byte	0x1
 1916 07c0 16       		.byte	0x16
 1917 07c1 13       		.byte	0x13
 1918 07c2 23       		.uleb128 0x23
 1919 07c3 01       		.byte	0x1
 1920 07c4 50       		.byte	0x50
 1921 07c5 01       		.byte	0x1
 1922 07c6 31       		.byte	0x31
 1923 07c7 00       		.byte	0
 1924 07c8 22       		.uleb128 0x22
 1925 07c9 34000000 		.4byte	.LVL7
 1926 07cd 9A0D0000 		.4byte	0xd9a
 1927 07d1 DC070000 		.4byte	0x7dc
 1928 07d5 23       		.uleb128 0x23
 1929 07d6 01       		.byte	0x1
 1930 07d7 50       		.byte	0x50
 1931 07d8 02       		.byte	0x2
 1932 07d9 74       		.byte	0x74
 1933 07da 00       		.sleb128 0
 1934 07db 00       		.byte	0
 1935 07dc 22       		.uleb128 0x22
 1936 07dd 3E000000 		.4byte	.LVL8
 1937 07e1 590D0000 		.4byte	0xd59
 1938 07e5 F7070000 		.4byte	0x7f7
 1939 07e9 23       		.uleb128 0x23
 1940 07ea 01       		.byte	0x1
 1941 07eb 51       		.byte	0x51
 1942 07ec 03       		.byte	0x3
 1943 07ed 0B       		.byte	0xb
 1944 07ee 00FF     		.2byte	0xff00
 1945 07f0 23       		.uleb128 0x23
 1946 07f1 01       		.byte	0x1
 1947 07f2 50       		.byte	0x50
 1948 07f3 02       		.byte	0x2
 1949 07f4 75       		.byte	0x75
 1950 07f5 00       		.sleb128 0
 1951 07f6 00       		.byte	0
 1952 07f7 22       		.uleb128 0x22
 1953 07f8 4C000000 		.4byte	.LVL10
 1954 07fc 760D0000 		.4byte	0xd76
 1955 0800 0A080000 		.4byte	0x80a
 1956 0804 23       		.uleb128 0x23
 1957 0805 01       		.byte	0x1
 1958 0806 50       		.byte	0x50
 1959 0807 01       		.byte	0x1
 1960 0808 32       		.byte	0x32
 1961 0809 00       		.byte	0
 1962 080a 22       		.uleb128 0x22
 1963 080b 58000000 		.4byte	.LVL11
ARM GAS  /tmp/cccORKxm.s 			page 59


 1964 080f 360D0000 		.4byte	0xd36
 1965 0813 27080000 		.4byte	0x827
 1966 0817 23       		.uleb128 0x23
 1967 0818 01       		.byte	0x1
 1968 0819 51       		.byte	0x51
 1969 081a 02       		.byte	0x2
 1970 081b 91       		.byte	0x91
 1971 081c 6C       		.sleb128 -20
 1972 081d 23       		.uleb128 0x23
 1973 081e 01       		.byte	0x1
 1974 081f 50       		.byte	0x50
 1975 0820 05       		.byte	0x5
 1976 0821 03       		.byte	0x3
 1977 0822 00000000 		.4byte	.LANCHOR0
 1978 0826 00       		.byte	0
 1979 0827 22       		.uleb128 0x22
 1980 0828 60000000 		.4byte	.LVL12
 1981 082c 590D0000 		.4byte	0xd59
 1982 0830 43080000 		.4byte	0x843
 1983 0834 23       		.uleb128 0x23
 1984 0835 01       		.byte	0x1
 1985 0836 51       		.byte	0x51
 1986 0837 01       		.byte	0x1
 1987 0838 40       		.byte	0x40
 1988 0839 23       		.uleb128 0x23
 1989 083a 01       		.byte	0x1
 1990 083b 50       		.byte	0x50
 1991 083c 05       		.byte	0x5
 1992 083d 03       		.byte	0x3
 1993 083e 00000000 		.4byte	.LANCHOR0
 1994 0842 00       		.byte	0
 1995 0843 22       		.uleb128 0x22
 1996 0844 6A000000 		.4byte	.LVL15
 1997 0848 590D0000 		.4byte	0xd59
 1998 084c 5F080000 		.4byte	0x85f
 1999 0850 23       		.uleb128 0x23
 2000 0851 01       		.byte	0x1
 2001 0852 51       		.byte	0x51
 2002 0853 01       		.byte	0x1
 2003 0854 40       		.byte	0x40
 2004 0855 23       		.uleb128 0x23
 2005 0856 01       		.byte	0x1
 2006 0857 50       		.byte	0x50
 2007 0858 05       		.byte	0x5
 2008 0859 03       		.byte	0x3
 2009 085a 00000000 		.4byte	.LANCHOR0
 2010 085e 00       		.byte	0
 2011 085f 22       		.uleb128 0x22
 2012 0860 74000000 		.4byte	.LVL18
 2013 0864 590D0000 		.4byte	0xd59
 2014 0868 7B080000 		.4byte	0x87b
 2015 086c 23       		.uleb128 0x23
 2016 086d 01       		.byte	0x1
 2017 086e 51       		.byte	0x51
 2018 086f 01       		.byte	0x1
 2019 0870 40       		.byte	0x40
 2020 0871 23       		.uleb128 0x23
ARM GAS  /tmp/cccORKxm.s 			page 60


 2021 0872 01       		.byte	0x1
 2022 0873 50       		.byte	0x50
 2023 0874 05       		.byte	0x5
 2024 0875 03       		.byte	0x3
 2025 0876 00000000 		.4byte	.LANCHOR0
 2026 087a 00       		.byte	0
 2027 087b 22       		.uleb128 0x22
 2028 087c 7C000000 		.4byte	.LVL21
 2029 0880 9A0D0000 		.4byte	0xd9a
 2030 0884 8F080000 		.4byte	0x88f
 2031 0888 23       		.uleb128 0x23
 2032 0889 01       		.byte	0x1
 2033 088a 50       		.byte	0x50
 2034 088b 02       		.byte	0x2
 2035 088c 75       		.byte	0x75
 2036 088d 00       		.sleb128 0
 2037 088e 00       		.byte	0
 2038 088f 22       		.uleb128 0x22
 2039 0890 82000000 		.4byte	.LVL22
 2040 0894 9A0D0000 		.4byte	0xd9a
 2041 0898 A3080000 		.4byte	0x8a3
 2042 089c 23       		.uleb128 0x23
 2043 089d 01       		.byte	0x1
 2044 089e 50       		.byte	0x50
 2045 089f 02       		.byte	0x2
 2046 08a0 74       		.byte	0x74
 2047 08a1 00       		.sleb128 0
 2048 08a2 00       		.byte	0
 2049 08a3 22       		.uleb128 0x22
 2050 08a4 88000000 		.4byte	.LVL23
 2051 08a8 9A0D0000 		.4byte	0xd9a
 2052 08ac B7080000 		.4byte	0x8b7
 2053 08b0 23       		.uleb128 0x23
 2054 08b1 01       		.byte	0x1
 2055 08b2 50       		.byte	0x50
 2056 08b3 02       		.byte	0x2
 2057 08b4 76       		.byte	0x76
 2058 08b5 00       		.sleb128 0
 2059 08b6 00       		.byte	0
 2060 08b7 22       		.uleb128 0x22
 2061 08b8 90000000 		.4byte	.LVL24
 2062 08bc 360D0000 		.4byte	0xd36
 2063 08c0 D4080000 		.4byte	0x8d4
 2064 08c4 23       		.uleb128 0x23
 2065 08c5 01       		.byte	0x1
 2066 08c6 51       		.byte	0x51
 2067 08c7 02       		.byte	0x2
 2068 08c8 7D       		.byte	0x7d
 2069 08c9 00       		.sleb128 0
 2070 08ca 23       		.uleb128 0x23
 2071 08cb 01       		.byte	0x1
 2072 08cc 50       		.byte	0x50
 2073 08cd 05       		.byte	0x5
 2074 08ce 03       		.byte	0x3
 2075 08cf 00000000 		.4byte	.LANCHOR0
 2076 08d3 00       		.byte	0
 2077 08d4 22       		.uleb128 0x22
ARM GAS  /tmp/cccORKxm.s 			page 61


 2078 08d5 A2000000 		.4byte	.LVL25
 2079 08d9 760D0000 		.4byte	0xd76
 2080 08dd E7080000 		.4byte	0x8e7
 2081 08e1 23       		.uleb128 0x23
 2082 08e2 01       		.byte	0x1
 2083 08e3 50       		.byte	0x50
 2084 08e4 01       		.byte	0x1
 2085 08e5 33       		.byte	0x33
 2086 08e6 00       		.byte	0
 2087 08e7 22       		.uleb128 0x22
 2088 08e8 AE000000 		.4byte	.LVL26
 2089 08ec 590D0000 		.4byte	0xd59
 2090 08f0 03090000 		.4byte	0x903
 2091 08f4 23       		.uleb128 0x23
 2092 08f5 01       		.byte	0x1
 2093 08f6 51       		.byte	0x51
 2094 08f7 01       		.byte	0x1
 2095 08f8 40       		.byte	0x40
 2096 08f9 23       		.uleb128 0x23
 2097 08fa 01       		.byte	0x1
 2098 08fb 50       		.byte	0x50
 2099 08fc 05       		.byte	0x5
 2100 08fd 03       		.byte	0x3
 2101 08fe 00000000 		.4byte	.LANCHOR0
 2102 0902 00       		.byte	0
 2103 0903 22       		.uleb128 0x22
 2104 0904 B8000000 		.4byte	.LVL29
 2105 0908 590D0000 		.4byte	0xd59
 2106 090c 1F090000 		.4byte	0x91f
 2107 0910 23       		.uleb128 0x23
 2108 0911 01       		.byte	0x1
 2109 0912 51       		.byte	0x51
 2110 0913 01       		.byte	0x1
 2111 0914 40       		.byte	0x40
 2112 0915 23       		.uleb128 0x23
 2113 0916 01       		.byte	0x1
 2114 0917 50       		.byte	0x50
 2115 0918 05       		.byte	0x5
 2116 0919 03       		.byte	0x3
 2117 091a 00000000 		.4byte	.LANCHOR0
 2118 091e 00       		.byte	0
 2119 091f 22       		.uleb128 0x22
 2120 0920 C2000000 		.4byte	.LVL32
 2121 0924 590D0000 		.4byte	0xd59
 2122 0928 3B090000 		.4byte	0x93b
 2123 092c 23       		.uleb128 0x23
 2124 092d 01       		.byte	0x1
 2125 092e 51       		.byte	0x51
 2126 092f 01       		.byte	0x1
 2127 0930 40       		.byte	0x40
 2128 0931 23       		.uleb128 0x23
 2129 0932 01       		.byte	0x1
 2130 0933 50       		.byte	0x50
 2131 0934 05       		.byte	0x5
 2132 0935 03       		.byte	0x3
 2133 0936 00000000 		.4byte	.LANCHOR0
 2134 093a 00       		.byte	0
ARM GAS  /tmp/cccORKxm.s 			page 62


 2135 093b 21       		.uleb128 0x21
 2136 093c C6000000 		.4byte	.LVL33
 2137 0940 9A0D0000 		.4byte	0xd9a
 2138 0944 22       		.uleb128 0x22
 2139 0945 CC000000 		.4byte	.LVL34
 2140 0949 9A0D0000 		.4byte	0xd9a
 2141 094d 58090000 		.4byte	0x958
 2142 0951 23       		.uleb128 0x23
 2143 0952 01       		.byte	0x1
 2144 0953 50       		.byte	0x50
 2145 0954 02       		.byte	0x2
 2146 0955 75       		.byte	0x75
 2147 0956 00       		.sleb128 0
 2148 0957 00       		.byte	0
 2149 0958 22       		.uleb128 0x22
 2150 0959 D2000000 		.4byte	.LVL35
 2151 095d 9A0D0000 		.4byte	0xd9a
 2152 0961 6C090000 		.4byte	0x96c
 2153 0965 23       		.uleb128 0x23
 2154 0966 01       		.byte	0x1
 2155 0967 50       		.byte	0x50
 2156 0968 02       		.byte	0x2
 2157 0969 74       		.byte	0x74
 2158 096a 00       		.sleb128 0
 2159 096b 00       		.byte	0
 2160 096c 22       		.uleb128 0x22
 2161 096d DA000000 		.4byte	.LVL36
 2162 0971 360D0000 		.4byte	0xd36
 2163 0975 89090000 		.4byte	0x989
 2164 0979 23       		.uleb128 0x23
 2165 097a 01       		.byte	0x1
 2166 097b 51       		.byte	0x51
 2167 097c 02       		.byte	0x2
 2168 097d 7D       		.byte	0x7d
 2169 097e 00       		.sleb128 0
 2170 097f 23       		.uleb128 0x23
 2171 0980 01       		.byte	0x1
 2172 0981 50       		.byte	0x50
 2173 0982 05       		.byte	0x5
 2174 0983 03       		.byte	0x3
 2175 0984 00000000 		.4byte	.LANCHOR0
 2176 0988 00       		.byte	0
 2177 0989 22       		.uleb128 0x22
 2178 098a E8000000 		.4byte	.LVL37
 2179 098e 760D0000 		.4byte	0xd76
 2180 0992 9C090000 		.4byte	0x99c
 2181 0996 23       		.uleb128 0x23
 2182 0997 01       		.byte	0x1
 2183 0998 50       		.byte	0x50
 2184 0999 01       		.byte	0x1
 2185 099a 34       		.byte	0x34
 2186 099b 00       		.byte	0
 2187 099c 22       		.uleb128 0x22
 2188 099d F4000000 		.4byte	.LVL38
 2189 09a1 590D0000 		.4byte	0xd59
 2190 09a5 B8090000 		.4byte	0x9b8
 2191 09a9 23       		.uleb128 0x23
ARM GAS  /tmp/cccORKxm.s 			page 63


 2192 09aa 01       		.byte	0x1
 2193 09ab 51       		.byte	0x51
 2194 09ac 01       		.byte	0x1
 2195 09ad 41       		.byte	0x41
 2196 09ae 23       		.uleb128 0x23
 2197 09af 01       		.byte	0x1
 2198 09b0 50       		.byte	0x50
 2199 09b1 05       		.byte	0x5
 2200 09b2 03       		.byte	0x3
 2201 09b3 00000000 		.4byte	.LANCHOR0
 2202 09b7 00       		.byte	0
 2203 09b8 22       		.uleb128 0x22
 2204 09b9 FE000000 		.4byte	.LVL41
 2205 09bd 590D0000 		.4byte	0xd59
 2206 09c1 D4090000 		.4byte	0x9d4
 2207 09c5 23       		.uleb128 0x23
 2208 09c6 01       		.byte	0x1
 2209 09c7 51       		.byte	0x51
 2210 09c8 01       		.byte	0x1
 2211 09c9 40       		.byte	0x40
 2212 09ca 23       		.uleb128 0x23
 2213 09cb 01       		.byte	0x1
 2214 09cc 50       		.byte	0x50
 2215 09cd 05       		.byte	0x5
 2216 09ce 03       		.byte	0x3
 2217 09cf 00000000 		.4byte	.LANCHOR0
 2218 09d3 00       		.byte	0
 2219 09d4 22       		.uleb128 0x22
 2220 09d5 06010000 		.4byte	.LVL44
 2221 09d9 9A0D0000 		.4byte	0xd9a
 2222 09dd E8090000 		.4byte	0x9e8
 2223 09e1 23       		.uleb128 0x23
 2224 09e2 01       		.byte	0x1
 2225 09e3 50       		.byte	0x50
 2226 09e4 02       		.byte	0x2
 2227 09e5 74       		.byte	0x74
 2228 09e6 00       		.sleb128 0
 2229 09e7 00       		.byte	0
 2230 09e8 22       		.uleb128 0x22
 2231 09e9 0E010000 		.4byte	.LVL45
 2232 09ed 360D0000 		.4byte	0xd36
 2233 09f1 050A0000 		.4byte	0xa05
 2234 09f5 23       		.uleb128 0x23
 2235 09f6 01       		.byte	0x1
 2236 09f7 51       		.byte	0x51
 2237 09f8 02       		.byte	0x2
 2238 09f9 7D       		.byte	0x7d
 2239 09fa 00       		.sleb128 0
 2240 09fb 23       		.uleb128 0x23
 2241 09fc 01       		.byte	0x1
 2242 09fd 50       		.byte	0x50
 2243 09fe 05       		.byte	0x5
 2244 09ff 03       		.byte	0x3
 2245 0a00 00000000 		.4byte	.LANCHOR0
 2246 0a04 00       		.byte	0
 2247 0a05 22       		.uleb128 0x22
 2248 0a06 1A010000 		.4byte	.LVL46
ARM GAS  /tmp/cccORKxm.s 			page 64


 2249 0a0a 760D0000 		.4byte	0xd76
 2250 0a0e 180A0000 		.4byte	0xa18
 2251 0a12 23       		.uleb128 0x23
 2252 0a13 01       		.byte	0x1
 2253 0a14 50       		.byte	0x50
 2254 0a15 01       		.byte	0x1
 2255 0a16 35       		.byte	0x35
 2256 0a17 00       		.byte	0
 2257 0a18 22       		.uleb128 0x22
 2258 0a19 26010000 		.4byte	.LVL47
 2259 0a1d 590D0000 		.4byte	0xd59
 2260 0a21 340A0000 		.4byte	0xa34
 2261 0a25 23       		.uleb128 0x23
 2262 0a26 01       		.byte	0x1
 2263 0a27 51       		.byte	0x51
 2264 0a28 01       		.byte	0x1
 2265 0a29 40       		.byte	0x40
 2266 0a2a 23       		.uleb128 0x23
 2267 0a2b 01       		.byte	0x1
 2268 0a2c 50       		.byte	0x50
 2269 0a2d 05       		.byte	0x5
 2270 0a2e 03       		.byte	0x3
 2271 0a2f 00000000 		.4byte	.LANCHOR0
 2272 0a33 00       		.byte	0
 2273 0a34 22       		.uleb128 0x22
 2274 0a35 30010000 		.4byte	.LVL50
 2275 0a39 360D0000 		.4byte	0xd36
 2276 0a3d 510A0000 		.4byte	0xa51
 2277 0a41 23       		.uleb128 0x23
 2278 0a42 01       		.byte	0x1
 2279 0a43 51       		.byte	0x51
 2280 0a44 02       		.byte	0x2
 2281 0a45 7D       		.byte	0x7d
 2282 0a46 00       		.sleb128 0
 2283 0a47 23       		.uleb128 0x23
 2284 0a48 01       		.byte	0x1
 2285 0a49 50       		.byte	0x50
 2286 0a4a 05       		.byte	0x5
 2287 0a4b 03       		.byte	0x3
 2288 0a4c 00000000 		.4byte	.LANCHOR0
 2289 0a50 00       		.byte	0
 2290 0a51 22       		.uleb128 0x22
 2291 0a52 3E010000 		.4byte	.LVL51
 2292 0a56 360D0000 		.4byte	0xd36
 2293 0a5a 6E0A0000 		.4byte	0xa6e
 2294 0a5e 23       		.uleb128 0x23
 2295 0a5f 01       		.byte	0x1
 2296 0a60 51       		.byte	0x51
 2297 0a61 02       		.byte	0x2
 2298 0a62 7D       		.byte	0x7d
 2299 0a63 00       		.sleb128 0
 2300 0a64 23       		.uleb128 0x23
 2301 0a65 01       		.byte	0x1
 2302 0a66 50       		.byte	0x50
 2303 0a67 05       		.byte	0x5
 2304 0a68 03       		.byte	0x3
 2305 0a69 00000000 		.4byte	.LANCHOR0
ARM GAS  /tmp/cccORKxm.s 			page 65


 2306 0a6d 00       		.byte	0
 2307 0a6e 22       		.uleb128 0x22
 2308 0a6f 4C010000 		.4byte	.LVL52
 2309 0a73 760D0000 		.4byte	0xd76
 2310 0a77 810A0000 		.4byte	0xa81
 2311 0a7b 23       		.uleb128 0x23
 2312 0a7c 01       		.byte	0x1
 2313 0a7d 50       		.byte	0x50
 2314 0a7e 01       		.byte	0x1
 2315 0a7f 36       		.byte	0x36
 2316 0a80 00       		.byte	0
 2317 0a81 22       		.uleb128 0x22
 2318 0a82 58010000 		.4byte	.LVL53
 2319 0a86 9A0D0000 		.4byte	0xd9a
 2320 0a8a 950A0000 		.4byte	0xa95
 2321 0a8e 23       		.uleb128 0x23
 2322 0a8f 01       		.byte	0x1
 2323 0a90 50       		.byte	0x50
 2324 0a91 02       		.byte	0x2
 2325 0a92 75       		.byte	0x75
 2326 0a93 00       		.sleb128 0
 2327 0a94 00       		.byte	0
 2328 0a95 22       		.uleb128 0x22
 2329 0a96 5E010000 		.4byte	.LVL54
 2330 0a9a 9A0D0000 		.4byte	0xd9a
 2331 0a9e A90A0000 		.4byte	0xaa9
 2332 0aa2 23       		.uleb128 0x23
 2333 0aa3 01       		.byte	0x1
 2334 0aa4 50       		.byte	0x50
 2335 0aa5 02       		.byte	0x2
 2336 0aa6 74       		.byte	0x74
 2337 0aa7 00       		.sleb128 0
 2338 0aa8 00       		.byte	0
 2339 0aa9 22       		.uleb128 0x22
 2340 0aaa 66010000 		.4byte	.LVL55
 2341 0aae 360D0000 		.4byte	0xd36
 2342 0ab2 C60A0000 		.4byte	0xac6
 2343 0ab6 23       		.uleb128 0x23
 2344 0ab7 01       		.byte	0x1
 2345 0ab8 51       		.byte	0x51
 2346 0ab9 02       		.byte	0x2
 2347 0aba 7D       		.byte	0x7d
 2348 0abb 00       		.sleb128 0
 2349 0abc 23       		.uleb128 0x23
 2350 0abd 01       		.byte	0x1
 2351 0abe 50       		.byte	0x50
 2352 0abf 05       		.byte	0x5
 2353 0ac0 03       		.byte	0x3
 2354 0ac1 00000000 		.4byte	.LANCHOR0
 2355 0ac5 00       		.byte	0
 2356 0ac6 22       		.uleb128 0x22
 2357 0ac7 78010000 		.4byte	.LVL56
 2358 0acb 760D0000 		.4byte	0xd76
 2359 0acf D90A0000 		.4byte	0xad9
 2360 0ad3 23       		.uleb128 0x23
 2361 0ad4 01       		.byte	0x1
 2362 0ad5 50       		.byte	0x50
ARM GAS  /tmp/cccORKxm.s 			page 66


 2363 0ad6 01       		.byte	0x1
 2364 0ad7 37       		.byte	0x37
 2365 0ad8 00       		.byte	0
 2366 0ad9 22       		.uleb128 0x22
 2367 0ada 86010000 		.4byte	.LVL57
 2368 0ade 590D0000 		.4byte	0xd59
 2369 0ae2 F50A0000 		.4byte	0xaf5
 2370 0ae6 23       		.uleb128 0x23
 2371 0ae7 01       		.byte	0x1
 2372 0ae8 51       		.byte	0x51
 2373 0ae9 01       		.byte	0x1
 2374 0aea 40       		.byte	0x40
 2375 0aeb 23       		.uleb128 0x23
 2376 0aec 01       		.byte	0x1
 2377 0aed 50       		.byte	0x50
 2378 0aee 05       		.byte	0x5
 2379 0aef 03       		.byte	0x3
 2380 0af0 00000000 		.4byte	.LANCHOR0
 2381 0af4 00       		.byte	0
 2382 0af5 22       		.uleb128 0x22
 2383 0af6 90010000 		.4byte	.LVL60
 2384 0afa 590D0000 		.4byte	0xd59
 2385 0afe 110B0000 		.4byte	0xb11
 2386 0b02 23       		.uleb128 0x23
 2387 0b03 01       		.byte	0x1
 2388 0b04 51       		.byte	0x51
 2389 0b05 01       		.byte	0x1
 2390 0b06 40       		.byte	0x40
 2391 0b07 23       		.uleb128 0x23
 2392 0b08 01       		.byte	0x1
 2393 0b09 50       		.byte	0x50
 2394 0b0a 05       		.byte	0x5
 2395 0b0b 03       		.byte	0x3
 2396 0b0c 00000000 		.4byte	.LANCHOR0
 2397 0b10 00       		.byte	0
 2398 0b11 22       		.uleb128 0x22
 2399 0b12 98010000 		.4byte	.LVL63
 2400 0b16 9A0D0000 		.4byte	0xd9a
 2401 0b1a 250B0000 		.4byte	0xb25
 2402 0b1e 23       		.uleb128 0x23
 2403 0b1f 01       		.byte	0x1
 2404 0b20 50       		.byte	0x50
 2405 0b21 02       		.byte	0x2
 2406 0b22 75       		.byte	0x75
 2407 0b23 00       		.sleb128 0
 2408 0b24 00       		.byte	0
 2409 0b25 22       		.uleb128 0x22
 2410 0b26 A0010000 		.4byte	.LVL64
 2411 0b2a 360D0000 		.4byte	0xd36
 2412 0b2e 420B0000 		.4byte	0xb42
 2413 0b32 23       		.uleb128 0x23
 2414 0b33 01       		.byte	0x1
 2415 0b34 51       		.byte	0x51
 2416 0b35 02       		.byte	0x2
 2417 0b36 7D       		.byte	0x7d
 2418 0b37 00       		.sleb128 0
 2419 0b38 23       		.uleb128 0x23
ARM GAS  /tmp/cccORKxm.s 			page 67


 2420 0b39 01       		.byte	0x1
 2421 0b3a 50       		.byte	0x50
 2422 0b3b 05       		.byte	0x5
 2423 0b3c 03       		.byte	0x3
 2424 0b3d 00000000 		.4byte	.LANCHOR0
 2425 0b41 00       		.byte	0
 2426 0b42 22       		.uleb128 0x22
 2427 0b43 B2010000 		.4byte	.LVL65
 2428 0b47 760D0000 		.4byte	0xd76
 2429 0b4b 550B0000 		.4byte	0xb55
 2430 0b4f 23       		.uleb128 0x23
 2431 0b50 01       		.byte	0x1
 2432 0b51 50       		.byte	0x50
 2433 0b52 01       		.byte	0x1
 2434 0b53 38       		.byte	0x38
 2435 0b54 00       		.byte	0
 2436 0b55 22       		.uleb128 0x22
 2437 0b56 C0010000 		.4byte	.LVL66
 2438 0b5a 590D0000 		.4byte	0xd59
 2439 0b5e 720B0000 		.4byte	0xb72
 2440 0b62 23       		.uleb128 0x23
 2441 0b63 01       		.byte	0x1
 2442 0b64 51       		.byte	0x51
 2443 0b65 02       		.byte	0x2
 2444 0b66 08       		.byte	0x8
 2445 0b67 20       		.byte	0x20
 2446 0b68 23       		.uleb128 0x23
 2447 0b69 01       		.byte	0x1
 2448 0b6a 50       		.byte	0x50
 2449 0b6b 05       		.byte	0x5
 2450 0b6c 03       		.byte	0x3
 2451 0b6d 00000000 		.4byte	.LANCHOR0
 2452 0b71 00       		.byte	0
 2453 0b72 21       		.uleb128 0x21
 2454 0b73 C4010000 		.4byte	.LVL67
 2455 0b77 9A0D0000 		.4byte	0xd9a
 2456 0b7b 22       		.uleb128 0x22
 2457 0b7c CA010000 		.4byte	.LVL68
 2458 0b80 9A0D0000 		.4byte	0xd9a
 2459 0b84 8F0B0000 		.4byte	0xb8f
 2460 0b88 23       		.uleb128 0x23
 2461 0b89 01       		.byte	0x1
 2462 0b8a 50       		.byte	0x50
 2463 0b8b 02       		.byte	0x2
 2464 0b8c 74       		.byte	0x74
 2465 0b8d 00       		.sleb128 0
 2466 0b8e 00       		.byte	0
 2467 0b8f 22       		.uleb128 0x22
 2468 0b90 D2010000 		.4byte	.LVL69
 2469 0b94 360D0000 		.4byte	0xd36
 2470 0b98 AC0B0000 		.4byte	0xbac
 2471 0b9c 23       		.uleb128 0x23
 2472 0b9d 01       		.byte	0x1
 2473 0b9e 51       		.byte	0x51
 2474 0b9f 02       		.byte	0x2
 2475 0ba0 7D       		.byte	0x7d
 2476 0ba1 00       		.sleb128 0
ARM GAS  /tmp/cccORKxm.s 			page 68


 2477 0ba2 23       		.uleb128 0x23
 2478 0ba3 01       		.byte	0x1
 2479 0ba4 50       		.byte	0x50
 2480 0ba5 05       		.byte	0x5
 2481 0ba6 03       		.byte	0x3
 2482 0ba7 00000000 		.4byte	.LANCHOR0
 2483 0bab 00       		.byte	0
 2484 0bac 22       		.uleb128 0x22
 2485 0bad E0010000 		.4byte	.LVL70
 2486 0bb1 760D0000 		.4byte	0xd76
 2487 0bb5 BF0B0000 		.4byte	0xbbf
 2488 0bb9 23       		.uleb128 0x23
 2489 0bba 01       		.byte	0x1
 2490 0bbb 50       		.byte	0x50
 2491 0bbc 01       		.byte	0x1
 2492 0bbd 39       		.byte	0x39
 2493 0bbe 00       		.byte	0
 2494 0bbf 22       		.uleb128 0x22
 2495 0bc0 EE010000 		.4byte	.LVL71
 2496 0bc4 360D0000 		.4byte	0xd36
 2497 0bc8 DC0B0000 		.4byte	0xbdc
 2498 0bcc 23       		.uleb128 0x23
 2499 0bcd 01       		.byte	0x1
 2500 0bce 51       		.byte	0x51
 2501 0bcf 02       		.byte	0x2
 2502 0bd0 7D       		.byte	0x7d
 2503 0bd1 00       		.sleb128 0
 2504 0bd2 23       		.uleb128 0x23
 2505 0bd3 01       		.byte	0x1
 2506 0bd4 50       		.byte	0x50
 2507 0bd5 05       		.byte	0x5
 2508 0bd6 03       		.byte	0x3
 2509 0bd7 00000000 		.4byte	.LANCHOR0
 2510 0bdb 00       		.byte	0
 2511 0bdc 22       		.uleb128 0x22
 2512 0bdd F6010000 		.4byte	.LVL72
 2513 0be1 590D0000 		.4byte	0xd59
 2514 0be5 F30B0000 		.4byte	0xbf3
 2515 0be9 23       		.uleb128 0x23
 2516 0bea 01       		.byte	0x1
 2517 0beb 50       		.byte	0x50
 2518 0bec 05       		.byte	0x5
 2519 0bed 03       		.byte	0x3
 2520 0bee 00000000 		.4byte	.LANCHOR0
 2521 0bf2 00       		.byte	0
 2522 0bf3 22       		.uleb128 0x22
 2523 0bf4 00020000 		.4byte	.LVL75
 2524 0bf8 360D0000 		.4byte	0xd36
 2525 0bfc 100C0000 		.4byte	0xc10
 2526 0c00 23       		.uleb128 0x23
 2527 0c01 01       		.byte	0x1
 2528 0c02 51       		.byte	0x51
 2529 0c03 02       		.byte	0x2
 2530 0c04 7D       		.byte	0x7d
 2531 0c05 00       		.sleb128 0
 2532 0c06 23       		.uleb128 0x23
 2533 0c07 01       		.byte	0x1
ARM GAS  /tmp/cccORKxm.s 			page 69


 2534 0c08 50       		.byte	0x50
 2535 0c09 05       		.byte	0x5
 2536 0c0a 03       		.byte	0x3
 2537 0c0b 00000000 		.4byte	.LANCHOR0
 2538 0c0f 00       		.byte	0
 2539 0c10 22       		.uleb128 0x22
 2540 0c11 0E020000 		.4byte	.LVL76
 2541 0c15 760D0000 		.4byte	0xd76
 2542 0c19 230C0000 		.4byte	0xc23
 2543 0c1d 23       		.uleb128 0x23
 2544 0c1e 01       		.byte	0x1
 2545 0c1f 50       		.byte	0x50
 2546 0c20 01       		.byte	0x1
 2547 0c21 3A       		.byte	0x3a
 2548 0c22 00       		.byte	0
 2549 0c23 22       		.uleb128 0x22
 2550 0c24 1A020000 		.4byte	.LVL77
 2551 0c28 9A0D0000 		.4byte	0xd9a
 2552 0c2c 370C0000 		.4byte	0xc37
 2553 0c30 23       		.uleb128 0x23
 2554 0c31 01       		.byte	0x1
 2555 0c32 50       		.byte	0x50
 2556 0c33 02       		.byte	0x2
 2557 0c34 74       		.byte	0x74
 2558 0c35 00       		.sleb128 0
 2559 0c36 00       		.byte	0
 2560 0c37 22       		.uleb128 0x22
 2561 0c38 22020000 		.4byte	.LVL78
 2562 0c3c 360D0000 		.4byte	0xd36
 2563 0c40 540C0000 		.4byte	0xc54
 2564 0c44 23       		.uleb128 0x23
 2565 0c45 01       		.byte	0x1
 2566 0c46 51       		.byte	0x51
 2567 0c47 02       		.byte	0x2
 2568 0c48 7D       		.byte	0x7d
 2569 0c49 00       		.sleb128 0
 2570 0c4a 23       		.uleb128 0x23
 2571 0c4b 01       		.byte	0x1
 2572 0c4c 50       		.byte	0x50
 2573 0c4d 05       		.byte	0x5
 2574 0c4e 03       		.byte	0x3
 2575 0c4f 00000000 		.4byte	.LANCHOR0
 2576 0c53 00       		.byte	0
 2577 0c54 22       		.uleb128 0x22
 2578 0c55 2E020000 		.4byte	.LVL79
 2579 0c59 760D0000 		.4byte	0xd76
 2580 0c5d 670C0000 		.4byte	0xc67
 2581 0c61 23       		.uleb128 0x23
 2582 0c62 01       		.byte	0x1
 2583 0c63 50       		.byte	0x50
 2584 0c64 01       		.byte	0x1
 2585 0c65 3B       		.byte	0x3b
 2586 0c66 00       		.byte	0
 2587 0c67 24       		.uleb128 0x24
 2588 0c68 46020000 		.4byte	.LVL83
 2589 0c6c 760D0000 		.4byte	0xd76
 2590 0c70 23       		.uleb128 0x23
ARM GAS  /tmp/cccORKxm.s 			page 70


 2591 0c71 01       		.byte	0x1
 2592 0c72 50       		.byte	0x50
 2593 0c73 01       		.byte	0x1
 2594 0c74 3C       		.byte	0x3c
 2595 0c75 00       		.byte	0
 2596 0c76 00       		.byte	0
 2597 0c77 25       		.uleb128 0x25
 2598 0c78 AC020000 		.4byte	.LASF99
 2599 0c7c 01       		.byte	0x1
 2600 0c7d 40       		.byte	0x40
 2601 0c7e 01       		.byte	0x1
 2602 0c7f 00000000 		.4byte	.LFB165
 2603 0c83 18000000 		.4byte	.LFE165
 2604 0c87 02       		.byte	0x2
 2605 0c88 7D       		.byte	0x7d
 2606 0c89 00       		.sleb128 0
 2607 0c8a 01       		.byte	0x1
 2608 0c8b AB0C0000 		.4byte	0xcab
 2609 0c8f 26       		.uleb128 0x26
 2610 0c90 18000000 		.4byte	.LVL85
 2611 0c94 01       		.byte	0x1
 2612 0c95 AE0D0000 		.4byte	0xdae
 2613 0c99 23       		.uleb128 0x23
 2614 0c9a 01       		.byte	0x1
 2615 0c9b 52       		.byte	0x52
 2616 0c9c 03       		.byte	0x3
 2617 0c9d 0A       		.byte	0xa
 2618 0c9e 6806     		.2byte	0x668
 2619 0ca0 23       		.uleb128 0x23
 2620 0ca1 01       		.byte	0x1
 2621 0ca2 50       		.byte	0x50
 2622 0ca3 05       		.byte	0x5
 2623 0ca4 03       		.byte	0x3
 2624 0ca5 00000000 		.4byte	.LANCHOR0
 2625 0ca9 00       		.byte	0
 2626 0caa 00       		.byte	0
 2627 0cab 27       		.uleb128 0x27
 2628 0cac 7E040000 		.4byte	.LASF100
 2629 0cb0 01       		.byte	0x1
 2630 0cb1 33       		.byte	0x33
 2631 0cb2 7C050000 		.4byte	0x57c
 2632 0cb6 05       		.byte	0x5
 2633 0cb7 03       		.byte	0x3
 2634 0cb8 00000000 		.4byte	test_heap
 2635 0cbc 28       		.uleb128 0x28
 2636 0cbd 86000000 		.4byte	.LASF101
 2637 0cc1 0C       		.byte	0xc
 2638 0cc2 1606     		.2byte	0x616
 2639 0cc4 BA010000 		.4byte	0x1ba
 2640 0cc8 01       		.byte	0x1
 2641 0cc9 01       		.byte	0x1
 2642 0cca 29       		.uleb128 0x29
 2643 0ccb 636800   		.ascii	"ch\000"
 2644 0cce 02       		.byte	0x2
 2645 0ccf 8901     		.2byte	0x189
 2646 0cd1 3E050000 		.4byte	0x53e
 2647 0cd5 01       		.byte	0x1
ARM GAS  /tmp/cccORKxm.s 			page 71


 2648 0cd6 01       		.byte	0x1
 2649 0cd7 2A       		.uleb128 0x2a
 2650 0cd8 6B000000 		.4byte	.LASF102
 2651 0cdc 0B       		.byte	0xb
 2652 0cdd A6       		.byte	0xa6
 2653 0cde D9060000 		.4byte	0x6d9
 2654 0ce2 01       		.byte	0x1
 2655 0ce3 01       		.byte	0x1
 2656 0ce4 2B       		.uleb128 0x2b
 2657 0ce5 1D020000 		.4byte	.LASF103
 2658 0ce9 01       		.byte	0x1
 2659 0cea 8E       		.byte	0x8e
 2660 0ceb F60C0000 		.4byte	0xcf6
 2661 0cef 01       		.byte	0x1
 2662 0cf0 05       		.byte	0x5
 2663 0cf1 03       		.byte	0x3
 2664 0cf2 00000000 		.4byte	testheap1
 2665 0cf6 0F       		.uleb128 0xf
 2666 0cf7 2D060000 		.4byte	0x62d
 2667 0cfb 1B       		.uleb128 0x1b
 2668 0cfc 0B0D0000 		.4byte	0xd0b
 2669 0d00 0B0D0000 		.4byte	0xd0b
 2670 0d04 1C       		.uleb128 0x1c
 2671 0d05 0C020000 		.4byte	0x20c
 2672 0d09 01       		.byte	0x1
 2673 0d0a 00       		.byte	0
 2674 0d0b 0B       		.uleb128 0xb
 2675 0d0c 04       		.byte	0x4
 2676 0d0d F60C0000 		.4byte	0xcf6
 2677 0d11 2B       		.uleb128 0x2b
 2678 0d12 9F000000 		.4byte	.LASF104
 2679 0d16 01       		.byte	0x1
 2680 0d17 9A       		.byte	0x9a
 2681 0d18 230D0000 		.4byte	0xd23
 2682 0d1c 01       		.byte	0x1
 2683 0d1d 05       		.byte	0x5
 2684 0d1e 03       		.byte	0x3
 2685 0d1f 00000000 		.4byte	patternheap
 2686 0d23 0F       		.uleb128 0xf
 2687 0d24 FB0C0000 		.4byte	0xcfb
 2688 0d28 2C       		.uleb128 0x2c
 2689 0d29 01       		.byte	0x1
 2690 0d2a 70030000 		.4byte	.LASF112
 2691 0d2e 09       		.byte	0x9
 2692 0d2f 65       		.byte	0x65
 2693 0d30 01       		.byte	0x1
 2694 0d31 39010000 		.4byte	0x139
 2695 0d35 01       		.byte	0x1
 2696 0d36 2D       		.uleb128 0x2d
 2697 0d37 01       		.byte	0x1
 2698 0d38 8F030000 		.4byte	.LASF105
 2699 0d3c 0A       		.byte	0xa
 2700 0d3d 6A       		.byte	0x6a
 2701 0d3e 01       		.byte	0x1
 2702 0d3f 39010000 		.4byte	0x139
 2703 0d43 01       		.byte	0x1
 2704 0d44 530D0000 		.4byte	0xd53
ARM GAS  /tmp/cccORKxm.s 			page 72


 2705 0d48 12       		.uleb128 0x12
 2706 0d49 04060000 		.4byte	0x604
 2707 0d4d 12       		.uleb128 0x12
 2708 0d4e 530D0000 		.4byte	0xd53
 2709 0d52 00       		.byte	0
 2710 0d53 0B       		.uleb128 0xb
 2711 0d54 04       		.byte	0x4
 2712 0d55 39010000 		.4byte	0x139
 2713 0d59 2D       		.uleb128 0x2d
 2714 0d5a 01       		.byte	0x1
 2715 0d5b 1F030000 		.4byte	.LASF106
 2716 0d5f 0A       		.byte	0xa
 2717 0d60 68       		.byte	0x68
 2718 0d61 01       		.byte	0x1
 2719 0d62 29020000 		.4byte	0x229
 2720 0d66 01       		.byte	0x1
 2721 0d67 760D0000 		.4byte	0xd76
 2722 0d6b 12       		.uleb128 0x12
 2723 0d6c 04060000 		.4byte	0x604
 2724 0d70 12       		.uleb128 0x12
 2725 0d71 39010000 		.4byte	0x139
 2726 0d75 00       		.byte	0
 2727 0d76 2D       		.uleb128 0x2d
 2728 0d77 01       		.byte	0x1
 2729 0d78 BD040000 		.4byte	.LASF107
 2730 0d7c 0B       		.byte	0xb
 2731 0d7d 58       		.byte	0x58
 2732 0d7e 01       		.byte	0x1
 2733 0d7f 930D0000 		.4byte	0xd93
 2734 0d83 01       		.byte	0x1
 2735 0d84 930D0000 		.4byte	0xd93
 2736 0d88 12       		.uleb128 0x12
 2737 0d89 44010000 		.4byte	0x144
 2738 0d8d 12       		.uleb128 0x12
 2739 0d8e 930D0000 		.4byte	0xd93
 2740 0d92 00       		.byte	0
 2741 0d93 07       		.uleb128 0x7
 2742 0d94 01       		.byte	0x1
 2743 0d95 02       		.byte	0x2
 2744 0d96 BE020000 		.4byte	.LASF108
 2745 0d9a 2E       		.uleb128 0x2e
 2746 0d9b 01       		.byte	0x1
 2747 0d9c E3000000 		.4byte	.LASF113
 2748 0da0 0A       		.byte	0xa
 2749 0da1 69       		.byte	0x69
 2750 0da2 01       		.byte	0x1
 2751 0da3 01       		.byte	0x1
 2752 0da4 AE0D0000 		.4byte	0xdae
 2753 0da8 12       		.uleb128 0x12
 2754 0da9 29020000 		.4byte	0x229
 2755 0dad 00       		.byte	0
 2756 0dae 2F       		.uleb128 0x2f
 2757 0daf 01       		.byte	0x1
 2758 0db0 27020000 		.4byte	.LASF114
 2759 0db4 0A       		.byte	0xa
 2760 0db5 67       		.byte	0x67
 2761 0db6 01       		.byte	0x1
ARM GAS  /tmp/cccORKxm.s 			page 73


 2762 0db7 01       		.byte	0x1
 2763 0db8 12       		.uleb128 0x12
 2764 0db9 04060000 		.4byte	0x604
 2765 0dbd 12       		.uleb128 0x12
 2766 0dbe 29020000 		.4byte	0x229
 2767 0dc2 12       		.uleb128 0x12
 2768 0dc3 39010000 		.4byte	0x139
 2769 0dc7 00       		.byte	0
 2770 0dc8 00       		.byte	0
 2771              		.section	.debug_abbrev,"",%progbits
 2772              	.Ldebug_abbrev0:
 2773 0000 01       		.uleb128 0x1
 2774 0001 11       		.uleb128 0x11
 2775 0002 01       		.byte	0x1
 2776 0003 25       		.uleb128 0x25
 2777 0004 0E       		.uleb128 0xe
 2778 0005 13       		.uleb128 0x13
 2779 0006 0B       		.uleb128 0xb
 2780 0007 03       		.uleb128 0x3
 2781 0008 0E       		.uleb128 0xe
 2782 0009 1B       		.uleb128 0x1b
 2783 000a 0E       		.uleb128 0xe
 2784 000b 55       		.uleb128 0x55
 2785 000c 06       		.uleb128 0x6
 2786 000d 11       		.uleb128 0x11
 2787 000e 01       		.uleb128 0x1
 2788 000f 52       		.uleb128 0x52
 2789 0010 01       		.uleb128 0x1
 2790 0011 10       		.uleb128 0x10
 2791 0012 06       		.uleb128 0x6
 2792 0013 00       		.byte	0
 2793 0014 00       		.byte	0
 2794 0015 02       		.uleb128 0x2
 2795 0016 13       		.uleb128 0x13
 2796 0017 01       		.byte	0x1
 2797 0018 03       		.uleb128 0x3
 2798 0019 0E       		.uleb128 0xe
 2799 001a 0B       		.uleb128 0xb
 2800 001b 0B       		.uleb128 0xb
 2801 001c 3A       		.uleb128 0x3a
 2802 001d 0B       		.uleb128 0xb
 2803 001e 3B       		.uleb128 0x3b
 2804 001f 0B       		.uleb128 0xb
 2805 0020 01       		.uleb128 0x1
 2806 0021 13       		.uleb128 0x13
 2807 0022 00       		.byte	0
 2808 0023 00       		.byte	0
 2809 0024 03       		.uleb128 0x3
 2810 0025 0D       		.uleb128 0xd
 2811 0026 00       		.byte	0
 2812 0027 03       		.uleb128 0x3
 2813 0028 0E       		.uleb128 0xe
 2814 0029 3A       		.uleb128 0x3a
 2815 002a 0B       		.uleb128 0xb
 2816 002b 3B       		.uleb128 0x3b
 2817 002c 0B       		.uleb128 0xb
 2818 002d 49       		.uleb128 0x49
ARM GAS  /tmp/cccORKxm.s 			page 74


 2819 002e 13       		.uleb128 0x13
 2820 002f 38       		.uleb128 0x38
 2821 0030 0A       		.uleb128 0xa
 2822 0031 00       		.byte	0
 2823 0032 00       		.byte	0
 2824 0033 04       		.uleb128 0x4
 2825 0034 0D       		.uleb128 0xd
 2826 0035 00       		.byte	0
 2827 0036 03       		.uleb128 0x3
 2828 0037 08       		.uleb128 0x8
 2829 0038 3A       		.uleb128 0x3a
 2830 0039 0B       		.uleb128 0xb
 2831 003a 3B       		.uleb128 0x3b
 2832 003b 0B       		.uleb128 0xb
 2833 003c 49       		.uleb128 0x49
 2834 003d 13       		.uleb128 0x13
 2835 003e 38       		.uleb128 0x38
 2836 003f 0A       		.uleb128 0xa
 2837 0040 00       		.byte	0
 2838 0041 00       		.byte	0
 2839 0042 05       		.uleb128 0x5
 2840 0043 24       		.uleb128 0x24
 2841 0044 00       		.byte	0
 2842 0045 0B       		.uleb128 0xb
 2843 0046 0B       		.uleb128 0xb
 2844 0047 3E       		.uleb128 0x3e
 2845 0048 0B       		.uleb128 0xb
 2846 0049 03       		.uleb128 0x3
 2847 004a 08       		.uleb128 0x8
 2848 004b 00       		.byte	0
 2849 004c 00       		.byte	0
 2850 004d 06       		.uleb128 0x6
 2851 004e 16       		.uleb128 0x16
 2852 004f 00       		.byte	0
 2853 0050 03       		.uleb128 0x3
 2854 0051 0E       		.uleb128 0xe
 2855 0052 3A       		.uleb128 0x3a
 2856 0053 0B       		.uleb128 0xb
 2857 0054 3B       		.uleb128 0x3b
 2858 0055 0B       		.uleb128 0xb
 2859 0056 49       		.uleb128 0x49
 2860 0057 13       		.uleb128 0x13
 2861 0058 00       		.byte	0
 2862 0059 00       		.byte	0
 2863 005a 07       		.uleb128 0x7
 2864 005b 24       		.uleb128 0x24
 2865 005c 00       		.byte	0
 2866 005d 0B       		.uleb128 0xb
 2867 005e 0B       		.uleb128 0xb
 2868 005f 3E       		.uleb128 0x3e
 2869 0060 0B       		.uleb128 0xb
 2870 0061 03       		.uleb128 0x3
 2871 0062 0E       		.uleb128 0xe
 2872 0063 00       		.byte	0
 2873 0064 00       		.byte	0
 2874 0065 08       		.uleb128 0x8
 2875 0066 35       		.uleb128 0x35
ARM GAS  /tmp/cccORKxm.s 			page 75


 2876 0067 00       		.byte	0
 2877 0068 49       		.uleb128 0x49
 2878 0069 13       		.uleb128 0x13
 2879 006a 00       		.byte	0
 2880 006b 00       		.byte	0
 2881 006c 09       		.uleb128 0x9
 2882 006d 0F       		.uleb128 0xf
 2883 006e 00       		.byte	0
 2884 006f 0B       		.uleb128 0xb
 2885 0070 0B       		.uleb128 0xb
 2886 0071 00       		.byte	0
 2887 0072 00       		.byte	0
 2888 0073 0A       		.uleb128 0xa
 2889 0074 0D       		.uleb128 0xd
 2890 0075 00       		.byte	0
 2891 0076 03       		.uleb128 0x3
 2892 0077 08       		.uleb128 0x8
 2893 0078 3A       		.uleb128 0x3a
 2894 0079 0B       		.uleb128 0xb
 2895 007a 3B       		.uleb128 0x3b
 2896 007b 05       		.uleb128 0x5
 2897 007c 49       		.uleb128 0x49
 2898 007d 13       		.uleb128 0x13
 2899 007e 38       		.uleb128 0x38
 2900 007f 0A       		.uleb128 0xa
 2901 0080 00       		.byte	0
 2902 0081 00       		.byte	0
 2903 0082 0B       		.uleb128 0xb
 2904 0083 0F       		.uleb128 0xf
 2905 0084 00       		.byte	0
 2906 0085 0B       		.uleb128 0xb
 2907 0086 0B       		.uleb128 0xb
 2908 0087 49       		.uleb128 0x49
 2909 0088 13       		.uleb128 0x13
 2910 0089 00       		.byte	0
 2911 008a 00       		.byte	0
 2912 008b 0C       		.uleb128 0xc
 2913 008c 13       		.uleb128 0x13
 2914 008d 01       		.byte	0x1
 2915 008e 0B       		.uleb128 0xb
 2916 008f 0B       		.uleb128 0xb
 2917 0090 3A       		.uleb128 0x3a
 2918 0091 0B       		.uleb128 0xb
 2919 0092 3B       		.uleb128 0x3b
 2920 0093 0B       		.uleb128 0xb
 2921 0094 01       		.uleb128 0x1
 2922 0095 13       		.uleb128 0x13
 2923 0096 00       		.byte	0
 2924 0097 00       		.byte	0
 2925 0098 0D       		.uleb128 0xd
 2926 0099 17       		.uleb128 0x17
 2927 009a 01       		.byte	0x1
 2928 009b 0B       		.uleb128 0xb
 2929 009c 0B       		.uleb128 0xb
 2930 009d 3A       		.uleb128 0x3a
 2931 009e 0B       		.uleb128 0xb
 2932 009f 3B       		.uleb128 0x3b
ARM GAS  /tmp/cccORKxm.s 			page 76


 2933 00a0 0B       		.uleb128 0xb
 2934 00a1 01       		.uleb128 0x1
 2935 00a2 13       		.uleb128 0x13
 2936 00a3 00       		.byte	0
 2937 00a4 00       		.byte	0
 2938 00a5 0E       		.uleb128 0xe
 2939 00a6 0D       		.uleb128 0xd
 2940 00a7 00       		.byte	0
 2941 00a8 03       		.uleb128 0x3
 2942 00a9 0E       		.uleb128 0xe
 2943 00aa 3A       		.uleb128 0x3a
 2944 00ab 0B       		.uleb128 0xb
 2945 00ac 3B       		.uleb128 0x3b
 2946 00ad 0B       		.uleb128 0xb
 2947 00ae 49       		.uleb128 0x49
 2948 00af 13       		.uleb128 0x13
 2949 00b0 00       		.byte	0
 2950 00b1 00       		.byte	0
 2951 00b2 0F       		.uleb128 0xf
 2952 00b3 26       		.uleb128 0x26
 2953 00b4 00       		.byte	0
 2954 00b5 49       		.uleb128 0x49
 2955 00b6 13       		.uleb128 0x13
 2956 00b7 00       		.byte	0
 2957 00b8 00       		.byte	0
 2958 00b9 10       		.uleb128 0x10
 2959 00ba 16       		.uleb128 0x16
 2960 00bb 00       		.byte	0
 2961 00bc 03       		.uleb128 0x3
 2962 00bd 0E       		.uleb128 0xe
 2963 00be 3A       		.uleb128 0x3a
 2964 00bf 0B       		.uleb128 0xb
 2965 00c0 3B       		.uleb128 0x3b
 2966 00c1 05       		.uleb128 0x5
 2967 00c2 49       		.uleb128 0x49
 2968 00c3 13       		.uleb128 0x13
 2969 00c4 00       		.byte	0
 2970 00c5 00       		.byte	0
 2971 00c6 11       		.uleb128 0x11
 2972 00c7 15       		.uleb128 0x15
 2973 00c8 01       		.byte	0x1
 2974 00c9 27       		.uleb128 0x27
 2975 00ca 0C       		.uleb128 0xc
 2976 00cb 01       		.uleb128 0x1
 2977 00cc 13       		.uleb128 0x13
 2978 00cd 00       		.byte	0
 2979 00ce 00       		.byte	0
 2980 00cf 12       		.uleb128 0x12
 2981 00d0 05       		.uleb128 0x5
 2982 00d1 00       		.byte	0
 2983 00d2 49       		.uleb128 0x49
 2984 00d3 13       		.uleb128 0x13
 2985 00d4 00       		.byte	0
 2986 00d5 00       		.byte	0
 2987 00d6 13       		.uleb128 0x13
 2988 00d7 13       		.uleb128 0x13
 2989 00d8 01       		.byte	0x1
ARM GAS  /tmp/cccORKxm.s 			page 77


 2990 00d9 03       		.uleb128 0x3
 2991 00da 0E       		.uleb128 0xe
 2992 00db 0B       		.uleb128 0xb
 2993 00dc 0B       		.uleb128 0xb
 2994 00dd 3A       		.uleb128 0x3a
 2995 00de 0B       		.uleb128 0xb
 2996 00df 3B       		.uleb128 0x3b
 2997 00e0 05       		.uleb128 0x5
 2998 00e1 01       		.uleb128 0x1
 2999 00e2 13       		.uleb128 0x13
 3000 00e3 00       		.byte	0
 3001 00e4 00       		.byte	0
 3002 00e5 14       		.uleb128 0x14
 3003 00e6 0D       		.uleb128 0xd
 3004 00e7 00       		.byte	0
 3005 00e8 03       		.uleb128 0x3
 3006 00e9 0E       		.uleb128 0xe
 3007 00ea 3A       		.uleb128 0x3a
 3008 00eb 0B       		.uleb128 0xb
 3009 00ec 3B       		.uleb128 0x3b
 3010 00ed 05       		.uleb128 0x5
 3011 00ee 49       		.uleb128 0x49
 3012 00ef 13       		.uleb128 0x13
 3013 00f0 38       		.uleb128 0x38
 3014 00f1 0A       		.uleb128 0xa
 3015 00f2 00       		.byte	0
 3016 00f3 00       		.byte	0
 3017 00f4 15       		.uleb128 0x15
 3018 00f5 13       		.uleb128 0x13
 3019 00f6 01       		.byte	0x1
 3020 00f7 0B       		.uleb128 0xb
 3021 00f8 0B       		.uleb128 0xb
 3022 00f9 3A       		.uleb128 0x3a
 3023 00fa 0B       		.uleb128 0xb
 3024 00fb 3B       		.uleb128 0x3b
 3025 00fc 05       		.uleb128 0x5
 3026 00fd 01       		.uleb128 0x1
 3027 00fe 13       		.uleb128 0x13
 3028 00ff 00       		.byte	0
 3029 0100 00       		.byte	0
 3030 0101 16       		.uleb128 0x16
 3031 0102 15       		.uleb128 0x15
 3032 0103 01       		.byte	0x1
 3033 0104 27       		.uleb128 0x27
 3034 0105 0C       		.uleb128 0xc
 3035 0106 49       		.uleb128 0x49
 3036 0107 13       		.uleb128 0x13
 3037 0108 01       		.uleb128 0x1
 3038 0109 13       		.uleb128 0x13
 3039 010a 00       		.byte	0
 3040 010b 00       		.byte	0
 3041 010c 17       		.uleb128 0x17
 3042 010d 17       		.uleb128 0x17
 3043 010e 01       		.byte	0x1
 3044 010f 03       		.uleb128 0x3
 3045 0110 0E       		.uleb128 0xe
 3046 0111 0B       		.uleb128 0xb
ARM GAS  /tmp/cccORKxm.s 			page 78


 3047 0112 0B       		.uleb128 0xb
 3048 0113 3A       		.uleb128 0x3a
 3049 0114 0B       		.uleb128 0xb
 3050 0115 3B       		.uleb128 0x3b
 3051 0116 0B       		.uleb128 0xb
 3052 0117 01       		.uleb128 0x1
 3053 0118 13       		.uleb128 0x13
 3054 0119 00       		.byte	0
 3055 011a 00       		.byte	0
 3056 011b 18       		.uleb128 0x18
 3057 011c 0D       		.uleb128 0xd
 3058 011d 00       		.byte	0
 3059 011e 03       		.uleb128 0x3
 3060 011f 08       		.uleb128 0x8
 3061 0120 3A       		.uleb128 0x3a
 3062 0121 0B       		.uleb128 0xb
 3063 0122 3B       		.uleb128 0x3b
 3064 0123 0B       		.uleb128 0xb
 3065 0124 49       		.uleb128 0x49
 3066 0125 13       		.uleb128 0x13
 3067 0126 00       		.byte	0
 3068 0127 00       		.byte	0
 3069 0128 19       		.uleb128 0x19
 3070 0129 15       		.uleb128 0x15
 3071 012a 00       		.byte	0
 3072 012b 27       		.uleb128 0x27
 3073 012c 0C       		.uleb128 0xc
 3074 012d 00       		.byte	0
 3075 012e 00       		.byte	0
 3076 012f 1A       		.uleb128 0x1a
 3077 0130 13       		.uleb128 0x13
 3078 0131 01       		.byte	0x1
 3079 0132 0B       		.uleb128 0xb
 3080 0133 05       		.uleb128 0x5
 3081 0134 3A       		.uleb128 0x3a
 3082 0135 0B       		.uleb128 0xb
 3083 0136 3B       		.uleb128 0x3b
 3084 0137 0B       		.uleb128 0xb
 3085 0138 01       		.uleb128 0x1
 3086 0139 13       		.uleb128 0x13
 3087 013a 00       		.byte	0
 3088 013b 00       		.byte	0
 3089 013c 1B       		.uleb128 0x1b
 3090 013d 01       		.uleb128 0x1
 3091 013e 01       		.byte	0x1
 3092 013f 49       		.uleb128 0x49
 3093 0140 13       		.uleb128 0x13
 3094 0141 01       		.uleb128 0x1
 3095 0142 13       		.uleb128 0x13
 3096 0143 00       		.byte	0
 3097 0144 00       		.byte	0
 3098 0145 1C       		.uleb128 0x1c
 3099 0146 21       		.uleb128 0x21
 3100 0147 00       		.byte	0
 3101 0148 49       		.uleb128 0x49
 3102 0149 13       		.uleb128 0x13
 3103 014a 2F       		.uleb128 0x2f
ARM GAS  /tmp/cccORKxm.s 			page 79


 3104 014b 0B       		.uleb128 0xb
 3105 014c 00       		.byte	0
 3106 014d 00       		.byte	0
 3107 014e 1D       		.uleb128 0x1d
 3108 014f 17       		.uleb128 0x17
 3109 0150 01       		.byte	0x1
 3110 0151 03       		.uleb128 0x3
 3111 0152 0E       		.uleb128 0xe
 3112 0153 0B       		.uleb128 0xb
 3113 0154 05       		.uleb128 0x5
 3114 0155 3A       		.uleb128 0x3a
 3115 0156 0B       		.uleb128 0xb
 3116 0157 3B       		.uleb128 0x3b
 3117 0158 0B       		.uleb128 0xb
 3118 0159 01       		.uleb128 0x1
 3119 015a 13       		.uleb128 0x13
 3120 015b 00       		.byte	0
 3121 015c 00       		.byte	0
 3122 015d 1E       		.uleb128 0x1e
 3123 015e 21       		.uleb128 0x21
 3124 015f 00       		.byte	0
 3125 0160 49       		.uleb128 0x49
 3126 0161 13       		.uleb128 0x13
 3127 0162 2F       		.uleb128 0x2f
 3128 0163 05       		.uleb128 0x5
 3129 0164 00       		.byte	0
 3130 0165 00       		.byte	0
 3131 0166 1F       		.uleb128 0x1f
 3132 0167 2E       		.uleb128 0x2e
 3133 0168 01       		.byte	0x1
 3134 0169 03       		.uleb128 0x3
 3135 016a 0E       		.uleb128 0xe
 3136 016b 3A       		.uleb128 0x3a
 3137 016c 0B       		.uleb128 0xb
 3138 016d 3B       		.uleb128 0x3b
 3139 016e 0B       		.uleb128 0xb
 3140 016f 27       		.uleb128 0x27
 3141 0170 0C       		.uleb128 0xc
 3142 0171 11       		.uleb128 0x11
 3143 0172 01       		.uleb128 0x1
 3144 0173 12       		.uleb128 0x12
 3145 0174 01       		.uleb128 0x1
 3146 0175 40       		.uleb128 0x40
 3147 0176 06       		.uleb128 0x6
 3148 0177 9742     		.uleb128 0x2117
 3149 0179 0C       		.uleb128 0xc
 3150 017a 01       		.uleb128 0x1
 3151 017b 13       		.uleb128 0x13
 3152 017c 00       		.byte	0
 3153 017d 00       		.byte	0
 3154 017e 20       		.uleb128 0x20
 3155 017f 34       		.uleb128 0x34
 3156 0180 00       		.byte	0
 3157 0181 03       		.uleb128 0x3
 3158 0182 08       		.uleb128 0x8
 3159 0183 3A       		.uleb128 0x3a
 3160 0184 0B       		.uleb128 0xb
ARM GAS  /tmp/cccORKxm.s 			page 80


 3161 0185 3B       		.uleb128 0x3b
 3162 0186 0B       		.uleb128 0xb
 3163 0187 49       		.uleb128 0x49
 3164 0188 13       		.uleb128 0x13
 3165 0189 02       		.uleb128 0x2
 3166 018a 06       		.uleb128 0x6
 3167 018b 00       		.byte	0
 3168 018c 00       		.byte	0
 3169 018d 21       		.uleb128 0x21
 3170 018e 898201   		.uleb128 0x4109
 3171 0191 00       		.byte	0
 3172 0192 11       		.uleb128 0x11
 3173 0193 01       		.uleb128 0x1
 3174 0194 31       		.uleb128 0x31
 3175 0195 13       		.uleb128 0x13
 3176 0196 00       		.byte	0
 3177 0197 00       		.byte	0
 3178 0198 22       		.uleb128 0x22
 3179 0199 898201   		.uleb128 0x4109
 3180 019c 01       		.byte	0x1
 3181 019d 11       		.uleb128 0x11
 3182 019e 01       		.uleb128 0x1
 3183 019f 31       		.uleb128 0x31
 3184 01a0 13       		.uleb128 0x13
 3185 01a1 01       		.uleb128 0x1
 3186 01a2 13       		.uleb128 0x13
 3187 01a3 00       		.byte	0
 3188 01a4 00       		.byte	0
 3189 01a5 23       		.uleb128 0x23
 3190 01a6 8A8201   		.uleb128 0x410a
 3191 01a9 00       		.byte	0
 3192 01aa 02       		.uleb128 0x2
 3193 01ab 0A       		.uleb128 0xa
 3194 01ac 9142     		.uleb128 0x2111
 3195 01ae 0A       		.uleb128 0xa
 3196 01af 00       		.byte	0
 3197 01b0 00       		.byte	0
 3198 01b1 24       		.uleb128 0x24
 3199 01b2 898201   		.uleb128 0x4109
 3200 01b5 01       		.byte	0x1
 3201 01b6 11       		.uleb128 0x11
 3202 01b7 01       		.uleb128 0x1
 3203 01b8 31       		.uleb128 0x31
 3204 01b9 13       		.uleb128 0x13
 3205 01ba 00       		.byte	0
 3206 01bb 00       		.byte	0
 3207 01bc 25       		.uleb128 0x25
 3208 01bd 2E       		.uleb128 0x2e
 3209 01be 01       		.byte	0x1
 3210 01bf 03       		.uleb128 0x3
 3211 01c0 0E       		.uleb128 0xe
 3212 01c1 3A       		.uleb128 0x3a
 3213 01c2 0B       		.uleb128 0xb
 3214 01c3 3B       		.uleb128 0x3b
 3215 01c4 0B       		.uleb128 0xb
 3216 01c5 27       		.uleb128 0x27
 3217 01c6 0C       		.uleb128 0xc
ARM GAS  /tmp/cccORKxm.s 			page 81


 3218 01c7 11       		.uleb128 0x11
 3219 01c8 01       		.uleb128 0x1
 3220 01c9 12       		.uleb128 0x12
 3221 01ca 01       		.uleb128 0x1
 3222 01cb 40       		.uleb128 0x40
 3223 01cc 0A       		.uleb128 0xa
 3224 01cd 9742     		.uleb128 0x2117
 3225 01cf 0C       		.uleb128 0xc
 3226 01d0 01       		.uleb128 0x1
 3227 01d1 13       		.uleb128 0x13
 3228 01d2 00       		.byte	0
 3229 01d3 00       		.byte	0
 3230 01d4 26       		.uleb128 0x26
 3231 01d5 898201   		.uleb128 0x4109
 3232 01d8 01       		.byte	0x1
 3233 01d9 11       		.uleb128 0x11
 3234 01da 01       		.uleb128 0x1
 3235 01db 9542     		.uleb128 0x2115
 3236 01dd 0C       		.uleb128 0xc
 3237 01de 31       		.uleb128 0x31
 3238 01df 13       		.uleb128 0x13
 3239 01e0 00       		.byte	0
 3240 01e1 00       		.byte	0
 3241 01e2 27       		.uleb128 0x27
 3242 01e3 34       		.uleb128 0x34
 3243 01e4 00       		.byte	0
 3244 01e5 03       		.uleb128 0x3
 3245 01e6 0E       		.uleb128 0xe
 3246 01e7 3A       		.uleb128 0x3a
 3247 01e8 0B       		.uleb128 0xb
 3248 01e9 3B       		.uleb128 0x3b
 3249 01ea 0B       		.uleb128 0xb
 3250 01eb 49       		.uleb128 0x49
 3251 01ec 13       		.uleb128 0x13
 3252 01ed 02       		.uleb128 0x2
 3253 01ee 0A       		.uleb128 0xa
 3254 01ef 00       		.byte	0
 3255 01f0 00       		.byte	0
 3256 01f1 28       		.uleb128 0x28
 3257 01f2 34       		.uleb128 0x34
 3258 01f3 00       		.byte	0
 3259 01f4 03       		.uleb128 0x3
 3260 01f5 0E       		.uleb128 0xe
 3261 01f6 3A       		.uleb128 0x3a
 3262 01f7 0B       		.uleb128 0xb
 3263 01f8 3B       		.uleb128 0x3b
 3264 01f9 05       		.uleb128 0x5
 3265 01fa 49       		.uleb128 0x49
 3266 01fb 13       		.uleb128 0x13
 3267 01fc 3F       		.uleb128 0x3f
 3268 01fd 0C       		.uleb128 0xc
 3269 01fe 3C       		.uleb128 0x3c
 3270 01ff 0C       		.uleb128 0xc
 3271 0200 00       		.byte	0
 3272 0201 00       		.byte	0
 3273 0202 29       		.uleb128 0x29
 3274 0203 34       		.uleb128 0x34
ARM GAS  /tmp/cccORKxm.s 			page 82


 3275 0204 00       		.byte	0
 3276 0205 03       		.uleb128 0x3
 3277 0206 08       		.uleb128 0x8
 3278 0207 3A       		.uleb128 0x3a
 3279 0208 0B       		.uleb128 0xb
 3280 0209 3B       		.uleb128 0x3b
 3281 020a 05       		.uleb128 0x5
 3282 020b 49       		.uleb128 0x49
 3283 020c 13       		.uleb128 0x13
 3284 020d 3F       		.uleb128 0x3f
 3285 020e 0C       		.uleb128 0xc
 3286 020f 3C       		.uleb128 0x3c
 3287 0210 0C       		.uleb128 0xc
 3288 0211 00       		.byte	0
 3289 0212 00       		.byte	0
 3290 0213 2A       		.uleb128 0x2a
 3291 0214 34       		.uleb128 0x34
 3292 0215 00       		.byte	0
 3293 0216 03       		.uleb128 0x3
 3294 0217 0E       		.uleb128 0xe
 3295 0218 3A       		.uleb128 0x3a
 3296 0219 0B       		.uleb128 0xb
 3297 021a 3B       		.uleb128 0x3b
 3298 021b 0B       		.uleb128 0xb
 3299 021c 49       		.uleb128 0x49
 3300 021d 13       		.uleb128 0x13
 3301 021e 3F       		.uleb128 0x3f
 3302 021f 0C       		.uleb128 0xc
 3303 0220 3C       		.uleb128 0x3c
 3304 0221 0C       		.uleb128 0xc
 3305 0222 00       		.byte	0
 3306 0223 00       		.byte	0
 3307 0224 2B       		.uleb128 0x2b
 3308 0225 34       		.uleb128 0x34
 3309 0226 00       		.byte	0
 3310 0227 03       		.uleb128 0x3
 3311 0228 0E       		.uleb128 0xe
 3312 0229 3A       		.uleb128 0x3a
 3313 022a 0B       		.uleb128 0xb
 3314 022b 3B       		.uleb128 0x3b
 3315 022c 0B       		.uleb128 0xb
 3316 022d 49       		.uleb128 0x49
 3317 022e 13       		.uleb128 0x13
 3318 022f 3F       		.uleb128 0x3f
 3319 0230 0C       		.uleb128 0xc
 3320 0231 02       		.uleb128 0x2
 3321 0232 0A       		.uleb128 0xa
 3322 0233 00       		.byte	0
 3323 0234 00       		.byte	0
 3324 0235 2C       		.uleb128 0x2c
 3325 0236 2E       		.uleb128 0x2e
 3326 0237 00       		.byte	0
 3327 0238 3F       		.uleb128 0x3f
 3328 0239 0C       		.uleb128 0xc
 3329 023a 03       		.uleb128 0x3
 3330 023b 0E       		.uleb128 0xe
 3331 023c 3A       		.uleb128 0x3a
ARM GAS  /tmp/cccORKxm.s 			page 83


 3332 023d 0B       		.uleb128 0xb
 3333 023e 3B       		.uleb128 0x3b
 3334 023f 0B       		.uleb128 0xb
 3335 0240 27       		.uleb128 0x27
 3336 0241 0C       		.uleb128 0xc
 3337 0242 49       		.uleb128 0x49
 3338 0243 13       		.uleb128 0x13
 3339 0244 3C       		.uleb128 0x3c
 3340 0245 0C       		.uleb128 0xc
 3341 0246 00       		.byte	0
 3342 0247 00       		.byte	0
 3343 0248 2D       		.uleb128 0x2d
 3344 0249 2E       		.uleb128 0x2e
 3345 024a 01       		.byte	0x1
 3346 024b 3F       		.uleb128 0x3f
 3347 024c 0C       		.uleb128 0xc
 3348 024d 03       		.uleb128 0x3
 3349 024e 0E       		.uleb128 0xe
 3350 024f 3A       		.uleb128 0x3a
 3351 0250 0B       		.uleb128 0xb
 3352 0251 3B       		.uleb128 0x3b
 3353 0252 0B       		.uleb128 0xb
 3354 0253 27       		.uleb128 0x27
 3355 0254 0C       		.uleb128 0xc
 3356 0255 49       		.uleb128 0x49
 3357 0256 13       		.uleb128 0x13
 3358 0257 3C       		.uleb128 0x3c
 3359 0258 0C       		.uleb128 0xc
 3360 0259 01       		.uleb128 0x1
 3361 025a 13       		.uleb128 0x13
 3362 025b 00       		.byte	0
 3363 025c 00       		.byte	0
 3364 025d 2E       		.uleb128 0x2e
 3365 025e 2E       		.uleb128 0x2e
 3366 025f 01       		.byte	0x1
 3367 0260 3F       		.uleb128 0x3f
 3368 0261 0C       		.uleb128 0xc
 3369 0262 03       		.uleb128 0x3
 3370 0263 0E       		.uleb128 0xe
 3371 0264 3A       		.uleb128 0x3a
 3372 0265 0B       		.uleb128 0xb
 3373 0266 3B       		.uleb128 0x3b
 3374 0267 0B       		.uleb128 0xb
 3375 0268 27       		.uleb128 0x27
 3376 0269 0C       		.uleb128 0xc
 3377 026a 3C       		.uleb128 0x3c
 3378 026b 0C       		.uleb128 0xc
 3379 026c 01       		.uleb128 0x1
 3380 026d 13       		.uleb128 0x13
 3381 026e 00       		.byte	0
 3382 026f 00       		.byte	0
 3383 0270 2F       		.uleb128 0x2f
 3384 0271 2E       		.uleb128 0x2e
 3385 0272 01       		.byte	0x1
 3386 0273 3F       		.uleb128 0x3f
 3387 0274 0C       		.uleb128 0xc
 3388 0275 03       		.uleb128 0x3
ARM GAS  /tmp/cccORKxm.s 			page 84


 3389 0276 0E       		.uleb128 0xe
 3390 0277 3A       		.uleb128 0x3a
 3391 0278 0B       		.uleb128 0xb
 3392 0279 3B       		.uleb128 0x3b
 3393 027a 0B       		.uleb128 0xb
 3394 027b 27       		.uleb128 0x27
 3395 027c 0C       		.uleb128 0xc
 3396 027d 3C       		.uleb128 0x3c
 3397 027e 0C       		.uleb128 0xc
 3398 027f 00       		.byte	0
 3399 0280 00       		.byte	0
 3400 0281 00       		.byte	0
 3401              		.section	.debug_loc,"",%progbits
 3402              	.Ldebug_loc0:
 3403              	.LLST0:
 3404 0000 00000000 		.4byte	.LFB166
 3405 0004 02000000 		.4byte	.LCFI0
 3406 0008 0200     		.2byte	0x2
 3407 000a 7D       		.byte	0x7d
 3408 000b 00       		.sleb128 0
 3409 000c 02000000 		.4byte	.LCFI0
 3410 0010 04000000 		.4byte	.LCFI1
 3411 0014 0200     		.2byte	0x2
 3412 0016 7D       		.byte	0x7d
 3413 0017 10       		.sleb128 16
 3414 0018 04000000 		.4byte	.LCFI1
 3415 001c 50020000 		.4byte	.LFE166
 3416 0020 0200     		.2byte	0x2
 3417 0022 7D       		.byte	0x7d
 3418 0023 18       		.sleb128 24
 3419 0024 00000000 		.4byte	0
 3420 0028 00000000 		.4byte	0
 3421              	.LLST1:
 3422 002c 18000000 		.4byte	.LVL2
 3423 0030 22000000 		.4byte	.LVL3
 3424 0034 0100     		.2byte	0x1
 3425 0036 50       		.byte	0x50
 3426 0037 22000000 		.4byte	.LVL3
 3427 003b 2A000000 		.4byte	.LVL5
 3428 003f 0100     		.2byte	0x1
 3429 0041 54       		.byte	0x54
 3430 0042 2E000000 		.4byte	.LVL6
 3431 0046 3E000000 		.4byte	.LVL8
 3432 004a 0100     		.2byte	0x1
 3433 004c 54       		.byte	0x54
 3434 004d 3E000000 		.4byte	.LVL8
 3435 0051 48000000 		.4byte	.LVL9
 3436 0055 0100     		.2byte	0x1
 3437 0057 50       		.byte	0x50
 3438 0058 64000000 		.4byte	.LVL13
 3439 005c 66000000 		.4byte	.LVL14
 3440 0060 0100     		.2byte	0x1
 3441 0062 50       		.byte	0x50
 3442 0063 66000000 		.4byte	.LVL14
 3443 0067 B2000000 		.4byte	.LVL27
 3444 006b 0100     		.2byte	0x1
 3445 006d 55       		.byte	0x55
ARM GAS  /tmp/cccORKxm.s 			page 85


 3446 006e B2000000 		.4byte	.LVL27
 3447 0072 B4000000 		.4byte	.LVL28
 3448 0076 0100     		.2byte	0x1
 3449 0078 50       		.byte	0x50
 3450 0079 B4000000 		.4byte	.LVL28
 3451 007d F8000000 		.4byte	.LVL39
 3452 0081 0100     		.2byte	0x1
 3453 0083 54       		.byte	0x54
 3454 0084 F8000000 		.4byte	.LVL39
 3455 0088 FA000000 		.4byte	.LVL40
 3456 008c 0100     		.2byte	0x1
 3457 008e 50       		.byte	0x50
 3458 008f FA000000 		.4byte	.LVL40
 3459 0093 2A010000 		.4byte	.LVL48
 3460 0097 0100     		.2byte	0x1
 3461 0099 54       		.byte	0x54
 3462 009a 2A010000 		.4byte	.LVL48
 3463 009e 2C010000 		.4byte	.LVL49
 3464 00a2 0100     		.2byte	0x1
 3465 00a4 50       		.byte	0x50
 3466 00a5 2C010000 		.4byte	.LVL49
 3467 00a9 8A010000 		.4byte	.LVL58
 3468 00ad 0100     		.2byte	0x1
 3469 00af 54       		.byte	0x54
 3470 00b0 8A010000 		.4byte	.LVL58
 3471 00b4 8C010000 		.4byte	.LVL59
 3472 00b8 0100     		.2byte	0x1
 3473 00ba 50       		.byte	0x50
 3474 00bb 8C010000 		.4byte	.LVL59
 3475 00bf C0010000 		.4byte	.LVL66
 3476 00c3 0100     		.2byte	0x1
 3477 00c5 55       		.byte	0x55
 3478 00c6 FA010000 		.4byte	.LVL73
 3479 00ca FC010000 		.4byte	.LVL74
 3480 00ce 0100     		.2byte	0x1
 3481 00d0 50       		.byte	0x50
 3482 00d1 FC010000 		.4byte	.LVL74
 3483 00d5 50020000 		.4byte	.LFE166
 3484 00d9 0100     		.2byte	0x1
 3485 00db 54       		.byte	0x54
 3486 00dc 00000000 		.4byte	0
 3487 00e0 00000000 		.4byte	0
 3488              	.LLST2:
 3489 00e4 6E000000 		.4byte	.LVL16
 3490 00e8 70000000 		.4byte	.LVL17
 3491 00ec 0100     		.2byte	0x1
 3492 00ee 50       		.byte	0x50
 3493 00ef 70000000 		.4byte	.LVL17
 3494 00f3 B2000000 		.4byte	.LVL27
 3495 00f7 0100     		.2byte	0x1
 3496 00f9 54       		.byte	0x54
 3497 00fa BC000000 		.4byte	.LVL30
 3498 00fe BE000000 		.4byte	.LVL31
 3499 0102 0100     		.2byte	0x1
 3500 0104 50       		.byte	0x50
 3501 0105 BE000000 		.4byte	.LVL31
 3502 0109 00010000 		.4byte	.LVL42
ARM GAS  /tmp/cccORKxm.s 			page 86


 3503 010d 0100     		.2byte	0x1
 3504 010f 55       		.byte	0x55
 3505 0110 00010000 		.4byte	.LVL42
 3506 0114 02010000 		.4byte	.LVL43
 3507 0118 0100     		.2byte	0x1
 3508 011a 50       		.byte	0x50
 3509 011b 02010000 		.4byte	.LVL43
 3510 011f 8A010000 		.4byte	.LVL58
 3511 0123 0100     		.2byte	0x1
 3512 0125 55       		.byte	0x55
 3513 0126 92010000 		.4byte	.LVL61
 3514 012a 94010000 		.4byte	.LVL62
 3515 012e 0100     		.2byte	0x1
 3516 0130 50       		.byte	0x50
 3517 0131 94010000 		.4byte	.LVL62
 3518 0135 FA010000 		.4byte	.LVL73
 3519 0139 0100     		.2byte	0x1
 3520 013b 54       		.byte	0x54
 3521 013c 48020000 		.4byte	.LVL84
 3522 0140 50020000 		.4byte	.LFE166
 3523 0144 0100     		.2byte	0x1
 3524 0146 55       		.byte	0x55
 3525 0147 00000000 		.4byte	0
 3526 014b 00000000 		.4byte	0
 3527              	.LLST3:
 3528 014f 76000000 		.4byte	.LVL19
 3529 0153 78000000 		.4byte	.LVL20
 3530 0157 0100     		.2byte	0x1
 3531 0159 50       		.byte	0x50
 3532 015a 78000000 		.4byte	.LVL20
 3533 015e C2000000 		.4byte	.LVL32
 3534 0162 0100     		.2byte	0x1
 3535 0164 56       		.byte	0x56
 3536 0165 00000000 		.4byte	0
 3537 0169 00000000 		.4byte	0
 3538              	.LLST4:
 3539 016d 2A000000 		.4byte	.LVL5
 3540 0171 2E000000 		.4byte	.LVL6
 3541 0175 0200     		.2byte	0x2
 3542 0177 91       		.byte	0x91
 3543 0178 68       		.sleb128 -24
 3544 0179 EE010000 		.4byte	.LVL71
 3545 017d 3C020000 		.4byte	.LVL81
 3546 0181 0200     		.2byte	0x2
 3547 0183 91       		.byte	0x91
 3548 0184 68       		.sleb128 -24
 3549 0185 3C020000 		.4byte	.LVL81
 3550 0189 42020000 		.4byte	.LVL82
 3551 018d 0100     		.2byte	0x1
 3552 018f 51       		.byte	0x51
 3553 0190 42020000 		.4byte	.LVL82
 3554 0194 48020000 		.4byte	.LVL84
 3555 0198 0200     		.2byte	0x2
 3556 019a 91       		.byte	0x91
 3557 019b 68       		.sleb128 -24
 3558 019c 00000000 		.4byte	0
 3559 01a0 00000000 		.4byte	0
ARM GAS  /tmp/cccORKxm.s 			page 87


 3560              	.LLST5:
 3561 01a4 2A000000 		.4byte	.LVL5
 3562 01a8 2E000000 		.4byte	.LVL6
 3563 01ac 0200     		.2byte	0x2
 3564 01ae 91       		.byte	0x91
 3565 01af 6C       		.sleb128 -20
 3566 01b0 34020000 		.4byte	.LVL80
 3567 01b4 48020000 		.4byte	.LVL84
 3568 01b8 0200     		.2byte	0x2
 3569 01ba 91       		.byte	0x91
 3570 01bb 6C       		.sleb128 -20
 3571 01bc 00000000 		.4byte	0
 3572 01c0 00000000 		.4byte	0
 3573              		.section	.debug_aranges,"",%progbits
 3574 0000 24000000 		.4byte	0x24
 3575 0004 0200     		.2byte	0x2
 3576 0006 00000000 		.4byte	.Ldebug_info0
 3577 000a 04       		.byte	0x4
 3578 000b 00       		.byte	0
 3579 000c 0000     		.2byte	0
 3580 000e 0000     		.2byte	0
 3581 0010 00000000 		.4byte	.LFB166
 3582 0014 50020000 		.4byte	.LFE166-.LFB166
 3583 0018 00000000 		.4byte	.LFB165
 3584 001c 18000000 		.4byte	.LFE165-.LFB165
 3585 0020 00000000 		.4byte	0
 3586 0024 00000000 		.4byte	0
 3587              		.section	.debug_ranges,"",%progbits
 3588              	.Ldebug_ranges0:
 3589 0000 00000000 		.4byte	.LFB166
 3590 0004 50020000 		.4byte	.LFE166
 3591 0008 00000000 		.4byte	.LFB165
 3592 000c 18000000 		.4byte	.LFE165
 3593 0010 00000000 		.4byte	0
 3594 0014 00000000 		.4byte	0
 3595              		.section	.debug_line,"",%progbits
 3596              	.Ldebug_line0:
 3597 0000 6D020000 		.section	.debug_str,"MS",%progbits,1
 3597      0200F401 
 3597      00000201 
 3597      FB0E0D00 
 3597      01010101 
 3598              	.LASF54:
 3599 0000 72656164 		.ascii	"ready_list_t\000"
 3599      795F6C69 
 3599      73745F74 
 3599      00
 3600              	.LASF19:
 3601 000d 73697A65 		.ascii	"size_t\000"
 3601      5F7400
 3602              	.LASF55:
 3603 0014 7264796D 		.ascii	"rdymsg\000"
 3603      736700
 3604              	.LASF30:
 3605 001b 75696E74 		.ascii	"uint64_t\000"
 3605      36345F74 
 3605      00
ARM GAS  /tmp/cccORKxm.s 			page 88


 3606              	.LASF45:
 3607 0024 706F7274 		.ascii	"port_intctx\000"
 3607      5F696E74 
 3607      63747800 
 3608              	.LASF76:
 3609 0030 76746C69 		.ascii	"vtlist\000"
 3609      737400
 3610              	.LASF80:
 3611 0037 6D656D67 		.ascii	"memgetfunc_t\000"
 3611      65746675 
 3611      6E635F74 
 3611      00
 3612              	.LASF31:
 3613 0044 6C6F6E67 		.ascii	"long long unsigned int\000"
 3613      206C6F6E 
 3613      6720756E 
 3613      7369676E 
 3613      65642069 
 3614              	.LASF56:
 3615 005b 65786974 		.ascii	"exitcode\000"
 3615      636F6465 
 3615      00
 3616              	.LASF84:
 3617 0064 685F6672 		.ascii	"h_free\000"
 3617      656500
 3618              	.LASF102:
 3619 006b 74657374 		.ascii	"test\000"
 3619      00
 3620              	.LASF73:
 3621 0070 76697274 		.ascii	"virtual_timers_list_t\000"
 3621      75616C5F 
 3621      74696D65 
 3621      72735F6C 
 3621      6973745F 
 3622              	.LASF101:
 3623 0086 49544D5F 		.ascii	"ITM_RxBuffer\000"
 3623      52784275 
 3623      66666572 
 3623      00
 3624              	.LASF86:
 3625 0093 6E657874 		.ascii	"next\000"
 3625      00
 3626              	.LASF2:
 3627 0098 705F7072 		.ascii	"p_prio\000"
 3627      696F00
 3628              	.LASF104:
 3629 009f 70617474 		.ascii	"patternheap\000"
 3629      65726E68 
 3629      65617000 
 3630              	.LASF79:
 3631 00ab 6D757465 		.ascii	"mutex_t\000"
 3631      785F7400 
 3632              	.LASF29:
 3633 00b3 6C6F6E67 		.ascii	"long long int\000"
 3633      206C6F6E 
 3633      6720696E 
 3633      7400
ARM GAS  /tmp/cccORKxm.s 			page 89


 3634              	.LASF18:
 3635 00c1 7369676E 		.ascii	"signed char\000"
 3635      65642063 
 3635      68617200 
 3636              	.LASF85:
 3637 00cd 685F6D74 		.ascii	"h_mtx\000"
 3637      7800
 3638              	.LASF16:
 3639 00d3 705F6D70 		.ascii	"p_mpool\000"
 3639      6F6F6C00 
 3640              	.LASF61:
 3641 00db 6D5F7175 		.ascii	"m_queue\000"
 3641      65756500 
 3642              	.LASF113:
 3643 00e3 63684865 		.ascii	"chHeapFree\000"
 3643      61704672 
 3643      656500
 3644              	.LASF109:
 3645 00ee 474E5520 		.ascii	"GNU C 4.7.4 20130913 (release) [ARM/embedded-4_7-br"
 3645      4320342E 
 3645      372E3420 
 3645      32303133 
 3645      30393133 
 3646 0121 616E6368 		.ascii	"anch revision 202601]\000"
 3646      20726576 
 3646      6973696F 
 3646      6E203230 
 3646      32363031 
 3647              	.LASF74:
 3648 0137 63685F73 		.ascii	"ch_system\000"
 3648      79737465 
 3648      6D00
 3649              	.LASF26:
 3650 0141 6C6F6E67 		.ascii	"long int\000"
 3650      20696E74 
 3650      00
 3651              	.LASF34:
 3652 014a 74737461 		.ascii	"tstate_t\000"
 3652      74655F74 
 3652      00
 3653              	.LASF81:
 3654 0153 6D656D6F 		.ascii	"memory_heap_t\000"
 3654      72795F68 
 3654      6561705F 
 3654      7400
 3655              	.LASF23:
 3656 0161 75696E74 		.ascii	"uint16_t\000"
 3656      31365F74 
 3656      00
 3657              	.LASF97:
 3658 016a 62756666 		.ascii	"buffer\000"
 3658      657200
 3659              	.LASF4:
 3660 0171 705F6E65 		.ascii	"p_newer\000"
 3660      77657200 
 3661              	.LASF51:
 3662 0179 725F6E65 		.ascii	"r_newer\000"
ARM GAS  /tmp/cccORKxm.s 			page 90


 3662      77657200 
 3663              	.LASF41:
 3664 0181 72656761 		.ascii	"regarm_t\000"
 3664      726D5F74 
 3664      00
 3665              	.LASF68:
 3666 018a 76745F70 		.ascii	"vt_prev\000"
 3666      72657600 
 3667              	.LASF98:
 3668 0192 68656170 		.ascii	"heap1_execute\000"
 3668      315F6578 
 3668      65637574 
 3668      6500
 3669              	.LASF88:
 3670 01a0 616C6967 		.ascii	"align\000"
 3670      6E00
 3671              	.LASF17:
 3672 01a6 756E7369 		.ascii	"unsigned int\000"
 3672      676E6564 
 3672      20696E74 
 3672      00
 3673              	.LASF67:
 3674 01b3 76745F6E 		.ascii	"vt_next\000"
 3674      65787400 
 3675              	.LASF11:
 3676 01bb 705F6D73 		.ascii	"p_msgqueue\000"
 3676      67717565 
 3676      756500
 3677              	.LASF93:
 3678 01c6 74656172 		.ascii	"teardown\000"
 3678      646F776E 
 3678      00
 3679              	.LASF91:
 3680 01cf 6E616D65 		.ascii	"name\000"
 3680      00
 3681              	.LASF89:
 3682 01d4 73697A65 		.ascii	"size\000"
 3682      00
 3683              	.LASF24:
 3684 01d9 73686F72 		.ascii	"short unsigned int\000"
 3684      7420756E 
 3684      7369676E 
 3684      65642069 
 3684      6E7400
 3685              	.LASF37:
 3686 01ec 6D73675F 		.ascii	"msg_t\000"
 3686      7400
 3687              	.LASF78:
 3688 01f2 63685F73 		.ascii	"ch_system_t\000"
 3688      79737465 
 3688      6D5F7400 
 3689              	.LASF33:
 3690 01fe 746D6F64 		.ascii	"tmode_t\000"
 3690      655F7400 
 3691              	.LASF38:
 3692 0206 6576656E 		.ascii	"eventmask_t\000"
 3692      746D6173 
ARM GAS  /tmp/cccORKxm.s 			page 91


 3692      6B5F7400 
 3693              	.LASF42:
 3694 0212 73746B61 		.ascii	"stkalign_t\000"
 3694      6C69676E 
 3694      5F7400
 3695              	.LASF103:
 3696 021d 74657374 		.ascii	"testheap1\000"
 3696      68656170 
 3696      3100
 3697              	.LASF114:
 3698 0227 63684865 		.ascii	"chHeapObjectInit\000"
 3698      61704F62 
 3698      6A656374 
 3698      496E6974 
 3698      00
 3699              	.LASF10:
 3700 0238 705F7761 		.ascii	"p_waiting\000"
 3700      6974696E 
 3700      6700
 3701              	.LASF39:
 3702 0242 73697A65 		.ascii	"sizetype\000"
 3702      74797065 
 3702      00
 3703              	.LASF72:
 3704 024b 76745F6C 		.ascii	"vt_lasttime\000"
 3704      61737474 
 3704      696D6500 
 3705              	.LASF5:
 3706 0257 705F6F6C 		.ascii	"p_older\000"
 3706      64657200 
 3707              	.LASF50:
 3708 025f 725F6374 		.ascii	"r_ctx\000"
 3708      7800
 3709              	.LASF92:
 3710 0265 73657475 		.ascii	"setup\000"
 3710      7000
 3711              	.LASF53:
 3712 026b 725F6375 		.ascii	"r_current\000"
 3712      7272656E 
 3712      7400
 3713              	.LASF52:
 3714 0275 725F6F6C 		.ascii	"r_older\000"
 3714      64657200 
 3715              	.LASF35:
 3716 027d 74726566 		.ascii	"trefs_t\000"
 3716      735F7400 
 3717              	.LASF65:
 3718 0285 76697274 		.ascii	"virtual_timer_t\000"
 3718      75616C5F 
 3718      74696D65 
 3718      725F7400 
 3719              	.LASF1:
 3720 0295 705F7072 		.ascii	"p_prev\000"
 3720      657600
 3721              	.LASF94:
 3722 029c 65786563 		.ascii	"execute\000"
 3722      75746500 
ARM GAS  /tmp/cccORKxm.s 			page 92


 3723              	.LASF36:
 3724 02a4 74707269 		.ascii	"tprio_t\000"
 3724      6F5F7400 
 3725              	.LASF99:
 3726 02ac 68656170 		.ascii	"heap1_setup\000"
 3726      315F7365 
 3726      74757000 
 3727              	.LASF60:
 3728 02b8 6D757465 		.ascii	"mutex\000"
 3728      7800
 3729              	.LASF108:
 3730 02be 5F426F6F 		.ascii	"_Bool\000"
 3730      6C00
 3731              	.LASF25:
 3732 02c4 696E7433 		.ascii	"int32_t\000"
 3732      325F7400 
 3733              	.LASF21:
 3734 02cc 756E7369 		.ascii	"unsigned char\000"
 3734      676E6564 
 3734      20636861 
 3734      7200
 3735              	.LASF95:
 3736 02da 68656170 		.ascii	"heap_header\000"
 3736      5F686561 
 3736      64657200 
 3737              	.LASF14:
 3738 02e6 705F6D74 		.ascii	"p_mtxlist\000"
 3738      786C6973 
 3738      7400
 3739              	.LASF22:
 3740 02f0 73686F72 		.ascii	"short int\000"
 3740      7420696E 
 3740      7400
 3741              	.LASF7:
 3742 02fa 705F7374 		.ascii	"p_state\000"
 3742      61746500 
 3743              	.LASF49:
 3744 0302 725F7072 		.ascii	"r_prio\000"
 3744      696F00
 3745              	.LASF58:
 3746 0309 65776D61 		.ascii	"ewmask\000"
 3746      736B00
 3747              	.LASF0:
 3748 0310 705F6E65 		.ascii	"p_next\000"
 3748      787400
 3749              	.LASF8:
 3750 0317 705F666C 		.ascii	"p_flags\000"
 3750      61677300 
 3751              	.LASF106:
 3752 031f 63684865 		.ascii	"chHeapAlloc\000"
 3752      6170416C 
 3752      6C6F6300 
 3753              	.LASF90:
 3754 032b 74657374 		.ascii	"testcase\000"
 3754      63617365 
 3754      00
 3755              	.LASF13:
ARM GAS  /tmp/cccORKxm.s 			page 93


 3756 0334 705F6570 		.ascii	"p_epending\000"
 3756      656E6469 
 3756      6E6700
 3757              	.LASF27:
 3758 033f 75696E74 		.ascii	"uint32_t\000"
 3758      33325F74 
 3758      00
 3759              	.LASF48:
 3760 0348 725F7175 		.ascii	"r_queue\000"
 3760      65756500 
 3761              	.LASF69:
 3762 0350 76745F64 		.ascii	"vt_delta\000"
 3762      656C7461 
 3762      00
 3763              	.LASF87:
 3764 0359 68656170 		.ascii	"heap\000"
 3764      00
 3765              	.LASF28:
 3766 035e 6C6F6E67 		.ascii	"long unsigned int\000"
 3766      20756E73 
 3766      69676E65 
 3766      6420696E 
 3766      7400
 3767              	.LASF112:
 3768 0370 6368436F 		.ascii	"chCoreStatus\000"
 3768      72655374 
 3768      61747573 
 3768      00
 3769              	.LASF59:
 3770 037d 63686172 		.ascii	"char\000"
 3770      00
 3771              	.LASF96:
 3772 0382 74657374 		.ascii	"test_buffers\000"
 3772      5F627566 
 3772      66657273 
 3772      00
 3773              	.LASF105:
 3774 038f 63684865 		.ascii	"chHeapStatus\000"
 3774      61705374 
 3774      61747573 
 3774      00
 3775              	.LASF63:
 3776 039c 6D5F6E65 		.ascii	"m_next\000"
 3776      787400
 3777              	.LASF40:
 3778 03a3 73797374 		.ascii	"systime_t\000"
 3778      696D655F 
 3778      7400
 3779              	.LASF15:
 3780 03ad 705F7265 		.ascii	"p_realprio\000"
 3780      616C7072 
 3780      696F00
 3781              	.LASF64:
 3782 03b8 76746675 		.ascii	"vtfunc_t\000"
 3782      6E635F74 
 3782      00
 3783              	.LASF43:
ARM GAS  /tmp/cccORKxm.s 			page 94


 3784 03c1 74687265 		.ascii	"thread\000"
 3784      616400
 3785              	.LASF111:
 3786 03c8 2F686F6D 		.ascii	"/home/joerg/repos/chibios-projects/ChibiOS-RT/demos"
 3786      652F6A6F 
 3786      6572672F 
 3786      7265706F 
 3786      732F6368 
 3787 03fb 2F53544D 		.ascii	"/STM32/RT-STM32F103-OLIMEX_STM32_P103\000"
 3787      33322F52 
 3787      542D5354 
 3787      4D333246 
 3787      3130332D 
 3788              	.LASF44:
 3789 0421 636F6E74 		.ascii	"context\000"
 3789      65787400 
 3790              	.LASF32:
 3791 0429 7274636E 		.ascii	"rtcnt_t\000"
 3791      745F7400 
 3792              	.LASF66:
 3793 0431 76697274 		.ascii	"virtual_timer\000"
 3793      75616C5F 
 3793      74696D65 
 3793      7200
 3794              	.LASF71:
 3795 043f 76745F70 		.ascii	"vt_par\000"
 3795      617200
 3796              	.LASF77:
 3797 0446 6D656173 		.ascii	"measurement_offset\000"
 3797      7572656D 
 3797      656E745F 
 3797      6F666673 
 3797      657400
 3798              	.LASF46:
 3799 0459 74687265 		.ascii	"threads_queue_t\000"
 3799      6164735F 
 3799      71756575 
 3799      655F7400 
 3800              	.LASF9:
 3801 0469 705F7265 		.ascii	"p_refs\000"
 3801      667300
 3802              	.LASF75:
 3803 0470 726C6973 		.ascii	"rlist\000"
 3803      7400
 3804              	.LASF20:
 3805 0476 75696E74 		.ascii	"uint8_t\000"
 3805      385F7400 
 3806              	.LASF100:
 3807 047e 74657374 		.ascii	"test_heap\000"
 3807      5F686561 
 3807      7000
 3808              	.LASF110:
 3809 0488 2E2E2F2E 		.ascii	"../../../test/rt/testheap.c\000"
 3809      2E2F2E2E 
 3809      2F746573 
 3809      742F7274 
 3809      2F746573 
ARM GAS  /tmp/cccORKxm.s 			page 95


 3810              	.LASF83:
 3811 04a4 685F7072 		.ascii	"h_provider\000"
 3811      6F766964 
 3811      657200
 3812              	.LASF57:
 3813 04af 77746F62 		.ascii	"wtobjp\000"
 3813      6A7000
 3814              	.LASF6:
 3815 04b6 705F6E61 		.ascii	"p_name\000"
 3815      6D6500
 3816              	.LASF107:
 3817 04bd 5F746573 		.ascii	"_test_assert\000"
 3817      745F6173 
 3817      73657274 
 3817      00
 3818              	.LASF47:
 3819 04ca 74687265 		.ascii	"threads_list_t\000"
 3819      6164735F 
 3819      6C697374 
 3819      5F7400
 3820              	.LASF12:
 3821 04d9 705F6D73 		.ascii	"p_msg\000"
 3821      6700
 3822              	.LASF62:
 3823 04df 6D5F6F77 		.ascii	"m_owner\000"
 3823      6E657200 
 3824              	.LASF3:
 3825 04e7 705F6374 		.ascii	"p_ctx\000"
 3825      7800
 3826              	.LASF70:
 3827 04ed 76745F66 		.ascii	"vt_func\000"
 3827      756E6300 
 3828              	.LASF82:
 3829 04f5 6D656D6F 		.ascii	"memory_heap\000"
 3829      72795F68 
 3829      65617000 
 3830              		.comm	__gnu_lto_v1,1,1
 3831              		.ident	"GCC: (GNU Tools for ARM Embedded Processors) 4.7.4 20130913 (release) [ARM/embedded-4_7-br
ARM GAS  /tmp/cccORKxm.s 			page 96


DEFINED SYMBOLS
                            *ABS*:00000000 testheap.c
     /tmp/cccORKxm.s:404    .text.heap1_execute:00000000 $t
     /tmp/cccORKxm.s:409    .text.heap1_execute:00000000 heap1_execute
     /tmp/cccORKxm.s:796    .text.heap1_execute:0000024c $d
     /tmp/cccORKxm.s:801    .text.heap1_setup:00000000 $t
     /tmp/cccORKxm.s:806    .text.heap1_setup:00000000 heap1_setup
     /tmp/cccORKxm.s:850    .bss.test_heap:00000000 .LANCHOR0
     /tmp/cccORKxm.s:832    .rodata.patternheap:00000000 patternheap
     /tmp/cccORKxm.s:843    .rodata.testheap1:00000000 testheap1
     /tmp/cccORKxm.s:829    .rodata.patternheap:00000000 $d
     /tmp/cccORKxm.s:836    .rodata.str1.4:00000000 $d
     /tmp/cccORKxm.s:840    .rodata.testheap1:00000000 $d
     /tmp/cccORKxm.s:849    .bss.test_heap:00000000 $d
     /tmp/cccORKxm.s:853    .bss.test_heap:00000000 test_heap
                            *COM*:00000001 __gnu_lto_v1
                     .debug_frame:00000010 $d

UNDEFINED SYMBOLS
chCoreStatus
chHeapStatus
chHeapAlloc
_test_assert
chHeapFree
test
chHeapObjectInit
