ARM GAS  /tmp/cck4EbAu.s 			page 1


   1              		.syntax unified
   2              		.cpu cortex-m3
   3              		.fpu softvfp
   4              		.eabi_attribute 20, 1
   5              		.eabi_attribute 21, 1
   6              		.eabi_attribute 23, 3
   7              		.eabi_attribute 24, 1
   8              		.eabi_attribute 25, 1
   9              		.eabi_attribute 26, 1
  10              		.eabi_attribute 30, 2
  11              		.eabi_attribute 34, 1
  12              		.eabi_attribute 18, 4
  13              		.thumb
  14              		.file	"testpools.c"
  15              		.text
  16              	.Ltext0:
  17              		.section	.gnu.lto_.jmpfuncs.d0595e528d060c13,"",%progbits
  18 0000 789C6362 		.ascii	"x\234cb`d`g\300\016\014\030\031\030\344\2004\013\003"
  18      60646067 
  18      C00E0C18 
  18      1918E480 
  18      340B03
  19 0013 50113353 		.ascii	"P\0213S\025\303\317\006\216TF\006\306LF\206c=\217E\201"
  19      15C3CF06 
  19      8E544606 
  19      C64C4686 
  19      633D8F45 
  20 0028 324C920C 		.ascii	"2L\222\014\251\214\214\014'\230 ,&\220\020\003\023\212"
  20      A98C8C0C 
  20      2798202C 
  20      26901003 
  20      138A
  21 003a CA2FB3EA 		.ascii	"\312/\263\352@f1\242\010^\231-\006R\012\325\316\214"
  21      406631A2 
  21      085E992D 
  21      06520AD5 
  21      CE8C
  22 004c 2EFD6636 		.ascii	".\375f6\037\2224\320zT\313\217\314Y\307\010\263\234"
  22      1F9234D0 
  22      7A54CB8F 
  22      CC59C708 
  22      B39C
  23 005e 99418001 		.ascii	"\231A\200\001&\311\302\030\317\310\200i\331\2319\310"
  23      26C9C218 
  23      CFC88069 
  23      D99939C8 
  24 006e A6B13280 		.ascii	"\246\2612\200\354\203\361\2300\\&\205\244\226\021]\366"
  24      EC83F198 
  24      305C2685 
  24      A496115D 
  24      F6
  25 007f CF4C90BB 		.ascii	"\317L\220\273Q]sg\346*\260\255P\347\000\315\227\325"
  25      515D7367 
  25      E62AB0AD 
  25      50E700CD 
  25      97D5
  26 0091 D3D387A0 		.ascii	"\323\323\207\240\222\324\342\022\375\242\0220]\220\237"
ARM GAS  /tmp/cck4EbAu.s 			page 2


  26      92D4E212 
  26      FDA21230 
  26      5D909F
  27 00a0 9F53AC97 		.ascii	"\237S\254\227\314\000\000\376(:\367"
  27      CC0000FE 
  27      283AF7
  28              		.text
  29              		.section	.gnu.lto_.inline.d0595e528d060c13,"",%progbits
  30 0000 789C6362 		.ascii	"x\234cb`d\340e\300\0166@i\026\006\006f&F\006& \223m"
  30      6064E065 
  30      C00E3640 
  30      69160606 
  30      66264606 
  31 0018 813C1350 		.ascii	"\201<\023P\007;?\022\227\005\250\237\031\310ab\320\371"
  31      073B3F12 
  31      9705A89F 
  31      19C86162 
  31      D0F9
  32 002a CE081497 		.ascii	"\316\010\024\227i\230\301\006\221a\346\001)\233\340"
  32      6998C106 
  32      9161E601 
  32      299BE0
  33 0039 07A21981 		.ascii	"\007\242\031\201\352`<\0060\217\001\314\203\351\206"
  33      EA603C06 
  33      308F01CC 
  33      83E986
  34 0048 888248B0 		.ascii	"\210\202H\260\032\006\2055 \263D\332N3C-\345\002\271"
  34      1A068535 
  34      20B344DA 
  34      4E33432D 
  34      E502B9
  35 005b 04AA0966 		.ascii	"\004\252\011f\004\252\361 \203&\37010\000\000y\360\017"
  35      04AAF120 
  35      8326F831 
  35      30000079 
  35      F00F
  36 006d BD       		.ascii	"\275"
  37              		.text
  38              		.section	.gnu.lto_.pureconst.d0595e528d060c13,"",%progbits
  39 0000 789C6362 		.ascii	"x\234cb`d`f``\340d\200\000\026\006\006F\011&\011f\011"
  39      60646066 
  39      6060E064 
  39      80001606 
  39      06460926 
  40 0017 00024A00 		.ascii	"\000\002J\000b"
  40      62
  41              		.text
  42              		.section	.gnu.lto_null_provider.d0595e528d060c13,"",%progbits
  43 0000 789C6362 		.ascii	"x\234cb`\004BL \011\304=@\254\002\304\214\314\014\214"
  43      6004424C 
  43      2009C43D 
  43      40AC02C4 
  43      8CCC0C8C 
  44 0014 4C13CE31 		.ascii	"L\023\316104*012\202\030@-\365L\214\365\241\020\235"
  44      30342A30 
  44      31328218 
  44      402DF54C 
ARM GAS  /tmp/cck4EbAu.s 			page 3


  44      8CF5A110 
  45 0029 A7FE3C63 		.ascii	"\247\376<c:2\203m?\323\201\007\377\353U\030\02674L\232"
  45      3A32836D 
  45      3FD38107 
  45      FFEB5518 
  45      1637344C 
  46 003e D0DCE091 		.ascii	"\320\334\340\221\312\310\300\304\240\300\310\020\317"
  46      CAC8C0C4 
  46      A0C0C810 
  46      CF
  47 004b C8F0E4BB 		.ascii	"\310\360\344\273\220$C*##\203\002\003\210fb`\001\351"
  47      9024432A 
  47      23238302 
  47      03886662 
  47      6001E9
  48 005e 032A6060 		.ascii	"\003*``\006\322\254\014-\015\015\002 u`\020\010\242"
  48      06D2AC0C 
  48      2D0D0D02 
  48      20756010 
  48      08A2
  49 0070 41B60401 		.ascii	"A\266\004\001\025\202\030\314\347\030\030\377\224\307"
  49      158218CC 
  49      E71818FF 
  49      94C7
  50 007e 322E6264 		.ascii	"2.bd\005kg\206\2732\020h$H\005P\035\203\254\236\236"
  50      056B6786 
  50      BB321068 
  50      24480550 
  50      1D83AC9E 
  51 0093 3E0495A4 		.ascii	">\004\225\244\026\227\350\027\225\200\351\202\374\374"
  51      1697E817 
  51      9580E982 
  51      FCFC
  52 00a1 9C62BD64 		.ascii	"\234b\275d\006\226\342\314\252T\000\303@+\360"
  52      0696E2CC 
  52      AA5400C3 
  52      402BF0
  53              		.text
  54              		.section	.gnu.lto_pools1_setup.d0595e528d060c13,"",%progbits
  55 0000 789C6362 		.ascii	"x\234cb`\004BL \011\304\013\201X\036\210\031\231\031"
  55      6004424C 
  55      2009C40B 
  55      81581E88 
  55      199919
  56 0013 1899269C 		.ascii	"\030\231&\234c`hT`bd\0041\200Z\352\231\030\353C!:Ou"
  56      63606854 
  56      60626404 
  56      31805AEA 
  56      9918EB43 
  57 002b 2D567933 		.ascii	"-Vy3\203m?\323\201\007\377\353\031\030\230\201B\254"
  57      836D3FD3 
  57      8107FFEB 
  57      19189881 
  57      42AC
  58 003d 0C2D0D0D 		.ascii	"\014-\015\015\002\014\361P\243\003A4Hc\020#\023\230"
  58      020CF150 
  58      A3034134 
ARM GAS  /tmp/cck4EbAu.s 			page 4


  58      48631023 
  58      1398
  59 004f C17C8681 		.ascii	"\301|\206\201\355\311\214u\214\261\214\013\030Y\201"
  59      EDC98C75 
  59      8CB18C0B 
  59      185981
  60 005e 72550C3F 		.ascii	"rU\014?\0338R\201N\211gd\204\350\201\21202f2B\035\224"
  60      1B385281 
  60      4E896764 
  60      84E8818A 
  60      30326632 
  61 0075 0AD47B82 		.ascii	"\012\324{\202\011\314\000Y\221\312\310\302\300p\216"
  61      09CC0059 
  61      91CAC8C2 
  61      C0708E
  62 0084 81116833 		.ascii	"\201\021h3\314\024\230e\214`;\20061\310\352\351\351"
  62      CC149865 
  62      8C603B80 
  62      3631C8EA 
  62      E9E9
  63 0096 4350496A 		.ascii	"CPIjq\211~Q\011\230.\310\317\317)\326Kf\000\000iC,\235"
  63      71897E51 
  63      09982EC8 
  63      CFCF29D6 
  63      4B660000 
  64              		.text
  65              		.section	.gnu.lto_pools1_execute.part.0.d0595e528d060c13,"",%progbits
  66 0000 789CCD55 		.ascii	"x\234\315U;l\023A\020\235\331\335\373\370\316\277\200"
  66      3B6C1341 
  66      109DD9DD 
  66      FBF8CEBF 
  66      80
  67 0011 8482F899 		.ascii	"\204\202\370\231TTq\204\204DGK\033K\224!\305\351\220"
  67      54547184 
  67      8444474B 
  67      1B4B9421 
  67      C5E990
  68 0024 82908248 		.ascii	"\202\220\202H*\012|\261\323\"Y\241I\354\024\204O\200"
  68      2A0A7CB1 
  68      D32259A1 
  68      49EC1484 
  68      4F80
  69 0036 14292869 		.ascii	"\024)(i\020\001RD\306\022(JE\021\004\210\306\005\005"
  69      10015244 
  69      C612284A 
  69      45110488 
  69      C60505
  70 0049 0D125298 		.ascii	"\015\022R\230\331\273\263\211}DQ\012\310\331\347w\273"
  70      D9BBB389 
  70      7D44510A 
  70      C8D9E777 
  70      BB
  71 005a 3B6F76DE 		.ascii	";ov\336\333\275\265\000\244O\377U\243\373\232\015p\226"
  71      DBBDB500 
  71      A44FFF55 
  71      A3FB9A0D 
  71      7096
ARM GAS  /tmp/cck4EbAu.s 			page 5


  72 006c 103380E9 		.ascii	"\0203\200\351Z\213\036\322(4\012T\032e\210K\005%\344"
  72      5A8B1ED2 
  72      28340A54 
  72      1A65884B 
  72      0525E4
  73 007f DD5700C1 		.ascii	"\335W\000\3019\243\232\201`\304@[\217\233\302]\223\324"
  73      39A39A81 
  73      60C4405B 
  73      8F9BC25D 
  73      93D4
  74 0091 6BB53668 		.ascii	"k\2656hp\304\012\273\227\012\2660\303\360\224\016O\011"
  74      70C40ABB 
  74      970AB630 
  74      C3F0940E 
  74      4F09
  75 00a3 77AB482D 		.ascii	"w\253H-\347\305ij9\350r\324L\301E\344\007\252\257\234"
  75      E7C5696A 
  75      39E872D4 
  75      4CC145E4 
  75      07AAAF9C 
  76 00b7 165219A6 		.ascii	"\026R\031\246e\247\034\027\313Wt\301\003C\260\024\004"
  76      65A71C17 
  76      CB5774C1 
  76      0343B014 
  76      04
  77 00c8 B55A35B8 		.ascii	"\265Z5\270\\\331\336\3319\343#\010\020\010\343\010\037"
  77      5CD9DED9 
  77      39E32308 
  77      1008E308 
  77      1F
  78 00d9 E63FCBE3 		.ascii	"\346?\313\343\340#B\001\030\005\250\335\3524u\356\373"
  78      E0234201 
  78      1805A8DD 
  78      EA3475EE 
  78      FB
  79 00ea 5A6530A2 		.ascii	"Ze0\242J`^s1\033\322\354\210\206I\264\332\353J<\243"
  79      4A605E73 
  79      311BD2EC 
  79      888649B4 
  79      DAEB4A3C 
  80 00ff D23438C8 		.ascii	"\32248\310\\\355\023\373\230\252\217\005\377\254\276"
  80      5CED13FB 
  80      98AA8F05 
  80      FFACBE
  81 010e CDC6B143 		.ascii	"\315\306\261CU`\037\351G\375\316\201t\325\367\263\306"
  81      55601FE9 
  81      47FDCE81 
  81      74D5F7B3 
  81      C6
  82 011f FFD1F85F 		.ascii	"\377\321\370_\013\207\334\370\217\013+\270'\0177\027"
  82      0B87DCF8 
  82      8F0B2BB8 
  82      270F3717 
  83 012f CD9722D8 		.ascii	"\315\227\"\330\336)\003\234D\030\303\3738D\357\346\030"
  83      DE29039C 
  83      4418C3FB 
  83      3844EFE6 
ARM GAS  /tmp/cck4EbAu.s 			page 6


  83      18
  84 0140 AE10CAA8 		.ascii	"\256\020\312\250\255\010\237\021\032\204O\011M\302'"
  84      AD089F11 
  84      1A844F09 
  84      4DC227
  85 014f 8456346E 		.ascii	"\204V4nG\230\"\\&t\010\037\023\272\204\217\010\323\204"
  85      4798225C 
  85      2674081F 
  85      13BA848F 
  85      08D384
  86 0162 0F093384 		.ascii	"\017\0113\204\017\010\263Q|.B\272\014\230\015\202<\206"
  86      0F08B351 
  86      7C2E42BA 
  86      0C980D82 
  86      3C86
  87 0174 EDF1C891 		.ascii	"\355\361\310\221QF:uF1\315(KT?#\300\026\350\235\301"
  87      51463A75 
  87      4631CD28 
  87      4B543F23 
  87      C016E89D 
  88 0189 41E976FD 		.ascii	"A\351v\375:@\211\254E:\247\344\006T\256\322v\033\303"
  88      3A4089AC 
  88      453AA7E4 
  88      0654AED2 
  88      761BC3
  89 019c E7688087 		.ascii	"\347h\200\207\242\010\253A\336GC\325aa\206\036Lq\033"
  89      A208AB41 
  89      DE4743D5 
  89      6161861E 
  89      4C711B
  90 01af 7E06833E 		.ascii	"~\006\203>Z8\021\036\247\234\310b+\350\366\360\217\305"
  90      5A38111E 
  90      A79CC862 
  90      2BE8F6F0 
  90      8FC5
  91 01c1 686AC19C 		.ascii	"hj\301\234\007\200I\266\2176\216c\024\022\365\244(\215"
  91      078049B6 
  91      8F368E63 
  91      1412F5A4 
  91      288D
  92 01d3 EEA0B97C 		.ascii	"\356\240\271|t\0006\240Zn\327\227E\\\201\244\234a\255"
  92      740036A0 
  92      5A6ED797 
  92      455C81A4 
  92      9C61AD
  93 01e6 1CB6AECD 		.ascii	"\034\266\256\315\345\221P\252\307[\202\257\022\255\030"
  93      E59150AA 
  93      C75B82AF 
  93      12AD18
  94 01f5 1FA1729D 		.ascii	"\037\241r\235\017\306\316(=\276\205\331\257x1N\027\345"
  94      0FC6CE28 
  94      3DBE85D9 
  94      AF78314E 
  94      17E5
  95 0207 EA2EE316 		.ascii	"\352.\343\026\240\207YA?R\316\2478\221\3211)\027\233"
  95      A0875941 
  95      3F52CEA7 
ARM GAS  /tmp/cck4EbAu.s 			page 7


  95      3891D131 
  95      29179B
  96 021a A49A0D6D 		.ascii	"\244\232\015m\222\011x\357\202l\202\242##\316\250\""
  96      920978EF 
  96      826C82A2 
  96      2323CEA8 
  96      22
  97 022b 252E6913 		.ascii	"%.i\023\311\332|^\000\022\326\222\020\263\014\"rv\325"
  97      C9DA7C5E 
  97      0012D692 
  97      10B30C22 
  97      7276D5
  98 023e 63958766 		.ascii	"c\225\207f\304\316P>\031\346\343\300,m'\242\371\230"
  98      C4CE503E 
  98      19E6E3C0 
  98      2C6D27A2 
  98      F998
  99 0250 D392BE61 		.ascii	"\323\222\276a\227\300\303r\327\266,\321\212\340\247"
  99      97C0C372 
  99      D7B62CD1 
  99      8AE0A7
 100 025f F392CD6C 		.ascii	"\363\222\315l6\272f\332\036Z{\231i\307t\033\360\313"
 100      36BA66DA 
 100      1E5A7B99 
 100      69C7741B 
 100      F0CB
 101 0271 A51E2FAD 		.ascii	"\245\036/\255^/\255~/-\017s\006yi[\241\227\364\363\336"
 101      5E2FAD7E 
 101      2F2D0F73 
 101      0679695B 
 101      A197F4F3 
 102 0286 61C3DA8D 		.ascii	"a\303\332\215lLK\355\337\260w]\303\034\"&\033\346\376"
 102      6C4C4BED 
 102      DFB0775D 
 102      C31C2226 
 102      1BE6FE
 103 0299 CD30C5B4 		.ascii	"\3150\305\264\004\303\334$\303h\353\315)\252\324|\263"
 103      04C3DC24 
 103      C368EBCD 
 103      29AAD47C 
 103      B3
 104 02aa B88A3DDB 		.ascii	"\270\212=\3336O\231Ur\245\234j\000\362q\377\021\212"
 104      364F9955 
 104      72A59C6A 
 104      00F271FF 
 104      118A
 105 02bc 34420547 		.ascii	"4B\005G\271JE\377\263\361\264\351\003\351\316\0201I"
 105      B94A45FF 
 105      B3F1B4E9 
 105      03E9CE10 
 105      3149
 106 02ce 7787DC27 		.ascii	"w\207\334'[\263\264\354P\231\253\367s\013\260#+>\036"
 106      5BB3B4EC 
 106      5099ABF7 
 106      730BB023 
 106      2B3E1E
 107 02e1 904704BF 		.ascii	"\220G\004\277\273\023\247\206\207\213\341w\332\237\232"
ARM GAS  /tmp/cck4EbAu.s 			page 8


 107      BB13A786 
 107      878BE177 
 107      DA9F9A
 108 02f0 2EDE9AD6 		.ascii	".\336\232\326xsr\362\306\324\260\007\277\001\250\375"
 108      787372F2 
 108      C6D4B007 
 108      BF01A8FD 
 109 0300 9F4D     		.ascii	"\237M"
 110              		.text
 111              		.section	.gnu.lto_pools1_execute.d0595e528d060c13,"",%progbits
 112 0000 789CCD53 		.ascii	"x\234\315S\277OSQ\024\376\316\275\357W\241\374\320D"
 112      BF4F5351 
 112      14FECEBD 
 112      EF57A1FC 
 112      D044
 113 0012 83835899 		.ascii	"\203\203X\231\230Z7\235\234]m\342\210\014\315\033 &"
 113      985A379D 
 113      9C5D6DE2 
 113      880CCD1B 
 113      2026
 114 0024 186172E9 		.ascii	"\030ar\351\243e5i\034\010E\007\021Ee\360/0Q\361\307"
 114      A3653569 
 114      1C084507 
 114      114565F0 
 114      2F3051F1 
 115 0039 D060A7C6 		.ascii	"\320`\247\306\311\201\305\27088\260`H\352w\337}\027"
 115      C981C5B8 
 115      3838B060 
 115      48EA77DF 
 115      7D17
 116 004b AC14C3E0 		.ascii	"\254\024\303\340\340k\233\357\275{\316\367\235\357\234"
 116      E06B9BEF 
 116      BD7BCEF7 
 116      9DEF9C
 117 005a 9EA720FC 		.ascii	"\236\247 \374\034\275b\376.\373\300E\242\344 \252\321"
 117      1CBD62FE 
 117      2EFBC045 
 117      A2E420AA 
 117      D1
 118 006b 06160B4A 		.ascii	"\006\026\013J|{\243U\264\245\221Lz\355\026\220\\\362"
 118      7C7BA355 
 118      B4A5914C 
 118      7AED1690 
 118      5CF2
 119 007d ECF95AC1 		.ascii	"\354\371Z\301W\372\336[\236L\006\365!\236\007*z5\316"
 119      57FADE5B 
 119      9E4C06F5 
 119      219E072A 
 119      7A35CE
 120 0090 A7B053E2 		.ascii	"\247\260S\342S(\221\311\222H\304 \013W\225\366\374 "
 120      532891C9 
 120      9248C420 
 120      0B5795F6 
 120      FC20
 121 00a2 8CA47A23 		.ascii	"\214\244z#u\021M`-I\3567\336\325\256\325v\272\335\013"
 121      75114D60 
 121      2D49EE37 
ARM GAS  /tmp/cck4EbAu.s 			page 9


 121      DED5AED5 
 121      76BADD0B 
 122 00b6 B1399D16 		.ascii	"\2619\235\026\264\036\254\2379\207X\004\005\030T\360"
 122      B41EAC9F 
 122      39875804 
 122      051854F0 
 123 00c6 7AFD1EC3 		.ascii	"z\375\036\303\333o\236=\001\355\307Vm,\243\351\224\006"
 123      DB6F9E3D 
 123      01EDC756 
 123      6D2CA3E9 
 123      9406
 124 00d8 4B8A3292 		.ascii	"K\2122\222\3743\322\021\203\235\325\341\377\311`\243"
 124      FC33D211 
 124      839DD5E1 
 124      FFC960A3 
 125 00e8 514F9C41 		.ascii	"QO\234AO\241 \206\367\2769\376W\217\373+\233\252\363"
 125      4FA12086 
 125      F7BE39FE 
 125      578FFB2B 
 125      9BAAF3
 126 00fb 3078ADDE 		.ascii	"0x\255\336\354t\253@Q0%\317d\202iS\362\210\350g\317"
 126      EC74AB40 
 126      513025CF 
 126      64826953 
 126      F288E867 
 127 0110 01718D18 		.ascii	"\001q\215\030\022\037\023#\342:1\227\305\007\210O\210"
 127      121F1323 
 127      E23A3197 
 127      C507884F 
 127      88
 128 0121 83C4A7C4 		.ascii	"\203\304\247\304<q\203\310\313\307R\222\214\212\315"
 128      3C7183C8 
 128      CBC75292 
 128      8C8ACD
 129 0130 9BCE9C5F 		.ascii	"\233\316\234_7\370s\004eZ\"\352\026j7\27747\231\365"
 129      37F87304 
 129      655A22EA 
 129      166A37BF 
 129      343799F5 
 130 0144 427C54C4 		.ascii	"B|T\304+\341e2\032\213\357\255\242\271\310\233@\335"
 130      2BE16532 
 130      1A8BEFAD 
 130      A2B9C89B 
 130      40DD
 131 0156 C55E3216 		.ascii	"\305^2\026K(3v\355M?a\272\211\366\276\267\263\355\324"
 131      4B283376 
 131      ED4D3F61 
 131      BA89F6BE 
 131      B7B3EDD4 
 132 016a B211030C 		.ascii	"\262\021\003\0143\212\271\272\323\"\266~v\222\243Vz"
 132      338AB9BA 
 132      D322B67E 
 132      7692A356 
 132      7A
 133 017b C0824662 		.ascii	"\300\202Fb\200fc\031\004>B\3556g-\337\032\357\255P\346"
 133      80666319 
 133      043E42ED 
ARM GAS  /tmp/cck4EbAu.s 			page 10


 133      36672DDF 
 133      1AEFAD50 
 134 0190 DF227C59 		.ascii	"\337\"|Y\3646<\356\251s\035d\272yVR\375+\3052\004\264"
 134      F4363CEE 
 134      A9731D64 
 134      BA795652 
 134      FD2BC532 
 135 01a6 506F6B38 		.ascii	"Pok8VH\242\221w\306\375\203H\224\261\207\251\247m\334"
 135      5648A291 
 135      77C6FD83 
 135      4894B187 
 135      A9A76DDC 
 136 01ba 248EB067 		.ascii	"$\216\260g\322b\031\005>`\351\233\034\022LX\367\014"
 136      D2621905 
 136      3E60E99B 
 136      1C124C58 
 136      F70C
 137 01cc A24CDBB2 		.ascii	"\242L\333\262|\225\023\256Ww\233\033\312\245\346*\""
 137      7C9513AE 
 137      57779B1B 
 137      CAA5E62A 
 137      22
 138 01dd B62923CC 		.ascii	"\266)#\314\206\361{\273\214;\272\017\363\306kf0\321"
 138      86F17BBB 
 138      8C3BBA0F 
 138      F3C66B66 
 138      30D1
 139 01ef 4525ADFC 		.ascii	"E%\255\374U\2568\271L\353pD\237!nf\352\271\246\236\267"
 139      55AE38B9 
 139      4CEB7044 
 139      9F216E66 
 139      EAB9A69E 
 140 0204 92337201 		.ascii	"\2223r\001P\0372s\343\353\343\310\003'\237\333\247\303"
 140      501F3273 
 140      E3EBE3C8 
 140      03279FDB 
 140      A7C3
 141 0216 B90D92D8 		.ascii	"\271\015\222\330\177n\371\343\346\246\014\255\317\334"
 141      7F6EF9E3 
 141      E6A60CAD 
 141      CFDC
 142 0224 F2FDE6C6 		.ascii	"\362\375\346\306\345\332\013\351T\313\037\213t\212\262"
 142      E5DA0BE9 
 142      54CB1F8B 
 142      748AB2
 143 0233 9E958DE5 		.ascii	"\236\225\215\345\264m\326w\315\006\337Wg\015;J\367\272"
 143      B46DD677 
 143      CD06DF57 
 143      670D3B4A 
 143      F7BA
 144 0245 0D3960BB 		.ascii	"\0159`\273\315\027\023\341\332\343|\261X\262\337\205"
 144      CD1713E1 
 144      DAE37CB1 
 144      58B2DF85 
 145 0255 787EA174 		.ascii	"x~\241tg!\305\333ss\267\346\213\025\310\314/Ve\004O"
 145      6721C5DB 
 145      7373B7E6 
ARM GAS  /tmp/cck4EbAu.s 			page 11


 145      8B15C8CC 
 145      2F566504 
 146              		.text
 147              		.section	.gnu.lto_.cgraph.d0595e528d060c13,"",%progbits
 148 0000 789C45CC 		.ascii	"x\234E\314M\016\001A\020\005\340\367\252\332\264+H\\"
 148      4D0E0141 
 148      1005E0F7 
 148      AADAB42B 
 148      485C
 149 0012 CE496A12 		.ascii	"\316Ij\022\311\014V\016@B&\301\302\357\316\336\216\304"
 149      C90C560E 
 149      404226C1 
 149      C2EFCEDE 
 149      8EC4
 150 0024 19842318 		.ascii	"\031\204#\030[t\017Fm^\276\252\274\022\020\012\340\216"
 150      5B740F46 
 150      6D5EBEAA 
 150      BC12100A 
 150      E08E
 151 0036 EFC88C06 		.ascii	"\357\310\214\006\014\3170\033\365;2\247\361\257\035"
 151      0CCF301B 
 151      F53B32A7 
 151      F1AF1D
 152 0045 4D3E1AF7 		.ascii	"M>\032\367(\013\232\3267ni\256R\232\222\033Z\243\306"
 152      280B9AD6 
 152      376E69AE 
 152      529A921B 
 152      5AA3C6
 153 0058 8A96D458 		.ascii	"\212\226\324X\323|\215%\255\371\203\322\241{yR\305\243"
 153      D37C8D25 
 153      ADF983D2 
 153      A17B7952 
 153      C5A3
 154 006a 383D9D4A 		.ascii	"8=\235J\202\3331\246\303\241J\217\356\240l\307\375!"
 154      82DB31A6 
 154      C3A14A8F 
 154      EEA06CC7 
 154      FD21
 155 007c 8F199C95 		.ascii	"\217\031\234\225Vy\372\362*\015\024\373\262\245\332"
 155      5679FAF2 
 155      2A0D14FB 
 155      B2A5DA
 156 008b 4411FF68 		.ascii	"D\021\377h\350O\302^\303\277x\217\316B/:\366Up\315\037"
 156      E84FC25E 
 156      C3BF788F 
 156      CE422F3A 
 156      F65570CD 
 157 00a0 1E6F70D5 		.ascii	"\036op\325N\037"
 157      4E1F
 158              		.text
 159              		.section	.gnu.lto_.vars.d0595e528d060c13,"",%progbits
 160 0000 789C6362 		.ascii	"x\234cb`d`f``\220d\200\000\226\245\214\014,\365\314"
 160      60646066 
 160      60609064 
 160      800096A5 
 160      8C0C2CF5 
 161 0015 AB191919 		.ascii	"\253\031\031\031\352\031V12\261\3263\254dd\006\222\000"
ARM GAS  /tmp/cck4EbAu.s 			page 12


 161      EA195631 
 161      32B1D633 
 161      AC646406 
 161      9200
 162 0027 431F04DE 		.ascii	"C\037\004\336"
 163              		.text
 164              		.section	.gnu.lto_.refs.d0595e528d060c13,"",%progbits
 165 0000 789C5587 		.ascii	"x\234U\207A\012\000 \014\303\322\255C\037\345\377\337"
 165      410A0020 
 165      0CC3D2AD 
 165      431FE5FF 
 165      DF
 166 0011 256378B0 		.ascii	"%cx\260!\201\006\"\201\303L*Vt\007\267\371>\216\312"
 166      21810622 
 166      81C34C2A 
 166      567407B7 
 166      F93E8ECA 
 167 0025 61A7E54F 		.ascii	"a\247\345O.$\332\000\353"
 167      2E24DA00 
 167      EB
 168              		.text
 169              		.section	.gnu.lto_.statics.d0595e528d060c13,"",%progbits
 170 0000 789C6362 		.ascii	"x\234cb`d`b\300\016@\342\214\020&\000\000\375\000\011"
 170      60646062 
 170      C00E40E2 
 170      8C102600 
 170      00FD0009 
 171              		.text
 172              		.section	.gnu.lto_.decls.d0595e528d060c13,"",%progbits
 173 0000 789CAD56 		.ascii	"x\234\255V}lSU\024\277\367\265\373b\243\014\020\354"
 173      7D6C5355 
 173      14BFF7B5 
 173      FB62A30C 
 173      10EC
 174 0012 64C054F0 		.ascii	"d\300T\360\017\342Z&$\230(\313\320\2503\021%F\023c\322"
 174      0FE25A26 
 174      249828CB 
 174      D0A83311 
 174      25461363 
 175 0027 D4AE7DB0 		.ascii	"\324\256}\260\231\255-\355\033_\177=\207\014\324\220"
 175      99AD2DED 
 175      1B5F7F3D 
 175      870CD490 
 176 0037 148C3215 		.ascii	"\024\2142\025\260D\246\356/a\021\324\011\313\2001@7"
 176      B044A6EE 
 176      2F6111D4 
 176      09CB8031 
 176      4037
 177 0049 036E91AF 		.ascii	"\003n\221\257\021\027X\"#\240`\0062$\324s?\336\347\372"
 177      11175822 
 177      23A06006 
 177      3224D473 
 177      3FDEE7FA 
 178 005d 5E1D70D3 		.ascii	"^\035p\323\333w\337\273\347\234\337\357\234{\356\275"
 178      DB77DFBB 
 178      E79CDFEF 
 178      9C7BEEBD 
ARM GAS  /tmp/cck4EbAu.s 			page 13


 179 006d 47401891 		.ascii	"G@\030\221v\023\036)h\005\223\021zN@(\013\276-D\354"
 179      76131E29 
 179      68059311 
 179      7A4E4028 
 179      0BBE2D44 
 180 0082 99E4CF3D 		.ascii	"\231\344\317=\320wAoC\254\345A\337\007\375\000\364\303"
 180      D077416F 
 180      43ACE541 
 180      DF07FD00 
 180      F4C3
 181 0094 D08F41EF 		.ascii	"\320\217A\357\206\376+\364\223\320\317B\277\000\335"
 181      86FE2BF4 
 181      93D0CF42 
 181      BF00DD
 182 00a3 097D08FA 		.ascii	"\011}\010\372e\350\327\240\027`dh\373\270\014\261\355"
 182      65E8D7A0 
 182      17606468 
 182      FBB80CB1 
 182      ED
 183 00b4 22F3D0CB 		.ascii	"\"\363\320\313\371\034\346\363\346v\200sz\020\033\371"
 183      F91CE6F3 
 183      E6768073 
 183      7A101BF9 
 184 00c4 F5F07981 		.ascii	"\365\360y\201\313ts\033C&}\302\367\001\216\253`\236"
 184      CB74731B 
 184      43267DC2 
 184      F7018EAB 
 184      609E
 185 00d6 E3B87F42 		.ascii	"\343\270\177B\277\002\335\015\212E\334~/\364\207`|\012"
 185      BF02DD0D 
 185      8A45DC7E 
 185      2FF48760 
 185      7C0A
 186 00e8 9ED330C3 		.ascii	"\236\3230\303\353\347\370JL\024\354ln_\037\207n\356"
 186      EBE7F84A 
 186      4C14EC6C 
 186      6E5F1F87 
 186      6EEE
 187 00fa 87C0E360 		.ascii	"\207\300\343`\346Cb7\231\343\353\3718M|\2129\037\202"
 187      E6436237 
 187      99E3EBF9 
 187      384D7C8A 
 187      391F82
 188 010d 3968C169 		.ascii	"9h\301i:\214\273\270\335,n\373\202\216\313a\033\036"
 188      3A8CBBB8 
 188      DD2C6EFB 
 188      828ECB61 
 188      1B1E
 189 011f F9E87D59 		.ascii	"\371\350}Yn\220\223\215r\345Q\327$\264I\206Vr\024\030"
 189      6E90938D 
 189      72E551D7 
 189      24B44986 
 189      56721418 
 190 0133 15211F76 		.ascii	"\025!\037v\301\212\277EG\005y\214\342l\264S\226\023"
 190      C18ABF45 
 190      4705798C 
 190      E26CB453 
ARM GAS  /tmp/cck4EbAu.s 			page 14


 190      9613
 191 0145 20837D78 		.ascii	" \203}x\007\236\004f\005\214\346\240\026\2316\276\316"
 191      079E0466 
 191      058CE6A0 
 191      169936BE 
 191      CE
 192 0156 FC5188DA 		.ascii	"\374Q\210\332Gv\027\263qf\313\010\306\315`\321\207w"
 192      477617B3 
 192      7166CB08 
 192      C6CD60D1 
 192      8777
 193 0168 E2390C47 		.ascii	"\3429\014Gf8\344+\342\337\273\233\226\242\321\315\361"
 193      6638E42B 
 193      E2DFBB9B 
 193      96A2D1CD 
 193      F1
 194 0179 304A8217 		.ascii	"0J\202\027\211\265rev:\207\222\331z\334\022\025\327"
 194      89B57265 
 194      763A8792 
 194      D97ADC12 
 194      15D7
 195 018b 4903F334 		.ascii	"I\003\3634\206\327\226\264\320-z\350-\331i\240\261\016"
 195      86D796B4 
 195      D02D7AE8 
 195      2DD969A0 
 195      B10E
 196 019d DA87BFC6 		.ascii	"\332\207\277\306\371`\260R1\330w\322\225\036T\031\263"
 196      F960B052 
 196      31D877D2 
 196      951E5419 
 196      B3
 197 01ae A6C8185B 		.ascii	"\246\310\030[zM\302\206\240\360&\240%\230\007\256\317"
 197      7A4DC286 
 197      A0F026A0 
 197      259807AE 
 197      CF
 198 01bf 7D17583A 		.ascii	"}\027X:\366yh\203\0268+x\375\372\357\302y\200\377\006"
 198      F6796883 
 198      16382B78 
 198      FDFAEFC2 
 198      7980FF06 
 199 01d3 E6F1B9B3 		.ascii	"\346\361\271\263\361\354/^\304)f\031\334\241\357L\212"
 199      F1EC2F5E 
 199      C4296619 
 199      DCA1EF4C 
 199      8A
 200 01e4 1966D3CA 		.ascii	"\031f\323\312\210\234C\023\210/mXq\246\375\207\335\335"
 200      889C4313 
 200      882F6D58 
 200      71A6FD87 
 200      DDDD
 201 01f6 8EB1F853 		.ascii	"\216\261\370S2\312\037C\"LE\037\321Dh\004\346\222\017"
 201      32CA1F43 
 201      224C451F 
 201      D1446804 
 201      E6920F
 202 0209 97E7DB84 		.ascii	"\227\347\333\204w/\236\312\262\212n\032\304\034\005"
ARM GAS  /tmp/cck4EbAu.s 			page 15


 202      772F9ECA 
 202      B28A6E1A 
 202      C41C05
 203 0218 7F5F73D8 		.ascii	"\177_s\330\256\214>4{h\036\034\303Jl\332\266\375\336"
 203      AE8C3E34 
 203      7B681E1C 
 203      C34A6CDA 
 203      B6FDDE
 204 022b 23306503 		.ascii	"#0e\003-\006fM\245\015\354(q3\266Qs\002\272\245E\357"
 204      2D06664D 
 204      A50DEC28 
 204      7133B651 
 204      7302BAA5 
 205 0241 74C6E8E5 		.ascii	"t\306\350\345\332d\236\001F\333\223>\374%\236\215\034"
 205      DA649E01 
 205      46DB933E 
 205      FC259E8D 
 205      1C
 206 0252 3EFC1524 		.ascii	">\374\025$\275\017\177C\377\277\205\377\214\011\233"
 206      BD0F7F43 
 206      FFBF85FF 
 206      8C099B
 207 0261 D4127626 		.ascii	"\324\022v&\332.\037\277J\026\350f*\225\303\374\027P"
 207      DA2E1FBF 
 207      4A16E866 
 207      2A95C3FC 
 207      1750
 208 0273 A3A044AA 		.ascii	"\243\240D\252\265y\344:??f\241/dy3\021Ur\255\225\212"
 208      B579E43A 
 208      3F3F66A1 
 208      2F647933 
 208      115572AD 
 209 0289 EDC333D1 		.ascii	"\355\3033\321\367y\026hL\024=\206\232I\036\034j\250"
 209      F7791668 
 209      4C143D86 
 209      9A491E1C 
 209      6AA8
 210 029b A48B8DB8 		.ascii	"\244\213\215\270\332E\213\250p\236\373\261\240w\236"
 210      DA458BA8 
 210      709EFBB1 
 210      A0779E
 211 02aa 70ED50B9 		.ascii	"p\355P\271\232Rh\341\024\033\207\017\362\024\322\222"
 211      9A5268E1 
 211      141B870F 
 211      F214D292 
 212 02ba 4640DFA9 		.ascii	"F@\337\251>\3665\255P (OY\356hpS\213D\343\000\3604."
 212      3EF635AD 
 212      5020284F 
 212      59EE6870 
 212      538B44E3 
 213 02d2 C1A1F4B4 		.ascii	"\301\241\364\264\032\306L\253+\015\255N\225\326m\267"
 213      1AC64CAB 
 213      2B0DAD4E 
 213      95D66DB7 
 214 02e2 8155C2C0 		.ascii	"\201U\302\300\352\360(VGl\202\265\276\220\305@@gT\363"
 214      EAF02856 
 214      476C82B5 
ARM GAS  /tmp/cck4EbAu.s 			page 16


 214      BE90C540 
 214      406754F3 
 215 02f6 C860DDE8 		.ascii	"\310`\335\350\363\261Q\326\177\032m} \221X\233\034\263"
 215      F3B151D6 
 215      7F1A6D7D 
 215      2091589B 
 215      1CB3
 216 0308 CF3DE6DD 		.ascii	"\317=\346\335L\222\321a\330\333\272\311=8\337\020\037"
 216      4C92D161 
 216      D8DBBAC9 
 216      3D38DF10 
 216      1F
 217 0319 F83EA47A 		.ascii	"\370>\244z\320~\372\307NC)\343\303'\356\027\315\336"
 217      D07EFAC7 
 217      4E4329E3 
 217      C327EE17 
 217      CDDE
 218 032b 743405F5 		.ascii	"t4\005\365\255|\024\255[Z:\3150r\372m\014\234l\017\302"
 218      AD7C14AD 
 218      5B5A3ACD 
 218      3072FA6D 
 218      0C9C6C0F 
 219 0340 53E93861 		.ascii	"S\3518a\003\213u\016\205E\347v\303\315\354\303g\376"
 219      038B750E 
 219      8545E776 
 219      C3CDECC3 
 219      67FE
 220 0352 378D5CB4 		.ascii	"7\215\\\264\236\034\211\003\353\344w\360r\355\034\311"
 220      9E1C8903 
 220      EBE477F0 
 220      72ED1CC9 
 221 0362 550991A0 		.ascii	"U\011\221\240\353\257\345s8\027\26079\310wSm\311\301"
 221      EBAFE573 
 221      3817B037 
 221      39C87753 
 221      6DC9C1
 222 0375 89046945 		.ascii	"\211\004iE\332X\035b\273\243\252\337\3543\\P\33220S"
 222      DA581D62 
 222      BBA3AADF 
 222      EC335C50 
 222      DA323053 
 223 0389 86086C51 		.ascii	"\206\010lQ#\320\272\367Z\227\333H\343\374\375J\217A"
 223      23D0BAF7 
 223      5A97DB48 
 223      E3FCFD4A 
 223      8F41
 224 039b FB2CA6E9 		.ascii	"\373,\246\351a\312i\003\313\375*\313\366\241\247\214"
 224      61CA6903 
 224      CBFD2ACB 
 224      F6A1A78C 
 225 03ab 1C2F1A39 		.ascii	"\034/\0329>\202v\310\035\307\341\036\253\224\007R\251"
 225      3E8276C8 
 225      1DC7E11E 
 225      AB940752 
 225      A9
 226 03bc 994A99D7 		.ascii	"\231J\231\327\243\271\331\334\213\255K\270K\334\332"
 226      A3B9D9DC 
ARM GAS  /tmp/cck4EbAu.s 			page 17


 226      8BAD4BB8 
 226      4BDCDA
 227 03cb 3CD42A6F 		.ascii	"<\324*o\250`\332\374\312(\322J\027v{(\367\377Q\201_"
 227      A860DAFC 
 227      CA28D24A 
 227      17767B28 
 227      F7FF5181 
 228 03e0 2445FC5A 		.ascii	"$E\374ZS\211\\M$\344$#2\021%x\005\251\336\240\035\364"
 228      53895C4D 
 228      24E42423 
 228      32112578 
 228      05A9DEA0 
 229 03f6 06B58D5B 		.ascii	"\006\265\215[y\332\373S\263\305C\247\304\342/<\321\234"
 229      79DAFB53 
 229      B3C543A7 
 229      C4E22F3C 
 229      D19C
 230 0408 4B6A084F 		.ascii	"Kj\010O\350\026\372\363\237\237\324\224\256j\001$\234"
 230      E816FAF3 
 230      9F9FD494 
 230      AE6A0124 
 230      9C
 231 0419 7775A8C1 		.ascii	"wu\250\301\3438\311\012\023i\245,\205\205\327\227ZP"
 231      E338C90A 
 231      1369A52C 
 231      8585D797 
 231      5A50
 232 042b 3F2BFC0B 		.ascii	"?+\374\013)d\037@\246\253\234M\202>|\035\223\020\336"
 232      29641F40 
 232      A6AB9C4D 
 232      823E7C1D 
 232      9310DE
 233 043e 485BC3DE 		.ascii	"H[\303\336\320\325\260\375ikX\247U\325\304K\302\201"
 233      D0D5B0FD 
 233      696B58A7 
 233      55D5C44B 
 233      C281
 234 0450 E60E7793 		.ascii	"\346\016w\223+\363\306T\305e\267\333J\332\207\377\205"
 234      2BF3C654 
 234      C565B7DB 
 234      4ADA87FF 
 234      85
 235 0461 22C2876F 		.ascii	"\"\302\207ocVv\024icu\230\302\304\371s6\333;\223\266"
 235      63567614 
 235      69637598 
 235      C2C4F973 
 235      36DB3B93 
 236 0476 75428CE8 		.ascii	"uB\214\350k\347\363tII\200\006\377\311\271\267\352\331"
 236      6BE7F374 
 236      49498006 
 236      FFC9B9B7 
 236      EAD9
 237 0488 54D61DB4 		.ascii	"T\326\035\264-\353dAG\342\017\225\304\345\223\331\367"
 237      2DEB6441 
 237      47E20F95 
 237      C4E593D9 
 237      F7
ARM GAS  /tmp/cck4EbAu.s 			page 18


 238 0499 56F232CB 		.ascii	"V\3622\313\002\272\242\232\034\316\340V\33220\215\305"
 238      02BAA29A 
 238      1CCEE056 
 238      DA32308D 
 238      C5
 239 04aa 1BAAC5DB 		.ascii	"\033\252\305\333c\262XbZ8\266\025\235>|\223V\217)\372"
 239      63B25862 
 239      5A38B615 
 239      9D3E7C93 
 239      568F29FA 
 240 04be DF2090FF 		.ascii	"\337 \220\377w\205\214\225\244)\310\303@\307:\310\215"
 240      77858C95 
 240      A429C8C3 
 240      40C73AC8 
 240      8D
 241 04cf 5A904D66 		.ascii	"Z\220Mf+Ldu\333\224\251Y\011\372\360z\201\035\0204\325"
 241      2B4C6475 
 241      DB94A959 
 241      09FAF07A 
 241      811D1034 
 242 04e4 65950988 		.ascii	"e\225\011\210X\023\331 h\311Z\220\247\037\351\223[\223"
 242      5813D920 
 242      68C95A90 
 242      A71FE993 
 242      5B93
 243 04f6 8370DFD1 		.ascii	"\203p\337\321\235\266'\216,\266\346\363\236`<n\377\206"
 243      9DB6278E 
 243      2CB6E6F3 
 243      9E603C6E 
 243      FF86
 244 0508 034CD096 		.ascii	"\003L\320\226s\015\032\221\335\314'L\317S\375\301>L"
 244      730D1A91 
 244      DDCC274C 
 244      CF53FDC1 
 244      3E4C
 245 051a 0FF60F9C 		.ascii	"\017\366\017\234\012\324\340\326K\352\301n:a\010\324"
 245      0AD4E0D6 
 245      4BEAC16E 
 245      3A6108D4 
 246 052a 46809A81 		.ascii	"F\200\232\201>vn\223s\015\220\304\014_P\012gX$\345\244"
 246      3E766E93 
 246      730D90C4 
 246      0C5F500A 
 246      675824E5 
 247 053f 6D72B1DD 		.ascii	"mr\261\335\251\330\037\320\354\027s\373\233\357\"\264"
 247      A9D81FD0 
 247      EC1773FB 
 247      9BEF22B4 
 248 054f 1F5A8676 		.ascii	"\037Z\206vZ\206T\362\341MZ~\340\031\250\005\374j\252"
 248      5A8654F2 
 248      E14D5A7E 
 248      E019A805 
 248      FC6AAA
 249 0562 E02C2E6F 		.ascii	"\340,.ouQ\221\024\367)\227m\003\314\212\363\341b:I\262"
 249      75519114 
 249      F729976D 
 249      03CC8AF3 
ARM GAS  /tmp/cck4EbAu.s 			page 19


 249      E1623A49 
 250 0577 B648DBCC 		.ascii	"\266H\333\314,\201\215\322\244\254\355\234N!h\221\246"
 250      2C818DD2 
 250      A4ACED9C 
 250      4E216891 
 250      A6
 251 0588 9061CEAB 		.ascii	"\220a\316\253\011jJ\353\036\333\263c\213F\333\244w\005"
 251      096A4AEB 
 251      1EDBB363 
 251      8B46DBA4 
 251      7705
 252 059a D6DE5AAF 		.ascii	"\326\336Z\257\311R\257\327\026\357\023K\275S\266z\237"
 252      C952AFD7 
 252      16EF134B 
 252      BD53B67A 
 252      9F
 253 05ab 5AEAF5DB 		.ascii	"Z\352\365\333\352}f\2517h\253\267\325R\257\313Vo\233"
 253      EA7D66A9 
 253      3768ABB7 
 253      D552AFCB 
 253      566F9B
 254 05be EE98185F 		.ascii	"\356\230\030_'\326Eb\253\375\321H\244\326/e\277\360"
 254      27D64562 
 254      ABFDD148 
 254      A4D62F65 
 254      BFF0
 255 05d0 F2EB25CF 		.ascii	"\362\353%\317\242Y\036\217\227\375\"qoL\362\326\204"
 255      A2591E8F 
 255      97FD2271 
 255      6F4CF2D6 
 255      84
 256 05e1 83B5F521 		.ascii	"\203\265\365!\321\033\254\006i\"\031\367T\243|\252R"
 256      D11BAC06 
 256      692219F7 
 256      54A37CAA 
 256      52
 257 05f2 2D064262 		.ascii	"-\006Bb,'Z\355\017\213\253\244\234\272(}f\307k\326\210"
 257      2C275AED 
 257      0F8BABA4 
 257      9CBA287D 
 257      66C76BD6 
 258 0607 7EE94D6F 		.ascii	"~\351Mo$*y\027\275\272\330\273,\030,\015\304\352J\303"
 258      242A7917 
 258      BDBAD8BB 
 258      2C182C0D 
 258      C4EA4AC3 
 259 061b 91B0582A 		.ascii	"\221\260X*\006\252jJ\347\373\027\224>1\267l\336\362"
 259      06AA6A4A 
 259      E7FB1794 
 259      3E31B76C 
 259      DEF2
 260 062d 79DEAA9A 		.ascii	"y\336\252\2320\301\252\255\251\"r^\203\234w\276g\201"
 260      30C1AAAD 
 260      A922725E 
 260      839C77BE 
 260      6781
 261 063f 67BECA20 		.ascii	"g\276\312 .\205B\342R@w\001R\244\352m1(\371\011V\001"
ARM GAS  /tmp/cck4EbAu.s 			page 20


 261      2E8542E2 
 261      52407701 
 261      52A4EA6D 
 261      3128F909 
 262 0655 105B264A 		.ascii	"\020[&JK\353\303A\277\364\250\035\375`$&\022\366\240"
 262      4BEBC341 
 262      BFF4A81D 
 262      FD602426 
 262      12F6A0
 263 0668 1F8D4556 		.ascii	"\037\215EV\324\000\373\361\341\372\332Z\365m\272\252"
 263      D400FBF1 
 263      E1FADA5A 
 263      F56DBAAA 
 264 0678 2D897189 		.ascii	"-\211q\211\350\223'\363:\210\234\024\215\276\225\371"
 264      E89327F3 
 264      3A889C14 
 264      8DBE95F9 
 265 0688 E3A2541F 		.ascii	"\343\242T\037\235\302_\304Ub\260^\022=\321@L\362\314"
 265      9DC25FC4 
 265      5562B05E 
 265      123DD140 
 265      4CF2CC
 266 069b 7519BF16 		.ascii	"u\031\277\026\006\253\227\300\207W(\343\027\3035\322"
 266      06AB97C0 
 266      875728E3 
 266      17C335D2 
 267 06ab 38F6E1F9 		.ascii	"8\366\341\371\230(\346\263\341\242\332\332H0\313\377"
 267      9828E6B3 
 267      E1A2DADA 
 267      4830CBFF 
 268 06bb 0C0C0BFC 		.ascii	"\014\014\013\374\004\322\037\210\307\305\230\344N\313"
 268      04D21F88 
 268      C7C598E4 
 268      4ECB
 269 06c9 075C98C0 		.ascii	"\007\\\230\300\364^\212\004B\213b\261\300jG]\264LX\031"
 269      F45E8A04 
 269      428B62B1 
 269      C06A475D 
 269      B44C5819 
 270 06dd C825D3C1 		.ascii	"\310%\323\301@\\t\006\253\0031g8P'fQ\2420\021\210\205"
 270      405C7406 
 270      AB033167 
 270      38502766 
 270      51A23011 
 271 06f3 222BC339 		.ascii	"\"+\3039\234TA4 Ib,L\251\216S\275,\233\344\211EB\001"
 271      9C544134 
 271      2049622C 
 271      4CA98E53 
 271      BD2C9BE4 
 272 070b 29E0D13E 		.ascii	")\340\321>\025/\246iRB\000\343\217\227,\257\027\353"
 272      152FA669 
 272      524200E3 
 272      8F972CAF 
 272      17EB
 273 071d 456F48A4 		.ascii	"EoH\244O\364\037\336\253!g"
 273      4FF41FDE 
 273      AB2167
ARM GAS  /tmp/cck4EbAu.s 			page 21


 274              		.text
 275              		.section	.gnu.lto_.symtab.d0595e528d060c13,"",%progbits
 276 0000 6368506F 		.ascii	"chPoolObjectInit\000\000\002\000\000\000\000\000\000"
 276      6F6C4F62 
 276      6A656374 
 276      496E6974 
 276      00000200 
 277 0019 000000CC 		.ascii	"\000\000\000\314\000\000\000chPoolFree\000\000\002\000"
 277      00000063 
 277      68506F6F 
 277      6C467265 
 277      65000002 
 278 002e 00000000 		.ascii	"\000\000\000\000\000\000\000\000\322\000\000\000chP"
 278      00000000 
 278      D2000000 
 278      636850
 279 003d 6F6F6C41 		.ascii	"oolAlloc\000\000\002\000\000\000\000\000\000\000\000"
 279      6C6C6F63 
 279      00000200 
 279      00000000 
 279      000000
 280 0050 00D70000 		.ascii	"\000\327\000\000\000_test_assert\000\000\002\000\000"
 280      005F7465 
 280      73745F61 
 280      73736572 
 280      74000002 
 281 0066 00000000 		.ascii	"\000\000\000\000\000\000\000\333\000\000\000chPoolL"
 281      000000DB 
 281      00000063 
 281      68506F6F 
 281      6C4C
 282 0078 6F616441 		.ascii	"oadArray\000\000\002\000\000\000\000\000\000\000\000"
 282      72726179 
 282      00000200 
 282      00000000 
 282      000000
 283 008b 00E30000 		.ascii	"\000\343\000\000\000patternpools\000\000\000\000\000"
 283      00706174 
 283      7465726E 
 283      706F6F6C 
 283      73000000 
 284 00a1 00000000 		.ascii	"\000\000\000\000\000\000\000\361\000\000\000testpoo"
 284      000000F1 
 284      00000074 
 284      65737470 
 284      6F6F
 285 00b3 6C733100 		.ascii	"ls1\000\000\000\000\000\000\000\000\000\000\000\000"
 285      00000000 
 285      00000000 
 285      000000
 286 00c2 0C010000 		.ascii	"\014\001\000\000wa\000\000\002\000\000\000\000\000\000"
 286      77610000 
 286      02000000 
 286      000000
 287 00d1 000000EC 		.ascii	"\000\000\000\354\000\000\000"
 287      000000
 288              		.text
ARM GAS  /tmp/cck4EbAu.s 			page 22


 289              		.section	.gnu.lto_.opts,"",%progbits
 290 0000 272D6D63 		.ascii	"'-mcpu=cortex-m3''-mno-thumb-interwork''-mthumb''-g"
 290      70753D63 
 290      6F727465 
 290      782D6D33 
 290      27272D6D 
 291 0033 67646227 		.ascii	"gdb''-O2''-fomit-frame-pointer''-falign-functions=1"
 291      272D4F32 
 291      27272D66 
 291      6F6D6974 
 291      2D667261 
 292 0066 3627272D 		.ascii	"6''-ffunction-sections''-fdata-sections''-fno-commo"
 292      6666756E 
 292      6374696F 
 292      6E2D7365 
 292      6374696F 
 293 0099 6E27272D 		.ascii	"n''-flto'\000"
 293      666C746F 
 293      2700
 294              		.text
 295              		.cfi_sections	.debug_frame
 296              		.section	.text.null_provider,"ax",%progbits
 297              		.align	2
 298              		.p2align 4,,15
 299              		.thumb
 300              		.thumb_func
 301              		.type	null_provider, %function
 302              	null_provider:
 303              	.LFB165:
 304              		.file 1 "../../../test/rt/testpools.c"
 305              		.loc 1 60 0
 306              		.cfi_startproc
 307              		@ args = 0, pretend = 0, frame = 0
 308              		@ frame_needed = 0, uses_anonymous_args = 0
 309              		@ link register save eliminated.
 310              	.LVL0:
 311              		.loc 1 64 0
 312 0000 0020     		movs	r0, #0
 313              	.LVL1:
 314 0002 7047     		bx	lr
 315              		.cfi_endproc
 316              	.LFE165:
 317              		.size	null_provider, .-null_provider
 318 0004 AFF30080 		.section	.text.pools1_setup,"ax",%progbits
 318      AFF30080 
 318      AFF30080 
 319              		.align	2
 320              		.p2align 4,,15
 321              		.thumb
 322              		.thumb_func
 323              		.type	pools1_setup, %function
 324              	pools1_setup:
 325              	.LFB166:
 326              		.loc 1 66 0
 327              		.cfi_startproc
 328              		@ args = 0, pretend = 0, frame = 0
 329              		@ frame_needed = 0, uses_anonymous_args = 0
ARM GAS  /tmp/cck4EbAu.s 			page 23


 330              		@ link register save eliminated.
 331              		.loc 1 68 0
 332 0000 40F20000 		movw	r0, #:lower16:.LANCHOR0
 333 0004 C0F20000 		movt	r0, #:upper16:.LANCHOR0
 334 0008 4FF4A471 		mov	r1, #328
 335 000c 0022     		movs	r2, #0
 336              		.loc 1 69 0
 337              		.loc 1 68 0
 338 000e FFF7FEBF 		b	chPoolObjectInit
 339              	.LVL2:
 340              		.cfi_endproc
 341              	.LFE166:
 342              		.size	pools1_setup, .-pools1_setup
 343 0012 00BFAFF3 		.section	.text.pools1_execute,"ax",%progbits
 343      0080AFF3 
 343      0080AFF3 
 343      0080
 344              		.align	2
 345              		.p2align 4,,15
 346              		.thumb
 347              		.thumb_func
 348              		.type	pools1_execute, %function
 349              	pools1_execute:
 350              	.LFB167:
 351              		.loc 1 71 0
 352              		.cfi_startproc
 353              		@ args = 0, pretend = 0, frame = 0
 354              		@ frame_needed = 0, uses_anonymous_args = 0
 355 0000 38B5     		push	{r3, r4, r5, lr}
 356              	.LCFI0:
 357              		.cfi_def_cfa_offset 16
 358              		.cfi_offset 3, -16
 359              		.cfi_offset 4, -12
 360              		.cfi_offset 5, -8
 361              		.cfi_offset 14, -4
 362              		.loc 1 75 0
 363 0002 574C     		ldr	r4, .L9
 364 0004 0522     		movs	r2, #5
 365 0006 2568     		ldr	r5, [r4, #0]
 366 0008 5648     		ldr	r0, .L9+4
 367 000a 2946     		mov	r1, r5
 368 000c FFF7FEFF 		bl	chPoolLoadArray
 369              	.LVL3:
 370              		.loc 1 79 0
 371 0010 5448     		ldr	r0, .L9+4
 372 0012 FFF7FEFF 		bl	chPoolAlloc
 373              	.LVL4:
 374 0016 011C     		adds	r1, r0, #0
 375 0018 18BF     		it	ne
 376 001a 0121     		movne	r1, #1
 377 001c 0120     		movs	r0, #1
 378 001e FFF7FEFF 		bl	_test_assert
 379              	.LVL5:
 380 0022 0028     		cmp	r0, #0
 381 0024 40F08A80 		bne	.L3
 382              	.LVL6:
 383 0028 4E48     		ldr	r0, .L9+4
ARM GAS  /tmp/cck4EbAu.s 			page 24


 384 002a FFF7FEFF 		bl	chPoolAlloc
 385              	.LVL7:
 386 002e 011C     		adds	r1, r0, #0
 387 0030 18BF     		it	ne
 388 0032 0121     		movne	r1, #1
 389 0034 0120     		movs	r0, #1
 390 0036 FFF7FEFF 		bl	_test_assert
 391              	.LVL8:
 392 003a 0028     		cmp	r0, #0
 393 003c 7ED1     		bne	.L3
 394              	.LVL9:
 395 003e 4948     		ldr	r0, .L9+4
 396 0040 FFF7FEFF 		bl	chPoolAlloc
 397              	.LVL10:
 398 0044 011C     		adds	r1, r0, #0
 399 0046 18BF     		it	ne
 400 0048 0121     		movne	r1, #1
 401 004a 0120     		movs	r0, #1
 402 004c FFF7FEFF 		bl	_test_assert
 403              	.LVL11:
 404 0050 0028     		cmp	r0, #0
 405 0052 73D1     		bne	.L3
 406              	.LVL12:
 407 0054 4348     		ldr	r0, .L9+4
 408 0056 FFF7FEFF 		bl	chPoolAlloc
 409              	.LVL13:
 410 005a 011C     		adds	r1, r0, #0
 411 005c 18BF     		it	ne
 412 005e 0121     		movne	r1, #1
 413 0060 0120     		movs	r0, #1
 414 0062 FFF7FEFF 		bl	_test_assert
 415              	.LVL14:
 416 0066 0028     		cmp	r0, #0
 417 0068 68D1     		bne	.L3
 418              	.LVL15:
 419 006a 3E48     		ldr	r0, .L9+4
 420 006c FFF7FEFF 		bl	chPoolAlloc
 421              	.LVL16:
 422 0070 011C     		adds	r1, r0, #0
 423 0072 18BF     		it	ne
 424 0074 0121     		movne	r1, #1
 425 0076 0120     		movs	r0, #1
 426 0078 FFF7FEFF 		bl	_test_assert
 427              	.LVL17:
 428 007c 0028     		cmp	r0, #0
 429 007e 5DD1     		bne	.L3
 430              	.LVL18:
 431              		.loc 1 82 0
 432 0080 3848     		ldr	r0, .L9+4
 433 0082 FFF7FEFF 		bl	chPoolAlloc
 434              	.LVL19:
 435 0086 D0F10101 		rsbs	r1, r0, #1
 436 008a 38BF     		it	cc
 437 008c 0021     		movcc	r1, #0
 438 008e 0220     		movs	r0, #2
 439 0090 FFF7FEFF 		bl	_test_assert
 440              	.LVL20:
ARM GAS  /tmp/cck4EbAu.s 			page 25


 441 0094 0028     		cmp	r0, #0
 442 0096 51D1     		bne	.L3
 443              	.LBB4:
 444              	.LBB5:
 445              		.loc 1 86 0
 446 0098 3248     		ldr	r0, .L9+4
 447 009a 2946     		mov	r1, r5
 448 009c FFF7FEFF 		bl	chPoolFree
 449              	.LVL21:
 450 00a0 3048     		ldr	r0, .L9+4
 451 00a2 6168     		ldr	r1, [r4, #4]
 452 00a4 FFF7FEFF 		bl	chPoolFree
 453              	.LVL22:
 454 00a8 2E48     		ldr	r0, .L9+4
 455 00aa A168     		ldr	r1, [r4, #8]
 456 00ac FFF7FEFF 		bl	chPoolFree
 457              	.LVL23:
 458 00b0 2C48     		ldr	r0, .L9+4
 459 00b2 E168     		ldr	r1, [r4, #12]
 460 00b4 FFF7FEFF 		bl	chPoolFree
 461              	.LVL24:
 462 00b8 2169     		ldr	r1, [r4, #16]
 463 00ba 2A48     		ldr	r0, .L9+4
 464 00bc FFF7FEFF 		bl	chPoolFree
 465              	.LVL25:
 466              		.loc 1 90 0
 467 00c0 2848     		ldr	r0, .L9+4
 468 00c2 FFF7FEFF 		bl	chPoolAlloc
 469              	.LVL26:
 470 00c6 011C     		adds	r1, r0, #0
 471 00c8 18BF     		it	ne
 472 00ca 0121     		movne	r1, #1
 473 00cc 0320     		movs	r0, #3
 474 00ce FFF7FEFF 		bl	_test_assert
 475              	.LVL27:
 476 00d2 0028     		cmp	r0, #0
 477 00d4 32D1     		bne	.L3
 478              	.LVL28:
 479 00d6 2348     		ldr	r0, .L9+4
 480 00d8 FFF7FEFF 		bl	chPoolAlloc
 481              	.LVL29:
 482 00dc 011C     		adds	r1, r0, #0
 483 00de 18BF     		it	ne
 484 00e0 0121     		movne	r1, #1
 485 00e2 0320     		movs	r0, #3
 486 00e4 FFF7FEFF 		bl	_test_assert
 487              	.LVL30:
 488 00e8 40BB     		cbnz	r0, .L3
 489              	.LVL31:
 490 00ea 1E48     		ldr	r0, .L9+4
 491 00ec FFF7FEFF 		bl	chPoolAlloc
 492              	.LVL32:
 493 00f0 011C     		adds	r1, r0, #0
 494 00f2 18BF     		it	ne
 495 00f4 0121     		movne	r1, #1
 496 00f6 0320     		movs	r0, #3
 497 00f8 FFF7FEFF 		bl	_test_assert
ARM GAS  /tmp/cck4EbAu.s 			page 26


 498              	.LVL33:
 499 00fc F0B9     		cbnz	r0, .L3
 500              	.LVL34:
 501 00fe 1948     		ldr	r0, .L9+4
 502 0100 FFF7FEFF 		bl	chPoolAlloc
 503              	.LVL35:
 504 0104 011C     		adds	r1, r0, #0
 505 0106 18BF     		it	ne
 506 0108 0121     		movne	r1, #1
 507 010a 0320     		movs	r0, #3
 508 010c FFF7FEFF 		bl	_test_assert
 509              	.LVL36:
 510 0110 A0B9     		cbnz	r0, .L3
 511              	.LVL37:
 512 0112 1448     		ldr	r0, .L9+4
 513 0114 FFF7FEFF 		bl	chPoolAlloc
 514              	.LVL38:
 515 0118 011C     		adds	r1, r0, #0
 516 011a 18BF     		it	ne
 517 011c 0121     		movne	r1, #1
 518 011e 0320     		movs	r0, #3
 519 0120 FFF7FEFF 		bl	_test_assert
 520              	.LVL39:
 521 0124 50B9     		cbnz	r0, .L3
 522              	.LVL40:
 523              		.loc 1 93 0
 524 0126 0F48     		ldr	r0, .L9+4
 525 0128 FFF7FEFF 		bl	chPoolAlloc
 526              	.LVL41:
 527 012c D0F10101 		rsbs	r1, r0, #1
 528 0130 38BF     		it	cc
 529 0132 0021     		movcc	r1, #0
 530 0134 0420     		movs	r0, #4
 531 0136 FFF7FEFF 		bl	_test_assert
 532              	.LVL42:
 533 013a 00B1     		cbz	r0, .L8
 534              	.LVL43:
 535              	.L3:
 536 013c 38BD     		pop	{r3, r4, r5, pc}
 537              	.LVL44:
 538              	.L8:
 539              		.loc 1 96 0
 540 013e 1021     		movs	r1, #16
 541 0140 094A     		ldr	r2, .L9+8
 542 0142 0848     		ldr	r0, .L9+4
 543 0144 FFF7FEFF 		bl	chPoolObjectInit
 544              	.LVL45:
 545              		.loc 1 97 0
 546 0148 0648     		ldr	r0, .L9+4
 547 014a FFF7FEFF 		bl	chPoolAlloc
 548              	.LVL46:
 549 014e D0F10101 		rsbs	r1, r0, #1
 550 0152 38BF     		it	cc
 551 0154 0021     		movcc	r1, #0
 552 0156 0520     		movs	r0, #5
 553              	.LBE5:
 554              	.LBE4:
ARM GAS  /tmp/cck4EbAu.s 			page 27


 555              		.loc 1 98 0
 556 0158 BDE83840 		pop	{r3, r4, r5, lr}
 557              	.LBB7:
 558              	.LBB6:
 559              		.loc 1 97 0
 560 015c FFF7FEBF 		b	_test_assert
 561              	.LVL47:
 562              	.L10:
 563              		.align	2
 564              	.L9:
 565 0160 00000000 		.word	wa
 566 0164 00000000 		.word	.LANCHOR0
 567 0168 00000000 		.word	null_provider
 568              	.LBE6:
 569              	.LBE7:
 570              		.cfi_endproc
 571              	.LFE167:
 572              		.size	pools1_execute, .-pools1_execute
 573              		.global	patternpools
 574              		.global	testpools1
 575 016c AFF30080 		.section	.rodata.str1.4,"aMS",%progbits,1
 576              		.align	2
 577              	.LC0:
 578 0000 4D656D6F 		.ascii	"Memory Pools, queue/dequeue\000"
 578      72792050 
 578      6F6F6C73 
 578      2C207175 
 578      6575652F 
 579              		.section	.rodata.patternpools,"a",%progbits
 580              		.align	2
 581              		.type	patternpools, %object
 582              		.size	patternpools, 8
 583              	patternpools:
 584 0000 00000000 		.word	testpools1
 585 0004 00000000 		.word	0
 586              		.section	.data.mp1,"aw",%progbits
 587              		.align	2
 588              		.set	.LANCHOR0,. + 0
 589              		.type	mp1, %object
 590              		.size	mp1, 12
 591              	mp1:
 592 0000 00000000 		.word	0
 593 0004 48010000 		.word	328
 594 0008 00000000 		.word	0
 595              		.section	.rodata.testpools1,"a",%progbits
 596              		.align	2
 597              		.type	testpools1, %object
 598              		.size	testpools1, 16
 599              	testpools1:
 600 0000 00000000 		.word	.LC0
 601 0004 00000000 		.word	pools1_setup
 602 0008 00000000 		.word	0
 603 000c 00000000 		.word	pools1_execute
 604              		.text
 605              	.Letext0:
 606              		.file 2 "../../../os/rt/include/chschd.h"
 607              		.file 3 "/opt/ARM/gcc-arm-none-eabi-4_7-2013q3/bin/../lib/gcc/arm-none-eabi/4.7.4/include/stddef.h
ARM GAS  /tmp/cck4EbAu.s 			page 28


 608              		.file 4 "/opt/ARM/gcc-arm-none-eabi-4_7-2013q3/bin/../lib/gcc/arm-none-eabi/4.7.4/../../../../arm-
 609              		.file 5 "../../../os/rt/ports/ARMCMx/compilers/GCC/chtypes.h"
 610              		.file 6 "../../../os/rt/ports/ARMCMx/chcore.h"
 611              		.file 7 "../../../os/rt/ports/ARMCMx/chcore_v7m.h"
 612              		.file 8 "../../../os/rt/include/chmtx.h"
 613              		.file 9 "../../../os/rt/include/chmemcore.h"
 614              		.file 10 "../../../os/rt/include/chmempools.h"
 615              		.file 11 "../../../test/rt/test.h"
 616              		.file 12 "../../../os/ext/CMSIS/include/core_cm3.h"