ARM GAS  /tmp/ccP24VBg.s 			page 1


   1              		.syntax unified
   2              		.cpu cortex-m3
   3              		.fpu softvfp
   4              		.eabi_attribute 20, 1
   5              		.eabi_attribute 21, 1
   6              		.eabi_attribute 23, 3
   7              		.eabi_attribute 24, 1
   8              		.eabi_attribute 25, 1
   9              		.eabi_attribute 26, 1
  10              		.eabi_attribute 30, 2
  11              		.eabi_attribute 34, 1
  12              		.eabi_attribute 18, 4
  13              		.thumb
  14              		.file	"testmbox.c"
  15              		.text
  16              	.Ltext0:
  17              		.section	.gnu.lto_.jmpfuncs.7a7b32ca3407265d,"",%progbits
  18 0000 789C7D93 		.ascii	"x\234}\2239O\002A\024\307\337\333\345\366\276A\021/"
  18      394F0241 
  18      14C7DFDB 
  18      E5F6BE41 
  18      112F
  19 0012 541484AF 		.ascii	"T\024\204\257 \327w\260\242\320lAaL\224\302XY\372\021"
  19      20D777B0 
  19      A2D06C41 
  19      614C94C2 
  19      5859FA11 
  20 0026 3040E83C 		.ascii	"0@\350<P)(\214ZX\021+J\012\013*ciicb\202\273\213\316"
  20      5029288C 
  20      5A58112B 
  20      4A0A0B2A 
  20      63696963 
  21 003f DB9D1924 		.ascii	"\333\235\031$\223\314?\314\357]\377\007\012 \270A\376"
  21      93CC3FCC 
  21      EF5DFF07 
  21      0A20B841 
  21      FE
  22 0050 39760284 		.ascii	"9v\002\204\365[\321\217\022\000\015\001\022$\343$\267"
  22      F55BD18F 
  22      12000D01 
  22      1224E324 
  22      B7
  23 0061 48C60050 		.ascii	"H\306\000P9\201\257S\217\206\210y\204\227\233\313a\240"
  23      3981AF53 
  23      8F868879 
  23      84979BCB 
  23      61A0
  24 0073 F728C94D 		.ascii	"\367(\311M\222\033$#`\206\3735T0\004\241\312iq[C\025"
  24      921B2423 
  24      6086FB35 
  24      543004A1 
  24      CA69715B 
  25 0089 3A8F4616 		.ascii	":\217F\026d\330\272\021a\255\363\371\360\204`)\264F"
  25      64D8BA11 
  25      61ADF3F9 
  25      F0846029 
  25      B446
ARM GAS  /tmp/ccP24VBg.s 			page 2


  26 009b 7295679B 		.ascii	"r\225g\233\017o\006k>; \311\300\260\2204AX\212a+<\366"
  26      0F6F066B 
  26      3E3B20C9 
  26      C0B09034 
  26      41588A61 
  27 00b2 6EC1D20C 		.ascii	"n\301\322\014[\346\261\266\005\3130lI\350\316\202e\031"
  27      5BE6B1B6 
  27      05CB306C 
  27      49E8CE82 
  27      6519
  28 00c4 B648F32C 		.ascii	"\266H\363,\220\014\221\234\227\033\327\256\333\215\013"
  28      900C919C 
  28      971BD7AE 
  28      DB8D0B
  29 00d3 F2E53EEE 		.ascii	"\362\345>\356\354\306\315\221\234\345\331\357\333:\312"
  29      ECC6CD91 
  29      9CE5D9EF 
  29      DB3ACA
  30 00e2 9A0B0849 		.ascii	"\232\013\010Ic\262Q\375<\326\211\311\214\233\341\261"
  30      63B251FD 
  30      3CD689C9 
  30      8C9BE1B1 
  31 00f2 564CB686 		.ascii	"VL\266\206i\241\273\250l\251S4\317$\311\011\222\343"
  31      69A1BBA8 
  31      6CA95334 
  31      CF24C909 
  31      92E3
  32 0104 C2026A0D 		.ascii	"\302\002j\015\233#c\000\252}\272\353z\0170\336\235\026"
  32      9B236300 
  32      AA7DBAEB 
  32      7A0F30DE 
  32      9D16
  33 0116 73472968 		.ascii	"sG)h\204\344\260\020\037a\321.\350vUF\016\361d\347\252"
  33      84E4B010 
  33      1F61D12E 
  33      E8765546 
  33      0EF164E7 
  34 012b 867DD841 		.ascii	"\206}\330A\371\276?\253\366}\017\360)\333\325\373~)"
  34      F9BE3FAB 
  34      F67D0FF0 
  34      29DBD5FB 
  34      7E29
  35 013d 7DD4B397 		.ascii	"}\324\263\227\244\207\244[X`\305\372O\332a\240\213\257"
  35      A487A45B 
  35      5860C5FA 
  35      4FDA61A0 
  35      8BAF
  36 014f DAAC3CDB 		.ascii	"\332\254<\333A\336:\247\360\023*\327\245\251\035\302"
  36      41DE3AA7 
  36      F0132AD7 
  36      A5A91DC2 
  37 015f 40E5DAFF 		.ascii	"@\345\332\377\251U>\342\275dm&)\263B\341cZ\245F?\333"
  37      A9553EE2 
  37      BD646D26 
  37      29B342E1 
  37      635AA546 
  38 0175 CCC3D1E7 		.ascii	"\314\303\321\347\027f\205\337\357\334\030\205M\015="
ARM GAS  /tmp/ccP24VBg.s 			page 3


  38      176685DF 
  38      EFDC1885 
  38      4D0D3D
  39 0184 AA7979D5 		.ascii	"\252yy\325<b\316x\177\325m\206\034\352\362L\337\023"
  39      3C62CE78 
  39      7FD56D86 
  39      1CEAF24C 
  39      DF13
  40 0196 14BD7F05 		.ascii	"\024\275\177\005|\206\037\301x<\321;\005\355\250\220"
  40      7C861FC1 
  40      783CD13B 
  40      05EDA890 
  41 01a6 382C98F7 		.ascii	"8,\230\367\376\356\301q|\017\\\311T:\223\205\037\232"
  41      FEEEC171 
  41      7C0F5CC9 
  41      543A9385 
  41      1F9A
  42 01b8 21D0CD   		.ascii	"!\320\315"
  43              		.text
  44              		.section	.gnu.lto_.inline.7a7b32ca3407265d,"",%progbits
  45 0000 789C6362 		.ascii	"x\234cb`d\340e\300\0162\230 4\023\003\313\002\226\207"
  45      6064E065 
  45      C00E3298 
  45      20341303 
  45      CB029687 
  46 0014 40854CAF 		.ascii	"@\205L\257\230\033\01601\260-\220\007\012\361\202$&"
  46      981B0E30 
  46      31B02D90 
  46      070AF182 
  46      2426
  47 0026 F8E1A299 		.ascii	"\370\341\242\231\270\031\200:\360\253b`\342fd`\004\361"
  47      B819803A 
  47      F0AB6260 
  47      E2666460 
  47      04F1
  48 0038 18A1A220 		.ascii	"\030\241\242 \032\207&\006\352q\007\253;0\224\261\362"
  48      1A872606 
  48      EA7107AB 
  48      3B3094B1 
  48      F2
  49 0049 31303033 		.ascii	"1003\340\326\206.\017\341O\360c\300\356/V>F\274\306"
  49      E0D6862E 
  49      0FE14FF0 
  49      63C0EE2F 
  49      563E46BC 
  50 005e 91E40A9C 		.ascii	"\221\344\012\234\322\010>\262\255pGM\360cd`\347\007"
  50      D2083EB2 
  50      AD70474D 
  50      F0636460 
  50      E707
  51 0070 07302225 		.ascii	"\0070\"%\201\3243\000\000\246&5\377"
  51      81D43300 
  51      00A62635 
  51      FF
  52              		.text
  53              		.section	.gnu.lto_.pureconst.7a7b32ca3407265d,"",%progbits
  54 0000 789C6362 		.ascii	"x\234cb`d`f```e\200\000&\006+F\011\000\001\230\000a"
ARM GAS  /tmp/ccP24VBg.s 			page 4


  54      60646066 
  54      60606065 
  54      80002606 
  54      2B460900 
  55              		.text
  56              		.section	.gnu.lto_mbox1_execute.7a7b32ca3407265d,"",%progbits
  57 0000 789CED5D 		.ascii	"x\234\355]\013x\024U\262>\247\347E /\002\011\001\362"
  57      0B781455 
  57      B23EA7E7 
  57      45202F02 
  57      0901F2
  58 0013 18C22B2F 		.ascii	"\030\302+/\222\020\336\357\267\242\030\037\260\272\212"
  58      9210DEEF 
  58      B7A2181F 
  58      B0BA8A
  59 0022 0656E228 		.ascii	"\006V\342(\360\231\205M\000QW\011\001\026\024y\351\312"
  59      F099854D 
  59      00515709 
  59      01161479 
  59      E9CA
  60 0034 0613408C 		.ascii	"\006\023@\214@\024\010\253.\230\000J\200\360p\010\350"
  60      401408AB 
  60      2E98004A 
  60      80F07008 
  60      E8
  61 0045 4A745D37 		.ascii	"Jt]7\254\\\215\227]\211W\256F\305]\256\334:\325\247"
  61      AC5C8D97 
  61      5D8957AE 
  61      46C55DAE 
  61      DC3AD5A7 
  62 0059 7B6692D3 		.ascii	"{f\222\323\303\3203$\315\375n\364K\235S=U]\177\235\252"
  62      C3D03324 
  62      CDFD6EF4 
  62      4B9D533D 
  62      555D7F9D 
  63 006e EA73AA27 		.ascii	"\352s\252'*\021\012\3774\377\351g&\344\215\247\010\371"
  63      2A110AFF 
  63      34FFE967 
  63      26E48DA7 
  63      08F9
  64 0080 378CE91D 		.ascii	"7\214\351\035\204JkO\023\262\330.I\246\025\275IA\242"
  64      844A6B4F 
  64      13B2D82E 
  64      49A615BD 
  64      4941A2
  65 0093 99FDCE30 		.ascii	"\231\375\3160\321,\231m\2466y`\221\262\016\233\340\272"
  65      D12C996D 
  65      A6367960 
  65      91B20E9B 
  65      E0BA
  66 00a5 F5B493C0 		.ascii	"\365\264\223\300\007\2542\177\213\335&Y\252F\002\277"
  66      07AC327F 
  66      8BDD2659 
  66      AA4602BF 
  67 00b5 CD0761C0 		.ascii	"\315\007a\300n#e\035\030\004\263\240\332(\230\005\361"
  67      6E23651D 
  67      1804B3A0 
ARM GAS  /tmp/ccP24VBg.s 			page 5


  67      DA289805 
  67      F1
  68 00c6 595B9CB5 		.ascii	"Y[\234\265\345\263v8k\307g\3018\013\346\263\020\234"
  68      E5B37638 
  68      6BC767C1 
  68      380BE6B3 
  68      109C
  69 00d8 8548A138 		.ascii	"\205H\2418\013\303Y\250bK\230\024\216\354\366\310\016"
  69      0BC359A8 
  69      624B9814 
  69      8EECF6C8 
  69      0E
  70 00e9 57D8EDA5 		.ascii	"W\330\355\245\010\264\274\003Z\036\241\260;\320(y\320"
  70      08B4BC03 
  70      5A1EA1B0 
  70      3BD02879 
  70      D0
  71 00fa 915B1E29 		.ascii	"\221[\036)[\036)\363\267\330\243\244\216\253\016\001"
  71      5B1E29F3 
  71      B7D8A3A4 
  71      8EAB0E01 
  72 010a 27B1D392 		.ascii	"'\261\323\222\020\340w\342&D\243\366h>\353\214\263\316"
  72      10E077E2 
  72      2644A3F6 
  72      683EEB8C 
  72      B3CE
  73 011c 7CD60567 		.ascii	"|\326\005g]\370\254+\316\272\362Y\014\316b\370,\026"
  73      5DF8AC2B 
  73      CEBAF259 
  73      0CCE62F8 
  73      2C16
  74 012e 67B17C16 		.ascii	"g\261|\026\207\2638)\036gv\234\305+\206\332\245n\310"
  74      87B33829 
  74      1E67769C 
  74      C52B86DA 
  74      A56EC8
  75 0141 4E407637 		.ascii	"N@v7\205\235 uGv\017dwW\330=\270\312\236\310\356\311"
  75      859D2075 
  75      47760F64 
  75      7757D83D 
  75      B8CA9EC8 
  76 0157 67BD70D6 		.ascii	"g\275p\326\213\317z\343\2547\237%\342,\221\317\222p"
  76      8BCF7AE3 
  76      AC379F25 
  76      E22C91CF 
  76      9270
  77 0169 962465A1 		.ascii	"\226$e\241\317\222\321g\311\264\017SNS\270\247ReO\245"
  77      CF92D167 
  77      C9B40F53 
  77      4E53B8A7 
  77      52654FA5 
  78 017d CAEC2DF6 		.ascii	"\312\354-\366>R\212\354\2514\364T\032W\225\216\252\322"
  78      3E528AEC 
  78      A934F454 
  78      1A57958E 
  78      AAD2
  79 018f A50C9CF5 		.ascii	"\245\014\234\365\305Y\206bg_)\023\331\375\220\235\251"
ARM GAS  /tmp/ccP24VBg.s 			page 6


  79      C5598662 
  79      675F2913 
  79      D9FD909D 
  79      A9
  80 01a0 B0FB71D9 		.ascii	"\260\373q\331\376\310\356\317g\003p6\200\317\006\342"
  80      FEC8EECF 
  80      67037036 
  80      80CF06E2 
  81 01b0 6C209F0D 		.ascii	"l \237\015\302\331 >\033\214\263\301|6\004gC8\230\241"
  81      C2D9203E 
  81      1B8CB3C1 
  81      7C360467 
  81      433898A1 
  82 01c4 0866281D 		.ascii	"\010f(\035\201`\206q0\303e0\303e\366\026\373\010i\230"
  82      81608671 
  82      30C36530 
  82      C365F616 
  82      FB086998 
  83 01d8 0C662482 		.ascii	"\014f$\202\031\311U\215BU\243\244\3218\033\203\263*"
  83      19C9558D 
  83      4255A3A4 
  83      D1381B83 
  83      B32A
  84 01ea A2987D88 		.ascii	"\242\230}\210Hc\361\3028\274pX\275p\204p\371\361x\241"
  84      4863F1C2 
  84      38BC7058 
  84      BD708470 
  84      F9F178A1 
  85 01fe 9A481370 		.ascii	"\232H\023pz\023N\217\252\237;F\244\233\361\302D\274"
  85      7A134E8F 
  85      AA9F3B46 
  85      A49BF1C2 
  85      44BC
  86 0210 705CBD70 		.ascii	"p\\\275p\202H\267\340\205[\361\302{\352\005'\221&\325"
  86      8248B7E0 
  86      855BF1C2 
  86      7BEA0527 
  86      9126D5
  87 0223 A6C385DB 		.ascii	"\246\303\205\333\016\304\301\205\223\352\205\032Bo\227"
  87      0EC4C185 
  87      93EA851A 
  87      426F97
  88 0232 47A7D4D1 		.ascii	"G\247\324\321iB)\033A\306/\222Lf\213\325\326&\250m\273"
  88      6942291B 
  88      41C62F92 
  88      4C668BD5 
  88      D626A86D 
  89 0247 E090D0B0 		.ascii	"\340\220\320\260\360\366\021\035:FFu\212\356\334\245"
  89      F0F6111D 
  89      3A464675 
  89      8AEEDCA5 
  90 0257 6B4C6C5C 		.ascii	"kLl\\\274\275[B\367\036={\365NLJNI\355\223\226\236\321"
  90      BCBD5B42 
  90      F71E3D7B 
  90      F54E4C4A 
  90      4E49ED93 
  91 026e 37B35FFF 		.ascii	"7\263_\377\001\003\007\015\0362t\330\360\021#GU\221"
ARM GAS  /tmp/ccP24VBg.s 			page 7


  91      0103070D 
  91      1E3274D8 
  91      F0112347 
  91      5591
  92 0280 43E43039 		.ascii	"C\34409B\252\311Qr\214\034''\310{\304IN\222\032r\212"
  92      42AAC951 
  92      728C1C27 
  92      27C87BC4 
  92      494E921A 
  93 0296 C05D16DD 		.ascii	"\300]\026\335\2155\245\226$\220-\005\005\317_<\\\030"
  93      8D35A596 
  93      24902D05 
  93      05CF5F3C 
  93      5C18
  94 02a8 5D78EECA 		.ascii	"]x\356\312\225x\007cO\247\304\271\343\013\332\2318("
  94      95780763 
  94      4FA7C4B9 
  94      E30BDA99 
  94      3828
  95 02ba 256D08A3 		.ascii	"%m\010\243R\323\032\244!G|\020Z{\244p\"\0272\241PM\361"
  95      52D31AA4 
  95      21477C10 
  95      5A7BA470 
  95      221732A1 
  96 02d1 CFFC6676 		.ascii	"\317\374fv.g\026\310\255u\2233\243\334\011\313\325\245"
  96      2E6716C8 
  96      AD759333 
  96      A3DC09CB 
  96      D5A5
  97 02e3 9A9B585B 		.ascii	"\232\233X[\034u\275\2205\023j(\016\325#V\027\323b\026"
  97      1C75BD90 
  97      35136A28 
  97      0ED52356 
  97      17D36216 
  98 02f7 5ED675AB 		.ascii	"^\326u\253\232X]\336\320%U\033\327b\316\250\273n\267"
  98      9A585DDE 
  98      D025551B 
  98      D762CEA8 
  98      BB6EB7
  99 030a 728B5D0B 		.ascii	"r\213]\013\012\325\307\371\020\273\315\244\210\236\200"
  99      0AD5C7F9 
  99      10BBCDA4 
  99      889E80
 100 0319 D7E50A7D 		.ascii	"\327\345\012}\376\333\354Cjy\344\261D\342)\272c\363"
 100      FEDBEC43 
 100      6A79E4B1 
 100      44E229BA 
 100      63F3
 101 032b 9B3E9400 		.ascii	"\233>\224\000\367;Z\365\233\331\270YWV\326'\352\272"
 101      F73B5AF5 
 101      9BD9B859 
 101      5756D627 
 101      EABA
 102 033d 992F52CD 		.ascii	"\231/R\315\026\372r\242\261W\272:\251\305n\325\250\353"
 102      16FA72A2 
 102      B157BA3A 
 102      A9C56ED5 
ARM GAS  /tmp/ccP24VBg.s 			page 8


 102      A8EB
 103 034f 56B5C9BA 		.ascii	"V\265\311\272\252\241.)}\036Li\261[\325\350\272Uu\252"
 103      AAA12E29 
 103      7D1E4C69 
 103      B15BD5E8 
 103      BA5575AA 
 104 0363 2EBFEB92 		.ascii	".\277\353\222\252\327%\325\250K\252\246\217.\\\272\244"
 104      AAD725D5 
 104      A84BAAA6 
 104      8F2E5CBA 
 104      A4
 105 0374 2EEFD2B5 		.ascii	".\357\322\265\327\250-\327\267mHk\261\220\252o\271["
 105      D7A82DD7 
 105      B76D486B 
 105      B190AA6F 
 105      B95B
 106 0386 35E8BA55 		.ascii	"5\350\272UM\272.\017\352\222j\320%uY\227T\355`]\270"
 106      4DBA2E0F 
 106      EA926AD0 
 106      25755997 
 106      54ED605D 
 107 039b 74495557 		.ascii	"tIUW\352\212\336\272J}\217\327!-\027R-w\253F]\267\252"
 107      EA8ADEBA 
 107      4A7D8FD7 
 107      212D1752 
 107      2D77AB46 
 108 03b2 1ED6720F 		.ascii	"\036\326r\017\207\226\273U\255\256[\325\371 \265v\355"
 108      8796BB55 
 108      ADAE5BD5 
 108      F920B576 
 108      ED
 109 03c3 92026503 		.ascii	"\222\002e\003e\223H/\334S6lx\370\252\233\250\252&\222"
 109      6593482F 
 109      DC53366C 
 109      78F8AA9B 
 109      A8AA2692 
 110 03d7 292879C9 		.ascii	")(y\311\344\313\346\334%h\222H\006\0126n\310\273\272"
 110      E4CBE6DC 
 110      25689248 
 110      060A366E 
 110      C8BBBA
 111 03ea 6491DB6E 		.ascii	"d\221\333n\257\215\034\372\033\026\350\021\363\3414"
 111      AF8D1CFA 
 111      1B16E811 
 111      F3E134
 112 03f9 F0FF42FF 		.ascii	"\360\377B\3777\205\212\202\352\367[\017JU\347\256,\""
 112      37858A82 
 112      EAF75B0F 
 112      4A55E7AE 
 112      2C22
 113 040b 64B98992 		.ascii	"d\271\211\222lz\201&\020\211S\023\247fN\255@_\006j\003"
 113      6C7A8126 
 113      10895313 
 113      A7664EAD 
 113      405F066A 
 114 0420 BA056810 		.ascii	"\272\005h\020\320W\200\266\005Z\012\264\035\320\363"
 114      D05780B6 
ARM GAS  /tmp/ccP24VBg.s 			page 9


 114      055A0AB4 
 114      1DD0F3
 115 042f 408381BE 		.ascii	"@\203\201\276\0124\004\350V\240\241\\>\214_\017\347"
 115      0A3404E8 
 115      56A0A15C 
 115      3E8C5F0F 
 115      E7
 116 0440 D7DB03DD 		.ascii	"\327\333\003\335\0064\202\363;\000\335\016\264#\320"
 116      063482F3 
 116      3B00DD0E 
 116      B423D0
 117 044f 32A0919C 		.ascii	"2\240\221\234\037\305\371\235\200\276\0064\232\363;"
 117      1FC5F99D 
 117      80BE0634 
 117      9AF33B
 118 045e 737E17A0 		.ascii	"s~\027\240\257\003\355\312\3711\234\037\013t\007\320"
 118      AF03EDCA 
 118      F9319C1F 
 118      0B7407D0 
 119 046e 78A03B81 		.ascii	"x\240;\201\332\201\356\002\232\000\264\034hw\240\273"
 119      DA81EE02 
 119      9A00B41C 
 119      6877A0BB 
 120 047e 81F600FA 		.ascii	"\201\366\000\372G\240=\201\276\001\264\027\3207\201"
 120      47A03D81 
 120      BE01B417 
 120      D03781
 121 048d F606FA16 		.ascii	"\366\006\372\026\320$\2567\231\333\235\002\364O@S\201"
 121      D024AE37 
 121      99DB9D02 
 121      F44F4053 
 121      81
 122 049e EE01DA07 		.ascii	"\356\001\332\007\350\333@\3238\316t\240\025@3\270\177"
 122      E8DB40D3 
 122      38CE74A0 
 122      154033B8 
 122      7F
 123 04af FA72FF64 		.ascii	"\372r\377dr=\375\270\236\376@+\201\016\340\374\201\234"
 123      723DFDB8 
 123      9EFE402B 
 123      810EE0FC 
 123      819C
 124 04c1 3F08E83E 		.ascii	"?\010\350>\240\203\201\356\007:\204\3335\024\350\001"
 124      A08381EE 
 124      073A84DB 
 124      3514E801 
 125 04d1 A0C380BE 		.ascii	"\240\303\200\276\003t8\277>\202\333?\022\350\273@G\001"
 125      037438BF 
 125      3E82DB3F 
 125      12E8BB40 
 125      4701
 126 04e3 3D087434 		.ascii	"=\010t4\327;\206\373c,\320*\240\3438\177<\347O\000z"
 126      D73B86FB 
 126      632CD02A 
 126      A0E3387F 
 126      3CE74F00 
 127 04f8 08E8CD40 		.ascii	"\010\350\315@\017\003\235\010\364\010\320[\201V\003"
ARM GAS  /tmp/ccP24VBg.s 			page 10


 127      0F039D08 
 127      F408D05B 
 127      815603
 128 0507 9D04F428 		.ascii	"\235\004\364(\320\333\370}\262\270=\267s?\335\001\364"
 128      D0DBF87D 
 128      B2B83DB7 
 128      733FDD01 
 128      F4
 129 0518 18D03BB9 		.ascii	"\030\320;\271\336\2738\216\311@\217\003\235\302\371"
 129      DEBB388E 
 129      C9408F03 
 129      9DC2F9
 130 0527 BFE0FCBB 		.ascii	"\277\340\374\273\201\236\000z\017\347\377\222\363\357"
 130      819E007A 
 130      0FE7FF92 
 130      F3EF
 131 0535 05FA1ED0 		.ascii	"\005\372\036\320\3738\177*\347\337\017\324\011\364\001"
 131      FB387F2A 
 131      E7DF0FD4 
 131      09F401
 132 0544 CECFE6FC 		.ascii	"\316\317\346\374i@O\002\235\316\355\372\025\267\353"
 132      69404F02 
 132      9DCEEDFA 
 132      15B7EB
 133 0553 416ED70C 		.ascii	"An\327\014\2405@\037\342r\016.\3670\320S@\037\341\353"
 133      A035401F 
 133      E2720E2E 
 133      F730D053 
 133      401FE1EB 
 134 0567 3793AFDF 		.ascii	"7\223\257\337,\276~\263\201\236\006\372(\320\367\201"
 134      2CBE7EB3 
 134      819E06FA 
 134      28D0F781 
 135 0577 E602FD00 		.ascii	"\346\002\375\000\350\034\240\177\006:\027\350\207@\177"
 135      E81CA07F 
 135      063A17E8 
 135      87407F
 136 0586 C3EF9BC7 		.ascii	"\303\357\233\307\357\233\317\357;\017\350\031\240\363"
 136      EF9BCFEF 
 136      3B0FE819 
 136      A0F3
 137 0594 F97D17F0 		.ascii	"\371}\027\360\373>\006\264\026\350B\316\177\234\363"
 137      FB3E06B4 
 137      16E842CE 
 137      7F9CF3
 138 05a3 9F00FA11 		.ascii	"\237\000\372\021\320'9\377\267\234\377\024\320\217\201"
 138      D02739FF 
 138      B79CFF14 
 138      D08F81
 139 05b2 3ECDF98B 		.ascii	">\315\371\2138\277\200%\352_`\260\230\362+\205\224_"
 139      38BF8025 
 139      EA5F60B0 
 139      98F22B85 
 139      945F
 140 05c4 5AC2069F 		.ascii	"Z\302\006\237\300`)\345\306-\243\334\272\337Qn\336r"
 140      C06029E5 
 140      C62DA3DC 
ARM GAS  /tmp/ccP24VBg.s 			page 11


 140      BADF516E 
 140      DE72
 141 05d6 36F82B0C 		.ascii	"6\370+\014\236Q\304\237U\304W\262\301\2470x\216r\337"
 141      9E51C49F 
 141      55C457B2 
 141      C1A73078 
 141      8E72DF
 142 05e9 ACA2DC39 		.ascii	"\254\242\3349\253\225\352\260\206\015\376\006\203ul"
 142      AB95EAB0 
 142      860DFE06 
 142      83756C
 143 05f8 500783E7 		.ascii	"P\007\203\347\331\340,\014~\317\006\177\207\301\213"
 143      D9E02C0C 
 143      7ECF067F 
 143      87C18B
 144 0607 6CF0190C 		.ascii	"l\360\031\014\326+f\374A1\243H1c\003\033\234\203A1\033"
 144      D62B66FC 
 144      4131A348 
 144      3163031B 
 144      9C834131 
 145 061c FC070C4A 		.ascii	"\374\007\014J\330\340s\030lb\203/`\260\231\015\352a"
 145      D8E07318 
 145      6C62832F 
 145      60B0990D 
 145      EA61
 146 062e F032E5B1 		.ascii	"\3602\345\261\276E\321\363\012\345\331P\312\006_\302"
 146      BE45D1F3 
 146      0AE5D950 
 146      CA065FC2 
 147 063e E055E533 		.ascii	"\340U\3453[\225\233n\243<#\266\263\301\177\302`/\253"
 147      5B959B6E 
 147      A33C23B6 
 147      B3C17FC2 
 147      602FAB
 148 0651 6D5FC3E0 		.ascii	"m_\303\340m6\370/\030T\260\30170\250d\203\2130\330\307"
 148      6D36F82F 
 148      1854B0C1 
 148      3730A864 
 148      838B30D8 
 149 0666 06FF0D83 		.ascii	"\006\377\015\203\375l\360-\014\016\260\301w0x\207\015"
 149      FD6CF02D 
 149      0C0EB0C1 
 149      77307887 
 149      0D
 150 0677 1A61F02E 		.ascii	"\032a\360.\033|\017\203\203l\360\003\014\252\330\340"
 150      1B7C0F83 
 150      836CF003 
 150      0CAAD8E0 
 151 0687 47185C54 		.ascii	"G\030\\T\312g\2432\200\037\013YZP\020n\342\361K\377"
 151      CA67A332 
 151      801F0B59 
 151      5A50106E 
 151      E2F14BFF 
 152 069b 89BFD9B5 		.ascii	"\211\277\331\265\351|#r\027\243\027{\220\311P\245\201"
 152      E97C2372 
 152      17A3177B 
 152      90C950A5 
ARM GAS  /tmp/ccP24VBg.s 			page 12


 152      81
 153 06ac 9A8E1189 		.ascii	"\232\216\021\211\312B\\\026>\177\211\265u<+\276\373"
 153      CA425C16 
 153      3E7F89B5 
 153      753C2BBE 
 153      FB
 154 06bd FE214822 		.ascii	"\376!H\"\231\270\177\370\374\344g_J^\013?c\006\301E"
 154      99B87FF8 
 154      FCE4675F 
 154      4A5E0B3F 
 154      6306C145 
 155 06d1 424E42EC 		.ascii	"BNB\354\274\276\372\305/\006{\334\214f\323\177\243\211"
 155      BCBEFAC5 
 155      2F067BDC 
 155      8C66D37F 
 155      A389
 156 06e3 3F79DC92 		.ascii	"?y\334\222\275C\\CM\004L\304_\204\304\301\312l,(\032"
 156      BD435C43 
 156      4D044CC4 
 156      5F84C4C1 
 156      CA6C2C28 
 157 06f8 EDA06D3D 		.ascii	"\355\240m=\324\252\227K\371\345v\250\200\241\022X\036"
 157      D4AA974B 
 157      F9E576A8 
 157      80A11258 
 157      1E
 158 0709 2C911D14 		.ascii	",\221\035\024Mw\226|\021\352\325\362'\310O\005m@\202"
 158      4D77967C 
 158      11EAD5F2 
 158      27C84F05 
 158      6D4082
 159 071c CE823DDD 		.ascii	"\316\202=\335K\241\212\326\237\327\377\217s\250\005"
 159      4BA18AD6 
 159      9FD7FF8F 
 159      73A805
 160 072b 3EACDABF 		.ascii	">\254\332\277TJh\346\262Y\224r\371\020\232B\222\035"
 160      544A68E6 
 160      B2599472 
 160      F9109A42 
 160      921D
 161 073d 34D4046A 		.ascii	"4\324\004j\2461\327_\262!>\256\256\314\226M\227K\226"
 161      A631D75F 
 161      B2213EAE 
 161      AECC964D 
 161      974B96
 162 0750 E6968648 		.ascii	"\346\226\206H\344C\331\322\332\035{\275\367\032\341"
 162      E443D9D2 
 162      DA1D7BBD 
 162      F71AE1
 163 075f 66843849 		.ascii	"f\2048I\341\324\275\033\377\34245u\357J4o\205\344n^"
 163      E1D4BD1B 
 163      FFE23435 
 163      75EF4A34 
 163      6F85E46E 
 164 0774 0EDD2BA1 		.ascii	"\016\335+\241YmL/Az\200y\222;\\\347\016\023\367q\010"
 164      596D4C2F 
 164      417A8079 
ARM GAS  /tmp/ccP24VBg.s 			page 13


 164      923B5CE7 
 164      0E13F771 
 165 0789 3CE298AD 		.ascii	"<\342\230\255\323\330-\230\372\030\224w\222%\247L\354"
 165      D3D82D98 
 165      FA189477 
 165      9225A74C 
 165      EC
 166 079a 9D8B8C3B 		.ascii	"\235\213\214;\207Z\231F&\300\374BH\015\374V.\331\270"
 166      875A9946 
 166      26C0FC42 
 166      480DFC56 
 166      2ED9B8
 167 07ad E6303A9D 		.ascii	"\3460:\235R\252\006\205\011\364\202\234\203\206\023"
 167      52AA0685 
 167      09F4829C 
 167      838613
 168 07bc 72942C3D 		.ascii	"r\224,=O]\002\354\262'\302\311\354\315KE\204 V5"
 168      4F5D02EC 
 168      B227C2C9 
 168      ECCD4B45 
 168      84205635 
 169 07d0 4256236E 		.ascii	"BV#n\263\351ep\037\013\334\035\337\371\024\270\304["
 169      B3E96570 
 169      1F0BDC1D 
 169      DFF914B8 
 169      C45B
 170 07e2 E0AE47CF 		.ascii	"\340\256G\317\276 i\004n6-\220Lnzx\244f\323%R\234\033"
 170      BE206904 
 170      6E362D90 
 170      4C6E7A78 
 170      A466D325 
 171 07f9 32B30191 		.ascii	"2\263\001\221mBd\305\272\221\001\032gEi\210l\273\\~"
 171      6D4264C5 
 171      BA91011A 
 171      67456988 
 171      6CBB5C7E 
 172 080d E43577C1 		.ascii	"\3445w\301\266\020Z5\322\004\201\264\210\275NS\326>"
 172      B6105A35 
 172      D20481B4 
 172      88BD4E53 
 172      D63E
 173 081f 288752F9 		.ascii	"(\207R\371\223c1\314\012\033L',\312\305\2669\354~5\304"
 173      936331CC 
 173      0A1B4C27 
 173      2CCAC5B6 
 173      39EC7E35 
 174 0834 5A665258 		.ascii	"ZfRX\355xp\265\207\340\222\344\240q\017\344\023\014"
 174      ED7870B5 
 174      87E092E4 
 174      A0710FE4 
 174      130C
 175 0846 00083295 		.ascii	"\000\0102\225\021\344\312\025\023\320\016r\336\231\024"
 175      11E4CA15 
 175      13D00E72 
 175      DE9914
 176 0855 E3589DCC 		.ascii	"\343X\235\314aU\003\203\272\2668J\321\035\014\\9\244"
 176      61550383 
ARM GAS  /tmp/ccP24VBg.s 			page 14


 176      BAB6384A 
 176      D11D0C5C 
 176      39A4
 177 0867 4993900E 		.ascii	"I\223\220\016\321\012i\211\211\011B:D\024\322VB?\031"
 177      D10A6989 
 177      8909423A 
 177      4414D256 
 177      423F19
 178 087a 861EA82E 		.ascii	"\206\036\250.\336&)\037\015U=@eG\022w/\302uE\334F\330"
 178      DE26291F 
 178      0D553D40 
 178      65471277 
 178      2FC27545 
 179 0891 AB57935C 		.ascii	"\253W\223\\\350\224\253\024\357\374%\035\254\250\343"
 179      E894AB14 
 179      EFFC251D 
 179      ACA8E3
 180 08a0 BA5C9EFF 		.ascii	"\272\\\236\377\230Pe)\314e&\320g-\012b\352`\027\377"
 180      98506529 
 180      CC6526D0 
 180      672D0A62 
 180      EA6017FF 
 181 08b4 4198099C 		.ascii	"A\230\011\234[_<C\021\016s\363\256\251\271w/Y8p\033"
 181      5B5F3C43 
 181      110E73F3 
 181      AEA9B977 
 181      2F593870 
 182 08c9 6CFC9ABB 		.ascii	"l\374\232\273xE\023\027\207q\0277\024\207*7\010\007"
 182      78451317 
 182      87711737 
 182      14872A37 
 182      0807
 183 08db AED8C5ED 		.ascii	"\256\330\305\355\265\\lbb\002\027\267\027\271\030\220"
 183      B55C6C62 
 183      620217B7 
 183      17B91890 
 184 08eb 559B19A8 		.ascii	"U\233\031\250\332\022\025T\204\367\220)s\201\272\027"
 184      DA121554 
 184      84F79029 
 184      7381BA17 
 185 08fb 69475808 		.ascii	"iGX\010-H\021\034R]\211\012\251\003peHW\224\037\352"
 185      2D48111C 
 185      525D890A 
 185      A9037065 
 185      4857941F 
 186 0910 1A7982EC 		.ascii	"\032y\202\354\250\005\322\314\024\011@v\024\201\204"
 186      A805D2CC 
 186      14094076 
 186      148184
 187 091f E76119D5 		.ascii	"\347a\031\325\365\030w\025\215@<\307\313\261h\354\364"
 187      F5187715 
 187      8D403CC7 
 187      CBB168EC 
 187      F4
 188 0930 A568D845 		.ascii	"\245h\330EE\003<\343<U\032\254`\215\344\316\211\004"
 188      45033CE3 
 188      3C551AAC 
ARM GAS  /tmp/ccP24VBg.s 			page 15


 188      608DE4CE 
 188      8904
 189 0942 E7989BAF 		.ascii	"\347\230\233\257S\205\373:9h\224p}\"\345\215\200q\012"
 189      5385FB3A 
 189      39689470 
 189      7D22E58D 
 189      80710A
 190 0955 6B05FA68 		.ascii	"k\005\372h\217\356\302*?x\337W\353_\024`\3645\332:i"
 190      8FEEC22A 
 190      3F78DF57 
 190      EB5F1460 
 190      F435DA3A 
 191 096a 451B2A12 		.ascii	"E\033*\022D['Q\264A\241\354\3132\252z\243\232Q\321>"
 191      445B2751 
 191      B441A1EC 
 191      CB32AA7A 
 191      A39A51D1 
 192 097f 9789AB67 		.ascii	"\227\211\253gT4\307X\263Q\315\250\316\300\365\025c\027"
 192      5434C758 
 192      B351CDA8 
 192      CEC0F515 
 192      6317
 193 0991 2D8C56A6 		.ascii	"-\214V\246H\200\261\213\010c0!\241\006H\250#\030,\207"
 193      4880B18B 
 193      08633021 
 193      A10648A8 
 193      23182C87 
 194 09a5 FC4AA8BF 		.ascii	"\374J\250\277\271\022\252\253[BY\232/\323\012\233\017"
 194      B912AAAB 
 194      5B42599A 
 194      2FD30A9B 
 194      0F
 195 09b6 09D5D568 		.ascii	"\011\325\325h\011u\012}\344\3643\241\316\252\011\025"
 195      09750A7D 
 195      E4F433A1 
 195      CEAA0915 
 196 09c6 03187D0D 		.ascii	"\003\030}\015\266X\255`\2631E\202`\213\025\005[\010"
 196      B658AD60 
 196      B3314582 
 196      608B1505 
 196      5B08
 197 09d8 3C880D10 		.ascii	"<\210\015\020l\037\241#\317\350\0166\255\003W6]&I\327"
 197      6C1FA123 
 197      CFE80E36 
 197      AD035736 
 197      5D2649D7 
 198 09ec 7CE0AADD 		.ascii	"|\340\252\335\344\345\300\365\251\277\007\256:\341\201"
 198      E4E5C0F5 
 198      A9BF07AE 
 198      3AE181
 199 09fb 2B9B3E27 		.ascii	"+\233>'[\352\347\201\353\034\232w\266\311\201\353m\257"
 199      5BEAE781 
 199      EB1C9A77 
 199      B6C981EB 
 199      6DAF
 200 0a0d 07AEAF7C 		.ascii	"\007\256\257|:p}\345:p\3053\215\342\255\223]+,\3330"
 200      3A707DE5 
ARM GAS  /tmp/ccP24VBg.s 			page 16


 200      3A70C533 
 200      8DE2AD93 
 200      5D2B2CDB 
 201 0a22 394158DA 		.ascii	"9AX\332Ea\011\3767\031\354T\362\025:\366\274\237\347"
 201      456109FE 
 201      3719EC54 
 201      F2153AF6 
 201      BC9FE7
 202 0a35 2DD8868A 		.ascii	"-\330\206\212vK\255\011\354[\004\366\215?\307\255V\256"
 202      764BAD09 
 202      EC5B04F6 
 202      8D3FC7AD 
 202      56AE
 203 0a47 1E3F2182 		.ascii	"\036?!\202\037\015R=\352\334\253\307\231\223\236\325"
 203      1F0D523D 
 203      EADCABC7 
 203      99939ED5 
 204 0a57 E36761F5 		.ascii	"\343ga\365\220\204\325C\022U\217\002\223\327\352\321"
 204      9084D543 
 204      12558F02 
 204      93D7EAD1 
 205 0a67 B0EBAAD5 		.ascii	"\260\353\252\325C\362R=\226\232\230y\213M\236\325\243"
 205      43F2523D 
 205      969A9879 
 205      8B4D9ED5 
 205      A3
 206 0a78 C26BF5B8 		.ascii	"\302k\365\270\340\252\036\341\332\325\343\202\253z$"
 206      E0AA1EE1 
 206      DAD5E382 
 206      AB7A24
 207 0a87 308DE276 		.ascii	"0\215\342vMw\255\352\021\304\344\004\325\243\273\250"
 207      4D77ADEA 
 207      11C4E404 
 207      D5A3BBA8 
 208 0a97 7A841B2F 		.ascii	"z\204\033/\311V\243cW\232\374\253\036\355\331%c\001"
 208      C956A363 
 208      579AFCAB 
 208      1EEDD925 
 208      6301
 209 0aa9 5B8FC05E 		.ascii	"[\217\300^\320\015\254\365\253\307FDP\354\013\002\273"
 209      D00DACF5 
 209      ABC74644 
 209      50EC0B02 
 209      BB
 210 0aba 08014B26 		.ascii	"\010\001K&g\203\272\207\353\201\271b\341\271\322\311"
 210      6783BA87 
 210      EB81B962 
 210      E1B9D2C9 
 211 0aca 235728B7 		.ascii	"#W(\267(\230\020\236)jk\204iQ\243\272\3475\3510\273"
 211      2898109E 
 211      296A6B84 
 211      6951A3BA 
 211      E735E930 
 212 0adf 7440A6A9 		.ascii	"t@\246\251Jz\201-\240\3123\301zk%X[&!H\260\336\242\004"
 212      4A7A812D 
 212      A0CA33C1 
 212      7A6B2558 
ARM GAS  /tmp/ccP24VBg.s 			page 17


 212      5B262148 
 213 0af7 8B305E1C 		.ascii	"\2130^\034\356\304U|\315\317\004\353`<`\177B`o\370\223"
 213      EEC4557C 
 213      CDCF04EB 
 213      603C607F 
 213      42606FF8 
 214 0b0c 60CE9FBC 		.ascii	"`\316\237\274wC\341HL\261O\025\257\254z\022\017\223"
 214      7743E148 
 214      4CB14F15 
 214      AFAC7A12 
 214      0F93
 215 0b1e 6808136B 		.ascii	"h\010\023k\363\323\332'\026d<\0161J\345\267<\012\030"
 215      F3D3DA27 
 215      16643C0E 
 215      314AE5B7 
 215      3C0A18
 216 0b31 A509D759 		.ascii	"\245\011\327Y\330\347LR:V\233\325>g2p\305;\311\024\255"
 216      D8E74C52 
 216      3A569BD5 
 216      3E673270 
 216      C53BC914 
 217 0b46 506DC7C4 		.ascii	"Pm\307\304\004\241\232\"\012\325H\206\015\222\353\026"
 217      04A19A22 
 217      0AD54886 
 217      0D92EB16 
 218 0b56 F6A569E5 		.ascii	"\366\245i\345\223\251\212\321p\341\237\256\214\351\003"
 218      93A98AD1 
 218      70E19FAE 
 218      8CE903
 219 0b65 57980D66 		.ascii	"W\230\015fu\245\271\011]\300\004\233\254\032>\345`\007"
 219      75A5B909 
 219      5DC0049B 
 219      AC1A3EE5 
 219      6007
 220 0b77 51EC1D6F 		.ascii	"Q\354\035o\376AU\231\226C%o\235\3234\305\240(f\220g"
 220      FE415599 
 220      9643256F 
 220      9DD334C5 
 220      A0286690 
 221 0b8c DF546ADA 		.ascii	"\337Tj\3327\225\224F\234\362\3631\221\224E\353\300\372"
 221      37959446 
 221      9CF2F331 
 221      919445EB 
 221      C0FA
 222 0b9e A669919F 		.ascii	"\246i\221\237\330\230\262Nl\305\301i\215\233\325\206"
 222      D898B24E 
 222      6CC5C169 
 222      8D9BD586 
 223 0bae 453AB739 		.ascii	"E:\2679\006ln\343\356\266`D\023\355\240\2614\216|\317"
 223      066C6EE3 
 223      EEB66044 
 223      13EDA0B1 
 223      348E7CCF 
 224 0bc2 DF57C931 		.ascii	"\337W\3111\342\240\361M\235\231.rf4\273\035C^W\346B"
 224      E2A0F14D 
 224      9D992E72 
 224      6634BB1D 
ARM GAS  /tmp/ccP24VBg.s 			page 18


 224      435E57E6 
 225 0bd7 9EA1DAAB 		.ascii	"\236\241\332\253v\315\313\324\256y_\270\216]\363\025"
 225      76CDCBD4 
 225      AE795FB8 
 225      8E5DF315 
 226 0be7 6A81CCF4 		.ascii	"j\201\314\364\241\005\012\202Wo\351f\362h\252/S\301"
 226      A1050A82 
 226      576FE966 
 226      F268AA2F 
 226      53C1
 227 0bf9 F703AE38 		.ascii	"\367\003\2568\232\372kES\010\023\023DS\177\221\003:"
 227      9AFA6B45 
 227      53081313 
 227      44537F91 
 227      033A
 228 0c0b CBFEB636 		.ascii	"\313\376\2666\224\251\375\247\001\336S\245\302\307T"
 228      94A9FDA7 
 228      01DE53A5 
 228      C2C754
 229 0c1a 690A6E00 		.ascii	"i\012n\000\007\327\350\0027\020\270bp\203\264\300\205"
 229      07D7E802 
 229      3710B862 
 229      7083B4C0 
 229      85
 230 0c2b 323101B8 		.ascii	"21\001\270A\"p]\344\325-\234z9Q\371\334\340kz\020\251"
 230      4122705D 
 230      E4D52D9C 
 230      7A3951F9 
 230      DCE06B7A 
 231 0c41 25CAE361 		.ascii	"%\312\343a6$\020\017\263\241`\013\250\362\204=L\013"
 231      3624100F 
 231      B3A1600B 
 231      A8F2843D 
 231      4C0B
 232 0c53 76189310 		.ascii	"v\030\223\020\300\036&\202\335U\201]\235\244|nx\000"
 232      C01E2682 
 232      DD55815D 
 232      9DA47C6E 
 232      7800
 233 0c65 608FD0BB 		.ascii	"`\217\320\273\017p\207=\022l\001U\236\260Gi\301\016"
 233      0F70873D 
 233      126C0155 
 233      9EB04769 
 233      C10E
 234 0c77 671202D8 		.ascii	"g\022\002\330\243D\260c\224P~M\015\345\321zCY\356\251"
 234      A344B063 
 234      94507E4D 
 234      0DE5D17A 
 234      4359EEA9 
 235 0c8b 8A0379B4 		.ascii	"\212\003y\264\022\310\257\251\201<\006\270\276\266\271"
 235      12C8AFA9 
 235      813C06B8 
 235      BEB6B9
 236 0c9a C66A816D 		.ascii	"\306j\201m\317\024\011\300\216\025\201\215%\302\347"
 236      CF1409C0 
 236      8E15818D 
 236      25C2E7
ARM GAS  /tmp/ccP24VBg.s 			page 19


 237 0ca9 7A4B6F35 		.ascii	"zKo5\353\360Y\376\251\356\255&\353\251\226mU{\252\343"
 237      EBF059FE 
 237      A9EEAD26 
 237      EBA9966D 
 237      557BAAE3 
 238 0cbd B86FECE0 		.ascii	"\270o\354\340\233 \215\367\217\315\326\313A\273\011"
 238      9B208DF7 
 238      8FCDD6CB 
 238      41BB09
 239 0ccc D7699CD1 		.ascii	"\327i\234\321\232\253\347\321Y\365\2727>\362\271\363"
 239      9AABE7D1 
 239      59F5BA37 
 239      3EF2B9F3 
 240 0cdc 75F55134 		.ascii	"u\365Q4\0360\372\032u\023\264\242.\202)\022D\335\004"
 240      1E30FA1A 
 240      7513B4A2 
 240      2E822912 
 240      44DD04
 241 0cef 51D4C519 		.ascii	"Q\324\305\031#\352\276AG~\255;\352\002\333\036\271\374"
 241      23EABE41 
 241      477EAD3B 
 241      EA02DB1E 
 241      B9FC
 242 0d01 BA97E66A 		.ascii	"\272\227\346j\243\311\317\346\352\017\336\333#~6W\377"
 242      A3C9CFE6 
 242      EA0FDEDB 
 242      237E3657 
 242      FF
 243 0d12 85E6FDD8 		.ascii	"\205\346\375\330\244=R\351\265=\262[y\001\345\265\271"
 243      A43D52E9 
 243      B53DB25B 
 243      7901E5B5 
 243      B9
 244 0d23 BAFB4B75 		.ascii	"\272\373Ku?u3\323(n\217L\324\012\313\016LN\020\226\023"
 244      3F7533D3 
 244      286E8F4C 
 244      D40ACB0E 
 244      4C4E1096 
 245 0d38 4561192F 		.ascii	"Ea\031/\016\313\326\314\365\245f\354;\231\375;\275\331"
 245      0ECBD6CC 
 245      F5A566EC 
 245      3B99FD3B 
 245      BDD9
 246 0d4a 8D07EC39 		.ascii	"\215\007\3549\004\366\214n`\255_=^@\004\353|A`\327B"
 246      04F68C6E 
 246      60AD5F3D 
 246      5E4004EB 
 246      7C4160D7 
 247 0d5f 10B8EA51 		.ascii	"\020\270\352Q\275\303Ks\265\310\354gs\365%\363\365l"
 247      BDC34B73 
 247      B5C8EC67 
 247      73F525F3 
 247      F56C
 248 0d71 AE6E42F3 		.ascii	"\256nB\363\212\315\236\325c\237\327\352Q\341\252\036"
 248      8ACD9ED5 
 248      639FD7EA 
 248      51E1AA1E 
ARM GAS  /tmp/ccP24VBg.s 			page 20


 249 0d81 5E9AAB15 		.ascii	"^\232\253\025\256\352q+\323(>%L\322\252\036\035\231"
 249      AEEA712B 
 249      D3283E25 
 249      4CD2AA1E 
 249      1D99
 250 0d93 9CA07A4C 		.ascii	"\234\240zL\022U\217n\304pIV\206\216\335\352g\365H0\036"
 250      12558F6E 
 250      C4704956 
 250      868EDDEA 
 250      67F54830 
 251 0da8 B03F22B0 		.ascii	"\260?\"\260]7p\365x\033\021\354\321]=\260\271Z\251\356"
 251      5D3770F5 
 251      781B11EC 
 251      D15D3DB0 
 251      B95AA9EE 
 252 0dbc E16E0B40 		.ascii	"\341n\013@s5+\020\347\321\333\301\026P\345\231`wh%X"
 252      73352B10 
 252      E7D1DBC1 
 252      1650E599 
 252      60776825 
 253 0dd1 24931024 		.ascii	"$\223\020$\330\035\242\004\353n\2748<\206\253x\304\317"
 253      D81DA204 
 253      EB6EBC38 
 253      3C86AB78 
 253      C4CF
 254 0de3 04EB613C 		.ascii	"\004\353a<`\247\021\330\311\0338\301>B\004gt'\030;R"
 254      60A711D8 
 254      C91B38C1 
 254      3E420467 
 254      7427183B 
 255 0df8 1E741D29 		.ascii	"\036t\035)\357\364\371{oc\210\326\327t\356\344\311R"
 255      EFF4F97B 
 255      6F6388D6 
 255      D774EEE4 
 255      C952
 256 0e0a BD533DF1 		.ascii	"\275S=\361\337\005\\\361Ci\262V\316D11A\316L\026\345"
 256      DF055CF1 
 256      4369B256 
 256      CE443131 
 256      41CE4C16 
 257 0e1f 4C4F22F7 		.ascii	"LO\"\367Akv\252\315\214)>#\031\253\211d\212\362\275"
 257      416B76AA 
 257      CD8C293E 
 257      2319AB89 
 257      648AF2BD 
 258 0e33 5C17925F 		.ascii	"\\\027\222_\000W\214\344n-$\235\230\230\000\311\335"
 258      00578CE4 
 258      6E2D249D 
 258      989800C9 
 258      DD
 259 0e44 2224BD38 		.ascii	"\"$\2758\222:\027\222{|F2N\023\311=J\257\324\205\344"
 259      923A1792 
 259      7B7C4632 
 259      4E13C93D 
 259      4AAFD485 
 260 0e59 97C01523 		.ascii	"\227\300\025#\271W\013I4\023\023 \271W\204\2447G\322"
 260      B9570B49 
ARM GAS  /tmp/ccP24VBg.s 			page 21


 260      34131320 
 260      B95784A4 
 260      3747D2
 261 0e6c E042729F 		.ascii	"\340Br\237\317H\306k\"\271O\351'\271\220L\005\256\030"
 261      CF48C66B 
 261      22B94FE9 
 261      27B9904C 
 261      05AE18
 262 0e7f C9FD5A48 		.ascii	"\311\375ZH:31\001\222\373EH\0229\222\313.$\017\370\214"
 262      3A333101 
 262      92FB4548 
 262      123992CB 
 262      2E240FF8 
 263 0e94 64822692 		.ascii	"d\202&\222\007\214\326q\271\200\265\344\037\272\253"
 263      078CD671 
 263      B980B5E4 
 263      1FBAAB
 264 0ea3 A1BC19FD 		.ascii	"\241\274\031\375\253\372\264\316\006\214\342u\231\246"
 264      ABFAB4CE 
 264      068CE275 
 264      99A6
 265 0eb1 B52E5D98 		.ascii	"\265.]\230\230`]\246\211\326%\211\360\316mm\037\345"
 265      98605DA6 
 265      89D62589 
 265      F0CE6D6D 
 265      1FE5
 266 0ec3 73D303B0 		.ascii	"s\323\003\260A\370U 6\010\017\202-\240\312\023\366\014"
 266      41F85520 
 266      36080F82 
 266      2DA0CA13 
 266      F60C
 267 0ed5 2DD85D99 		.ascii	"-\330]\231\204\000\366\014\021\354d\364=\371\230\\T"
 267      8400F60C 
 267      11EC64F4 
 267      3DF9985C 
 267      54
 268 0ee6 5F0A25D5 		.ascii	"_\012%\325\355\232\315.\245\200Q\006\3508\375K>\210"
 268      ED9ACD2E 
 268      A5805106 
 268      E838FD4B 
 268      3E88
 269 0ef8 F9F5503A 		.ascii	"\371\365P:\2735D\361\302C\336\373\234\377\360\332\347"
 269      BB3544F1 
 269      C243DEFB 
 269      9CFFF0DA 
 269      E7
 270 0f09 6CFA0EF2 		.ascii	"l\372\016\362!\243e\3352\013sV\241\305\277\254\203U"
 270      21A365DD 
 270      320B7356 
 270      A1C5BFAC 
 270      8355
 271 0f1b 53DCE500 		.ascii	"S\334\345\000\220\342\264{X+\376b\230\230 \376\036\026"
 271      90E2B47B 
 271      582BFE62 
 271      989820FE 
 271      1E16
 272 0f2d C55F2A0B 		.ascii	"\305_*\0132\366J\265\272\334\365J\365\021\361+\325\231"
ARM GAS  /tmp/ccP24VBg.s 			page 22


 272      32F64AB5 
 272      BADCF54A 
 272      F511F12B 
 272      D599
 273 0f3f 70E5EAAF 		.ascii	"p\345\352\257Tg\252\257T\353v\271^,\316\312\241&\331"
 273      5467AAAF 
 273      54EB76B9 
 273      5E2CCECA 
 273      A126D9
 274 0f52 3CF12BD5 		.ascii	"<\361+\325Y\212A}\230\277<_\251\232\232\276R\345\232"
 274      598A417D 
 274      98BF3C5F 
 274      A99A9ABE 
 274      52E59A
 275 0f65 DC5FA99A 		.ascii	"\334_\251\232r\350E)\231\202\242T\371m*{G\313\352|m"
 275      72E84529 
 275      9982A254 
 275      F96D2A7B 
 275      47CBEA7C 
 276 0f7a B9FA6899 		.ascii	"\271\372h\231\255\36565\366\232\336\246\316\026\371"
 276      ADF53635 
 276      F69ADEA6 
 276      CE16F9
 277 0f89 319D18A2 		.ascii	"1\235\030\242=\274\016\343o\215/\361g\027\305_\200\277"
 277      3DBC0EE3 
 277      6F8D2FF1 
 277      6717C55F 
 277      80BF
 278 0f9b 3D57EEA5 		.ascii	"=W\356\245="
 278      3D
 279 0fa0 BCDEE267 		.ascii	"\274\336\342g{\270\310r=\333\303%h\336\006\213g\203"
 279      7BB8C872 
 279      3DDBC325 
 279      68DE068B 
 279      6783
 280 0fb2 67BFF76F 		.ascii	"g\277\367o\317\371\324\036\276\340j\360<\3124\212\333"
 280      CFF9D41E 
 280      BEE06AF0 
 280      3CCA348A 
 280      DB
 281 0fc3 C3B95AE9 		.ascii	"\303\271Z\351\035\307\344\004\351\235+\012\313\014q"
 281      1DC7E404 
 281      E99D2B0A 
 281      CB0C71
 282 0fd2 58B66689 		.ascii	"X\266f\211\334\206\216-\325]\"e`}\215\007\254\034\201"
 282      DC868E2D 
 282      D55D2265 
 282      607D8D07 
 282      AC1C81
 283 0fe5 EDD00DAC 		.ascii	"\355\320\015\254\365\253\307\036D\360\226A\252G}\271"
 283      F5ABC71E 
 283      44F09641 
 283      AA477DB9 
 284 0ff5 97F6F03E 		.ascii	"\227\366\360>a\365\270\206\366\360\001"
 284      61F5B886 
 284      F6F001
 285 1000 EFD5C3CF 		.ascii	"\357\325\303\317\366p\025\232\367N\223\352q\300k\365"
ARM GAS  /tmp/ccP24VBg.s 			page 23


 285      F670159A 
 285      F74E93EA 
 285      71C06BF5 
 286 1010 68F0A93D 		.ascii	"h\360\251=\334\340\252\036s\230F\361\346`\256V\365\210"
 286      DCE0AA1E 
 286      739846F1 
 286      E660AE56 
 286      F588
 287 1022 677282EA 		.ascii	"gr\202\3521WT=2\211\341\222\314\211\216=\356g\365\350"
 287      3157543D 
 287      3289E192 
 287      CC898E3D 
 287      EE67F5E8 
 288 1036 673C601F 		.ascii	"g<`\037\"\260\367\375\3309\026Nu~\255\036\327~\023\200"
 288      22B0F7FD 
 288      D839164E 
 288      757EAD1E 
 288      D77E1380 
 289 104a B3535E20 		.ascii	"\263S^ \316N\371`\013\250\362\014\317yZ\341ig\022\202"
 289      CE4EF960 
 289      0BA8F20C 
 289      CF795AE1 
 289      69671282 
 290 105e F09C270A 		.ascii	"\360\234'\012\317\376\342Ul\351\252y\016W\356\357\272"
 290      CFFEE255 
 290      6CE9AA79 
 290      0E57EEEF 
 290      BA
 291 106f AB263B20 		.ascii	"\253&; ]ru\355\346\373\374\307u\332\335\210\371\312"
 291      5D7275ED 
 291      E6FBFCC7 
 291      75DADD88 
 291      F9CA
 292 1081 DF3EEE56 		.ascii	"\337>\356V7\277\013\200+\256\025\217i-F7&&X\214\307"
 292      37BF0B80 
 292      2BAE158F 
 292      692D4637 
 292      2626588C 
 293 1096 448B3180 		.ascii	"D\2131\200\360\375\366n\265\257\262\320g$\332\035\242"
 293      F0FDF66E 
 293      B5AFB2D0 
 293      6724DA1D 
 293      A2
 294 10a7 85CAB74C 		.ascii	"\205\312\267L]H\036\007\256\030\311\023ZH\230\246\307"
 294      5D481E07 
 294      AE18C913 
 294      5A4898A6 
 294      C7
 295 10b8 05489E10 		.ascii	"\005H\236\020!\031\310\221\324\273\220<\3513\022\355"
 295      2119C891 
 295      D4BB903C 
 295      E93312ED 
 296 10c8 AEDD93CA 		.ascii	"\256\335\223\312\037\255\273\220\374\026\270b$Oi!\351"
 296      1FADBB90 
 296      FC16B862 
 296      244F6921 
 296      E9
ARM GAS  /tmp/ccP24VBg.s 			page 24


 297 10d9 CEC40448 		.ascii	"\316\304\004H\236\022!\031\304\2214\272\220<\3553\022"
 297      9E122119 
 297      C49134BA 
 297      903CED33 
 297      12
 298 10ea ED4EEAD3 		.ascii	"\355N\352\323\034\311e\027\222E\300\025#)\240ZPz09\001"
 298      1CC96517 
 298      9245C015 
 298      2329A05A 
 298      507A3039 
 299 10ff 94022AC2 		.ascii	"\224\002*\3022\230c\251\256P\261,\246>\203\321np/\246"
 299      329863A9 
 299      AE50B12C 
 299      A63E83D1 
 299      6E702FA6 
 300 1113 46EB21FC 		.ascii	"F\353!\374\200\365\344;?{\010\317\332\0247\025R\206"
 300      80F5E43B 
 300      3F7B08CF 
 300      DA143715 
 300      5286
 301 1125 52BC3A4B 		.ascii	"R\274:K4W\247'J\012\226g\211py\206\020\336\276\253S"
 301      3457A727 
 301      4A0A9667 
 301      89707986 
 301      10DEBEAB 
 302 113a 4FE94B69 		.ascii	"O\351Ki\000\236A\313\256M\211\306C\350w\224\231\303"
 302      009E41CB 
 302      AE4D89C6 
 302      43E87794 
 302      99C3
 303 114c B479C25F 		.ascii	"\264y\302_\256\011\277\027J\011\340/\027\302\037Jx\033"
 303      AE09BF17 
 303      4A09E02F 
 303      17C21F4A 
 303      781B
 304 115e AF516DE3 		.ascii	"\257Qm\343\015\251\257\3006\3360c\264\361\226YYT-\261"
 304      0DA9AFC0 
 304      36DE3063 
 304      B4F19659 
 304      59542DB1 
 305 1172 FAF3945A 		.ascii	"\372\363\224Z\275]m\343=\243x. }\274g\014\227\204k\321"
 305      BD5D6DE3 
 305      3DA3782E 
 305      207DBC67 
 305      0C97846B 
 306 1187 5DAB7C71 		.ascii	"]\253|q\027\021\271KN\302\242\363j#\357Y\312`\212\263"
 306      1711B94B 
 306      4EC2A2F3 
 306      6A23EF59 
 306      CA608AB3 
 307 119b 70A56618 		.ascii	"p\245f\030\366FIA\030\256\024\206\341p\245\233WS\351"
 307      F6464941 
 307      18AE1486 
 307      E170A59B 
 307      5753E9
 308 11ae EAE63D47 		.ascii	"\352\346=G\305\355\274U\224]\273zCo\025U;z\365\025\256"
 308      C5EDBC55 
ARM GAS  /tmp/ccP24VBg.s 			page 25


 308      945DBB7A 
 308      436F1555 
 308      3B7AF515 
 309 11c3 8EDE6A10 		.ascii	"\216\336j\0207{k\351\255\246\212Y#\232\367\364\314M"
 309      377B6BE9 
 309      ADA68A59 
 309      239AF7F4 
 309      CC4D
 310 11d5 7B7AE6E6 		.ascii	"{z\346\346==s\016m\224\206R\246i\270\334\324\033I\370"
 310      3D3D730E 
 310      6D948652 
 310      A669B8DC 
 310      D41B49F8 
 311 11e9 0BB54AF5 		.ascii	"\013\265J\365\311\263F\361]\263\256^\3425u\365\326\010"
 311      C9B346F1 
 311      5DB3AE5E 
 311      E23575F5 
 311      D608
 312 11fb 1D3A8A18 		.ascii	"\035:\212\030b\213Y\202\321\370\222\356\344\015\360"
 312      628B5982 
 312      D1F892EE 
 312      E40DF0
 313 120a C1BCD24B 		.ascii	"\301\274\322K[o\213\325\317\266^\251\365z\266\365\266"
 313      5B6F8BD5 
 313      CFB65EA9 
 313      F57AB6F5 
 313      B6
 314 121b A379AF5A 		.ascii	"\243y\257Z=\017\346\357x=\230\227(\373\010\257m\275"
 314      3D0FE6EF 
 314      783D9897 
 314      28FB08AF 
 314      6DBD
 315 122d 92F36A6A 		.ascii	"\222\363jj\254\243L\245\270\257\367\274f\256'\241\244"
 315      ACA34CA5 
 315      B8AFF7BC 
 315      66AE27A1 
 315      A4
 316 123e 20D79F17 		.ascii	" \327\237\027\206\346hqh\266f\321|\003\235[\256\273"
 316      86E66871 
 316      68B666D1 
 316      7C039D5B 
 316      AEBB
 317 1250 68CAC0C6 		.ascii	"h\312\300\306\030\017X%\002\333\253\033X\353W\220*D"
 317      180F5825 
 317      02DBAB1B 
 317      58EB5790 
 317      2A44
 318 1262 F0AE412A 		.ascii	"\360\256A*HC\245\227\326\336Qa\005\271\206\326\336q"
 318      4843A597 
 318      D6DE5161 
 318      05B986D6 
 318      DE71
 319 1274 EF15C4CF 		.ascii	"\357\025\304\317\326\336I4\357D\223\012\362\256\327"
 319      D6DE4934 
 319      EF44930A 
 319      F2AED7
 320 1283 0AB2D155 		.ascii	"\012\262\321UA\274\264\3666\272*\310\357)S)\336-\274"
ARM GAS  /tmp/ccP24VBg.s 			page 26


 320      41BCB4F6 
 320      36BA2AC8 
 320      EF295329 
 320      DE2DBC
 321 1296 A8594192 		.ascii	"\250YA\222QRPA^\024V\020\366'~\006K\264\217\320\271"
 321      51525041 
 321      5E145610 
 321      F6277E06 
 321      4BB48FD0 
 322 12ab 1FFA5941 		.ascii	"\037\372YA\306\031\017\330Y\004\366\251\037\373\311"
 322      C6190FD8 
 322      5904F6A9 
 322      1FFBC9
 323 12ba C2A9CE4D 		.ascii	"\302\251\316M\352\231n} \316V\177\010\310\331\252\210"
 323      EA996E7D 
 323      20CE567F 
 323      08C8D9AA 
 323      88
 324 12cb 32739836 		.ascii	"2s\2306\3170\335\240\031\246)(%\010\323\015\3020\035"
 324      CF30DDA0 
 324      19A62928 
 324      2508D30D 
 324      C2301D
 325 12de 4F70D367 		.ascii	"Op\323g\256\333\227\327d\233\232\000\232\3336?{\260"
 325      AEDB97D7 
 325      649B9A00 
 325      9ADB363F 
 325      7BB0
 326 12f0 1F07FBEA 		.ascii	"\037\007\373\352e\353\227\335\257q\331/\030\244\354"
 326      65EB97DD 
 326      AF71D92F 
 326      18A4EC
 327 12ff 56EFF7B2 		.ascii	"V\357\367\262q\373\326\337\215[\343u\335\270]B\363\276"
 327      71FBD6DF 
 327      8D5BE375 
 327      DDB85D42 
 327      F3BE
 328 1311 6F52760F 		.ascii	"oRv\017z\377\302\275O\033\267\012W\331-\246L\245x\343"
 328      7AFFC2BD 
 328      4F1BB70A 
 328      57D92DA6 
 328      4CA578E3 
 329 1325 56A219CF 		.ascii	"V\242\031\317\251()\210\347\022a<O \206\253N\2056\346"
 329      A9282988 
 329      E712613C 
 329      4F2086AB 
 329      4E8536E6 
 330 1339 DC2B7E96 		.ascii	"\334+~\226\335\233\214\007\354Y\004\266\334v\343n\334"
 330      DD9B8C07 
 330      EC5904B6 
 330      DC76E36E 
 330      DC
 331 134a D6218235 		.ascii	"\326!\2025\276 \260k!\010\\\005\251\331\357e\343\266"
 331      BE20B06B 
 331      21085C05 
 331      A9D9EF65 
 331      E3B6
ARM GAS  /tmp/ccP24VBg.s 			page 27


 332 135c DEE6E7C6 		.ascii	"\336\346\347\306\255\310v=7n%h\336\006\233g\005\251"
 332      ADC8763D 
 332      376E2568 
 332      DE069B67 
 332      05A9
 333 136e F25A412A 		.ascii	"\362ZA*}\332\270U\272*\310&\312T\2127n\2335+H\037\224"
 333      7DDAB855 
 333      BA2AC826 
 333      CA548A37 
 333      6E9B352B 
 334 1385 145490CD 		.ascii	"\024T\220\315\302\012r31\\\242mC\347\226\352N4\031\330"
 334      C20A7233 
 334      315CA26D 
 334      43E796EA 
 334      4E3419D8 
 335 1399 44E3012B 		.ascii	"D\343\001+G`;n\340\012\262\007\021\274\245\273\202\340"
 335      47603B6E 
 335      E00AB207 
 335      11BCA5BB 
 335      82E0
 336 13ab D6739FBA 		.ascii	"\326s\237\272\365|\371\332v\215\342\377\240\302\226"
 336      F57CF9DA 
 336      768DE2FF 
 336      A0C296
 337 13ba 806C3D5F 		.ascii	"\200l=_\241\314\034\246\3153\321J5\023-\015\245\004"
 337      A1CC1CA6 
 337      CD33D14A 
 337      35132D0D 
 337      A504
 338 13cc 89562A4C 		.ascii	"\211V*L\264[\214\027\217\325\270\232\207\374L\264[\215"
 338      B45B8C17 
 338      8FD5B89A 
 338      87FC4CB4 
 338      5B8D
 339 13de 07AC0681 		.ascii	"\007\254\006\201\275w\003'\332\031D\360g\377\022m\277"
 339      BD770327 
 339      DA1944F0 
 339      67FF126D 
 339      BF
 340 13ef 9A68AF06 		.ascii	"\232h\257\006\"\321\266\352>(\272'\3326\312\314a\332"
 340      22D1B6EA 
 340      3E28BA27 
 340      DA36CACC 
 340      61DA
 341 1401 3C136DBB 		.ascii	"<\023m\273f\242\245\243\224 \321\266\013\023m\222\361"
 341      66A2A5A3 
 341      9420D1B6 
 341      0B136D92 
 341      F1
 342 1412 E2F1735C 		.ascii	"\342\361s\\\315\317\374L\264\333\214\007\354+\004v^"
 342      CDCFFC4C 
 342      B4DB8C07 
 342      EC2B0476 
 342      5E
 343 1423 37302739 		.ascii	"70'9<\233*\257z\330\213\245~\344\315\202\025\224\275"
 343      3C9B2AAF 
 343      7AD88BA5 
ARM GAS  /tmp/ccP24VBg.s 			page 28


 343      7EE4CD82 
 343      1594BD
 344 1436 66576167 		.ascii	"fWag\341\377\020\306\227O\336\216\237d\377\373wOg\334"
 344      E1FF10C6 
 344      974FDE8E 
 344      9F64FFFB 
 344      774F67DC 
 345 144a C5C2E962 		.ascii	"\305\302\351b\017v\357\230\264\264t\371\337y\216\374"
 345      0F76EF98 
 345      B4B474F9 
 345      DF798EFC 
 346 145a 79E979F3 		.ascii	"y\351y\363\220\346\316\230\2630-\207Xs\363\037\311L"
 346      90E6CE98 
 346      B3302D87 
 346      5873F31F 
 346      C94C
 347 146c CB3003E9 		.ascii	"\3130\003\351\313~e\322Y\226\005\017>:\337\221\244J"
 347      CB7E65D2 
 347      5996050F 
 347      3E3ADF91 
 347      A44A
 348 147e CDC96732 		.ascii	"\315\311g2s\347\344\315\313O\03739k\\\326\302\364\234"
 348      73E7E4CD 
 348      CB4F1F33 
 348      396B5CD6 
 348      C2F49C
 349 1491 993973F2 		.ascii	"\2319s\362\034\323\027\014\312M\233IR\335?\351X8/}\\"
 349      1CD3170C 
 349      CA4D9B49 
 349      52DD3FE9 
 349      58382F7D 
 350 14a6 D6945BA6 		.ascii	"\326\224[\246\244\317\372u\316\243\363\037r\244\343"
 350      A4CFFA75 
 350      CEA3F31F 
 350      72A4E3
 351 14b5 2773726F 		.ascii	"'sro\232\377\353\034\370px\326\224\311\366\031\017\346"
 351      9AFFEB1C 
 351      F87078D6 
 351      94C9F619 
 351      0FE6
 352 14c7 3BE6E6CD 		.ascii	";\346\346\315J\265\367\314 R\036\261\345:r\347\344="
 352      4AB5F7CC 
 352      20521EB1 
 352      E53A72E7 
 352      E43D
 353 14d9 4E4CB933 		.ascii	"NL\2713\346&4\271\255\252e&3\330\221\017*\244\374\271"
 353      E62634B9 
 353      ADAA6526 
 353      33D8910F 
 353      2AA4FCB9 
 354 14ed F19A9FCA 		.ascii	"\361\232\237\312w0\223\254c\306\216\033?\201\374/\326"
 354      773093AC 
 354      63C68E1B 
 354      3F81FC2F 
 354      D6
 355 14fe 1A7E4B   		.ascii	"\032~K"
 356              		.text
ARM GAS  /tmp/ccP24VBg.s 			page 29


 357              		.section	.gnu.lto_mbox1_setup.7a7b32ca3407265d,"",%progbits
 358 0000 789C6362 		.ascii	"x\234cb`\004BL \011\304\247\201X\016\210\031\231\031"
 358      6004424C 
 358      2009C4A7 
 358      81580E88 
 358      199919
 359 0013 1899269C 		.ascii	"\030\231&\234c`hT`bd\0041\200Z\352\231\030\353C!:O\365"
 359      63606854 
 359      60626404 
 359      31805AEA 
 359      9918EB43 
 360 002b 3F96BF32 		.ascii	"?\226\2772\223m?\323\201\007\377\353\031\030\230\201"
 360      936D3FD3 
 360      8107FFEB 
 360      19189881 
 361 003b 42AC0C2D 		.ascii	"B\254\014-\015\015\002\014\361P\243\003A4Hc\020#\023"
 361      0D0D020C 
 361      F150A303 
 361      41344863 
 361      102313
 362 004e 98C17C86 		.ascii	"\230\301|\206\201\355\314\314e\214\261\214\013\030Y"
 362      81EDCCCC 
 362      658CB18C 
 362      0B1859
 363 005d 8172550C 		.ascii	"\201rU\014?\0338R\201N\211gd\204\350\201\21202f\242"
 363      3F1B3852 
 363      814E8967 
 363      6484E881 
 363      8A303266 
 364 0072 F09918B5 		.ascii	"\360\231\030\265\031\264R\031\231\231\301\024\013s&"
 364      19B45219 
 364      9999C114 
 364      0B7326
 365 0081 23631C48 		.ascii	"#c\034H\301\015N \021\007\322\333\301\015d\315\340\004"
 365      C10D4E20 
 365      1107D2DB 
 365      C10D64CD 
 365      E004
 366 0093 FB211568 		.ascii	"\373!\025h8+\220dc`8\307\300\010t#\314>\230\263\030"
 366      382B9064 
 366      636038C7 
 366      C0087423 
 366      CC3E98B3 
 367 00a8 C1AE01BA 		.ascii	"\301\256\001\272\211AFOO\037\202JR\213K\364\213J\300"
 367      8941464F 
 367      4F1F824A 
 367      528B4BF4 
 367      8B4AC0
 368 00bb 746E527E 		.ascii	"tnR~\205^2\003\000\232\0272%"
 368      855E3203 
 368      009A1732 
 368      25
 369              		.text
 370              		.section	.gnu.lto_.cgraph.7a7b32ca3407265d,"",%progbits
 371 0000 789C3D90 		.ascii	"x\234=\220OK\202A\020\306gv\375\257}\214\276D\337\246"
 371      4F4B8241 
 371      10C66776 
ARM GAS  /tmp/ccP24VBg.s 			page 30


 371      FDAF7D8C 
 371      BE44DFA6 
 372 0014 2EDD3AD4 		.ascii	".\335:\324!0h\205=\325\245\350\022DthAAKK\301\300 \017"
 372      21306885 
 372      3DD5A5E8 
 372      12447468 
 372      41414B4B 
 373 002c EFDD0E41 		.ascii	"\357\335\016A\327\312\005\005\003\203\204\016B\232;"
 373      D7CA0505 
 373      0383840E 
 373      429A3B
 374 003b 0FAD079F 		.ascii	"\017\255\007\237\3677\363<3\303*b\322D\324U\204\237"
 374      F737F33C 
 374      33C32A62 
 374      D244D455 
 374      849F
 375 004d AAB1213A 		.ascii	"\252\261!:\035\2201\227G\233\252\312\206#q\235\215\022"
 375      1D903197 
 375      479BAACA 
 375      8623719D 
 375      8D12
 376 005f AA54983B 		.ascii	"\252T\230;lt\204{6\251\010wl\322\021\332l2\021\232l"
 376      6C74847B 
 376      36A90877 
 376      6CD211DA 
 376      6C32119A 
 377 0074 B2116ED9 		.ascii	"\262\021n\331\344\"\264\330\344#4\330\024\"\334\260"
 377      E422B4D8 
 377      E42334D8 
 377      1422DCB0 
 378 0084 2946E8B2 		.ascii	")F\350\262)\375\203&E\376c\261\322\002\331\343\267\015"
 378      29FD8326 
 378      45FE63B1 
 378      D202D9E3 
 378      B70D
 379 0096 61D122B9 		.ascii	"a\321\"\271\3018\023\330>\007-Pr\362+~w\0264G\356e="
 379      C13813D8 
 379      3E072D50 
 379      72F22B7E 
 379      77163447 
 380 00ad 60F2BA1E 		.ascii	"`\362\272\036\334\366|M\302A\262\344/\304j\257\220\330"
 380      DCF67C4D 
 380      C241B2E4 
 380      2FC46AAF 
 380      90D8
 381 00bf 12E3B67C 		.ascii	"\022\343\266|\357h\312\223\335\025\363\352?M~OS\212"
 381      EF68CA93 
 381      DD15F3EA 
 381      3F4D7E4F 
 381      538A
 382 00d1 ECBEDC50 		.ascii	"\354\276\334P\226z9x\334\201\2148\224\224\221\011\327"
 382      967A3978 
 382      DC818C38 
 382      94949109 
 382      D7
 383 00e2 2C6187BB 		.ascii	",a\207\273\203d\310W\261\252\216UM\221\244\003\352\341"
 383      8364C857 
ARM GAS  /tmp/ccP24VBg.s 			page 31


 383      B1AA8E55 
 383      4D91A403 
 383      EAE1
 384 00f4 D22758FA 		.ascii	"\322'X\372BI\037\275\241\220\037\"\340\205\354\010\243"
 384      42491FBD 
 384      A1901F22 
 384      E085EC08 
 384      A3
 385 0105 47C88DD1 		.ascii	"G\310\215\321\233\240\370\211}S\014\373\346p\274\235"
 385      9BA0F889 
 385      7D530CFB 
 385      E670BC9D 
 386 0115 71B8DEFD 		.ascii	"q\270\336\375\3009\207s\011KU\205\267\2605%\305\232"
 386      C0398773 
 386      094B5585 
 386      B7B03525 
 386      C59A
 387 0127 90AB0BD9 		.ascii	"\220\253\013\331\206P\322P\270Z\3107\205\222\026rm\364"
 387      8650D250 
 387      B85AC837 
 387      85921672 
 387      6DF4
 388 0139 3A287655 		.ascii	":(vU\330\236<`XO\311\323=*y\273>\234\036\316\011,\323"
 388      D89E3C60 
 388      584FC9D3 
 388      3D2A79BB 
 388      3E9C1ECE 
 389 0150 9568725F 		.ascii	"\225hr_\350\315\320\233\203\2268\242\2525\227\310\276"
 389      E8CDD09B 
 389      839638A2 
 389      AA3597C8 
 389      BE
 390 0161 2F98FE00 		.ascii	"/\230\376\000W\265\254("
 390      57B5AC28 
 391              		.text
 392              		.section	.gnu.lto_.vars.7a7b32ca3407265d,"",%progbits
 393 0000 789C6362 		.ascii	"x\234cb`d`f``\220d\200\000\226\245\214\014,\365\314"
 393      60646066 
 393      60609064 
 393      800096A5 
 393      8C0C2CF5 
 394 0015 5B181919 		.ascii	"[\030\031\031\352\031V22\261\3263\254`d\006\222\000"
 394      EA195632 
 394      32B1D633 
 394      AC606406 
 394      9200
 395 0027 43AF04E5 		.ascii	"C\257\004\345"
 396              		.text
 397              		.section	.gnu.lto_.refs.7a7b32ca3407265d,"",%progbits
 398 0000 789C6362 		.ascii	"x\234cb`d`f``\270\306\000\001\346@>+\022d\204BL\036"
 398      60646066 
 398      6060B8C6 
 398      0001E640 
 398      3E2B1264 
 399 0018 AA0C4C84 		.ascii	"\252\014L\204\030qF$\310\304\010T\301\310\300\302\304"
 399      18714624 
 399      C8C40854 
ARM GAS  /tmp/ccP24VBg.s 			page 32


 399      C1C8C0C2 
 399      C4
 400 0029 CA0C811C 		.ascii	"\312\014\201\034\314,\214,\014\310X\001\250\000\012"
 400      CC2C8C2C 
 400      0CC85801 
 400      A8000A
 401 0038 614692C8 		.ascii	"aF\222\310g\000\000\217\253\002\336"
 401      6700008F 
 401      AB02DE
 402              		.text
 403              		.section	.gnu.lto_.statics.7a7b32ca3407265d,"",%progbits
 404 0000 789C6362 		.ascii	"x\234cb`d`b\300\016@\342\214\020&\000\000\375\000\011"
 404      60646062 
 404      C00E40E2 
 404      8C102600 
 404      00FD0009 
 405              		.text
 406              		.section	.gnu.lto_.decls.7a7b32ca3407265d,"",%progbits
 407 0000 789CAD5B 		.ascii	"x\234\255[{p\024E\032\357\231Iv\263I\014>\251h\251\344"
 407      7B701445 
 407      1AEF9949 
 407      76B3490C 
 407      3EA968A9 
 408 0015 2C39913B 		.ascii	",9\221;\022\"\034`)\026\212w\212u\234W\026\336\177{"
 408      12221C60 
 408      29168A77 
 408      8A759C57 
 408      16DE7F7B 
 409 0029 EB663390 		.ascii	"\353f3\220\325\354\203\335\211\001\357\376\030B\011"
 409      D5EC83DD 
 409      8901EFFE 
 409      184209
 410 0038 518FBB60 		.ascii	"Q\217\273`\011\005D0(A\020\201\000B\024.\020\345!`@"
 410      09054430 
 410      28411081 
 410      0042142E 
 410      10E52160 
 411 004d D02082E1 		.ascii	"\320 \202\341qEDOS\034h\010 \201\334\327\3353=\217\235"
 411      7145444F 
 411      531C6808 
 411      2081DCD7 
 411      DD333D8F 
 412 0062 997D2453 		.ascii	"\231}$S\351\235\336\336\376~\337\357\373\372\353\347"
 412      E99DDEDE 
 412      FE7EDFEF 
 412      FBFAEBE7 
 413 0072 4C78C421 		.ascii	"Lx\304!|\235\207[\037\\\217\216E\350\276l\204\004(\033"
 413      7C9D875B 
 413      1F5C8F8E 
 413      45E8BE6C 
 413      8404281B 
 414 0086 0F290F12 		.ascii	"\017)\017\022|E\015\220\376\010u&CZ\015\371\2479Z\347"
 414      7C450D90 
 414      FE087526 
 414      435A0DF9 
 414      A7395AE7 
 415 009a 59B8FF05 		.ascii	"Y\270\377\005\322_!\375\036\022\017e\317\303\3759H7"
ARM GAS  /tmp/ccP24VBg.s 			page 33


 415      D25F21FD 
 415      1E120F65 
 415      CFC3FD39 
 415      4837
 416 00ac 403E0EF7 		.ascii	"@>\016\367jH/A\252\2014\007\322? \325AZ\000i\011\244"
 416      6A482F41 
 416      AA813407 
 416      D23F20D5 
 416      415A0069 
 417 00c2 3721BD0D 		.ascii	"7!\275\015i\025\244\367 e\201\\\023\334\267@\372\022"
 417      6915A4F7 
 417      2065815C 
 417      13DCB740 
 417      FA12
 418 00d4 D27F2945 		.ascii	"\322\177)Eva\314{\341\376w\270\027\300=_\341\350\202"
 418      7661CC7B 
 418      E1FE77B8 
 418      17C03D5F 
 418      E1E882
 419 00e7 B40A522F 		.ascii	"\264\012R/\242\0341\237Cp\357\206\373E\216\332p\011"
 419      A21C319F 
 419      4370EF86 
 419      FB458EDA 
 419      7009
 420 00f9 EECD70BF 		.ascii	"\356\315p\277\014\367\277A\272\242\330\361\016Gm\372"
 420      0CF7BF41 
 420      BAA2D8F1 
 420      0E476DFA 
 421 0109 05D24248 		.ascii	"\005\322BH\313\241\354*\334\227B\352\2054\017\3225N"
 421      CBA1EC2A 
 421      DC9742EA 
 421      85340FD2 
 421      354E
 422 011b F3C15C48 		.ascii	"\363\301\\H\327!\315\307~\2034\233\243\372\237\202\373"
 422      D721CDC7 
 422      7E83349B 
 422      A3FA9F82 
 422      FB
 423 012c E3983BE4 		.ascii	"\343\230;\344?\200\264\021\322\273\212\037\343\212\037"
 423      3F80B411 
 423      D2BB8A1F 
 423      E38A1F
 424 013b 545B9728 		.ascii	"T[\227(>xS\361\311\034\305/5\012'\354\003\354P\2167"
 424      3E7853F1 
 424      C91CC52F 
 424      350A27EC 
 424      03EC508E 
 425 0150 DA8FFDE9 		.ascii	"\332\217\375\351\306?\361\324&s\033\2541\265\003\257"
 425      C63FF1D4 
 425      26731BAC 
 425      31B503AF 
 426 0160 C8BCA7E4 		.ascii	"\310\274\247\344U\337\352\257<\364\252,\327\310\015"
 426      55DFEAAF 
 426      3CF4AA2C 
 426      D7C80D
 427 016f 73E427F7 		.ascii	"s\344'\367\026\334\214\346\313p\025\355\005\357\336"
 427      16DC8CE6 
ARM GAS  /tmp/ccP24VBg.s 			page 34


 427      CB7015ED 
 427      05EFDE
 428 017e 8EBC5C81 		.ascii	"\216\274\\\201\007\241V\236d\363!;\014\352\017E+d\271"
 428      07A1569E 
 428      64F3213B 
 428      0CEA0F45 
 428      2B64B9
 429 0191 0E2A715E 		.ascii	"\016*q^n9w3\340\362\034\032\216V\313\344R\300\225[>"
 429      6E397733 
 429      E0F21C1A 
 429      8E56CBE4 
 429      52C0955B 
 430 01a6 5AB76FC3 		.ascii	"Z\267o\303\2354\237\0024\202|#@z\271\025\334p\252H\246"
 430      9D349F02 
 430      34827C23 
 430      407AB915 
 430      DC70AA48 
 431 01bb 8A702952 		.ascii	"\212p)R\312\333\232](\361r\375\0125\200\035u\263\345"
 431      CADB9A5D 
 431      28F172FD 
 431      0A35801D 
 431      75B3E5
 432 01ce 275D0693 		.ascii	"']\006\223<\250\026\203\320/\232\352\"\2469\313d\324"
 432      3CA81683 
 432      D02F9AEA 
 432      22A639CB 
 432      64D4
 433 01e0 6ACE0346 		.ascii	"j\316\003F\215\341\024u?\375\270\251K\240:\322\206z"
 433      8DE11475 
 433      3FFDB8A9 
 433      4BA03AD2 
 433      867A
 434 01f2 9F404D57 		.ascii	"\237@MW\241\316\376k\307\236\021H1\324\345\321\323'"
 434      A1CEFE6B 
 434      C79E1148 
 434      31D4E5D1 
 434      D327
 435 0204 DF692D0A 		.ascii	"\337i-\012\214\177\306\312.\343\276\311\365\251\027"
 435      8C7FC6CA 
 435      2EE3BEC9 
 435      F5A917
 436 0213 A7FE86BF 		.ascii	"\247\376\206\277\270\321@@X\233\201\361Vqy*8\217\316"
 436      B8D14040 
 436      589B81F1 
 436      5671792A 
 436      388FCE
 437 0226 719CD23C 		.ascii	"q\234\322<\353V\257\277\313ZH\315\323K\255\243\\\272"
 437      EB56AFBF 
 437      CB5A48CD 
 437      D34BADA3 
 437      5CBA
 438 0238 06A2D03C 		.ascii	"\006\242\320<\364E\025\263\323\235\016b\221-b\037C\354"
 438      F44515B3 
 438      D39D0E62 
 438      912D621F 
 438      43EC
 439 024a 4E829893 		.ascii	"N\202\230\223\"\307Z^E\354M\013Q\317\021\307\303\223"
ARM GAS  /tmp/ccP24VBg.s 			page 35


 439      22C75A5E 
 439      45EC4D0B 
 439      51CF11C7 
 439      C393
 440 025c 2EAB1EF0 		.ascii	".\253\036\360\034\223\3167\305N3\351[\363y5xz\032\177"
 440      1C93CE37 
 440      C54E33E9 
 440      5BF37935 
 440      787A1A7F 
 441 0270 BECBBE27 		.ascii	"\276\313\276'\031qx\324B\344\266Zv\246\255\272\316\324"
 441      197178D4 
 441      42E4B65A 
 441      76A6ADBA 
 441      CED4
 442 0282 B530D7A2 		.ascii	"\2650\327\2423\361\211\254\033&\350\325M0\030\255\247"
 442      33F189AC 
 442      1B26E8D5 
 442      4D3018AD 
 442      A7
 443 0293 BD9DD0FE 		.ascii	"\275\235\320\376\224\321\336\276\366\304\036\301\300"
 443      94D1DEBE 
 443      F6C41EC1 
 443      C0
 444 02a0 DB0909D3 		.ascii	"\333\011\011\323\372\330\222\364\307:\322\035K\246\332"
 444      FAD892F4 
 444      C73AD21D 
 444      4BA6DA
 445 02af 92B61801 		.ascii	"\222\266\030\001\254\374\325\220\305\364>N\034v\231"
 445      ACFCD590 
 445      C5F43E4E 
 445      1C7699
 446 02be 30DE6DA9 		.ascii	"0\336m\251{\267~\364y\253\314B\367\315\206\300\331E"
 446      7BB77EF4 
 446      79ABCC42 
 446      F7CD86C0 
 446      D945
 447 02d0 439121B6 		.ascii	"C\221!\266\277\365\003\327\337\016C1\347\010*f\347\220"
 447      BFF503D7 
 447      DF0E4331 
 447      E7082A66 
 447      E790
 448 02e2 FE751832 		.ascii	"\376u\0302\226\325\2441\226\035 c\331<\201\215\213\337"
 448      96D5A431 
 448      961D2063 
 448      D93C818D 
 448      8BDF
 449 02f4 18C7C574 		.ascii	"\030\307\305t\260\016\021\254\005\20260\036\336S\202"
 449      B00E11AC 
 449      05823630 
 449      1EDE5382 
 450 0304 94F6779B 		.ascii	"\224\366w\233\006F\267qT\243?\2539<\206\015B\351\013"
 450      0646B771 
 450      54A33FAB 
 450      393C860D 
 450      42E90B
 451 0317 F0681973 		.ascii	"\360h\031s\345\366\265\327>}0\323\301B&\336TC\333eo"
 451      E5F6B5D7 
ARM GAS  /tmp/ccP24VBg.s 			page 36


 451      3E7D30D3 
 451      C14226DE 
 451      5443DB65 
 452 032c 3F8F1A89 		.ascii	"?\217\032\211\306#\226!vD\027b=[\216~Vh\021d\\Z\001"
 452      C6239621 
 452      76441762 
 452      3D5B8E7E 
 452      56681164 
 453 0343 AE4DADF7 		.ascii	"\256M\255\367\022\355_\022\355\307-\265\037\327i\277"
 453      12ED5F12 
 453      EDC72DB5 
 453      1FD769BF 
 454 0353 DEF2CD20 		.ascii	"\336\362\315 \013\345\036;\345^n\374m)4\371I\022\277"
 454      0BE51E3B 
 454      E55E6EFC 
 454      6D2934F9 
 454      4912BF
 455 0366 AF64B1E1 		.ascii	"\257d\261\341l\313\216\375C\324\026{$O\257\212|W[\220"
 455      6CCB8EFD 
 455      43D4167B 
 455      244FAF8A 
 455      7C575B90 
 456 037a 707F3D4B 		.ascii	"p\177=K\345~\275e\303\027\367\367\267/Q.\013\030h\333"
 456      E57EBD65 
 456      C317F7F7 
 456      B72F512E 
 456      0B1868DB 
 457 038e A4FE4E3E 		.ascii	"\244\376N>\024q\021ClO\202\230|\362\241\210\365\014"
 457      14711143 
 457      6C4F8298 
 457      7CF2A188 
 457      F50C
 458 03a0 B1232D44 		.ascii	"\261#-D{\216\313\030bg\022\304\033S\344\270\234!v\245"
 458      7B8ECB18 
 458      626712C4 
 458      1B53E4B8 
 458      9C2176A5 
 459 03b4 8568CF71 		.ascii	"\205h\317q\005C\354N\202X\230\"\307U\014\2617-D{\216"
 459      0543EC4E 
 459      82589822 
 459      C7550CB1 
 459      372D447B 
 460 03c9 EF33C45D 		.ascii	"\3573\304]O9#\026YqL\210)\363\332\353\230~\355\265>"
 460      4F392316 
 460      59714C88 
 460      29F3DAEB 
 460      987EEDB5 
 461 03de 4B1D397A 		.ascii	"K\0359z\266\034\373\254$\203\370gP\233\262\264a\257"
 461      B61CFBAC 
 461      2483F867 
 461      509BB2B4 
 461      61AF
 462 03f0 2FBD61CF 		.ascii	"/\275a\317\312\031tZ\372\210\201\266\255J6\325%\017"
 462      CA19745A 
 462      FA8881B6 
 462      AD4A36D5 
 462      250F
ARM GAS  /tmp/ccP24VBg.s 			page 37


 463 0402 2B8AF931 		.ascii	"+\212\3711\303l\037\326\277\260J\334\016\324\310\247"
 463      C36C1FD6 
 463      BFB04ADC 
 463      0ED4C8A7 
 464 0412 1B5B0B17 		.ascii	"\033[\013\027\351\206\313\034\206\206\267.\332\330\310"
 464      E986CB1C 
 464      8686B72E 
 464      DAD8C8
 465 0421 AACB8585 		.ascii	"\252\313\205\205v\265\275\334Un(|\366r\036\306D\311"
 465      76B5BDDC 
 465      556E287C 
 465      F6721EC6 
 465      44C9
 466 0433 B36C1FD9 		.ascii	"\263l\037\331\201\355\313\302\365M\0330\245\301\223"
 466      81EDCBC2 
 466      F54D1B30 
 466      A5C193
 467 0442 49DB87CA 		.ascii	"I\333\207\312\025}\250\034\324\232\"\3118\351\320w\316"
 467      157DA81C 
 467      D49A22C9 
 467      38E9D077 
 467      CE
 468 0453 D7C8852E 		.ascii	"\327\310\205.\235\351I<\245\014\3612\217g\365#l\210"
 468      9DE9493C 
 468      A50CF132 
 468      8F67F523 
 468      6C88
 469 0465 FF698D79 		.ascii	"\377i\215y\205\220:\326l\202u2K[!l\276\306\253\256\342"
 469      85903AD6 
 469      6C827532 
 469      4B5B216C 
 469      BEC6ABAE 
 470 047a 4C2B04CE 		.ascii	"L+\004\3168\341k\316S}\227^m\036\235\325u\222c\373\037"
 470      38E16BCE 
 470      537D975E 
 470      6D1E9DD5 
 470      759263FB 
 471 048f B4A69BC2 		.ascii	"\264\246\233\302\210\221\231\037k\211\355\3474?\326"
 471      8891991F 
 471      6B89EDE7 
 471      343FD6
 472 049e 333F52C7 		.ascii	"3?R\307\244kN\217\316\234\013\351\2313\254\377\346\314"
 472      A46B4E8F 
 472      CE9C0BE9 
 472      9933ACFF 
 472      E6CC
 473 04b0 23E65CD7 		.ascii	"#\346\\\327\314\331\326Os\346dk\346\\M\317\234\221:"
 473      CCD9D64F 
 473      73E6646B 
 473      E65C4DCF 
 473      9C913A
 474 04c3 73E8CAED 		.ascii	"s\350\312\355\026\364z\262\225\033\246\365:\177\013"
 474      16F47AB2 
 474      951BA6F5 
 474      3A7F0B
 475 04d2 4A5C37E1 		.ascii	"J\\7\341R\2661XW\200\022\257,\235*\365ha\036\341\217"
 475      52B63158 
ARM GAS  /tmp/ccP24VBg.s 			page 38


 475      578012AF 
 475      2C9D2AF5 
 475      68611EE1 
 476 04e7 6577AD3F 		.ascii	"ew\255?\233\361\306\300\210\371\006\303\354\315dz0\214"
 476      9BF1C6C0 
 476      88F906C3 
 476      ECCD647A 
 476      308C
 477 04f9 BF8FE0E1 		.ascii	"\277\217\340\341w)\003\354\376\260\277\273\227\264\367"
 477      772903EC 
 477      FEB0BFBB 
 477      97B4F7
 478 0508 07F52464 		.ascii	"\007\365$dVd\263\220ym\263\0262\207\314\335?\265\365"
 478      5664B390 
 478      796DB316 
 478      3287CCDD 
 478      3FB5F5
 479 051b 7E133368 		.ascii	"~\0233h\373\332m\007\223L|\226\026)\027\217\232Y\000"
 479      FBDA6D07 
 479      934C7C96 
 479      1629178F 
 479      9A5900
 480 052e F626C129 		.ascii	"\366&\301)J\322|)\354\033\014\347m<\336\\oc~\351\252"
 480      4AD27C29 
 480      EC1B0CE7 
 480      6D3CDE5C 
 480      6F637EE9 
 481 0543 57622E05 		.ascii	"Wb.\005\034\022\247\274\325\352\037\227\262\255u\275"
 481      1C12A7BC 
 481      D5EA1F97 
 481      B2AD75BD 
 482 0553 D5D69A4B 		.ascii	"\325\326\232K\230\237\275\334>\216W\020;\3533\012\220"
 482      989FBDDC 
 482      3E8E5710 
 482      3BEB330A 
 482      90
 483 0564 C44B4FD0 		.ascii	"\304KO\320\3135\362C\021\260[\011\373z\346\371\375\314"
 483      CB35F243 
 483      11B05B09 
 483      FB7AE6F9 
 483      FDCC
 484 0576 F39D5B93 		.ascii	"\363\235[\223u\035\243\357\213\014\276\227\211!\364"
 484      751DA3EF 
 484      8B0CBE97 
 484      8921F4
 485 0585 ACA29D61 		.ascii	"\254\242\235a\266?\244\3266\236J\250\371aIZS\355\214"
 485      B63FA4D6 
 485      369E4AA8 
 485      F961495A 
 485      53ED8C
 486 0598 A71862F7 		.ascii	"\247\030b\367C\316\034G\332\"\252\316\246]\341[\315"
 486      43CE1C47 
 486      DA22AACE 
 486      A65DE15B 
 486      CD
 487 05a9 EE87D341 		.ascii	"\356\207\323A,J@L\272q\2249\303\302\212G\347\211\356"
 487      2C4A404C 
ARM GAS  /tmp/ccP24VBg.s 			page 39


 487      BA719439 
 487      C3C28A47 
 487      E789EE
 488 05bc 26CBD069 		.ascii	"&\313\320i\322\205\316\326S\207OZm[\005\013\237/t\251"
 488      D285CED6 
 488      53874F5A 
 488      6D5B050B 
 488      9F2F74A9 
 489 05d0 981DCD05 		.ascii	"\230\035\315\005\316N\267\214\035\213\365\3422\006\331"
 489      CE4EB78C 
 489      1D8BF5E2 
 489      3206D9
 490 05df 75B4C0D9 		.ascii	"u\264\300\331G\311v_\351\372H\337E?\"]t\245\213u\321"
 490      47C9765F 
 490      E9FA48DF 
 490      453F225D 
 490      74A58B75 
 491 05f4 AFF2D4E0 		.ascii	"\257\362\324\340\246\316\322E{\223.\3327B\264\013^n"
 491      A6CED245 
 491      7B932EDA 
 491      3742B40B 
 491      5E6E
 492 0606 1344BB97 		.ascii	"\023D\273\227\333L>\233\265\310\267\357\322\037\362"
 492      DB4C3E9B 
 492      B5C8B7EF 
 492      D21FF2
 493 0615 BAC5DF3A 		.ascii	"\272\305\337:\346\203\336\364|Pdh1{m\353\365\3326\273"
 493      E683DEF4 
 493      7C506468 
 493      317B6DEB 
 493      F5DA36BB 
 494 0629 B479B879 		.ascii	"\264y\270y\220\263\272qI[\221\236/\355`\230\275-\311"
 494      90B3BA71 
 494      495B919E 
 494      2FED6098 
 494      BD2DC9
 495 063c 3AF83813 		.ascii	":\3708\023\331DL2\223\355g\220]\333\223\015T\023\254"
 495      D9444C32 
 495      93ED6790 
 495      5DDB930D 
 495      5413AC
 496 064f 6826F50A 		.ascii	"h&\365\012\035\020\331y\205:6\342#\313\316;\372;\033"
 496      1D10D979 
 496      853A36E2 
 496      23CBCE3B 
 496      FA3B1B
 497 0662 53F0CF18 		.ascii	"S\360\317\030bWZ\210\306\206\325]\372sV/\367\011l`x"
 497      62575A88 
 497      C686D55D 
 497      FA73562F 
 497      F7096C60 
 498 0677 2FB793C3 		.ascii	"/\267\223\303q\367\211~\304\375\302\245\036$\3674\236"
 498      71F7897E 
 498      C4FDC2A5 
 498      1E24F734 
 498      9E
 499 0688 382064DA 		.ascii	"8 d\332Wem!\220\316\003\224\335d\364;\356\322\266\024"
ARM GAS  /tmp/ccP24VBg.s 			page 40


 499      57656D21 
 499      90CE0394 
 499      DD64F43B 
 499      EED2B614 
 500 069c BA85C0FB 		.ascii	"\272\205\300\373\346\205@f\317?xtZg\343\005\315\306"
 500      E6854066 
 500      CF3F7874 
 500      5A67E305 
 500      CDC6
 501 06ae 34060F2B 		.ascii	"4\006\017+\377n\325\371\367\337\324\277-\304\277\273"
 501      FF6ED5F9 
 501      F7DFD4BF 
 501      2DC4BFBB 
 502 06be F4FE3DEB 		.ascii	"\364\376=\353b\217U^)UQ\237c\332\362u\232\355w\316\352"
 502      628F555E 
 502      2955519F 
 502      63DAF275 
 502      9AED77CE 
 503 06d3 E04A9F19 		.ascii	"\340J\237\031\\`\220\355\205\316\210\226[\027+[\032"
 503      5C6090ED 
 503      85CE8896 
 503      5B172B5B 
 503      1A
 504 06e4 75B6AC04 		.ascii	"u\266\254\004[@\327\273\304\226&\362\271\221|~@>\267"
 504      5B40D7BB 
 504      C49626F2 
 504      B9917C7E 
 504      403EB7
 505 06f7 90CFFDA9 		.ascii	"\220\317\375\251\214]\015\332\306\3250\344\336\204\352"
 505      8C5D0DDA 
 505      C6D530E4 
 505      DE84EA
 506 0706 C890BBA8 		.ascii	"\310\220\273\250\200\356\177\265\325\273\212\340R\020"
 506      80EE7FB5 
 506      D5BB8AE0 
 506      5210
 507 0714 0EF03791 		.ascii	"\016\3607\221\234!\260H\025{\255\007\225-\207\026\264"
 507      9C21B048 
 507      157BAD07 
 507      952D8716 
 507      B4
 508 0725 6A2E3B29 		.ascii	"j.;)\3436m\374S\026\265\362\034y\330*],\337\310d\360"
 508      E3366DFC 
 508      5316B5F2 
 508      1C79D82A 
 508      5D2CDFC8 
 509 073b 76551FCB 		.ascii	"vU\037\313\237\223X\276\306b\271g\313\246\375\3033\304"
 509      9F9358BE 
 509      C662B967 
 509      CBA6FDC3 
 509      33C4
 510 074d FA8260CD 		.ascii	"\372\202`\315uk\333\343\023\273Y\277\020L\335B0v\013"
 510      756BDBE3 
 510      13BB59BF 
 510      104CDD42 
 510      30760B
 511 0760 81D92C90 		.ascii	"\201\331,\220N \240t\253[6V\355\031\365\260\244u\216"
ARM GAS  /tmp/ccP24VBg.s 			page 41


 511      4E20A074 
 511      AB5B3656 
 511      ED19F5B0 
 511      A4758E
 512 0773 5CCBCDC2 		.ascii	"\\\313\315\302\317}\255G\013\275!G\211!un\315)\247L"
 512      CF7DAD47 
 512      0BBD2147 
 512      8921756E 
 512      CD29A74C 
 513 0787 4E4907ED 		.ascii	"NI\007\3558A\253\327\271\345\302\247\017\253vyLn\361"
 513      3841ABD7 
 513      B9E5C2A7 
 513      0FAB7679 
 513      4C6EF1
 514 079a 18EDF430 		.ascii	"\030\355\3640;=\312\330@G\013\224\241\224\312\266\365"
 514      3B3DCAD8 
 514      40470B94 
 514      A194CAB6 
 514      F5
 515 07ab 5646772F 		.ascii	"VFw/\257\200|\225A\330\236\260\015\333aI\303\366\210"
 515      AF807C95 
 515      41D89EB0 
 515      0DDB6149 
 515      C3F688
 516 07be 16B6EA72 		.ascii	"\026\266\352r\006\232K\307q*\023\371>_\2219i\271"
 516      069A4BC7 
 516      712A13F9 
 516      3E5F9139 
 516      69B9
 517 07d0 E03BA95B 		.ascii	"\340;\251[\360m\354\231\177f\034J\274\262\331\230T+"
 517      F06DEC99 
 517      7F661C4A 
 517      BCB2D998 
 517      542B
 518 07e2 B8A8B13C 		.ascii	"\270\250\261<j!\215\202\305\273\026\015\266\363M*\363"
 518      6A218D82 
 518      C5BB160D 
 518      B6F34D2A 
 518      F3
 519 07f3 8801B595 		.ascii	"\210\001\265\225\241v\027&\003U\274\237\002\352N\206"
 519      A1761726 
 519      0355BC9F 
 519      02EA4E86 
 520 0803 DA9B14B5 		.ascii	"\332\233\024\265.;U\324=\014u\327\355\311P\277v\247"
 520      2E3B55D4 
 520      3D0C75D7 
 520      EDC950BF 
 520      76A7
 521 0815 8ABA8FA1 		.ascii	"\212\272\217\241\266%Em\310\265B\265\004?I\226\261m"
 521      B625456D 
 521      C8B542B5 
 521      043F4996 
 521      B16D
 522 0827 00AE1C90 		.ascii	"\000\256\034\2208\007\014\217>'<\272,\217I\272t\307"
 522      38070C8F 
 522      3E273CBA 
 522      2C8F49BA 
ARM GAS  /tmp/ccP24VBg.s 			page 42


 522      74C7
 523 0839 241D8BEE 		.ascii	"$\035\213\356\266\010\031\230\033\177\200\031\203q("
 523      B6081998 
 523      1B7F8019 
 523      837128
 524 0848 74E9E700 		.ascii	"t\351\347\000|H\344\024\252\3473\350N\027l\273\323w"
 524      7C48E414 
 524      AAE733E8 
 524      4E176CBB 
 524      D377
 525 085a F92A29D4 		.ascii	"\371*)\324\301\214\352X\034\266c\340\030\264\312\325"
 525      C18CEA58 
 525      1CB663E0 
 525      18B4CAD5 
 526 086a BE787046 		.ascii	"\276xpF\342C\3202\271\365<^;\301\"\306=\030-P\354\223"
 526      E243D032 
 526      B9F53C5E 
 526      3BC122C6 
 526      3D182D50 
 527 0880 39C9E1B9 		.ascii	"9\311\341\271\033\266\257\233\037\254\344\246\010\252"
 527      1BB6AF9B 
 527      1FACE4A6 
 527      08AA
 528 088e 3967D8C0 		.ascii	"9g\330\300\270\262o\376w_\263\201\377\327\250\021\343"
 528      B8B26FFE 
 528      775FB381 
 528      FFD7A811 
 528      E3
 529 089f B6D61412 		.ascii	"\266\326\024\022P,\3643?\304`\200\227\273\310\033^F"
 529      502CF433 
 529      3FC46080 
 529      97BBC81B 
 529      5E46
 530 08b1 3232A3FA 		.ascii	"22\243\372x\364\317\034UCo\241\003\372\245\004\364\313"
 530      78F4CF1C 
 530      55436FA1 
 530      03FAA504 
 530      F4CB
 531 08c3 89E8A7EB 		.ascii	"\211\350\247\353\352f7$\332\235\203\346\222\363\307"
 531      EA663724 
 531      DA9D83E6 
 531      92F3C7
 532 08d2 97E559DC 		.ascii	"\227\345Y\334t\315av\007\370\260\202\340s\200\331\222"
 532      74CD6176 
 532      07F8B082 
 532      E07380D9 
 532      92
 533 08e3 1C87A377 		.ascii	"\034\207\243w^[\324)y\226u<y\277\2528Y \0234\024d\303"
 533      5E5BD429 
 533      7996753C 
 533      79BFAA38 
 533      59201334 
 534 08fa FCC3BE50 		.ascii	"\374\303\276P(\255\001\240\274\201\371\007\006\317s"
 534      28AD01A0 
 534      BC81F907 
 534      06CF73
 535 0909 B58291C7 		.ascii	"\265\202\221\307,!U'$i\374\331\202\211\027^iq\006&k"
ARM GAS  /tmp/ccP24VBg.s 			page 43


 535      2C215527 
 535      2469FCD9 
 535      8289175E 
 535      69710626 
 536 091e 199375AF 		.ascii	"\031\223u\257\2147\322x9\015\032\330F{\036s\315<t\376"
 536      8C37D278 
 536      390D1AD8 
 536      467B1E73 
 536      CD3C74FE 
 537 0932 313D44D6 		.ascii	"1=D\326\257\363\022\201^\025\362\364\014uv4\353<\272"
 537      AFF31281 
 537      5E15F2F4 
 537      0C757634 
 537      EB3CBA
 538 0945 216C34E4 		.ascii	"!l4\344\265\201\362\347<\263\035\230\255\321\237\007"
 538      B581F2E7 
 538      3CB31D98 
 538      ADD19F07 
 539 0955 188FEE3B 		.ascii	"\030\217\356;\214,\376\225\006\213\325\216^\230o\325"
 539      8C2CFE95 
 539      068BD58E 
 539      5E986FD5 
 540 0965 AC5ABCD1 		.ascii	"\254Z\274\321\327\265\014\254Nh\255\274xG\233!\372\275"
 540      D7B50CAC 
 540      4E68ADBC 
 540      78479B21 
 540      FABD
 541 0977 DC1B0346 		.ascii	"\334\033\003Fl\2413\261\325d\243f \366\275\346.\303"
 541      6CA133B1 
 541      D564A366 
 541      20F6BDE6 
 541      2EC3
 542 0989 7CE0E516 		.ascii	"|\340\345\026;\261\242\252xt\211\211w\230\304\353\007"
 542      3BB1A2AA 
 542      78748989 
 542      7798C4EB 
 542      07
 543 099a CCA8A556 		.ascii	"\314\250\245VF\011&o\263\257\237\363\0116\316\362\260"
 543      4609266F 
 543      B3AF9FF3 
 543      0936CEF2 
 543      B0
 544 09ab C1D04472 		.ascii	"\301\320Dr\371\200\221|\307\231$\365\274\023\311\327"
 544      F980917C 
 544      C79924F5 
 544      BC13C9D7 
 545 09bb 18C93613 		.ascii	"\030\3116\023\311w\235\033\342\035\322\020o0\361N\223"
 545      C9779D1B 
 545      E21DD210 
 545      6F30F14E 
 545      93
 546 09cc F8EA81EA 		.ascii	"\370\352\201\352|k\322j\207\335\211&\276\255\265\303"
 546      7C6BD26A 
 546      87DD8926 
 546      BEADB5C3 
 547 09dc 52C3CB5B 		.ascii	"R\303\313[^n\275\221\344=h\271\334z\010o\246\345\323"
 547      5E6EBD91 
ARM GAS  /tmp/ccP24VBg.s 			page 44


 547      E43D68B9 
 547      DC7A086F 
 547      A6E5D3
 548 09ef 7D7D43D4 		.ascii	"}}C\324\027\\7xt\363&{\357\312\342\345\325\015\012\334"
 548      175C3778 
 548      74F3267B 
 548      EFCAE2E5 
 548      D50D0ADC 
 549 0a03 28B451AE 		.ascii	"(\264Q\256\235@\305\225\255\362K\350\212\234CW\342\334"
 549      9D40C595 
 549      ADF24BE8 
 549      8A9C4357 
 549      E2DC
 550 0a15 6FD070BA 		.ascii	"o\320p\272|\023H\016\257\265\004\254\032\374#7\324\012"
 550      7C13480E 
 550      AFB504AC 
 550      1AFC2337 
 550      D40A
 551 0a27 B2DC0BDB 		.ascii	"\262\334\013\333,\272\356\340\321f\2176\300\035\336"
 551      2CBAEEE0 
 551      D1668F36 
 551      C01DDE
 552 0a36 F491DB6E 		.ascii	"\364\221\333n\035\201\3657k\346\320\005\025\302\214"
 552      1D81F537 
 552      6BE6D005 
 552      15C28C
 553 0a45 4F1592EF 		.ascii	"O\025\222\357\247\265-9\371\336db\265\004-\346\224U"
 553      A7B52D39 
 553      F9DE6462 
 553      B5042DE6 
 553      9455
 554 0a57 2529360D 		.ascii	"%)6\015\320\230\215}#m\323\006h\000\331\002\346\250"
 554      D0988D7D 
 554      236DD306 
 554      6800D902 
 554      E6A8
 555 0a69 0FE1F0BB 		.ascii	"\017\341\360\273=\267\262\211\227\236\025$s\006EPM@"
 555      3DB7B289 
 555      979E1524 
 555      73064550 
 555      4D40
 556 0a7b 96F43F18 		.ascii	"\226\364?\030 \034|^\241\266\0279?\241\3074j\321vZ\264"
 556      201C7C5E 
 556      A1B61739 
 556      3FA1C734 
 556      6AD1765A 
 557 0a90 53D566F2 		.ascii	"S\325f\362\012\376\331\336+\273u^!\254pu\312\017\253"
 557      0AFED9DE 
 557      2BBB755E 
 557      21AC7075 
 557      CA0FAB
 558 0aa3 027E4D84 		.ascii	"\002~M\204\037\346\240\362i\341\214\374\360i\234b'\206"
 558      1FE6A0F2 
 558      69E18CFC 
 558      F0699C62 
 558      2786
 559 0ab5 CB1007D1 		.ascii	"\313\020\007\321c'\365\350\213\024\3403\2324,OA\377"
ARM GAS  /tmp/ccP24VBg.s 			page 45


 559      6327F5E8 
 559      8B14E033 
 559      9A342C4F 
 559      41FF
 560 0ac7 7E7E60EC 		.ascii	"~~`\354\260\3071\331A6_\270\3534\265\262^\253\354\034"
 560      B0C731D9 
 560      41365FB8 
 560      EB34B5B2 
 560      5EABEC1C 
 561 0adb F06BA6AC 		.ascii	"\360k\246\254\261Z\265\203|\330ap\216\317;\266B\207"
 561      B15AB583 
 561      7CD86170 
 561      8ECF3BB6 
 561      4287
 562 0aed 4BE1D0DF 		.ascii	"K\341\320\337\313\035\025\360\231\354\327\202\325>\031"
 562      CB1D15F0 
 562      99ECD782 
 562      D53E19
 563 0afc 976AFBE4 		.ascii	"\227j\373\344\013V{\236,\3031\357\025\362\020c'\351"
 563      0B567B9E 
 563      2CC331EF 
 563      15F21063 
 563      27E9
 564 0b0e EC58B8F3 		.ascii	"\354X\270\363RZoD+\227\375Kzx}\356p\270 \350\316\365"
 564      525A6F44 
 564      2B97FD4B 
 564      7A787DEE 
 564      70B820E8 
 565 0b24 F732125D 		.ascii	"\3672\022]G]\351\220(J A\221yt\220A\366\377\265l\212"
 565      475DE990 
 565      284A2041 
 565      91797490 
 565      41F6FFB5 
 566 0b3a 78942166 		.ascii	"x\224!f\364Z6\213&z\224\223\345\345\216\013\370\334"
 566      F45A368B 
 566      267A9493 
 566      E5E58E0B 
 566      F8DC
 567 0b4c B2837C9E 		.ascii	"\262\203|\236\"\237\377\021\222\236a\232\234\374\225"
 567      229FFF11 
 567      929E619A 
 567      9CFC95
 568 0b5b E0341A9C 		.ascii	"\3404\032\234\021\014\2579\352`'\230\310\352B\230\212"
 568      110CAF39 
 568      EA602798 
 568      C8EA4298 
 568      8A
 569 0b6c D955F472 		.ascii	"\331U\364r\235B\372{\337o\005\273\275\257~\205\250\325"
 569      9D42FA7B 
 569      DF6F05BB 
 569      BDAF7E85 
 569      A8D5
 570 0b7e C38F3475 		.ascii	"\303\2174uS\340\341\236c\036{BgMs`;\020\344\265\366"
 570      53E0E19E 
 570      631E7B42 
 570      674D7360 
 570      3B10E4B5 
ARM GAS  /tmp/ccP24VBg.s 			page 46


 571 0b93 C4434021 		.ascii	"\304C@!5\212\303\035\367\274~\272\305\376\343\321\217"
 571      358AC31D 
 571      F7BC7EBA 
 571      C5FEE3D1 
 571      8F
 572 0ba4 4C57F736 		.ascii	"LW\3676\355\201\215\251\373\221\031\016T\335\215.z\226"
 572      ED818DA9 
 572      FB91190E 
 572      54DD8D2E 
 572      7A96
 573 0bb6 CA390695 		.ascii	"\3129\006\225\030FiQ\242.\245\303eY\233\316\213\024"
 573      18466951 
 573      A22EA5C3 
 573      65599BCE 
 573      8B14
 574 0bc8 FCFF65E0 		.ascii	"\374\377e\340\333\363\266\276U\267\274\366\262\347t"
 574      DBF3B6BE 
 574      55B7BCF6 
 574      B2E774
 575 0bd7 D3C5DD68 		.ascii	"\323\305\335hn\356Ry\321\004\205E\357\266\002R\245C"
 575      6EEE5279 
 575      D1048545 
 575      EFB60252 
 575      A543
 576 0be9 60A328EE 		.ascii	"`\243(\356\007\034\335K\357z\230\374\210\303\366v\255"
 576      071CDD4B 
 576      EF7A98FC 
 576      88C3F676 
 576      AD
 577 0bfa 37D30836 		.ascii	"7\323\0106\326\306\373\372vz$\3329^G\206:\227E(\013"
 577      D6C6FBFA 
 577      767A24DA 
 577      395E4786 
 577      3A974528 
 578 0c0f 40B3978C 		.ascii	"@\263\227\214G\322\344\240Aq\222.\\\354\\<\216\011\273"
 578      47D2E4A0 
 578      4171922E 
 578      5CEC5C3C 
 578      8E09BB
 579 0c22 15918B19 		.ascii	"\025\221\213\031x\270\307\326\303\352\377\005\231ze"
 579      78B8C7D6 
 579      C3EAFF05 
 579      997A65
 580 0c31 B3E31C7D 		.ascii	"\263\343\034}I\260~\010Aw\367\366r\227m\345\360\312"
 580      49B07E08 
 580      4177F7F6 
 580      72976DE5 
 580      F0CA
 581 0c43 D85EEE8A 		.ascii	"\330^\356\212\255\334BG\271_l\345\226:\312]\265\225"
 581      ADDC4247 
 581      B95F6CE5 
 581      963ACA5D 
 581      B595
 582 0c55 9BE728D7 		.ascii	"\233\347(\327k+7\327Q\356\232\255\334|G\271\353\266"
 582      6B2B37D7 
 582      51EE9AAD 
 582      DC7C47B9 
ARM GAS  /tmp/ccP24VBg.s 			page 47


 582      EBB6
 583 0c67 72B31DE5 		.ascii	"r\263\035\345\3724\271\373\320J\362\244\261\206\323"
 583      FA34B9FB 
 583      D04AF2A4 
 583      B186D3
 584 0c76 9AB5B745 		.ascii	"\232\265\267E\373o1\253\337\265\313\244u\215\243\326"
 584      FB6F31AB 
 584      DFB5CBA4 
 584      758DA3D6 
 585 0c86 9A2C4DDC 		.ascii	"\232,M\334\023\362\007+\313\"3|\222\353\211?=[4\021"
 585      13F2072B 
 585      CB22337C 
 585      92EB893F 
 585      3D5B3411 
 586 0c9a DD535C5C 		.ascii	"\335S\\\\B\377\"\361\222\230T\022\014\007*\253\312\305"
 586      42FF22F1 
 586      92985412 
 586      0C072AAB 
 586      CAC5
 587 0cac 92404508 		.ascii	"\222@E\010\252\211\361\342\012\224\035\212O\363I\243"
 587      AA89F1E2 
 587      0A941D8A 
 587      4FF349A3 
 588 0cbc 4D15A391 		.ascii	"M\025\243\221\230\024/y\364\231\311\023'\317(\011DB"
 588      98142F79 
 588      F499C913 
 588      27CF2809 
 588      4442
 589 0cce D160A518 		.ascii	"\321`\245\030\213\227<1q\"\310J3\243D\324\035\014K\243"
 589      8B973C31 
 589      7122C84A 
 589      33A344D4 
 589      1D0C4BA3 
 590 0ce2 1EF04952 		.ascii	"\036\360IRI$*\341\312%\323\002\201\021\376XhD8\022\026"
 590      49242AE1 
 590      CA25D302 
 590      8111FE58 
 590      68443812 
 591 0cf7 4788FEB2 		.ascii	"G\210\376\262\340\210\321\276\261#\036\030Y:j\372\250"
 591      E088D1BE 
 591      B1231E18 
 591      593A6AFA 
 591      A8
 592 0d08 92B26018 		.ascii	"\222\262`\030+\250\014\226\341z%\206z%\243\213\307\026"
 592      2BA80C96 
 592      E17A2586 
 592      7A25A38B 
 592      C716
 593 0d1a 8F2E612C 		.ascii	"\217.a,\340\317\370\273\312<.\225\203VP\356\011\225"
 593      E0CFF8BB 
 593      CA3C2E95 
 593      835650EE 
 593      0995
 594 0d2c F9CAAAA6 		.ascii	"\371\312\252\246N\025c.\310I\221h\016\334\252cQ)\206"
 594      4E15632E 
 594      C8499168 
 594      0EDCAA63 
ARM GAS  /tmp/ccP24VBg.s 			page 48


 594      512986
 595 0d3f 33B172C8 		.ascii	"3\261r\310\344\305\305\220?Z\021\211\211>i\210\255'"
 595      E4C5C590 
 595      3F5A1189 
 595      893E6988 
 595      AD27
 596 0d51 A0128663 		.ascii	"\240\022\206cu\007I\0251\321_\036\367M\257\022\253@"
 596      75074915 
 596      31D15F1E 
 596      F74DAF12 
 596      AB40
 597 0d63 B2C85E32 		.ascii	"\262\310^2PQ\016\242.*\340\212\372\302\342\014\011n"
 597      50510EA2 
 597      2E2AE08A 
 597      FAC2E20C 
 597      096E
 598 0d75 D198F8A2 		.ascii	"\321\230\370\242[\212\306\202\021\237\224S\2458\211"
 598      5B8AC682 
 598      119F9453 
 598      A53889
 599 0d84 940723EE 		.ascii	"\224\007#\356@$,A\265\241\216\016\257\010\000\021\200"
 599      40242C41 
 599      B5A18E0E 
 599      AF080011 
 599      80
 600 0d95 CEC3C53E 		.ascii	"\316\303\305>@\010H3\356O.\341{q,\266%'&N\003\357\371"
 600      40084833 
 600      EE4F2EE1 
 600      7B712CB6 
 600      2527264E 
 601 0dac 243E369A 		.ascii	"$>6\232\217\375\216\217\215\341cc\371\3308>\366\240"
 601      8FFD8E8F 
 601      8DE16363 
 601      F9D8383E 
 601      F6A0
 602 0dbe 102B1D09 		.ascii	"\020+\035\011\251\224\257\214\301mTv\324\007\310n\314"
 602      A994AF8C 
 602      C16D5476 
 602      D407C86E 
 602      CC
 603 0dcf BC5A8CC1 		.ascii	"\274Z\214\301=RY.\306\262\002\025\376\0306\307\037\022"
 603      3D52592E 
 603      C6B20215 
 603      FE1836C7 
 603      1F12
 604 0de1 73A4B8E4 		.ascii	"s\244\270\344\227\300\015nl\3108\270G}\244\304-\205"
 604      97C00D6E 
 604      6CC838B8 
 604      477DA4C4 
 604      2D85
 605 0df3 22E522F9 		.ascii	"\"\345\"\371>\265\322?-\356\226b\342\3248\261\023g\\"
 605      3EB5D23F 
 605      2DEE9662 
 605      E2D438B1 
 605      13675C
 606 0e06 B1F29910 		.ascii	"\261\362\231\020Y9\342\214\240\024\200\212\256j)R\366"
 606      5939E28C 
ARM GAS  /tmp/ccP24VBg.s 			page 49


 606      A014808A 
 606      AE6A2952 
 606      F6
 607 0e17 7C344F7C 		.ascii	"|4O|Q\014K!\177\374\005\250)V\343\214\020\365U\025\250"
 607      510C4B21 
 607      7FFC05A8 
 607      2956E38C 
 607      10F55515 
 608 0e2c 3EAF0CC6 		.ascii	">\257\014\306%\237\344\211\372\252\375A)\030\236\226"
 608      259FE489 
 608      FAAAFD41 
 608      29189E96 
 609 0e3c 1BF5010A 		.ascii	"\033\365\001\012i\211l\222\205\0021*\206!\010\246e\207"
 609      69896C92 
 609      8502312A 
 609      862108A6 
 609      6587
 610 0e4e AAC093F6 		.ascii	"\252\300\223\366\015\033\222f\340 \015\321\206\204{"
 610      0D1B9266 
 610      E0200DD1 
 610      86847B
 611 0e5d A43A0C46 		.ascii	"\244:\014F\022)\320\036\"\315\005\252\240\036V\233\213"
 611      1229D01E 
 611      22CD05AA 
 611      A01E569B 
 611      8B
 612 0e6e 89FB2B49 		.ascii	"\211\373+I#Aa4\022\251t+A\220\035\010\003\253\354\270"
 612      23416134 
 612      12A9742B 
 612      41901D08 
 612      03ABECB8 
 613 0e82 0FEEB910 		.ascii	"\017\356\271\020]S\253*+!^\362 +\206\242\322L\310{\342"
 613      5D53AB2A 
 613      2B215EF2 
 613      202B86A2 
 613      D24CC87B 
 614 0e97 33E35230 		.ascii	"3\343R0$*-^:\306'\345\306\245\027\374\225\301ia\245"
 614      242A2D5E 
 614      3AC627E5 
 614      C6A517FC 
 614      95C16961 
 615 0eac 6CCC689F 		.ascii	"l\314h\237T\310\330Jb\\\302|\361\035h\362SF\362SJ\371"
 615      54C8D84A 
 615      625CC27C 
 615      F11D68F2 
 615      5346F253 
 616 0ec2 290FF053 		.ascii	")\017\360SF\361SF\363\325\376|\374\213\022\342q\027"
 616      46F15346 
 616      F3D5FE7C 
 616      FC8B12E2 
 616      7117
 617 0ed4 BDDF80BB 		.ascii	"\275\337\200\273m\251O\234!\006\300\212;-\301p\225\342"
 617      6DA94F9C 
 617      2106C08A 
 617      3B2DC170 
 617      95E2
 618 0ee6 00CAA355 		.ascii	"\000\312\243U\343\242T\025\315\366=\006\326\344\373"
ARM GAS  /tmp/ccP24VBg.s 			page 50


 618      E3A25415 
 618      CDF63D06 
 618      D6E4FB
 619 0ef5 08A23F1E 		.ascii	"\010\242?\036\027c\222'P1\371\261gD\370\3716}1\324\007"
 619      17639227 
 619      5031F9B1 
 619      6744F8F9 
 619      367D31D4 
 620 0f0a 8BC301E8 		.ascii	"\213\303\001\350\005\270P\014\005\301\360\310\013b8"
 620      05B8500C 
 620      05C1F0C8 
 620      0B6238
 621 0f19 17D7FF83 		.ascii	"\027\327\377\203(\005*&\025\340\354\237#q\351\321\012"
 621      28052A26 
 621      15E0EC9F 
 621      2371E9D1 
 621      0A
 622 0f2a 68B3491E 		.ascii	"h\263I\036\365+\315\221:9j\331\015\206\272D\362\351"
 622      F52BCD91 
 622      3A396AD9 
 622      0D86BA44 
 622      F2E9
 623 0f3c B2E7C580 		.ascii	"\262\347\305\2004)\034\224\204PYi\026\326\223\203?\002"
 623      34291C94 
 623      84505969 
 623      16D69383 
 623      3F02
 624 0f4e FEB89885 		.ascii	"\376\270\230\205C.\233p\2062\177\254\034\232\314\255"
 624      432E9B70 
 624      86327FAC 
 624      1C9ACCAD 
 625 0f5e 589B17F5 		.ascii	"X\233\027\365K\222\030\013c\273<\252\241\2457\025\307"
 625      4B92180B 
 625      63BB3CAA 
 625      A1A53715 
 625      C7
 626 0f6f 22E57EC9 		.ascii	"\"\345~\311_\314J\212&\323AP\214\377\266\010\267\036"
 626      5FCC4A8A 
 626      26D34150 
 626      8CFFB608 
 626      B71E
 627 0f81 444A913F 		.ascii	"DJ\221?\\^\204['R%\305\321\377\001\263\022\374\037"
 627      5C5E845B 
 627      275225C5 
 627      D1FF01B3 
 627      12FC1F
 628              		.text
 629              		.section	.gnu.lto_.symtab.7a7b32ca3407265d,"",%progbits
 630 0000 5F746573 		.ascii	"_test_assert\000\000\002\000\000\000\000\000\000\000"
 630      745F6173 
 630      73657274 
 630      00000200 
 630      00000000 
 631 0016 00007A01 		.ascii	"\000\000z\001\000\000chMBReset\000\000\002\000\000\000"
 631      00006368 
 631      4D425265 
 631      73657400 
ARM GAS  /tmp/ccP24VBg.s 			page 51


 631      00020000 
 632 002b 00000000 		.ascii	"\000\000\000\000\000\000\202\001\000\000_test_asser"
 632      00008201 
 632      00005F74 
 632      6573745F 
 632      61737365 
 633 0040 745F7365 		.ascii	"t_sequence\000\000\002\000\000\000\000\000\000\000\000"
 633      7175656E 
 633      63650000 
 633      02000000 
 633      00000000 
 634 0055 00860100 		.ascii	"\000\206\001\000\000test_emit_token\000\000\002\000"
 634      00746573 
 634      745F656D 
 634      69745F74 
 634      6F6B656E 
 635 006d 00000000 		.ascii	"\000\000\000\000\000\000\000\000\214\001\000\000chM"
 635      00000000 
 635      8C010000 
 635      63684D
 636 007c 42466574 		.ascii	"BFetchI\000\000\002\000\000\000\000\000\000\000\000"
 636      63684900 
 636      00020000 
 636      00000000 
 636      0000
 637 008e 00900100 		.ascii	"\000\220\001\000\000chMBPostAheadI\000\000\002\000\000"
 637      0063684D 
 637      42506F73 
 637      74416865 
 637      61644900 
 638 00a6 00000000 		.ascii	"\000\000\000\000\000\000\000\225\001\000\000chMBPos"
 638      00000095 
 638      01000063 
 638      684D4250 
 638      6F73
 639 00b8 74490000 		.ascii	"tI\000\000\002\000\000\000\000\000\000\000\000\000\232"
 639      02000000 
 639      00000000 
 639      00009A
 640 00c7 01000063 		.ascii	"\001\000\000chMBFetch\000\000\002\000\000\000\000\000"
 640      684D4246 
 640      65746368 
 640      00000200 
 640      00000000 
 641 00db 00000000 		.ascii	"\000\000\000\000\234\001\000\000chMBPost\000\000\002"
 641      9C010000 
 641      63684D42 
 641      506F7374 
 641      000002
 642 00ee 00000000 		.ascii	"\000\000\000\000\000\000\000\000\000\242\001\000\000"
 642      00000000 
 642      00A20100 
 642      00
 643 00fb 63684D42 		.ascii	"chMBPostAhead\000\000\002\000\000\000\000\000\000\000"
 643      506F7374 
 643      41686561 
 643      64000002 
ARM GAS  /tmp/ccP24VBg.s 			page 52


 643      00000000 
 644 0112 0000A801 		.ascii	"\000\000\250\001\000\000chMBObjectInit\000\000\002\000"
 644      00006368 
 644      4D424F62 
 644      6A656374 
 644      496E6974 
 645 012a 00000000 		.ascii	"\000\000\000\000\000\000\000\000\252\001\000\000pat"
 645      00000000 
 645      AA010000 
 645      706174
 646 0139 7465726E 		.ascii	"ternmbox\000\000\000\000\000\000\000\000\000\000\000"
 646      6D626F78 
 646      00000000 
 646      00000000 
 646      000000
 647 014c 00D30100 		.ascii	"\000\323\001\000\000testmbox1\000\000\000\000\000\000"
 647      00746573 
 647      746D626F 
 647      78310000 
 647      00000000 
 648 0160 00000000 		.ascii	"\000\000\000\000\000\000\351\001\000\000test\000\000"
 648      0000E901 
 648      00007465 
 648      73740000 
 649 0170 02000000 		.ascii	"\002\000\000\000\000\000\000\000\000\000\266\001\000"
 649      00000000 
 649      0000B601 
 649      00
 650 017d 00       		.ascii	"\000"
 651              		.text
 652              		.section	.gnu.lto_.opts,"",%progbits
 653 0000 272D6D63 		.ascii	"'-mcpu=cortex-m3''-mno-thumb-interwork''-mthumb''-g"
 653      70753D63 
 653      6F727465 
 653      782D6D33 
 653      27272D6D 
 654 0033 67646227 		.ascii	"gdb''-O2''-fomit-frame-pointer''-falign-functions=1"
 654      272D4F32 
 654      27272D66 
 654      6F6D6974 
 654      2D667261 
 655 0066 3627272D 		.ascii	"6''-ffunction-sections''-fdata-sections''-fno-commo"
 655      6666756E 
 655      6374696F 
 655      6E2D7365 
 655      6374696F 
 656 0099 6E27272D 		.ascii	"n''-flto'\000"
 656      666C746F 
 656      2700
 657              		.text
 658              		.cfi_sections	.debug_frame
 659              		.section	.text.mbox1_execute,"ax",%progbits
 660              		.align	2
 661              		.p2align 4,,15
 662              		.thumb
 663              		.thumb_func
 664              		.type	mbox1_execute, %function
ARM GAS  /tmp/ccP24VBg.s 			page 53


 665              	mbox1_execute:
 666              	.LFB166:
 667              		.file 1 "../../../test/rt/testmbox.c"
 668              		.loc 1 76 0
 669              		.cfi_startproc
 670              		@ args = 0, pretend = 0, frame = 8
 671              		@ frame_needed = 0, uses_anonymous_args = 0
 672              	.LVL0:
 673 0000 2DE9F041 		push	{r4, r5, r6, r7, r8, lr}
 674              	.LCFI0:
 675              		.cfi_def_cfa_offset 24
 676              		.cfi_offset 4, -24
 677              		.cfi_offset 5, -20
 678              		.cfi_offset 6, -16
 679              		.cfi_offset 7, -12
 680              		.cfi_offset 8, -8
 681              		.cfi_offset 14, -4
 682              	.LBB357:
 683              	.LBB358:
 684              	.LBB359:
 685              	.LBB360:
 686              		.file 2 "../../../os/ext/CMSIS/include/core_cmFunc.h"
 687              		.loc 2 546 0
 688 0004 2025     		movs	r5, #32
 689              	.LBE360:
 690              	.LBE359:
 691              	.LBE358:
 692              	.LBE357:
 693              		.loc 1 76 0
 694 0006 82B0     		sub	sp, sp, #8
 695              	.LCFI1:
 696              		.cfi_def_cfa_offset 32
 697              	.LBB364:
 698              	.LBB363:
 699              	.LBB362:
 700              	.LBB361:
 701              		.loc 2 546 0
 702              	@ 546 "../../../os/ext/CMSIS/include/core_cmFunc.h" 1
 703 0008 85F31188 		MSR basepri, r5
 704              	@ 0 "" 2
 705              	.LVL1:
 706              		.thumb
 707              	.LBE361:
 708              	.LBE362:
 709              	.LBE363:
 710              	.LBE364:
 711              	.LBB365:
 712              	.LBB366:
 713              	.LBB367:
 714              		.file 3 "../../../os/rt/include/chsem.h"
 715              		.loc 3 147 0
 716 000c 2D4C     		ldr	r4, .L34
 717              	.LBE367:
 718              	.LBE366:
 719              	.LBE365:
 720              		.loc 1 83 0
 721 000e 0120     		movs	r0, #1
ARM GAS  /tmp/ccP24VBg.s 			page 54


 722 0010 616A     		ldr	r1, [r4, #36]
 723 0012 B1F1050E 		subs	lr, r1, #5
 724 0016 DEF10002 		rsbs	r2, lr, #0
 725 001a 52EB0E01 		adcs	r1, r2, lr
 726 001e FFF7FEFF 		bl	_test_assert
 727              	.LVL2:
 728 0022 0028     		cmp	r0, #0
 729 0024 40F0EA81 		bne	.L29
 730              	.LVL3:
 731              	.LBB368:
 732              	.LBB369:
 733              	.LBB370:
 734              	.LBB371:
 735              	.LBB372:
 736              		.loc 2 546 0
 737              	@ 546 "../../../os/ext/CMSIS/include/core_cmFunc.h" 1
 738 0028 80F31188 		MSR basepri, r0
 739              	@ 0 "" 2
 740              	.LVL4:
 741              		.thumb
 742              	.LBE372:
 743              	.LBE371:
 744              	.LBE370:
 745              	.LBE369:
 746              	.LBE368:
 747              		.loc 1 89 0
 748 002c 4221     		movs	r1, #66
 749 002e 2046     		mov	r0, r4
 750 0030 4FF6FF72 		movw	r2, #65535
 751 0034 FFF7FEFF 		bl	chMBPost
 752              	.LVL5:
 753              		.loc 1 90 0
 754 0038 D0F10101 		rsbs	r1, r0, #1
 755 003c 38BF     		it	cc
 756 003e 0021     		movcc	r1, #0
 757 0040 0220     		movs	r0, #2
 758              	.LVL6:
 759 0042 FFF7FEFF 		bl	_test_assert
 760              	.LVL7:
 761 0046 0028     		cmp	r0, #0
 762 0048 39D1     		bne	.L1
 763              	.LVL8:
 764              		.loc 1 89 0
 765 004a 4321     		movs	r1, #67
 766 004c 2046     		mov	r0, r4
 767 004e 4FF6FF72 		movw	r2, #65535
 768 0052 FFF7FEFF 		bl	chMBPost
 769              	.LVL9:
 770              		.loc 1 90 0
 771 0056 D0F10101 		rsbs	r1, r0, #1
 772 005a 38BF     		it	cc
 773 005c 0021     		movcc	r1, #0
 774 005e 0220     		movs	r0, #2
 775              	.LVL10:
 776 0060 FFF7FEFF 		bl	_test_assert
 777              	.LVL11:
 778 0064 58BB     		cbnz	r0, .L1
ARM GAS  /tmp/ccP24VBg.s 			page 55


 779              	.LVL12:
 780              		.loc 1 89 0
 781 0066 4421     		movs	r1, #68
 782 0068 2046     		mov	r0, r4
 783 006a 4FF6FF72 		movw	r2, #65535
 784 006e FFF7FEFF 		bl	chMBPost
 785              	.LVL13:
 786              		.loc 1 90 0
 787 0072 D0F10101 		rsbs	r1, r0, #1
 788 0076 38BF     		it	cc
 789 0078 0021     		movcc	r1, #0
 790 007a 0220     		movs	r0, #2
 791              	.LVL14:
 792 007c FFF7FEFF 		bl	_test_assert
 793              	.LVL15:
 794 0080 E8B9     		cbnz	r0, .L1
 795              	.LVL16:
 796              		.loc 1 89 0
 797 0082 4521     		movs	r1, #69
 798 0084 2046     		mov	r0, r4
 799 0086 4FF6FF72 		movw	r2, #65535
 800 008a FFF7FEFF 		bl	chMBPost
 801              	.LVL17:
 802              		.loc 1 90 0
 803 008e D0F10101 		rsbs	r1, r0, #1
 804 0092 38BF     		it	cc
 805 0094 0021     		movcc	r1, #0
 806 0096 0220     		movs	r0, #2
 807              	.LVL18:
 808 0098 FFF7FEFF 		bl	_test_assert
 809              	.LVL19:
 810 009c 78B9     		cbnz	r0, .L1
 811              	.LVL20:
 812              		.loc 1 92 0
 813 009e 4121     		movs	r1, #65
 814 00a0 2046     		mov	r0, r4
 815 00a2 4FF6FF72 		movw	r2, #65535
 816 00a6 FFF7FEFF 		bl	chMBPostAhead
 817              	.LVL21:
 818              		.loc 1 93 0
 819 00aa D0F10101 		rsbs	r1, r0, #1
 820 00ae 38BF     		it	cc
 821 00b0 0021     		movcc	r1, #0
 822 00b2 0320     		movs	r0, #3
 823              	.LVL22:
 824 00b4 FFF7FEFF 		bl	_test_assert
 825              	.LVL23:
 826 00b8 0028     		cmp	r0, #0
 827 00ba 00F0A781 		beq	.L31
 828              	.LVL24:
 829              	.L1:
 830              		.loc 1 220 0
 831 00be 02B0     		add	sp, sp, #8
 832 00c0 BDE8F081 		pop	{r4, r5, r6, r7, r8, pc}
 833              	.L35:
 834              		.align	2
 835              	.L34:
ARM GAS  /tmp/ccP24VBg.s 			page 56


 836 00c4 00000000 		.word	.LANCHOR0
 837              	.LVL25:
 838              	.L10:
 839              	.LBB373:
 840              	.LBB374:
 841              	.LBB375:
 842              	.LBB376:
 843              	.LBB377:
 844              		.loc 2 546 0
 845              	@ 546 "../../../os/ext/CMSIS/include/core_cmFunc.h" 1
 846 00c8 80F31188 		MSR basepri, r0
 847              	@ 0 "" 2
 848              	.LVL26:
 849              		.thumb
 850              	.LBE377:
 851              	.LBE376:
 852              	.LBE375:
 853              	.LBE374:
 854              	.LBE373:
 855              	.LBB378:
 856              	.LBB379:
 857              	.LBB380:
 858              	.LBB381:
 859              	@ 546 "../../../os/ext/CMSIS/include/core_cmFunc.h" 1
 860 00cc 86F31188 		MSR basepri, r6
 861              	@ 0 "" 2
 862              		.thumb
 863              	.LBE381:
 864              	.LBE380:
 865              	.LBE379:
 866              	.LBE378:
 867              		.loc 1 153 0
 868 00d0 A168     		ldr	r1, [r4, #8]
 869 00d2 E268     		ldr	r2, [r4, #12]
 870 00d4 1520     		movs	r0, #21
 871 00d6 B2EB010C 		subs	ip, r2, r1
 872 00da DCF10003 		rsbs	r3, ip, #0
 873 00de 53EB0C01 		adcs	r1, r3, ip
 874 00e2 FFF7FEFF 		bl	_test_assert
 875              	.LVL27:
 876 00e6 0028     		cmp	r0, #0
 877 00e8 40F02382 		bne	.L28
 878              	.LVL28:
 879              	.LBB382:
 880              	.LBB383:
 881              	.LBB384:
 882              	.LBB385:
 883              	.LBB386:
 884              		.loc 2 546 0
 885              	@ 546 "../../../os/ext/CMSIS/include/core_cmFunc.h" 1
 886 00ec 80F31188 		MSR basepri, r0
 887              	@ 0 "" 2
 888              	.LVL29:
 889              		.thumb
 890              	.LBE386:
 891              	.LBE385:
 892              	.LBE384:
ARM GAS  /tmp/ccP24VBg.s 			page 57


 893              	.LBE383:
 894              	.LBE382:
 895              	.LBB387:
 896              	.LBB388:
 897              	.LBB389:
 898              	.LBB390:
 899              	@ 546 "../../../os/ext/CMSIS/include/core_cmFunc.h" 1
 900 00f0 86F31188 		MSR basepri, r6
 901              	@ 0 "" 2
 902              		.thumb
 903              	.LBE390:
 904              	.LBE389:
 905              	.LBE388:
 906              	.LBE387:
 907              		.loc 1 159 0
 908 00f4 4121     		movs	r1, #65
 909 00f6 2046     		mov	r0, r4
 910 00f8 FFF7FEFF 		bl	chMBPostI
 911              	.LVL30:
 912              		.loc 1 160 0
 913 00fc D0F10101 		rsbs	r1, r0, #1
 914 0100 38BF     		it	cc
 915 0102 0021     		movcc	r1, #0
 916 0104 1620     		movs	r0, #22
 917              	.LVL31:
 918 0106 FFF7FEFF 		bl	_test_assert
 919              	.LVL32:
 920 010a 0028     		cmp	r0, #0
 921 010c D7D1     		bne	.L1
 922              		.loc 1 161 0
 923 010e 4221     		movs	r1, #66
 924 0110 2046     		mov	r0, r4
 925 0112 FFF7FEFF 		bl	chMBPostI
 926              	.LVL33:
 927              		.loc 1 162 0
 928 0116 D0F10101 		rsbs	r1, r0, #1
 929 011a 38BF     		it	cc
 930 011c 0021     		movcc	r1, #0
 931 011e 1720     		movs	r0, #23
 932              	.LVL34:
 933 0120 FFF7FEFF 		bl	_test_assert
 934              	.LVL35:
 935 0124 0028     		cmp	r0, #0
 936 0126 CAD1     		bne	.L1
 937              		.loc 1 163 0
 938 0128 4321     		movs	r1, #67
 939 012a 2046     		mov	r0, r4
 940 012c FFF7FEFF 		bl	chMBPostI
 941              	.LVL36:
 942              		.loc 1 164 0
 943 0130 D0F10101 		rsbs	r1, r0, #1
 944 0134 38BF     		it	cc
 945 0136 0021     		movcc	r1, #0
 946 0138 1820     		movs	r0, #24
 947              	.LVL37:
 948 013a FFF7FEFF 		bl	_test_assert
 949              	.LVL38:
ARM GAS  /tmp/ccP24VBg.s 			page 58


 950 013e 0028     		cmp	r0, #0
 951 0140 BDD1     		bne	.L1
 952              		.loc 1 165 0
 953 0142 4421     		movs	r1, #68
 954 0144 2046     		mov	r0, r4
 955 0146 FFF7FEFF 		bl	chMBPostI
 956              	.LVL39:
 957              		.loc 1 166 0
 958 014a D0F10101 		rsbs	r1, r0, #1
 959 014e 38BF     		it	cc
 960 0150 0021     		movcc	r1, #0
 961 0152 1920     		movs	r0, #25
 962              	.LVL40:
 963 0154 FFF7FEFF 		bl	_test_assert
 964              	.LVL41:
 965 0158 0546     		mov	r5, r0
 966 015a 0028     		cmp	r0, #0
 967 015c AFD1     		bne	.L1
 968              		.loc 1 167 0
 969 015e 2046     		mov	r0, r4
 970 0160 4521     		movs	r1, #69
 971 0162 FFF7FEFF 		bl	chMBPostI
 972              	.LVL42:
 973 0166 0246     		mov	r2, r0
 974              	.LVL43:
 975              	.LBB391:
 976              	.LBB392:
 977              	.LBB393:
 978              	.LBB394:
 979              	.LBB395:
 980              		.loc 2 546 0
 981              	@ 546 "../../../os/ext/CMSIS/include/core_cmFunc.h" 1
 982 0168 85F31188 		MSR basepri, r5
 983              	@ 0 "" 2
 984              		.thumb
 985              	.LBE395:
 986              	.LBE394:
 987              	.LBE393:
 988              	.LBE392:
 989              	.LBE391:
 990              		.loc 1 169 0
 991 016c 1A20     		movs	r0, #26
 992              	.LVL44:
 993 016e D2F10101 		rsbs	r1, r2, #1
 994 0172 38BF     		it	cc
 995 0174 0021     		movcc	r1, #0
 996 0176 FFF7FEFF 		bl	_test_assert
 997              	.LVL45:
 998 017a 0028     		cmp	r0, #0
 999 017c 9FD1     		bne	.L1
 1000              		.loc 1 170 0
 1001 017e E168     		ldr	r1, [r4, #12]
 1002 0180 A368     		ldr	r3, [r4, #8]
 1003 0182 1B20     		movs	r0, #27
 1004 0184 CA1A     		subs	r2, r1, r3
 1005 0186 5142     		rsbs	r1, r2, #0
 1006 0188 5141     		adcs	r1, r1, r2
ARM GAS  /tmp/ccP24VBg.s 			page 59


 1007 018a FFF7FEFF 		bl	_test_assert
 1008              	.LVL46:
 1009 018e 0028     		cmp	r0, #0
 1010 0190 95D1     		bne	.L1
 1011 0192 0525     		movs	r5, #5
 1012              	.LBB396:
 1013              	.LBB397:
 1014              	.LBB398:
 1015              	.LBB399:
 1016              		.loc 2 546 0
 1017 0194 B046     		mov	r8, r6
 1018              	.LBE399:
 1019              	.LBE398:
 1020              	.LBE397:
 1021              	.LBE396:
 1022              	.LBB403:
 1023              	.LBB404:
 1024              	.LBB405:
 1025              	.LBB406:
 1026              	.LBB407:
 1027 0196 0746     		mov	r7, r0
 1028              	.L12:
 1029              	.LVL47:
 1030              	.LBE407:
 1031              	.LBE406:
 1032              	.LBE405:
 1033              	.LBE404:
 1034              	.LBE403:
 1035              	.LBB412:
 1036              	.LBB402:
 1037              	.LBB401:
 1038              	.LBB400:
 1039 0198 2026     		movs	r6, #32
 1040              	@ 546 "../../../os/ext/CMSIS/include/core_cmFunc.h" 1
 1041 019a 88F31188 		MSR basepri, r8
 1042              	@ 0 "" 2
 1043              		.thumb
 1044              	.LBE400:
 1045              	.LBE401:
 1046              	.LBE402:
 1047              	.LBE412:
 1048              		.loc 1 173 0
 1049 019e 994C     		ldr	r4, .L36
 1050 01a0 01A9     		add	r1, sp, #4
 1051 01a2 2046     		mov	r0, r4
 1052 01a4 FFF7FEFF 		bl	chMBFetchI
 1053              	.LVL48:
 1054 01a8 0346     		mov	r3, r0
 1055              	.LVL49:
 1056              	.LBB413:
 1057              	.LBB411:
 1058              	.LBB410:
 1059              	.LBB409:
 1060              	.LBB408:
 1061              		.loc 2 546 0
 1062              	@ 546 "../../../os/ext/CMSIS/include/core_cmFunc.h" 1
 1063 01aa 87F31188 		MSR basepri, r7
ARM GAS  /tmp/ccP24VBg.s 			page 60


 1064              	@ 0 "" 2
 1065              		.thumb
 1066              	.LBE408:
 1067              	.LBE409:
 1068              	.LBE410:
 1069              	.LBE411:
 1070              	.LBE413:
 1071              		.loc 1 175 0
 1072 01ae 1C20     		movs	r0, #28
 1073              	.LVL50:
 1074 01b0 D3F10101 		rsbs	r1, r3, #1
 1075 01b4 38BF     		it	cc
 1076 01b6 0021     		movcc	r1, #0
 1077 01b8 FFF7FEFF 		bl	_test_assert
 1078              	.LVL51:
 1079 01bc 0028     		cmp	r0, #0
 1080 01be 7FF47EAF 		bne	.L1
 1081              		.loc 1 176 0
 1082 01c2 9DF80400 		ldrb	r0, [sp, #4]	@ zero_extendqisi2
 1083 01c6 FFF7FEFF 		bl	test_emit_token
 1084              	.LVL52:
 1085              		.loc 1 171 0
 1086 01ca 013D     		subs	r5, r5, #1
 1087 01cc E4D1     		bne	.L12
 1088              		.loc 1 178 0
 1089 01ce 1D20     		movs	r0, #29
 1090 01d0 8D49     		ldr	r1, .L36+4
 1091 01d2 FFF7FEFF 		bl	_test_assert_sequence
 1092              	.LVL53:
 1093 01d6 0028     		cmp	r0, #0
 1094 01d8 7FF471AF 		bne	.L1
 1095              	.LVL54:
 1096              	.LBB414:
 1097              	.LBB415:
 1098              	.LBB416:
 1099              	.LBB417:
 1100              		.loc 2 546 0
 1101              	@ 546 "../../../os/ext/CMSIS/include/core_cmFunc.h" 1
 1102 01dc 86F31188 		MSR basepri, r6
 1103              	@ 0 "" 2
 1104              	.LVL55:
 1105              		.thumb
 1106              	.LBE417:
 1107              	.LBE416:
 1108              	.LBE415:
 1109              	.LBE414:
 1110              		.loc 1 179 0
 1111 01e0 626A     		ldr	r2, [r4, #36]
 1112 01e2 1E20     		movs	r0, #30
 1113 01e4 531F     		subs	r3, r2, #5
 1114 01e6 5942     		rsbs	r1, r3, #0
 1115 01e8 5941     		adcs	r1, r1, r3
 1116 01ea FFF7FEFF 		bl	_test_assert
 1117              	.LVL56:
 1118              	.LBB418:
 1119              	.LBB419:
 1120              	.LBB420:
ARM GAS  /tmp/ccP24VBg.s 			page 61


 1121              	.LBB421:
 1122              	.LBB422:
 1123              		.loc 2 546 0
 1124              	@ 546 "../../../os/ext/CMSIS/include/core_cmFunc.h" 1
 1125 01ee 85F31188 		MSR basepri, r5
 1126              	@ 0 "" 2
 1127              		.thumb
 1128              	.LBE422:
 1129              	.LBE421:
 1130              	.LBE420:
 1131              	.LBE419:
 1132              	.LBE418:
 1133              		.loc 1 179 0
 1134 01f2 0028     		cmp	r0, #0
 1135 01f4 7FF463AF 		bne	.L1
 1136              	.LVL57:
 1137              	.LBB423:
 1138              	.LBB424:
 1139              	.LBB425:
 1140              	.LBB426:
 1141              		.loc 2 546 0
 1142              	@ 546 "../../../os/ext/CMSIS/include/core_cmFunc.h" 1
 1143 01f8 86F31188 		MSR basepri, r6
 1144              	@ 0 "" 2
 1145              	.LVL58:
 1146              		.thumb
 1147              	.LBE426:
 1148              	.LBE425:
 1149              	.LBE424:
 1150              	.LBE423:
 1151              		.loc 1 180 0
 1152 01fc A269     		ldr	r2, [r4, #24]
 1153 01fe 1F20     		movs	r0, #31
 1154 0200 D2F10101 		rsbs	r1, r2, #1
 1155 0204 38BF     		it	cc
 1156 0206 0021     		movcc	r1, #0
 1157 0208 FFF7FEFF 		bl	_test_assert
 1158              	.LVL59:
 1159              	.LBB427:
 1160              	.LBB428:
 1161              	.LBB429:
 1162              	.LBB430:
 1163              	.LBB431:
 1164              		.loc 2 546 0
 1165              	@ 546 "../../../os/ext/CMSIS/include/core_cmFunc.h" 1
 1166 020c 85F31188 		MSR basepri, r5
 1167              	@ 0 "" 2
 1168              		.thumb
 1169              	.LBE431:
 1170              	.LBE430:
 1171              	.LBE429:
 1172              	.LBE428:
 1173              	.LBE427:
 1174              		.loc 1 180 0
 1175 0210 0028     		cmp	r0, #0
 1176 0212 7FF454AF 		bne	.L1
 1177              	.LVL60:
ARM GAS  /tmp/ccP24VBg.s 			page 62


 1178              		.loc 1 181 0
 1179 0216 E168     		ldr	r1, [r4, #12]
 1180 0218 A368     		ldr	r3, [r4, #8]
 1181 021a 3046     		mov	r0, r6
 1182 021c B1EB030E 		subs	lr, r1, r3
 1183 0220 DEF10002 		rsbs	r2, lr, #0
 1184 0224 52EB0E01 		adcs	r1, r2, lr
 1185 0228 FFF7FEFF 		bl	_test_assert
 1186              	.LVL61:
 1187 022c 0028     		cmp	r0, #0
 1188 022e 7FF446AF 		bne	.L1
 1189              	.LVL62:
 1190              	.LBB432:
 1191              	.LBB433:
 1192              	.LBB434:
 1193              	.LBB435:
 1194              		.loc 2 546 0
 1195              	@ 546 "../../../os/ext/CMSIS/include/core_cmFunc.h" 1
 1196 0232 86F31188 		MSR basepri, r6
 1197              	@ 0 "" 2
 1198              		.thumb
 1199              	.LBE435:
 1200              	.LBE434:
 1201              	.LBE433:
 1202              	.LBE432:
 1203              		.loc 1 184 0
 1204 0236 4521     		movs	r1, #69
 1205 0238 2046     		mov	r0, r4
 1206 023a FFF7FEFF 		bl	chMBPostAheadI
 1207              	.LVL63:
 1208              		.loc 1 185 0
 1209 023e D0F10101 		rsbs	r1, r0, #1
 1210 0242 38BF     		it	cc
 1211 0244 0021     		movcc	r1, #0
 1212 0246 2120     		movs	r0, #33
 1213              	.LVL64:
 1214 0248 FFF7FEFF 		bl	_test_assert
 1215              	.LVL65:
 1216 024c 0028     		cmp	r0, #0
 1217 024e 7FF436AF 		bne	.L1
 1218              		.loc 1 186 0
 1219 0252 4421     		movs	r1, #68
 1220 0254 2046     		mov	r0, r4
 1221 0256 FFF7FEFF 		bl	chMBPostAheadI
 1222              	.LVL66:
 1223              		.loc 1 187 0
 1224 025a D0F10101 		rsbs	r1, r0, #1
 1225 025e 38BF     		it	cc
 1226 0260 0021     		movcc	r1, #0
 1227 0262 2220     		movs	r0, #34
 1228              	.LVL67:
 1229 0264 FFF7FEFF 		bl	_test_assert
 1230              	.LVL68:
 1231 0268 0028     		cmp	r0, #0
 1232 026a 7FF428AF 		bne	.L1
 1233              		.loc 1 188 0
 1234 026e 4321     		movs	r1, #67
ARM GAS  /tmp/ccP24VBg.s 			page 63


 1235 0270 2046     		mov	r0, r4
 1236 0272 FFF7FEFF 		bl	chMBPostAheadI
 1237              	.LVL69:
 1238              		.loc 1 189 0
 1239 0276 D0F10101 		rsbs	r1, r0, #1
 1240 027a 38BF     		it	cc
 1241 027c 0021     		movcc	r1, #0
 1242 027e 2320     		movs	r0, #35
 1243              	.LVL70:
 1244 0280 FFF7FEFF 		bl	_test_assert
 1245              	.LVL71:
 1246 0284 0028     		cmp	r0, #0
 1247 0286 7FF41AAF 		bne	.L1
 1248              		.loc 1 190 0
 1249 028a 4221     		movs	r1, #66
 1250 028c 2046     		mov	r0, r4
 1251 028e FFF7FEFF 		bl	chMBPostAheadI
 1252              	.LVL72:
 1253              		.loc 1 191 0
 1254 0292 D0F10101 		rsbs	r1, r0, #1
 1255 0296 38BF     		it	cc
 1256 0298 0021     		movcc	r1, #0
 1257 029a 2420     		movs	r0, #36
 1258              	.LVL73:
 1259 029c FFF7FEFF 		bl	_test_assert
 1260              	.LVL74:
 1261 02a0 0028     		cmp	r0, #0
 1262 02a2 7FF40CAF 		bne	.L1
 1263              		.loc 1 192 0
 1264 02a6 574C     		ldr	r4, .L36
 1265 02a8 4121     		movs	r1, #65
 1266 02aa 2046     		mov	r0, r4
 1267 02ac FFF7FEFF 		bl	chMBPostAheadI
 1268              	.LVL75:
 1269              	.LBB436:
 1270              	.LBB437:
 1271              	.LBB438:
 1272              	.LBB439:
 1273              	.LBB440:
 1274              		.loc 2 546 0
 1275 02b0 0023     		movs	r3, #0
 1276              	.LBE440:
 1277              	.LBE439:
 1278              	.LBE438:
 1279              	.LBE437:
 1280              	.LBE436:
 1281              		.loc 1 192 0
 1282 02b2 0146     		mov	r1, r0
 1283              	.LVL76:
 1284              	.LBB445:
 1285              	.LBB444:
 1286              	.LBB443:
 1287              	.LBB442:
 1288              	.LBB441:
 1289              		.loc 2 546 0
 1290              	@ 546 "../../../os/ext/CMSIS/include/core_cmFunc.h" 1
 1291 02b4 83F31188 		MSR basepri, r3
ARM GAS  /tmp/ccP24VBg.s 			page 64


 1292              	@ 0 "" 2
 1293              		.thumb
 1294              	.LBE441:
 1295              	.LBE442:
 1296              	.LBE443:
 1297              	.LBE444:
 1298              	.LBE445:
 1299              		.loc 1 194 0
 1300 02b8 2520     		movs	r0, #37
 1301              	.LVL77:
 1302 02ba B1EB030C 		subs	ip, r1, r3
 1303 02be DCF10002 		rsbs	r2, ip, #0
 1304 02c2 52EB0C01 		adcs	r1, r2, ip
 1305              	.LVL78:
 1306 02c6 FFF7FEFF 		bl	_test_assert
 1307              	.LVL79:
 1308 02ca 0028     		cmp	r0, #0
 1309 02cc 7FF4F7AE 		bne	.L1
 1310              		.loc 1 195 0
 1311 02d0 E168     		ldr	r1, [r4, #12]
 1312 02d2 A368     		ldr	r3, [r4, #8]
 1313 02d4 2620     		movs	r0, #38
 1314 02d6 CA1A     		subs	r2, r1, r3
 1315 02d8 5142     		rsbs	r1, r2, #0
 1316 02da 5141     		adcs	r1, r1, r2
 1317 02dc FFF7FEFF 		bl	_test_assert
 1318              	.LVL80:
 1319 02e0 0028     		cmp	r0, #0
 1320 02e2 7FF4ECAE 		bne	.L1
 1321 02e6 0524     		movs	r4, #5
 1322              	.LBB446:
 1323              	.LBB447:
 1324              	.LBB448:
 1325              	.LBB449:
 1326              		.loc 2 546 0
 1327 02e8 4FF02008 		mov	r8, #32
 1328              	.LBE449:
 1329              	.LBE448:
 1330              	.LBE447:
 1331              	.LBE446:
 1332              	.LBB453:
 1333              	.LBB454:
 1334              	.LBB455:
 1335              	.LBB456:
 1336              	.LBB457:
 1337 02ec 0746     		mov	r7, r0
 1338              	.L15:
 1339              	.LVL81:
 1340              	.LBE457:
 1341              	.LBE456:
 1342              	.LBE455:
 1343              	.LBE454:
 1344              	.LBE453:
 1345              	.LBB462:
 1346              	.LBB452:
 1347              	.LBB451:
 1348              	.LBB450:
ARM GAS  /tmp/ccP24VBg.s 			page 65


 1349 02ee 2026     		movs	r6, #32
 1350              	@ 546 "../../../os/ext/CMSIS/include/core_cmFunc.h" 1
 1351 02f0 88F31188 		MSR basepri, r8
 1352              	@ 0 "" 2
 1353              		.thumb
 1354              	.LBE450:
 1355              	.LBE451:
 1356              	.LBE452:
 1357              	.LBE462:
 1358              		.loc 1 198 0
 1359 02f4 434D     		ldr	r5, .L36
 1360 02f6 01A9     		add	r1, sp, #4
 1361 02f8 2846     		mov	r0, r5
 1362 02fa FFF7FEFF 		bl	chMBFetchI
 1363              	.LVL82:
 1364 02fe 0346     		mov	r3, r0
 1365              	.LVL83:
 1366              	.LBB463:
 1367              	.LBB461:
 1368              	.LBB460:
 1369              	.LBB459:
 1370              	.LBB458:
 1371              		.loc 2 546 0
 1372              	@ 546 "../../../os/ext/CMSIS/include/core_cmFunc.h" 1
 1373 0300 87F31188 		MSR basepri, r7
 1374              	@ 0 "" 2
 1375              		.thumb
 1376              	.LBE458:
 1377              	.LBE459:
 1378              	.LBE460:
 1379              	.LBE461:
 1380              	.LBE463:
 1381              		.loc 1 200 0
 1382 0304 2720     		movs	r0, #39
 1383              	.LVL84:
 1384 0306 D3F10101 		rsbs	r1, r3, #1
 1385 030a 38BF     		it	cc
 1386 030c 0021     		movcc	r1, #0
 1387 030e FFF7FEFF 		bl	_test_assert
 1388              	.LVL85:
 1389 0312 0028     		cmp	r0, #0
 1390 0314 7FF4D3AE 		bne	.L1
 1391              		.loc 1 201 0
 1392 0318 9DF80400 		ldrb	r0, [sp, #4]	@ zero_extendqisi2
 1393 031c FFF7FEFF 		bl	test_emit_token
 1394              	.LVL86:
 1395              		.loc 1 196 0
 1396 0320 013C     		subs	r4, r4, #1
 1397 0322 E4D1     		bne	.L15
 1398              		.loc 1 203 0
 1399 0324 2820     		movs	r0, #40
 1400 0326 3849     		ldr	r1, .L36+4
 1401 0328 FFF7FEFF 		bl	_test_assert_sequence
 1402              	.LVL87:
 1403 032c 0028     		cmp	r0, #0
 1404 032e 7FF4C6AE 		bne	.L1
 1405              	.LVL88:
ARM GAS  /tmp/ccP24VBg.s 			page 66


 1406              	.LBB464:
 1407              	.LBB465:
 1408              	.LBB466:
 1409              	.LBB467:
 1410              		.loc 2 546 0
 1411              	@ 546 "../../../os/ext/CMSIS/include/core_cmFunc.h" 1
 1412 0332 86F31188 		MSR basepri, r6
 1413              	@ 0 "" 2
 1414              	.LVL89:
 1415              		.thumb
 1416              	.LBE467:
 1417              	.LBE466:
 1418              	.LBE465:
 1419              	.LBE464:
 1420              		.loc 1 204 0
 1421 0336 6A6A     		ldr	r2, [r5, #36]
 1422 0338 2920     		movs	r0, #41
 1423 033a 531F     		subs	r3, r2, #5
 1424 033c 5942     		rsbs	r1, r3, #0
 1425 033e 5941     		adcs	r1, r1, r3
 1426 0340 FFF7FEFF 		bl	_test_assert
 1427              	.LVL90:
 1428              	.LBB468:
 1429              	.LBB469:
 1430              	.LBB470:
 1431              	.LBB471:
 1432              	.LBB472:
 1433              		.loc 2 546 0
 1434              	@ 546 "../../../os/ext/CMSIS/include/core_cmFunc.h" 1
 1435 0344 84F31188 		MSR basepri, r4
 1436              	@ 0 "" 2
 1437              		.thumb
 1438              	.LBE472:
 1439              	.LBE471:
 1440              	.LBE470:
 1441              	.LBE469:
 1442              	.LBE468:
 1443              		.loc 1 204 0
 1444 0348 0028     		cmp	r0, #0
 1445 034a 7FF4B8AE 		bne	.L1
 1446              	.LVL91:
 1447              	.LBB473:
 1448              	.LBB474:
 1449              	.LBB475:
 1450              	.LBB476:
 1451              		.loc 2 546 0
 1452              	@ 546 "../../../os/ext/CMSIS/include/core_cmFunc.h" 1
 1453 034e 86F31188 		MSR basepri, r6
 1454              	@ 0 "" 2
 1455              	.LVL92:
 1456              		.thumb
 1457              	.LBE476:
 1458              	.LBE475:
 1459              	.LBE474:
 1460              	.LBE473:
 1461              		.loc 1 205 0
 1462 0352 AA69     		ldr	r2, [r5, #24]
ARM GAS  /tmp/ccP24VBg.s 			page 67


 1463 0354 2A20     		movs	r0, #42
 1464 0356 D2F10101 		rsbs	r1, r2, #1
 1465 035a 38BF     		it	cc
 1466 035c 0021     		movcc	r1, #0
 1467 035e FFF7FEFF 		bl	_test_assert
 1468              	.LVL93:
 1469              	.LBB477:
 1470              	.LBB478:
 1471              	.LBB479:
 1472              	.LBB480:
 1473              	.LBB481:
 1474              		.loc 2 546 0
 1475              	@ 546 "../../../os/ext/CMSIS/include/core_cmFunc.h" 1
 1476 0362 84F31188 		MSR basepri, r4
 1477              	@ 0 "" 2
 1478              		.thumb
 1479              	.LBE481:
 1480              	.LBE480:
 1481              	.LBE479:
 1482              	.LBE478:
 1483              	.LBE477:
 1484              		.loc 1 205 0
 1485 0366 0028     		cmp	r0, #0
 1486 0368 7FF4A9AE 		bne	.L1
 1487              	.LVL94:
 1488              		.loc 1 206 0
 1489 036c E968     		ldr	r1, [r5, #12]
 1490 036e AB68     		ldr	r3, [r5, #8]
 1491 0370 2B20     		movs	r0, #43
 1492 0372 B1EB030E 		subs	lr, r1, r3
 1493 0376 DEF10002 		rsbs	r2, lr, #0
 1494 037a 52EB0E01 		adcs	r1, r2, lr
 1495 037e FFF7FEFF 		bl	_test_assert
 1496              	.LVL95:
 1497 0382 0028     		cmp	r0, #0
 1498 0384 7FF49BAE 		bne	.L1
 1499              		.loc 1 211 0
 1500 0388 2846     		mov	r0, r5
 1501 038a FFF7FEFF 		bl	chMBReset
 1502              	.LVL96:
 1503              	.LBB482:
 1504              	.LBB483:
 1505              	.LBB484:
 1506              	.LBB485:
 1507              		.loc 2 546 0
 1508              	@ 546 "../../../os/ext/CMSIS/include/core_cmFunc.h" 1
 1509 038e 86F31188 		MSR basepri, r6
 1510              	@ 0 "" 2
 1511              	.LVL97:
 1512              		.thumb
 1513              	.LBE485:
 1514              	.LBE484:
 1515              	.LBE483:
 1516              	.LBE482:
 1517              		.loc 1 216 0
 1518 0392 696A     		ldr	r1, [r5, #36]
 1519 0394 2C20     		movs	r0, #44
ARM GAS  /tmp/ccP24VBg.s 			page 68


 1520 0396 4B1F     		subs	r3, r1, #5
 1521 0398 5A42     		rsbs	r2, r3, #0
 1522 039a 52EB0301 		adcs	r1, r2, r3
 1523 039e FFF7FEFF 		bl	_test_assert
 1524              	.LVL98:
 1525              	.LBB486:
 1526              	.LBB487:
 1527              	.LBB488:
 1528              	.LBB489:
 1529              	.LBB490:
 1530              		.loc 2 546 0
 1531              	@ 546 "../../../os/ext/CMSIS/include/core_cmFunc.h" 1
 1532 03a2 84F31188 		MSR basepri, r4
 1533              	@ 0 "" 2
 1534              		.thumb
 1535              	.LBE490:
 1536              	.LBE489:
 1537              	.LBE488:
 1538              	.LBE487:
 1539              	.LBE486:
 1540              		.loc 1 216 0
 1541 03a6 0028     		cmp	r0, #0
 1542 03a8 7FF489AE 		bne	.L1
 1543              	.LVL99:
 1544              	.LBB491:
 1545              	.LBB492:
 1546              	.LBB493:
 1547              	.LBB494:
 1548              		.loc 2 546 0
 1549              	@ 546 "../../../os/ext/CMSIS/include/core_cmFunc.h" 1
 1550 03ac 86F31188 		MSR basepri, r6
 1551              	@ 0 "" 2
 1552              	.LVL100:
 1553              		.thumb
 1554              	.LBE494:
 1555              	.LBE493:
 1556              	.LBE492:
 1557              	.LBE491:
 1558              		.loc 1 217 0
 1559 03b0 A969     		ldr	r1, [r5, #24]
 1560 03b2 2D20     		movs	r0, #45
 1561 03b4 D1F10101 		rsbs	r1, r1, #1
 1562 03b8 38BF     		it	cc
 1563 03ba 0021     		movcc	r1, #0
 1564 03bc FFF7FEFF 		bl	_test_assert
 1565              	.LVL101:
 1566              	.LBB495:
 1567              	.LBB496:
 1568              	.LBB497:
 1569              	.LBB498:
 1570              	.LBB499:
 1571              		.loc 2 546 0
 1572              	@ 546 "../../../os/ext/CMSIS/include/core_cmFunc.h" 1
 1573 03c0 84F31188 		MSR basepri, r4
 1574              	@ 0 "" 2
 1575              		.thumb
 1576              	.LBE499:
ARM GAS  /tmp/ccP24VBg.s 			page 69


 1577              	.LBE498:
 1578              	.LBE497:
 1579              	.LBE496:
 1580              	.LBE495:
 1581              		.loc 1 217 0
 1582 03c4 0028     		cmp	r0, #0
 1583 03c6 7FF47AAE 		bne	.L1
 1584              	.LVL102:
 1585              	.LBB500:
 1586              	.LBB501:
 1587              	.LBB502:
 1588              	.LBB503:
 1589              		.loc 2 546 0
 1590              	@ 546 "../../../os/ext/CMSIS/include/core_cmFunc.h" 1
 1591 03ca 86F31188 		MSR basepri, r6
 1592              	@ 0 "" 2
 1593              		.thumb
 1594              	.LBE503:
 1595              	.LBE502:
 1596              	.LBE501:
 1597              	.LBE500:
 1598              		.loc 1 218 0
 1599 03ce 2A68     		ldr	r2, [r5, #0]
 1600 03d0 AB68     		ldr	r3, [r5, #8]
 1601 03d2 2E20     		movs	r0, #46
 1602 03d4 D21A     		subs	r2, r2, r3
 1603 03d6 5142     		rsbs	r1, r2, #0
 1604 03d8 5141     		adcs	r1, r1, r2
 1605 03da FFF7FEFF 		bl	_test_assert
 1606              	.LVL103:
 1607              	.LBB504:
 1608              	.LBB505:
 1609              	.LBB506:
 1610              	.LBB507:
 1611              	.LBB508:
 1612              		.loc 2 546 0
 1613              	@ 546 "../../../os/ext/CMSIS/include/core_cmFunc.h" 1
 1614 03de 84F31188 		MSR basepri, r4
 1615              	@ 0 "" 2
 1616              		.thumb
 1617              	.LBE508:
 1618              	.LBE507:
 1619              	.LBE506:
 1620              	.LBE505:
 1621              	.LBE504:
 1622              		.loc 1 218 0
 1623 03e2 0028     		cmp	r0, #0
 1624 03e4 7FF46BAE 		bne	.L1
 1625              	.LVL104:
 1626              	.LBB509:
 1627              	.LBB510:
 1628              	.LBB511:
 1629              	.LBB512:
 1630              		.loc 2 546 0
 1631              	@ 546 "../../../os/ext/CMSIS/include/core_cmFunc.h" 1
 1632 03e8 86F31188 		MSR basepri, r6
 1633              	@ 0 "" 2
ARM GAS  /tmp/ccP24VBg.s 			page 70


 1634              		.thumb
 1635              	.LBE512:
 1636              	.LBE511:
 1637              	.LBE510:
 1638              	.LBE509:
 1639              		.loc 1 219 0
 1640 03ec 2A68     		ldr	r2, [r5, #0]
 1641 03ee EB68     		ldr	r3, [r5, #12]
 1642 03f0 2F20     		movs	r0, #47
 1643 03f2 D21A     		subs	r2, r2, r3
 1644 03f4 5142     		rsbs	r1, r2, #0
 1645 03f6 5141     		adcs	r1, r1, r2
 1646 03f8 FFF7FEFF 		bl	_test_assert
 1647              	.LVL105:
 1648              	.L29:
 1649              	.LBB513:
 1650              	.LBB514:
 1651              	.LBB515:
 1652              	.LBB516:
 1653              	.LBB517:
 1654              		.loc 2 546 0
 1655 03fc 0020     		movs	r0, #0
 1656              	@ 546 "../../../os/ext/CMSIS/include/core_cmFunc.h" 1
 1657 03fe 80F31188 		MSR basepri, r0
 1658              	@ 0 "" 2
 1659              		.thumb
 1660 0402 5CE6     		b	.L1
 1661              	.L37:
 1662              		.align	2
 1663              	.L36:
 1664 0404 00000000 		.word	.LANCHOR0
 1665 0408 00000000 		.word	.LC0
 1666              	.LVL106:
 1667              	.L31:
 1668              	.LBE517:
 1669              	.LBE516:
 1670              	.LBE515:
 1671              	.LBE514:
 1672              	.LBE513:
 1673              		.loc 1 98 0
 1674 040c 5821     		movs	r1, #88
 1675 040e 0122     		movs	r2, #1
 1676 0410 2046     		mov	r0, r4
 1677 0412 FFF7FEFF 		bl	chMBPost
 1678              	.LVL107:
 1679              		.loc 1 99 0
 1680 0416 B0F1FF30 		subs	r0, r0, #-1
 1681              	.LVL108:
 1682 041a 4342     		rsbs	r3, r0, #0
 1683 041c 53EB0001 		adcs	r1, r3, r0
 1684 0420 0420     		movs	r0, #4
 1685              	.LVL109:
 1686 0422 FFF7FEFF 		bl	_test_assert
 1687              	.LVL110:
 1688 0426 0646     		mov	r6, r0
 1689 0428 0028     		cmp	r0, #0
 1690 042a 7FF448AE 		bne	.L1
ARM GAS  /tmp/ccP24VBg.s 			page 71


 1691              	.LVL111:
 1692              	.LBB518:
 1693              	.LBB519:
 1694              	.LBB520:
 1695              	.LBB521:
 1696              		.loc 2 546 0
 1697              	@ 546 "../../../os/ext/CMSIS/include/core_cmFunc.h" 1
 1698 042e 85F31188 		MSR basepri, r5
 1699              	@ 0 "" 2
 1700              		.thumb
 1701              	.LBE521:
 1702              	.LBE520:
 1703              	.LBE519:
 1704              	.LBE518:
 1705              		.loc 1 101 0
 1706 0432 5821     		movs	r1, #88
 1707 0434 2046     		mov	r0, r4
 1708 0436 FFF7FEFF 		bl	chMBPostI
 1709              	.LVL112:
 1710 043a 0146     		mov	r1, r0
 1711              	.LVL113:
 1712              	.LBB522:
 1713              	.LBB523:
 1714              	.LBB524:
 1715              	.LBB525:
 1716              	.LBB526:
 1717              		.loc 2 546 0
 1718              	@ 546 "../../../os/ext/CMSIS/include/core_cmFunc.h" 1
 1719 043c 86F31188 		MSR basepri, r6
 1720              	@ 0 "" 2
 1721              		.thumb
 1722              	.LBE526:
 1723              	.LBE525:
 1724              	.LBE524:
 1725              	.LBE523:
 1726              	.LBE522:
 1727              		.loc 1 103 0
 1728 0440 0520     		movs	r0, #5
 1729              	.LVL114:
 1730 0442 B1F1FF32 		subs	r2, r1, #-1
 1731 0446 5342     		rsbs	r3, r2, #0
 1732 0448 53EB0201 		adcs	r1, r3, r2
 1733              	.LVL115:
 1734 044c FFF7FEFF 		bl	_test_assert
 1735              	.LVL116:
 1736 0450 0028     		cmp	r0, #0
 1737 0452 7FF434AE 		bne	.L1
 1738              		.loc 1 104 0
 1739 0456 5821     		movs	r1, #88
 1740 0458 0122     		movs	r2, #1
 1741 045a 2046     		mov	r0, r4
 1742 045c FFF7FEFF 		bl	chMBPostAhead
 1743              	.LVL117:
 1744              		.loc 1 105 0
 1745 0460 B0F1FF3C 		subs	ip, r0, #-1
 1746 0464 DCF10006 		rsbs	r6, ip, #0
 1747 0468 56EB0C01 		adcs	r1, r6, ip
ARM GAS  /tmp/ccP24VBg.s 			page 72


 1748 046c 0620     		movs	r0, #6
 1749              	.LVL118:
 1750 046e FFF7FEFF 		bl	_test_assert
 1751              	.LVL119:
 1752 0472 0646     		mov	r6, r0
 1753 0474 0028     		cmp	r0, #0
 1754 0476 7FF422AE 		bne	.L1
 1755              	.LVL120:
 1756              	.LBB527:
 1757              	.LBB528:
 1758              	.LBB529:
 1759              	.LBB530:
 1760              		.loc 2 546 0
 1761              	@ 546 "../../../os/ext/CMSIS/include/core_cmFunc.h" 1
 1762 047a 85F31188 		MSR basepri, r5
 1763              	@ 0 "" 2
 1764              		.thumb
 1765              	.LBE530:
 1766              	.LBE529:
 1767              	.LBE528:
 1768              	.LBE527:
 1769              		.loc 1 107 0
 1770 047e 5821     		movs	r1, #88
 1771 0480 2046     		mov	r0, r4
 1772 0482 FFF7FEFF 		bl	chMBPostAheadI
 1773              	.LVL121:
 1774 0486 0146     		mov	r1, r0
 1775              	.LVL122:
 1776              	.LBB531:
 1777              	.LBB532:
 1778              	.LBB533:
 1779              	.LBB534:
 1780              	.LBB535:
 1781              		.loc 2 546 0
 1782              	@ 546 "../../../os/ext/CMSIS/include/core_cmFunc.h" 1
 1783 0488 86F31188 		MSR basepri, r6
 1784              	@ 0 "" 2
 1785              		.thumb
 1786              	.LBE535:
 1787              	.LBE534:
 1788              	.LBE533:
 1789              	.LBE532:
 1790              	.LBE531:
 1791              		.loc 1 109 0
 1792 048c 0720     		movs	r0, #7
 1793              	.LVL123:
 1794 048e B1F1FF3E 		subs	lr, r1, #-1
 1795 0492 DEF10002 		rsbs	r2, lr, #0
 1796 0496 52EB0E01 		adcs	r1, r2, lr
 1797              	.LVL124:
 1798 049a FFF7FEFF 		bl	_test_assert
 1799              	.LVL125:
 1800 049e 0028     		cmp	r0, #0
 1801 04a0 7FF40DAE 		bne	.L1
 1802              	.LVL126:
 1803              	.LBB536:
 1804              	.LBB537:
ARM GAS  /tmp/ccP24VBg.s 			page 73


 1805              	.LBB538:
 1806              	.LBB539:
 1807              		.loc 2 546 0
 1808 04a4 2027     		movs	r7, #32
 1809              	@ 546 "../../../os/ext/CMSIS/include/core_cmFunc.h" 1
 1810 04a6 87F31188 		MSR basepri, r7
 1811              	@ 0 "" 2
 1812              	.LVL127:
 1813              		.thumb
 1814              	.LBE539:
 1815              	.LBE538:
 1816              	.LBE537:
 1817              	.LBE536:
 1818              		.loc 1 114 0
 1819 04aa 636A     		ldr	r3, [r4, #36]
 1820 04ac 0820     		movs	r0, #8
 1821 04ae D3F10101 		rsbs	r1, r3, #1
 1822 04b2 38BF     		it	cc
 1823 04b4 0021     		movcc	r1, #0
 1824 04b6 FFF7FEFF 		bl	_test_assert
 1825              	.LVL128:
 1826              	.LBB540:
 1827              	.LBB541:
 1828              	.LBB542:
 1829              		.loc 3 147 0
 1830 04ba 644E     		ldr	r6, .L38
 1831              	.LBE542:
 1832              	.LBE541:
 1833              	.LBE540:
 1834              		.loc 1 114 0
 1835 04bc 8046     		mov	r8, r0
 1836 04be 0028     		cmp	r0, #0
 1837 04c0 9CD1     		bne	.L29
 1838              	.LVL129:
 1839              	.LBB543:
 1840              	.LBB544:
 1841              	.LBB545:
 1842              	.LBB546:
 1843              	.LBB547:
 1844              		.loc 2 546 0
 1845              	@ 546 "../../../os/ext/CMSIS/include/core_cmFunc.h" 1
 1846 04c2 80F31188 		MSR basepri, r0
 1847              	@ 0 "" 2
 1848              	.LVL130:
 1849              		.thumb
 1850              	.LBE547:
 1851              	.LBE546:
 1852              	.LBE545:
 1853              	.LBE544:
 1854              	.LBE543:
 1855              	.LBB548:
 1856              	.LBB549:
 1857              	.LBB550:
 1858              	.LBB551:
 1859              	@ 546 "../../../os/ext/CMSIS/include/core_cmFunc.h" 1
 1860 04c6 87F31188 		MSR basepri, r7
 1861              	@ 0 "" 2
ARM GAS  /tmp/ccP24VBg.s 			page 74


 1862              	.LVL131:
 1863              		.thumb
 1864              	.LBE551:
 1865              	.LBE550:
 1866              	.LBE549:
 1867              	.LBE548:
 1868              		.loc 1 115 0
 1869 04ca B569     		ldr	r5, [r6, #24]
 1870 04cc 0920     		movs	r0, #9
 1871 04ce 6A1F     		subs	r2, r5, #5
 1872 04d0 5142     		rsbs	r1, r2, #0
 1873 04d2 5141     		adcs	r1, r1, r2
 1874 04d4 FFF7FEFF 		bl	_test_assert
 1875              	.LVL132:
 1876 04d8 0546     		mov	r5, r0
 1877 04da 10B1     		cbz	r0, .L6
 1878              	.LVL133:
 1879              	.LBB552:
 1880              	.LBB553:
 1881              	.LBB554:
 1882              	.LBB555:
 1883              	.LBB556:
 1884              		.loc 2 546 0
 1885              	@ 546 "../../../os/ext/CMSIS/include/core_cmFunc.h" 1
 1886 04dc 88F31188 		MSR basepri, r8
 1887              	@ 0 "" 2
 1888              		.thumb
 1889 04e0 EDE5     		b	.L1
 1890              	.LVL134:
 1891              	.L6:
 1892              	.LBE556:
 1893              	.LBE555:
 1894              	.LBE554:
 1895              	.LBE553:
 1896              	.LBE552:
 1897              	.LBB557:
 1898              	.LBB558:
 1899              	.LBB559:
 1900              	.LBB560:
 1901              	.LBB561:
 1902              	@ 546 "../../../os/ext/CMSIS/include/core_cmFunc.h" 1
 1903 04e2 80F31188 		MSR basepri, r0
 1904              	@ 0 "" 2
 1905              	.LVL135:
 1906              		.thumb
 1907              	.LBE561:
 1908              	.LBE560:
 1909              	.LBE559:
 1910              	.LBE558:
 1911              	.LBE557:
 1912              	.LBB562:
 1913              	.LBB563:
 1914              	.LBB564:
 1915              	.LBB565:
 1916              	@ 546 "../../../os/ext/CMSIS/include/core_cmFunc.h" 1
 1917 04e6 87F31188 		MSR basepri, r7
 1918              	@ 0 "" 2
ARM GAS  /tmp/ccP24VBg.s 			page 75


 1919              		.thumb
 1920              	.LBE565:
 1921              	.LBE564:
 1922              	.LBE563:
 1923              	.LBE562:
 1924              		.loc 1 116 0
 1925 04ea F268     		ldr	r2, [r6, #12]
 1926 04ec B368     		ldr	r3, [r6, #8]
 1927 04ee 0A20     		movs	r0, #10
 1928 04f0 D21A     		subs	r2, r2, r3
 1929 04f2 5142     		rsbs	r1, r2, #0
 1930 04f4 5141     		adcs	r1, r1, r2
 1931 04f6 FFF7FEFF 		bl	_test_assert
 1932              	.LVL136:
 1933 04fa D0B9     		cbnz	r0, .L28
 1934              	.LVL137:
 1935              	.LBB566:
 1936              	.LBB567:
 1937              	.LBB568:
 1938              	.LBB569:
 1939              	.LBB570:
 1940              		.loc 2 546 0
 1941              	@ 546 "../../../os/ext/CMSIS/include/core_cmFunc.h" 1
 1942 04fc 80F31188 		MSR basepri, r0
 1943              	@ 0 "" 2
 1944              	.LVL138:
 1945              		.thumb
 1946 0500 0526     		movs	r6, #5
 1947 0502 05E0     		b	.L8
 1948              	.LVL139:
 1949              	.L33:
 1950              	.LBE570:
 1951              	.LBE569:
 1952              	.LBE568:
 1953              	.LBE567:
 1954              	.LBE566:
 1955              		.loc 1 124 0
 1956 0504 9DF80400 		ldrb	r0, [sp, #4]	@ zero_extendqisi2
 1957 0508 FFF7FEFF 		bl	test_emit_token
 1958              	.LVL140:
 1959              		.loc 1 121 0
 1960 050c 013E     		subs	r6, r6, #1
 1961 050e 13D0     		beq	.L32
 1962              	.L8:
 1963              		.loc 1 122 0
 1964 0510 4E4D     		ldr	r5, .L38
 1965 0512 01A9     		add	r1, sp, #4
 1966 0514 4FF6FF72 		movw	r2, #65535
 1967 0518 2846     		mov	r0, r5
 1968 051a FFF7FEFF 		bl	chMBFetch
 1969              	.LVL141:
 1970              		.loc 1 123 0
 1971 051e D0F10101 		rsbs	r1, r0, #1
 1972 0522 38BF     		it	cc
 1973 0524 0021     		movcc	r1, #0
 1974 0526 0B20     		movs	r0, #11
 1975              	.LVL142:
ARM GAS  /tmp/ccP24VBg.s 			page 76


 1976 0528 FFF7FEFF 		bl	_test_assert
 1977              	.LVL143:
 1978 052c 0028     		cmp	r0, #0
 1979 052e E9D0     		beq	.L33
 1980 0530 C5E5     		b	.L1
 1981              	.LVL144:
 1982              	.L28:
 1983              	.LBB571:
 1984              	.LBB572:
 1985              	.LBB573:
 1986              	.LBB574:
 1987              	.LBB575:
 1988              		.loc 2 546 0
 1989              	@ 546 "../../../os/ext/CMSIS/include/core_cmFunc.h" 1
 1990 0532 85F31188 		MSR basepri, r5
 1991              	@ 0 "" 2
 1992              		.thumb
 1993 0536 C2E5     		b	.L1
 1994              	.LVL145:
 1995              	.L32:
 1996              	.LBE575:
 1997              	.LBE574:
 1998              	.LBE573:
 1999              	.LBE572:
 2000              	.LBE571:
 2001              		.loc 1 126 0
 2002 0538 0C20     		movs	r0, #12
 2003 053a 4549     		ldr	r1, .L38+4
 2004 053c FFF7FEFF 		bl	_test_assert_sequence
 2005              	.LVL146:
 2006 0540 0028     		cmp	r0, #0
 2007 0542 7FF4BCAD 		bne	.L1
 2008              		.loc 1 131 0
 2009 0546 4721     		movs	r1, #71
 2010 0548 2846     		mov	r0, r5
 2011 054a 4FF6FF72 		movw	r2, #65535
 2012 054e FFF7FEFF 		bl	chMBPost
 2013              	.LVL147:
 2014              		.loc 1 132 0
 2015 0552 D0F10101 		rsbs	r1, r0, #1
 2016 0556 38BF     		it	cc
 2017 0558 0021     		movcc	r1, #0
 2018 055a 0D20     		movs	r0, #13
 2019              	.LVL148:
 2020 055c FFF7FEFF 		bl	_test_assert
 2021              	.LVL149:
 2022 0560 0028     		cmp	r0, #0
 2023 0562 7FF4ACAD 		bne	.L1
 2024              		.loc 1 133 0
 2025 0566 01A9     		add	r1, sp, #4
 2026 0568 2846     		mov	r0, r5
 2027 056a 4FF6FF72 		movw	r2, #65535
 2028 056e FFF7FEFF 		bl	chMBFetch
 2029              	.LVL150:
 2030              		.loc 1 134 0
 2031 0572 D0F10101 		rsbs	r1, r0, #1
 2032 0576 38BF     		it	cc
ARM GAS  /tmp/ccP24VBg.s 			page 77


 2033 0578 0021     		movcc	r1, #0
 2034 057a 0E20     		movs	r0, #14
 2035              	.LVL151:
 2036 057c FFF7FEFF 		bl	_test_assert
 2037              	.LVL152:
 2038 0580 0028     		cmp	r0, #0
 2039 0582 7FF49CAD 		bne	.L1
 2040              		.loc 1 135 0
 2041 0586 2A68     		ldr	r2, [r5, #0]
 2042 0588 AB68     		ldr	r3, [r5, #8]
 2043 058a 0F20     		movs	r0, #15
 2044 058c B2EB030C 		subs	ip, r2, r3
 2045 0590 DCF10001 		rsbs	r1, ip, #0
 2046 0594 51EB0C01 		adcs	r1, r1, ip
 2047 0598 FFF7FEFF 		bl	_test_assert
 2048              	.LVL153:
 2049 059c 0028     		cmp	r0, #0
 2050 059e 7FF48EAD 		bne	.L1
 2051              		.loc 1 136 0
 2052 05a2 2A68     		ldr	r2, [r5, #0]
 2053 05a4 EB68     		ldr	r3, [r5, #12]
 2054 05a6 1020     		movs	r0, #16
 2055 05a8 B2EB030E 		subs	lr, r2, r3
 2056 05ac DEF10001 		rsbs	r1, lr, #0
 2057 05b0 51EB0E01 		adcs	r1, r1, lr
 2058 05b4 FFF7FEFF 		bl	_test_assert
 2059              	.LVL154:
 2060 05b8 0028     		cmp	r0, #0
 2061 05ba 7FF480AD 		bne	.L1
 2062              		.loc 1 141 0
 2063 05be 0122     		movs	r2, #1
 2064 05c0 01A9     		add	r1, sp, #4
 2065 05c2 2846     		mov	r0, r5
 2066 05c4 FFF7FEFF 		bl	chMBFetch
 2067              	.LVL155:
 2068              		.loc 1 142 0
 2069 05c8 B0F1FF30 		subs	r0, r0, #-1
 2070              	.LVL156:
 2071 05cc 4242     		rsbs	r2, r0, #0
 2072 05ce 52EB0001 		adcs	r1, r2, r0
 2073 05d2 1120     		movs	r0, #17
 2074              	.LVL157:
 2075 05d4 FFF7FEFF 		bl	_test_assert
 2076              	.LVL158:
 2077 05d8 0028     		cmp	r0, #0
 2078 05da 7FF470AD 		bne	.L1
 2079              	.LVL159:
 2080              	.LBB576:
 2081              	.LBB577:
 2082              	.LBB578:
 2083              	.LBB579:
 2084              		.loc 2 546 0
 2085 05de 2027     		movs	r7, #32
 2086              	@ 546 "../../../os/ext/CMSIS/include/core_cmFunc.h" 1
 2087 05e0 87F31188 		MSR basepri, r7
 2088              	@ 0 "" 2
 2089              		.thumb
ARM GAS  /tmp/ccP24VBg.s 			page 78


 2090              	.LBE579:
 2091              	.LBE578:
 2092              	.LBE577:
 2093              	.LBE576:
 2094              		.loc 1 144 0
 2095 05e4 2846     		mov	r0, r5
 2096 05e6 01A9     		add	r1, sp, #4
 2097 05e8 FFF7FEFF 		bl	chMBFetchI
 2098              	.LVL160:
 2099 05ec 0346     		mov	r3, r0
 2100              	.LVL161:
 2101              	.LBB580:
 2102              	.LBB581:
 2103              	.LBB582:
 2104              	.LBB583:
 2105              	.LBB584:
 2106              		.loc 2 546 0
 2107              	@ 546 "../../../os/ext/CMSIS/include/core_cmFunc.h" 1
 2108 05ee 86F31188 		MSR basepri, r6
 2109              	@ 0 "" 2
 2110              		.thumb
 2111              	.LBE584:
 2112              	.LBE583:
 2113              	.LBE582:
 2114              	.LBE581:
 2115              	.LBE580:
 2116              		.loc 1 146 0
 2117 05f2 1220     		movs	r0, #18
 2118              	.LVL162:
 2119 05f4 B3F1FF32 		subs	r2, r3, #-1
 2120 05f8 5142     		rsbs	r1, r2, #0
 2121 05fa 5141     		adcs	r1, r1, r2
 2122 05fc FFF7FEFF 		bl	_test_assert
 2123              	.LVL163:
 2124 0600 0028     		cmp	r0, #0
 2125 0602 7FF45CAD 		bne	.L1
 2126              	.LVL164:
 2127              	.LBB585:
 2128              	.LBB586:
 2129              	.LBB587:
 2130              	.LBB588:
 2131              		.loc 2 546 0
 2132              	@ 546 "../../../os/ext/CMSIS/include/core_cmFunc.h" 1
 2133 0606 87F31188 		MSR basepri, r7
 2134              	@ 0 "" 2
 2135              	.LVL165:
 2136              		.thumb
 2137              	.LBE588:
 2138              	.LBE587:
 2139              	.LBE586:
 2140              	.LBE585:
 2141              		.loc 1 151 0
 2142 060a 6B6A     		ldr	r3, [r5, #36]
 2143 060c 1320     		movs	r0, #19
 2144 060e 5A1F     		subs	r2, r3, #5
 2145 0610 5142     		rsbs	r1, r2, #0
 2146 0612 5141     		adcs	r1, r1, r2
ARM GAS  /tmp/ccP24VBg.s 			page 79


 2147 0614 FFF7FEFF 		bl	_test_assert
 2148              	.LVL166:
 2149 0618 0028     		cmp	r0, #0
 2150 061a 7FF4EFAE 		bne	.L29
 2151              	.LVL167:
 2152              	.LBB589:
 2153              	.LBB590:
 2154              	.LBB591:
 2155              	.LBB592:
 2156              	.LBB593:
 2157              		.loc 2 546 0
 2158 061e 0027     		movs	r7, #0
 2159              	@ 546 "../../../os/ext/CMSIS/include/core_cmFunc.h" 1
 2160 0620 87F31188 		MSR basepri, r7
 2161              	@ 0 "" 2
 2162              	.LVL168:
 2163              		.thumb
 2164              	.LBE593:
 2165              	.LBE592:
 2166              	.LBE591:
 2167              	.LBE590:
 2168              	.LBE589:
 2169              	.LBB594:
 2170              	.LBB595:
 2171              	.LBB596:
 2172              	.LBB597:
 2173 0624 2026     		movs	r6, #32
 2174              	@ 546 "../../../os/ext/CMSIS/include/core_cmFunc.h" 1
 2175 0626 86F31188 		MSR basepri, r6
 2176              	@ 0 "" 2
 2177              	.LVL169:
 2178              		.thumb
 2179              	.LBE597:
 2180              	.LBE596:
 2181              	.LBE595:
 2182              	.LBE594:
 2183              		.loc 1 152 0
 2184 062a A469     		ldr	r4, [r4, #24]
 2185 062c 1420     		movs	r0, #20
 2186 062e E51B     		subs	r5, r4, r7
 2187 0630 6B42     		rsbs	r3, r5, #0
 2188 0632 53EB0501 		adcs	r1, r3, r5
 2189 0636 FFF7FEFF 		bl	_test_assert
 2190              	.LVL170:
 2191              	.LBB598:
 2192              	.LBB599:
 2193              	.LBB600:
 2194              		.loc 3 147 0
 2195 063a 044C     		ldr	r4, .L38
 2196              	.LBE600:
 2197              	.LBE599:
 2198              	.LBE598:
 2199              		.loc 1 152 0
 2200 063c 0546     		mov	r5, r0
 2201 063e 0028     		cmp	r0, #0
 2202 0640 3FF442AD 		beq	.L10
 2203              	.LVL171:
ARM GAS  /tmp/ccP24VBg.s 			page 80


 2204              	.LBB601:
 2205              	.LBB602:
 2206              	.LBB603:
 2207              	.LBB604:
 2208              	.LBB605:
 2209              		.loc 2 546 0
 2210              	@ 546 "../../../os/ext/CMSIS/include/core_cmFunc.h" 1
 2211 0644 87F31188 		MSR basepri, r7
 2212              	@ 0 "" 2
 2213              		.thumb
 2214 0648 39E5     		b	.L1
 2215              	.L39:
 2216 064a 00BF     		.align	2
 2217              	.L38:
 2218 064c 00000000 		.word	.LANCHOR0
 2219 0650 00000000 		.word	.LC0
 2220              	.LBE605:
 2221              	.LBE604:
 2222              	.LBE603:
 2223              	.LBE602:
 2224              	.LBE601:
 2225              		.cfi_endproc
 2226              	.LFE166:
 2227              		.size	mbox1_execute, .-mbox1_execute
 2228 0654 AFF30080 		.section	.text.mbox1_setup,"ax",%progbits
 2228      AFF30080 
 2228      AFF30080 
 2229              		.align	2
 2230              		.p2align 4,,15
 2231              		.thumb
 2232              		.thumb_func
 2233              		.type	mbox1_setup, %function
 2234              	mbox1_setup:
 2235              	.LFB165:
 2236              		.loc 1 71 0
 2237              		.cfi_startproc
 2238              		@ args = 0, pretend = 0, frame = 0
 2239              		@ frame_needed = 0, uses_anonymous_args = 0
 2240              		@ link register save eliminated.
 2241              		.loc 1 73 0
 2242 0000 40F20000 		movw	r0, #:lower16:.LANCHOR0
 2243 0004 40F20001 		movw	r1, #:lower16:test
 2244 0008 C0F20000 		movt	r0, #:upper16:.LANCHOR0
 2245 000c C0F20001 		movt	r1, #:upper16:test
 2246 0010 0522     		movs	r2, #5
 2247              		.loc 1 74 0
 2248              		.loc 1 73 0
 2249 0012 FFF7FEBF 		b	chMBObjectInit
 2250              	.LVL172:
 2251              		.cfi_endproc
 2252              	.LFE165:
 2253              		.size	mbox1_setup, .-mbox1_setup
 2254              		.global	patternmbox
 2255              		.global	testmbox1
 2256 0016 00BFAFF3 		.section	.data.mb1,"aw",%progbits
 2256      0080AFF3 
 2256      0080
ARM GAS  /tmp/ccP24VBg.s 			page 81


 2257              		.align	2
 2258              		.set	.LANCHOR0,. + 0
 2259              		.type	mb1, %object
 2260              		.size	mb1, 40
 2261              	mb1:
 2262 0000 00000000 		.word	test
 2263 0004 14000000 		.word	test+20
 2264 0008 00000000 		.word	test
 2265 000c 00000000 		.word	test
 2266 0010 10000000 		.word	mb1+16
 2267 0014 10000000 		.word	mb1+16
 2268 0018 00000000 		.word	0
 2269 001c 1C000000 		.word	mb1+28
 2270 0020 1C000000 		.word	mb1+28
 2271 0024 05000000 		.word	5
 2272              		.section	.rodata.patternmbox,"a",%progbits
 2273              		.align	2
 2274              		.type	patternmbox, %object
 2275              		.size	patternmbox, 8
 2276              	patternmbox:
 2277 0000 00000000 		.word	testmbox1
 2278 0004 00000000 		.word	0
 2279              		.section	.rodata.str1.4,"aMS",%progbits,1
 2280              		.align	2
 2281              	.LC0:
 2282 0000 41424344 		.ascii	"ABCDE\000"
 2282      4500
 2283 0006 0000     		.space	2
 2284              	.LC1:
 2285 0008 4D61696C 		.ascii	"Mailboxes, queuing and timeouts\000"
 2285      626F7865 
 2285      732C2071 
 2285      75657569 
 2285      6E672061 
 2286              		.section	.rodata.testmbox1,"a",%progbits
 2287              		.align	2
 2288              		.type	testmbox1, %object
 2289              		.size	testmbox1, 16
 2290              	testmbox1:
 2291 0000 08000000 		.word	.LC1
 2292 0004 00000000 		.word	mbox1_setup
 2293 0008 00000000 		.word	0
 2294 000c 00000000 		.word	mbox1_execute
 2295              		.text
 2296              	.Letext0:
 2297              		.file 4 "../../../os/rt/include/chschd.h"
 2298              		.file 5 "/opt/ARM/gcc-arm-none-eabi-4_7-2013q3/bin/../lib/gcc/arm-none-eabi/4.7.4/../../../../arm-
 2299              		.file 6 "../../../os/rt/ports/ARMCMx/compilers/GCC/chtypes.h"
 2300              		.file 7 "../../../os/rt/ports/ARMCMx/chcore.h"
 2301              		.file 8 "../../../os/rt/ports/ARMCMx/chcore_v7m.h"
 2302              		.file 9 "../../../os/rt/include/chmtx.h"
 2303              		.file 10 "../../../os/rt/include/chmboxes.h"
 2304              		.file 11 "../../../test/rt/test.h"
 2305              		.file 12 "../../../os/rt/include/chsys.h"
 2306              		.file 13 "../../../os/ext/CMSIS/include/core_cm3.h"