ARM GAS  /tmp/ccv0K2b2.s 			page 1


   1              		.syntax unified
   2              		.cpu cortex-m3
   3              		.fpu softvfp
   4              		.eabi_attribute 20, 1
   5              		.eabi_attribute 21, 1
   6              		.eabi_attribute 23, 3
   7              		.eabi_attribute 24, 1
   8              		.eabi_attribute 25, 1
   9              		.eabi_attribute 26, 1
  10              		.eabi_attribute 30, 2
  11              		.eabi_attribute 34, 1
  12              		.eabi_attribute 18, 4
  13              		.thumb
  14              		.file	"testmtx.c"
  15              		.text
  16              	.Ltext0:
  17              		.section	.gnu.lto_.jmpfuncs.1132f09afbc4ccff,"",%progbits
  18 0000 789C9D56 		.ascii	"x\234\235V\277\213\023A\024~3\223\315\317\273\313)("
  18      BF8B1341 
  18      147E3393 
  18      CDCFBBCB 
  18      2928
  19 0012 FE382D44 		.ascii	"\3768-D\341@\310\201 \266\336\257\177B\341,$\340\025"
  19      E140C881 
  19      20B6DEAF 
  19      7F42E12C 
  19      24E015
  20 0025 22C42047 		.ascii	"\"\304 G\212\273+\345\014\244M\314\2451`aacce\265\205"
  20      8ABB2BE5 
  20      0CA44DCC 
  20      A5316061 
  20      61636365 
  21 003b C596A974 		.ascii	"\305\226\251t\317+\222\342\224\225k\266\0216\306\331"
  21      CF2B92E2 
  21      94956BB6 
  21      1136C6D9 
  22 004b D933997D 		.ascii	"\3313\231}o]\227\015\201]\336|\337\314{\337\367ff90"
  22      6F5D970D 
  22      815DDE7C 
  22      DFCC7BDF 
  22      F7666639 
  23 0060 C841F4EF 		.ascii	"\310A\364\357c\021\340\236|\236\007\340\3742T\031H0"
  23      6311E09E 
  23      7C9E07E0 
  23      FC325419 
  23      4830
  24 0072 6FC0AFFD 		.ascii	"o\300\257\375KU\306\330u`\275\375\366\375*\343\360\345"
  24      4B55C6D8 
  24      7560BDFD 
  24      F6FD2AE3 
  24      F0E5
  25 0084 D387259F 		.ascii	"\323\207%\237\301\324h\276\312\004\333f0\352\016\313"
  25      C1D468BE 
  25      CA04DB66 
  25      30EA0ECB 
  26 0094 24687785 		.ascii	"$hw\205\214\031p6\341g\016\360w<\303\0361\030t\2077"
  26      8C197036 
ARM GAS  /tmp/ccv0K2b2.s 			page 2


  26      E1670EF0 
  26      773CC31E 
  26      31187487 
  27 00a9 01A6CB18 		.ascii	"\001\246\313\030r\231\033\3012Y\225\324?\231\314R3\353"
  27      72991BC1 
  27      325995D4 
  27      3F99CC52 
  27      33EB
  28 00bb C45B8988 		.ascii	"\304[\211\210\334$\304e\235(\330\264\202\234\254\200"
  28      DC24C465 
  28      9D28D8B4 
  28      829CAC80 
  29 00cb 59AFFBAA 		.ascii	"Y\257\373\252,\010\207\275N\177A\2063a4w\272\015\012"
  29      2C0887BD 
  29      4E7F4186 
  29      33613477 
  29      BA0D0A
  30 00de E676B7E6 		.ascii	"\346v\267\346/\211\260\366\030a\225b\326\370\205\256"
  30      2F89B0F6 
  30      18619562 
  30      D6F885AE 
  31 00ee A2429A63 		.ascii	"\242B\232c\237\317pf\235~\231B;BM\312\3036\264\373\027"
  31      9FCF7066 
  31      9D7E9942 
  31      3B424DCA 
  31      C336B4FB 
  32 0103 FD0C7C49 		.ascii	"\375\014|I\3620\231\010\304\262\332\252\232\360\374"
  32      F2309908 
  32      C4B2DAAA 
  32      9AF0FC
  33 0112 663BF02E 		.ascii	"f;\360.\034\265[\375\013d\325AK\020\353\255\326\320"
  33      1CB55BFD 
  33      0B64D541 
  33      4B10EBAD 
  33      D6D0
  34 0124 076611D4 		.ascii	"\007f\021\324;\010\363\025\326=P\330\034\326\315{\307"
  34      3B08F315 
  34      D63D50D8 
  34      1CD6CD7B 
  34      C7
  35 0135 0876E0BD 		.ascii	"\010v\340\275\367\203y<\357O\205-\340\"\036\222d\275"
  35      F783793C 
  35      EF4F852D 
  35      E0221E92 
  35      64BD
  36 0147 07325444 		.ascii	"\0072TDA\367\212\014\226\":\277 \033\344v\320 E\030"
  36      41F78A0C 
  36      96223ABF 
  36      201BE476 
  36      D0204518 
  37 015b 35878C76 		.ascii	"5\207\214v\376\240\251J\212\351\325&\351\362\345d]n"
  37      FEA0A94A 
  37      8AE9D526 
  37      E9F2E564 
  37      5D6E
  38 016d 3671B326 		.ascii	"6q\263&\334\036\336\253t\333\203\271\204x'\031\321!"
  38      DC1EDEAB 
ARM GAS  /tmp/ccv0K2b2.s 			page 3


  38      74DB83B9 
  38      84782719 
  38      D121
  39 017f C4BB3A71 		.ascii	"\304\273:q\356\177\332\232/\003m\361\2612yC{\300\336"
  39      EE7FDA9A 
  39      2F036DF1 
  39      B1327943 
  39      7BC0DE
  40 0192 A326D090 		.ascii	"\243&\320\220EC\346^|\361\277\337\362tF9\273\351|\032"
  40      4543E65E 
  40      7CF1BFDF 
  40      F2744639 
  40      BBE97C1A 
  41 01a6 615E429B 		.ascii	"a^B\233l\314K\350\322\000\363B&\315OM\342\321&9=\377"
  41      6CCC4BE8 
  41      D200F342 
  41      26CD4F4D 
  41      E2D12639 
  42 01bc 9C983949 		.ascii	"\234\2309I\016\202^#nya\365R\012,\314k\251\004\026\336"
  42      0E825E23 
  42      6E7961F5 
  42      520A2CCC 
  42      6BA90416 
  43 01d1 522A8185 		.ascii	"R*\201\205\213y\311\004\026\016\346\205\004\016\253"
  43      8B79C904 
  43      160EE685 
  43      040EAB
  44 01e0 353AF4CF 		.ascii	"5:\364\317\365\205\251\236\271\231\264Yzl\355h\312\033"
  44      F585A99E 
  44      B999B459 
  44      7A6CED68 
  44      CA1B
  45 01f2 B3D7CCEC 		.ascii	"\263\327\314\354U\020\316\351\256F\342x\330>UG\251f"
  45      5510CEE9 
  45      AE46E278 
  45      D83E5547 
  45      A966
  46 0204 27BA4C9E 		.ascii	"'\272L\236\311\321\362\014\240{?\357\203\203\373\344"
  46      C9D1F20C 
  46      A07B3FEF 
  46      8383FBE4 
  47 0214 24378DCE 		.ascii	"$7\215\316\221\264\255\037z\012\245HV\221\010\363\275"
  47      91B4AD1F 
  47      7A0AA548 
  47      569108F3 
  47      BD
  48 0225 A6910A91 		.ascii	"\246\221\012\221\244<\271\257\266\343\214\311x'\244"
  48      A43CB9AF 
  48      B6E38CC9 
  48      7827A4
  49 0234 F592B582 		.ascii	"\365\222\265\202\341>\211k\005\335=\335\276\210\224"
  49      E13E896B 
  49      05DD3DDD 
  49      BE8894
  50 0243 0D5CA773 		.ascii	"\015\\\247s\334\200\220\223\021$b\252u\\\303\246\022"
  50      DC809093 
  50      112462AA 
ARM GAS  /tmp/ccv0K2b2.s 			page 4


  50      755CC3A6 
  50      12
  51 0254 12B69239 		.ascii	"\022\266\2229[\261\342\214\276\245\334\227\206\275\025"
  51      5BB1E28C 
  51      BEA5DC97 
  51      86BD15
  52 0263 B72FCFE1 		.ascii	"\267/\317\341\334\217\032\364\223\345H}\335\234\025"
  52      DC8F1AF4 
  52      93E5487D 
  52      DD9C15
  53 0272 61976011 		.ascii	"a\227`\021\033k\023\022\363\276\352$W\212\224Y][\207"
  53      1B6B1312 
  53      F3BEEA24 
  53      578A9459 
  53      5D5B87
  54 0285 AB95CA4A 		.ascii	"\253\225\312J\360\257W\237\327Wju\365|Z\337\251<\006"
  54      F0AF579F 
  54      D7576A75 
  54      F57C5ADF 
  54      A93C06
  55 0298 BE067C1D 		.ascii	"\276\006|\035\370*d%rc\023\370\006\360M\370\0035\232"
  55      F82A6425 
  55      726313F8 
  55      06F04DF8 
  55      03359A
  56 02ab 1560     		.ascii	"\025`"
  57              		.text
  58              		.section	.gnu.lto_.inline.1132f09afbc4ccff,"",%progbits
  59 0000 789C6362 		.ascii	"x\234cb`d\340e\300\016\346\260@h!\006\006\355\227@u"
  59      6064E065 
  59      C00EE6B0 
  59      40682106 
  59      06ED9740 
  60 0015 4C621F56 		.ascii	"Lb\037V32\260-\220gb`\346a``b``\344\002J3q3\200$\301"
  60      3332B02D 
  60      90676260 
  60      E6616060 
  60      626060E4 
  61 0031 24BB0003 		.ascii	"$\273\000\003\003\353\004?\006 \302\311fd\020<\006\322"
  61      03EB043F 
  61      0620C2C9 
  61      6664103C 
  61      06D2
  62 0043 C0F8829D 		.ascii	"\300\370\202\235\201\275C\235\011\305\00009\301\017"
  62      81BD439D 
  62      09C50030 
  62      39C10F
  63 0052 6A3E8A0C 		.ascii	"j>\212\014\003\217>\016]\023\374\220\02523p\251\020"
  63      038F3E0E 
  63      5D13FC90 
  63      15323370 
  63      A910
  64 0064 50C84258 		.ascii	"P\310BX\011+\003\2472\310R\006\210\2071\334\310\300"
  64      092B03A7 
  64      32C85206 
  64      888731DC 
  64      C8C0
ARM GAS  /tmp/ccv0K2b2.s 			page 5


  65 0076 C6C02E81 		.ascii	"\306\300.\201C\001;n)\016\006V^\014)N\334\352\271\260"
  65      43013B6E 
  65      290E0656 
  65      5E0C294E 
  65      DCEAB9B0 
  66 008a A9E766B0 		.ascii	"\251\347f\260ma\004\212*]\350d\302\025\037\304\304\004"
  66      6D61048A 
  66      2A5DE864 
  66      C2151FC4 
  66      C404
  67 009c 2E360FC3 		.ascii	".6\017\303\011\206= \013\324>\254\300b\001F\254c\222"
  67      09863D20 
  67      0BD43EAC 
  67      C0620146 
  67      AC6392
  68 00af 94D8CE0B 		.ascii	"\224\330\316\013\264}\026\310v\235\007\327Qmg\341\005"
  68      B47D16C8 
  68      769D07D7 
  68      516D67E1 
  68      05
  69 00c0 5113FCA8 		.ascii	"Q\023\374\250\344M\210\011|\014G\031\014\200\266Y\264"
  69      E44D8809 
  69      7C0C4719 
  69      0C80B659 
  69      B4
  70 00d1 A4225B36 		.ascii	"\244\"[6\301\017\213m0!t\032U\026d\000:\217\237\341"
  70      C10F8B6D 
  70      3021741A 
  70      55166400 
  70      3A8F9FE1 
  71 00e5 18E34D50 		.ascii	"\030\343MP\360,a|\364\007\232\211\300\006\243\330\202"
  71      F02C617C 
  71      F4079A89 
  71      C006A3D8 
  71      82
  72 00f6 DD3C2C0E 		.ascii	"\335<,\016 \225\2073/\022\351\004\332\330.@(\217\011"
  72      20958733 
  72      2F12E904 
  72      DAD82E40 
  72      288F09
  73 0109 1252C000 		.ascii	"\022R\300\000\000\026\303l\015"
  73      0016C36C 
  73      0D
  74              		.text
  75              		.section	.gnu.lto_.pureconst.1132f09afbc4ccff,"",%progbits
  76 0000 789C6362 		.ascii	"x\234cb`d`f``Pe\200\000!\006IfI\026I&IFIV\0116\011v"
  76      60646066 
  76      60605065 
  76      80002106 
  76      49664916 
  77 001e 090E094E 		.ascii	"\011\016\011N\011.\011nI\036+^I>+~+A\011\001\011\000"
  77      092E096E 
  77      491E2B5E 
  77      493E2B7E 
  77      2B410901 
  78 0034 344502F4 		.ascii	"4E\002\364"
  79              		.text
ARM GAS  /tmp/ccv0K2b2.s 			page 6


  80              		.section	.gnu.lto_mtx8_execute.1132f09afbc4ccff,"",%progbits
  81 0000 789CCD94 		.ascii	"x\234\315\224\313O\023Q\024\306\317\271\367N\247-\257"
  81      CB4F1351 
  81      14C6CFB9 
  81      F74EA72D 
  81      AF
  82 0011 FA801610 		.ascii	"\372\200\026\020$\350J\223\366_\020X\370HL\304\350\306"
  82      24E84A93 
  82      F65F1058 
  82      F8484CC4 
  82      E8C6
  83 0023 04881926 		.ascii	"\004\210\031&\201D\305\26451n:\200\177\00011b'&\">0"
  83      8144C5B4 
  83      35316E3A 
  83      807F0031 
  83      31622726 
  84 003a 2A2CBA71 		.ascii	"*,\272q\247\211\304\220\332\260beX\220\324\205\013\227"
  84      A789C490 
  84      DAB06265 
  84      5890D485 
  84      0B97
  85 004c 6E4C503C 		.ascii	"nLP<\367\336\231fZ\212\006\302\202\351\343;\2359\337"
  85      F7DE9966 
  85      5A8A06C2 
  85      82E9E33B 
  85      9D39DF
  86 005f B9DFFC3A 		.ascii	"\271\337\374:3\014\220^\333\267v\372\3741\001\256\220"
  86      330C905E 
  86      DBB776FA 
  86      FC3101AE 
  86      90
  87 0070 22076433 		.ascii	"\"\007d3\253\000\223=\014Q\026d\3111\314]U\316\206^"
  87      AB00933D 
  87      0C511664 
  87      C931CC5D 
  87      55CE865E 
  88 0084 98739C07 		.ascii	"\230s\234\0073\237\246\316Mmlm\035\267\345\336\021\204"
  88      339FA6CE 
  88      4D6D6C6D 
  88      1DB7E5DE 
  88      1184
  89 0096 E2FB4249 		.ascii	"\342\373BI\264\203\215\010= \225\201\250^d\233\221+"
  89      B4838D08 
  89      3D209581 
  89      A85E649B 
  89      912B
  90 00a8 23ECCE24 		.ascii	"#\354\316$\366b\322\021K.?\330\001\327\016Z\300i\307"
  90      F662D211 
  90      4B2E3FD8 
  90      01D70E5A 
  90      C069C7
  91 00bb 37190CBA 		.ascii	"7\031\014\272Q\3726\363\345\246\377[\363\333\326[\374"
  91      51FA36F3 
  91      E5A6FF5B 
  91      F3DBD65B 
  91      FC
  92 00cc FAE837FB 		.ascii	"\372\3507\373\247\261\370\256\260,6]\353\003\373\270"
ARM GAS  /tmp/ccv0K2b2.s 			page 7


  92      A7B1F8AE 
  92      B02C365D 
  92      EB03FBB8 
  93 00dc B19503E8 		.ascii	"\261\225\003\350`0\204O\261\0278\351\034\251 }Fj\220"
  93      6030844F 
  93      B11738E9 
  93      1CA9207D 
  93      466A90
  94 00ef CE938648 		.ascii	"\316\223\206H\237\223\232\244/H\303\244/I#\244\257H"
  94      9F939AA4 
  94      2F48C3A4 
  94      2F4923A4 
  94      AF48
  95 0101 A3A40BA4 		.ascii	"\243\244\013\244q\3227\244\011\322\327\244\264\031p"
  95      71D237A4 
  95      09D2D7A4 
  95      B41970
  96 0110 DF7162A8 		.ascii	"\337qb\250\177\217x\267\304\240Ty\301_\246p\262\340"
  96      7F8F78B7 
  96      C4A05479 
  96      C15FA670 
  96      B2E0
  97 0122 4598BAB6 		.ascii	"E\230\272\266X|\330\245\333\241\256\014\341[4\240\336"
  97      587CD8A5 
  97      DBA1AE0C 
  97      E15B34A0 
  97      DE
  98 0133 6661FC34 		.ascii	"fa\3744\234\"\000\\I\210\347\3411\332h\262{\360\313"
  98      9C22005C 
  98      4988E7E1 
  98      31DA68B2 
  98      7BF0CB
  99 0146 09DB18C6 		.ascii	"\011\333\030\306q};J\034a\000U\017\313\257\025\256*"
  99      717D3B4A 
  99      1C610055 
  99      0FCBAF15 
  99      AE2A
 100 0158 2A17F468 		.ascii	"*\027\364h\031d\363K\363\020.\321Z\026&\324@\303\033"
 100      1964F34B 
 100      F3102ED1 
 100      5A1626D4 
 100      40C31B
 101 016b 1861B492 		.ascii	"\030a\264\222\234!*3(\377\254\251\234\237\201\025\227"
 101      9C212A33 
 101      28FFACA9 
 101      9C9F8115 
 101      97
 102 017c 0AEBA863 		.ascii	"\012\353\250cV\000\310\211\303\313n\371\244\336o!K\301"
 102      5600C889 
 102      C3CB6EF9 
 102      A4DE6F21 
 102      4BC1
 103 018e A213B331 		.ascii	"\242\023\2631*h\350$\025\015*f\302\306F\212\211~\314"
 103      2A68E824 
 103      150D2A66 
 103      C2C6468A 
 103      897ECC
ARM GAS  /tmp/ccv0K2b2.s 			page 8


 104 01a1 466F0959 		.ascii	"Fo\011Y7U\377}0\235\003\177\032\247\214\262\205\253"
 104      3755FF7D 
 104      309D037F 
 104      1AA78CB2 
 104      85AB
 105 01b3 E69242AF 		.ascii	"\346\222B\257\217\010\357\344\233qDO\225\234\324\205"
 105      8F08EFE4 
 105      9B71444F 
 105      959CD485 
 106 01c3 D1022B4C 		.ascii	"\321\002+LZ\275\206\03050y\330\213q\010\273\341\354"
 106      5ABD8618 
 106      353079D8 
 106      8B7108BB 
 106      E1EC
 107 01d5 1367F68C 		.ascii	"\023g\366\214\215\207\225\315\306#\3524\316\177\347"
 107      8D8795CD 
 107      C623EA34 
 107      CE7FE7
 108 01e4 7A780A92 		.ascii	"zx\012\222\304@h(G}\312\255\024\237\371\221[\353\304"
 108      C4406828 
 108      477DCAAD 
 108      149FF991 
 108      5BEBC4
 109 01f7 5FE02A83 		.ascii	"_\340*\203\320LJ\001&\306^\230\340NLB\025&\254\206\211"
 109      D04C4A01 
 109      26C65E98 
 109      E04E4C42 
 109      1526AC86 
 110 020c 598F8911 		.ascii	"Y\217\211\021`\022\0120\3415L.\354/\023\014215\223\265"
 110      60120A30 
 110      E1354C2E 
 110      EC2F130C 
 110      32313593 
 111 0221 0093F05E 		.ascii	"\000\223\360^\230\260\235\230D*Lx\015\223h=&\341\000"
 111      98B09D98 
 111      442A4C78 
 111      0D93683D 
 111      26E100
 112 0234 93488089 		.ascii	"\223H\200\211\250arq\177\231\260 \223\250\314)\326\335"
 112      A8617271 
 112      7F99B020 
 112      93A8CC29 
 112      D6DD
 113 0246 728B7FE7 		.ascii	"r\213\177\347{\003\332(\210\241\223z{\3424\222\353\010"
 113      7B03DA28 
 113      88A1937A 
 113      7BE23492 
 113      EB08
 114 0258 09E5FAE6 		.ascii	"\011\345\372\346\362]\233\370\017w\276\255\306\325N"
 114      F25D9BF8 
 114      0F77BEAD 
 114      C6D54E
 115 0267 AE107A67 		.ascii	"\256\020zg\327!\273\214\237n\031k\272:\251\313\324]"
 115      D721BB8C 
 115      9F6E196B 
 115      BA3AA9CB 
 115      D45D
ARM GAS  /tmp/ccv0K2b2.s 			page 9


 116 0279 9A1BFA8C 		.ascii	"\232\033\372\214\216\021\243K\232Q\2277\245\033`\225"
 116      8E11A34B 
 116      9A519737 
 116      A51B6095 
 117 0289 1AAA9F66 		.ascii	"\032\252\237f\203\222<=\010%\200\316d2\245\337Y;\223"
 117      83923C3D 
 117      082580CE 
 117      6432A5DF 
 117      593B93
 118 029c 4DA5B34A 		.ascii	"M\245\263Jof\357&-\020\267\323\343\023'*\015\023\031"
 118      6F66EF26 
 118      2D10B7D3 
 118      E313272A 
 118      0D1319
 119 02af 7978FC96 		.ascii	"yx\374\226u\343\316\250\235\262\306\262ci\373\372h&"
 119      75E3CEA8 
 119      9DB2C6B2 
 119      6369FBFA 
 119      6826
 120 02c1 3906AC0F 		.ascii	"9\006\254\017\330\000\260~\020}\375\003\360\027\202"
 120      D800B07E 
 120      107DFD03 
 120      F01782
 121 02d0 EA8A18   		.ascii	"\352\212\030"
 122              		.text
 123              		.section	.gnu.lto_thread11.1132f09afbc4ccff,"",%progbits
 124 0000 789C8D91 		.ascii	"x\234\215\221\277N\302P\024\306\317w\332*\212\242\213"
 124      BF4EC250 
 124      14C6CF77 
 124      DA2A8AA2 
 124      8B
 125 0011 466202C4 		.ascii	"Fb\002\3040\303#\270\272b\342H\030\232;8\230\030\355"
 125      30C323B8 
 125      BA62E248 
 125      189A3B38 
 125      9818ED
 126 0024 605CA8E8 		.ascii	"`\\\250\350\016qj\235$}\004''\215a\"\204\211\221\201"
 126      0E716A9D 
 126      247D0427 
 126      278D6122 
 126      84899181 
 127 0038 84177060 		.ascii	"\204\027p`11\251\347\366\022T \306\323\333\234{o\317"
 127      3131A9E7 
 127      F6125420 
 127      C6D3DB9C 
 127      7B6FCF
 128 004b EF3B7FCA 		.ascii	"\357;\177\312\004y\026-+\357!\023\345\305\303\"p\253"
 128      0479162D 
 128      2BEF2113 
 128      E5C5C322 
 128      70AB
 129 005d 4F745360 		.ascii	"OtS`@o\004\2513\352'\011\211\003j\373\376\375\373[c"
 129      406F04A9 
 129      33EA2709 
 129      89036AFB 
 129      FEFDFB5B 
 130 0072 AF318AE3 		.ascii	"\2571\212\343\274\322\2675P\267\3714\340,)\200R\244"
ARM GAS  /tmp/ccv0K2b2.s 			page 10


 130      BCD2B735 
 130      50B7F934 
 130      E02C2980 
 130      52A4
 131 0084 3DCF679A 		.ascii	"=\317g\2324\243\3420t_\370u\024\327\213\024\211J\353"
 131      34A3E230 
 131      745FF875 
 131      14D78B14 
 131      894AEB
 132 0097 D63F52B0 		.ascii	"\326?R\260\230r\320\032\223\3468g$\012S\011[\203\022"
 132      9872D01A 
 132      93E63867 
 132      240A5309 
 132      5B8312
 133 00aa 4169A08A 		.ascii	"Ai\240\2126\212\304T\305\243\024!\346\320\235\357ok"
 133      368AC454 
 133      C5A31421 
 133      E6D09DEF 
 133      6F6B
 134 00bc 30B18AF6 		.ascii	"0\261\212\366\272\336c\001\365\306\352\221\335\011\242"
 134      BADE6301 
 134      F5C6EA91 
 134      DD09A2
 135 00cb 4C15111C 		.ascii	"L\025\021\034\371vM\037~J\301F\0150\314\364\306\301"
 135      F9764D1F 
 135      7E4AC146 
 135      0D30CCF4 
 135      C6C1
 136 00dd A9392BAC 		.ascii	"\2519+\254\020\011\325\013\254\177A\370\0019\303 \332"
 136      1009D50B 
 136      AC7F41F8 
 136      0139C320 
 136      DA
 137 00ee 9DA35685 		.ascii	"\235\243V\205\342_TJ(6#WX\2438\266\304\257\023u\251"
 137      E25F544A 
 137      28362357 
 137      58A338B6 
 137      C4AF1375 
 138 0103 F1EC7C06 		.ascii	"\361\354|\006\321\216Qp\301\017\024B\206\313.\240c\323"
 138      D18E5170 
 138      C10F1442 
 138      86CB2EA0 
 138      63D3
 139 0115 B3394A7D 		.ascii	"\2639J}4\227gC\362X&\217\220\012\233IT'\214\266\226"
 139      34976743 
 139      F258268F 
 139      900A9B49 
 139      54278CB6 
 140 012a B461FFD9 		.ascii	"\264a\377\331\206\335\013\227\365\276\010}\017\254O"
 140      86DD0B97 
 140      F5BE087D 
 140      0FAC4F
 141 0139 18846318 		.ascii	"\030\204c\030J\327\232\231\325Z\321\332\362+t\313\373"
 141      4AD79A99 
 141      D55AD1DA 
 141      F22B74CB 
 141      FB
ARM GAS  /tmp/ccv0K2b2.s 			page 11


 142 014a A552D92C 		.ascii	"\245R\331,O]z\345\013/\361g\336U\311%\234\177\001\371"
 142      4F5D7AE5 
 142      0B2FF167 
 142      DE55C925 
 142      9C7F01F9 
 143 015e 2C7B0A   		.ascii	",{\012"
 144              		.text
 145              		.section	.gnu.lto_thread10.1132f09afbc4ccff,"",%progbits
 146 0000 789C7D90 		.ascii	"x\234}\220?K\003A\020\305\337\333\273\213\027\377a#"
 146      3F4B0341 
 146      10C5DFDB 
 146      BB8B17FF 
 146      6123
 147 0012 18041324 		.ascii	"\030\004\023$\365\345k\330F\260\014)\302\026\026\202"
 147      F5E56BD8 
 147      46B00C29 
 147      C2161682 
 148 0022 C443244D 		.ascii	"\304C$M\316\323\017\020\354\2642\246\263\261\266RD,"
 148      CED30F10 
 148      ECB432A6 
 148      B3B1B652 
 148      442C
 149 0034 42486525 		.ascii	"BHe%\026),-,\202 \344\210\263\267!`\024go\231\275\335"
 149      16292C2D 
 149      2C8220E4 
 149      88B3B721 
 149      6014676F 
 150 004b FDBD793B 		.ascii	"\375\275y;\012\224\361;r2\237\344 /\231\016\250Z}\340"
 150      0A94F13B 
 150      72329FE4 
 150      202F990E 
 150      A85A7DE0 
 151 005f B8A048B3 		.ascii	"\270\240H\263\020\244\251\330\334IIn\242\035Eg\037\017"
 151      10A4A9D8 
 151      DC49496E 
 151      A21D4567 
 151      1F0F
 152 0071 F15A3C18 		.ascii	"\361Z<\030\217\363\332\354V\211\356\313\315j\016\232"
 152      8FF3DAEC 
 152      5689EECB 
 152      CD6A0E9A 
 153 0081 840F93D5 		.ascii	"\204\017\223\325l\241\341\350J\275'\231;u?\0307\213"
 153      6CA1E1E8 
 153      4ABD2799 
 153      3B753F18 
 153      378B
 154 0093 E88848EB 		.ascii	"\350\210H\353$\332\322t\0246h$\206\243OZ\211\302D\302"
 154      24DAD274 
 154      14366824 
 154      86A34F5A 
 154      89C244C2 
 155 00a7 35A0DC40 		.ascii	"5\240\334@\226\254\260\315\"\024*\274\024\017\022\036"
 155      96ACB0CD 
 155      22142ABC 
 155      140F121E 
 156 00b7 4EA368C5 		.ascii	"N\243h\305\200i\224M6v\267\0054\013\247\007\3671\251"
 156      8069944D 
ARM GAS  /tmp/ccv0K2b2.s 			page 12


 156      3676B705 
 156      340BA707 
 156      F731A9
 157 00ca 57D8A127 		.ascii	"W\330\241'G\015|E\276\246\313*i\221\311\216\307]\373"
 157      470D7C45 
 157      BEA6CB2A 
 157      6991C98E 
 157      C75DFB
 158 00dd AF990104 		.ascii	"\257\231\001\004\352%\2073\320\234@\352\007\344\013"
 158      EA258733 
 158      D09C40EA 
 158      07E40B
 159 00ec 440B6581 		.ascii	"D\013e\201.\342[\3579\271\246\345jT\0278\247\264F\325"
 159      2EE25BEF 
 159      39B9A6E5 
 159      6A541738 
 159      A7B446D5 
 160 0100 983E697E 		.ascii	"\230>i~\332\006\321\307\214\372\202\250;V]H\315\305"
 160      DA06D1C7 
 160      8CFA82A8 
 160      3B565D48 
 160      CDC5
 161 0112 F4D66BD2 		.ascii	"\364\326k\322\370\303\272\373\217\365>\370\226,[\310"
 161      F8C3BAFB 
 161      8FF53EF8 
 161      962C5BC8 
 162 0122 145D9A16 		.ascii	"\024]\232\026-\033\257\322\022i\014\326\203\240d\277"
 162      2D1BAFD2 
 162      12690CD6 
 162      83A064BF 
 163 0132 501F84A5 		.ascii	"P\037\204\245z\230\346\275\360(\250\201\373\337\"|g"
 163      7A98E6BD 
 163      F028A881 
 163      FBDF227C 
 163      67
 164 0143 06       		.ascii	"\006"
 165              		.text
 166              		.section	.gnu.lto_thread12.1132f09afbc4ccff,"",%progbits
 167 0000 789C7D8F 		.ascii	"x\234}\217?K\003A\020\305\337\333\313\351i\2416\202"
 167      3F4B0341 
 167      10C5DFDB 
 167      CBE969A1 
 167      3682
 168 0012 414882A4 		.ascii	"AH\202\244N\276\206m\004\313#\305\261\205\205 z\205"
 168      4EBE866D 
 168      04CB23C5 
 168      B1858520 
 168      7A85
 169 0024 D8DC1AFD 		.ascii	"\330\334\032\375\000A\260\270\253\014\327\330[Y)b\025"
 169      0041B0B8 
 169      AB0CD7D8 
 169      5B592962 
 169      15
 170 0035 42AA9416 		.ascii	"B\252\224\026\201\264)l\005\341\234\275\015)\2428\273"
 170      81B4296C 
 170      05E19CBD 
 170      0D29A238 
ARM GAS  /tmp/ccv0K2b2.s 			page 13


 170      BB
 171 0046 CBECBFDF 		.ascii	"\313\354\277\337\2337\012\224\361;\252\262\356\345\241"
 171      9B370A94 
 171      F13BAAB2 
 171      EEE5A1
 172 0055 2E991EA8 		.ascii	".\231\036\250\372c\340\272\241H\273\021$QL\216K\222"
 172      FA63E0BA 
 172      A148BB11 
 172      24514C8E 
 172      4B92
 173 0067 07181873 		.ascii	"\007\030\030s\367\371\326\333\353M\213\242\256\355m"
 173      F7F9D6DB 
 173      EB4D8BA2 
 173      AEED6D
 174 0076 97183E3E 		.ascii	"\227\030>>MT\025\232D\000\233\325j\245y\2327?\262\350"
 174      4D54159A 
 174      44009BD5 
 174      6AA5799A 
 174      373FB2E8 
 175 008a 45BD4E8B 		.ascii	"E\275N\213\244\211\\T\3727\346P\323S\250\321j\314\323"
 175      A4895C54 
 175      FA37E650 
 175      D353A8D1 
 175      6ACCD3
 176 009d 59CD4934 		.ascii	"Y\315I4\026\022\025\013\312\017\004d\310\001\233P\010"
 176      1612150B 
 176      CA0F0464 
 176      C8019B50 
 176      08
 177 00ae F9202624 		.ascii	"\371 &$|\334\032\263c\3012:6[\277G\002\332\2157B\345"
 177      7CDC1AB3 
 177      63C1323A 
 177      365BBF47 
 177      02DA8D37 
 178 00c4 3BCDB742 		.ascii	";\315\267B\346\364\345\355\012_&\320\254\260K:fq\343"
 178      E6F4E5ED 
 178      0A5F26D0 
 178      ACB04B3A 
 178      6671E3
 179 00d7 F3C49D35 		.ascii	"\363\304\2355\327\200!z\317\376{\226\357:.\242\312\220"
 179      D780217A 
 179      CFFE7B96 
 179      EF3A2EA2 
 179      CA90
 180 00e9 52FA5411 		.ascii	"R\372T\021im\255/[\222\002XQ\017D]95!57\312_\243,\337"
 180      696DAD2F 
 180      5B920258 
 180      510F445D 
 180      39352135 
 181 0103 FEC386F7 		.ascii	"\376\303\206\367\217\21518\311ft\224-\273\271,\333\261"
 181      8F8D3138 
 181      C9667494 
 181      2DBBB92C 
 181      DBB1
 182 0115 F6A54169 		.ascii	"\366\245Ai\023\373\255V\333\315X_\304\355\363\270\314"
 182      13FBAD56 
 182      DBCD585F 
ARM GAS  /tmp/ccv0K2b2.s 			page 14


 182      C4EDF3B8 
 182      CC
 183 0126 A7F1652B 		.ascii	"\247\361e+\002\317~\000\257G\\I"
 183      02CF7E00 
 183      AF475C49 
 184              		.text
 185              		.section	.gnu.lto_thread1.1132f09afbc4ccff,"",%progbits
 186 0000 789C7D8F 		.ascii	"x\234}\217\275J\003A\024\205\317\231\315\306\325Bl\004"
 186      BD4A0341 
 186      1485CF99 
 186      CDC6D542 
 186      6C04
 187 0012 836082A4 		.ascii	"\203`\202\244N^\3036\202eH\261La!H\334B\322\354\270"
 187      4E5EC336 
 187      826548B1 
 187      4C612148 
 187      DC42D2EC 
 188 0027 FA00D14E 		.ascii	"\372\000\321N\2471\244\363\015\004A\261\014!O\220\""
 188      A731A4F3 
 188      0D0441B1 
 188      0C214F90 
 188      22
 189 0038 85A58588 		.ascii	"\205\245\205\210\215 \256wv\202B\024\357\314p\347\357"
 189      8D20AE77 
 189      76824214 
 189      EFCC70E7 
 189      EF
 190 0049 3BF75C05 		.ascii	";\367\\\005\312\370\035\025Y\347\362P\225\314\000T\375"
 190      CAF81D15 
 190      59E7F250 
 190      95CC0054 
 190      FD
 191 005a 09705253 		.ascii	"\011pRS\244\333\010\222*\246{\005\311m\014\214\271x"
 191      A4DB0892 
 191      2AA67B05 
 191      C96D0C8C 
 191      B978
 192 006c 79CC36B2 		.ascii	"y\3146\262Y\236W\265\273\355\020\243\273\341z\005\232"
 192      599E57B5 
 192      BBED10A3 
 192      BBE17A05 
 192      9A
 193 007d 440497D5 		.ascii	"D\004\227\325b\241\261\375\344\207-\337\253\207Y\236"
 193      62A1B1FD 
 193      E4872DDF 
 193      AB87599E 
 194 008d D6311491 		.ascii	"\3261\024\221\376\251\331\321\014\024\266\350$\306\366"
 194      FEA9D9D1 
 194      0C14B6E8 
 194      24C6F6
 195 009c 955EA236 		.ascii	"\225^\2426\227(9P~ \"\333\034\260\016\2056\257\305\203"
 195      97283950 
 195      7E2022DB 
 195      1CB00E85 
 195      36AFC583 
 196 00b0 44883363 		.ascii	"D\2103c\326\034XD\313egwW@\267\011\306(Mm\267\315!C"
 196      D61C5844 
ARM GAS  /tmp/ccv0K2b2.s 			page 15


 196      CB656777 
 196      5740B709 
 196      C6284D6D 
 197 00c8 79EAE1DD 		.ascii	"y\352\341\335D\232%vH\217\314oB\356\373\263f\031\030"
 197      449A2576 
 197      488FCC6F 
 197      42EEFBB3 
 197      661918
 198 00db 21BB0D9F 		.ascii	"!\273\015\237\354\015=\027S]\341\222\322\245\212Y\270"
 198      EC0D3D17 
 198      535DE192 
 198      D2A58A59 
 198      B8
 199 00ec 5BFAE948 		.ascii	"[\372\351H\374-\250G\242\256\274\232\220\232\313\305"
 199      FC2DA847 
 199      A2AEBC9A 
 199      909ACBC5 
 200 00fc AF67DBFB 		.ascii	"\257g\333\373\303E\360\217\213\011\370fW=\344\212\256"
 200      C345F08F 
 200      8B09F866 
 200      573DE48A 
 200      AE
 201 010d 7C176D39 		.ascii	"|\027m9\363\322\235\364\210\315F\243\351g\242\217\222"
 201      F3D29DF4 
 201      88CD46A3 
 201      E967A28F 
 201      92
 202 011e 663729F2 		.ascii	"f7)\362Ar\334\210\301\303/\300kZ%"
 202      4172DC88 
 202      C1C32FC0 
 202      6B5A25
 203              		.text
 204              		.section	.gnu.lto_mtx8_setup.1132f09afbc4ccff,"",%progbits
 205 0000 789C6362 		.ascii	"x\234cb`\004BL \011\304\177\200X\026\210\031\231\031"
 205      6004424C 
 205      2009C47F 
 205      80581688 
 205      199919
 206 0013 1899269C 		.ascii	"\030\231&\234c`hT`bd\0041\200Z\352\231\030\353C!:O\275"
 206      63606854 
 206      60626404 
 206      31805AEA 
 206      9918EB43 
 207 002b DFF885F9 		.ascii	"\337\370\205\371I\177\362~\246\003\017\376\32730\260"
 207      497FF27E 
 207      A6030FFE 
 207      D73330B0 
 208 003b 3280704B 		.ascii	"2\200pKC\203\000C<\324\354@\020\015\322\031\304\310"
 208      43830043 
 208      3CD4EC40 
 208      100DD219 
 208      C4C8
 209 004d 0466309F 		.ascii	"\004f0\237a`9\323\377X4\226q\001#H}\025\303\317\006"
 209      616039D3 
 209      FF583496 
 209      71012348 
 209      7D15C3CF 
ARM GAS  /tmp/ccv0K2b2.s 			page 16


 210 0062 8E54A05B 		.ascii	"\216T\240[\342\031\031!z\240\"\214\214\231\020~*H'P"
 210      E2191921 
 210      7AA0228C 
 210      8C99107E 
 210      2A482750 
 211 0076 D795FEC5 		.ascii	"\327\225\376\305\350\272\230\201\272\230Pt\261\000u"
 211      E8BA9881 
 211      BA985074 
 211      B10075
 212 0085 314274B1 		.ascii	"1Bt\261\202u\335\351g&J\023\023\\\3239\006F\240\237"
 212      8275DDE9 
 212      67264A13 
 212      135CD339 
 212      0646A09F 
 213 0099 609A60DE 		.ascii	"`\232`\336`\004\273\036\244JZOO\037\202JR\213K\364\213"
 213      6004BB1E 
 213      A44A5A4F 
 213      4F1F824A 
 213      528B4BF4 
 214 00ae 4AC0746E 		.ascii	"J\300tnI\205^2\003\000\005\001?\221"
 214      49855E32 
 214      03000501 
 214      3F91
 215              		.text
 216              		.section	.gnu.lto_mtx7_setup.1132f09afbc4ccff,"",%progbits
 217 0000 789C6362 		.ascii	"x\234cb`\004BL \011\304\307\201X\026\210\031\231\031"
 217      6004424C 
 217      2009C4C7 
 217      81581688 
 217      199919
 218 0013 1899269C 		.ascii	"\030\231&\234c`hT`bd\0041\200Z\352\231\030\353C!:O\255"
 218      63606854 
 218      60626404 
 218      31805AEA 
 218      9918EB43 
 219 002b D9F885F9 		.ascii	"\331\370\205\371Hw\362~\246\003\017\376\32730\260\000"
 219      4877F27E 
 219      A6030FFE 
 219      D73330B0 
 219      00
 220 003c C558195A 		.ascii	"\305X\031Z\032\032\004\030\342\241f\007\202h\220\316"
 220      1A1A0418 
 220      E2A16607 
 220      826890CE 
 221 004c 20462630 		.ascii	" F&0\203\371\014\003\313\227\256\307\242\261\214\013"
 221      83F90C03 
 221      CB97AEC7 
 221      A2B18C0B 
 222 005c 18598172 		.ascii	"\030Y\201rU\014?\0338R\201n\211gd\204\350\201\21202"
 222      550C3F1B 
 222      3852816E 
 222      89676484 
 222      E8818A30 
 223 0071 6642F8A9 		.ascii	"fB\370\251 \235@]\177\272\026\243\353b\006\352bB\321"
 223      209D405D 
 223      7FBA16A3 
 223      EB6206EA 
ARM GAS  /tmp/ccv0K2b2.s 			page 17


 223      6242D1
 224 0084 C502D4C5 		.ascii	"\305\002\324\305\010\321\005Tw\216\201\021\350<\230"
 224      08D10554 
 224      778E8111 
 224      E83C98
 225 0093 26988B18 		.ascii	"&\230\213\030\301\016\001\032\312 \255\247\247\017A"
 225      C10E011A 
 225      CA20ADA7 
 225      A70F41
 226 00a2 25A9C525 		.ascii	"%\251\305%\372E%`:\267\244B/\231\001\000\313\3545\317"
 226      FA452560 
 226      3AB7A442 
 226      2F990100 
 226      CBEC35CF 
 227              		.text
 228              		.section	.gnu.lto_mtx6_setup.1132f09afbc4ccff,"",%progbits
 229 0000 789C6362 		.ascii	"x\234cb`\004BL \011\304\307\200X\026\210\031\231\031"
 229      6004424C 
 229      2009C4C7 
 229      80581688 
 229      199919
 230 0013 1899269C 		.ascii	"\030\231&\234c`hT`bd\0041\200Z\352\231\030\353C!:O\235"
 230      63606854 
 230      60626404 
 230      31805AEA 
 230      9918EB43 
 231 002b 582FFFE4 		.ascii	"X/\377\344\017\333~\246\003\017\376\32730\260\000\205"
 231      0FDB7EA6 
 231      030FFED7 
 231      3330B000 
 231      85
 232 003c 58195A1A 		.ascii	"X\031Z\032\032\004\030\342\241F\007\202h\220\306 F&"
 232      1A0418E2 
 232      A1460782 
 232      6890C620 
 232      4626
 233 004e 3083F90C 		.ascii	"0\203\371\014\003\313\225?\353\030c\031\0270\262\002"
 233      03CB953F 
 233      EB186319 
 233      1730B202 
 234 005e E5AA187E 		.ascii	"\345\252\030~6p\244\002\235\022\317\310\010\321\003"
 234      3670A402 
 234      9D12CFC8 
 234      08D103
 235 006d 156164CC 		.ascii	"\025ad\314\204\360SA:\201\272\356\374Y\205\256\213\031"
 235      84F05341 
 235      3A81BAEE 
 235      FC5985AE 
 235      8B19
 236 007f A88B0945 		.ascii	"\250\213\011E\027\013P\027#D\027P\3359\006F\240\363"
 236      170B5017 
 236      23441750 
 236      DD390646 
 236      A0F3
 237 0091 609A602E 		.ascii	"`\232`.b\004;\004h(\203\264\236\236>\004\225\244\026"
 237      62043B04 
 237      682883B4 
ARM GAS  /tmp/ccv0K2b2.s 			page 18


 237      9E9E3E04 
 237      95A416
 238 00a4 97E81795 		.ascii	"\227\350\027\225\200\351\334\222\012\275d\006\000|\341"
 238      80E9DC92 
 238      0ABD6406 
 238      007CE1
 239 00b3 35C6     		.ascii	"5\306"
 240              		.text
 241              		.section	.gnu.lto_mtx5_setup.1132f09afbc4ccff,"",%progbits
 242 0000 789C6362 		.ascii	"x\234cb`\004BL \011\304\023\200X\026\210\031\231\031"
 242      6004424C 
 242      2009C413 
 242      80581688 
 242      199919
 243 0013 1899269C 		.ascii	"\030\231&\234c`hT`bd\0041\200Z\352\231\030\353C!:O\335"
 243      63606854 
 243      60626404 
 243      31805AEA 
 243      9918EB43 
 244 002b 5D2B7FE4 		.ascii	"]+\177\344\035\333~\246\003\017\376\327300\003\205X"
 244      1DDB7EA6 
 244      030FFED7 
 244      33303003 
 244      8558
 245 003d 195A1A1A 		.ascii	"\031Z\032\032\004\030\342\241F\007\202h\220\306 F&0"
 245      0418E2A1 
 245      46078268 
 245      90C62046 
 245      2630
 246 004f 83F90C03 		.ascii	"\203\371\014\003\313\237\267\253\030c\031\0270\262\002"
 246      CB9FB7AB 
 246      18631917 
 246      30B202
 247 005e E5AA187E 		.ascii	"\345\252\030~6p\244\002\235\022\317\310\010\321\003"
 247      3670A402 
 247      9D12CFC8 
 247      08D103
 248 006d 156164CC 		.ascii	"\025ad\314\204\360SA:\31710\002-\202i\202\231\315\010"
 248      84F05341 
 248      3ACF3130 
 248      022D8269 
 248      8299CD08 
 249 0081 361228CD 		.ascii	"6\022(\315 \255\247\247\017A%\251\305%\372E%`:\267\244"
 249      20ADA7A7 
 249      0F4125A9 
 249      C525FA45 
 249      25603AB7 
 250 0096 422F9901 		.ascii	"B/\231\001\000$\264+\000"
 250      0024B42B 
 250      00
 251              		.text
 252              		.section	.gnu.lto_mtx4_setup.1132f09afbc4ccff,"",%progbits
 253 0000 789C6362 		.ascii	"x\234cb`\004BL \011\304G\200X\026\210\031\231\031\030"
 253      6004424C 
 253      2009C447 
 253      80581688 
 253      19991918 
ARM GAS  /tmp/ccv0K2b2.s 			page 19


 254 0014 99269C63 		.ascii	"\231&\234c`hT`bd\0041\200Z\352\231\030\353C!:O\255]"
 254      60685460 
 254      62640431 
 254      805AEA99 
 254      18EB4321 
 255 002c 2D7FE636 		.ascii	"-\177\3466\333~\246\003\017\376\32730\260\000\205X\031"
 255      DB7EA603 
 255      0FFED733 
 255      30B00085 
 255      5819
 256 003e 5A1A1A04 		.ascii	"Z\032\032\004\030\342\241F\007\202h\220\306 F&0\203"
 256      18E2A146 
 256      07826890 
 256      C6204626 
 256      3083
 257 0050 F90C03CB 		.ascii	"\371\014\003\313\237[\253\030c\031\0270\262\002\345"
 257      9F5BAB18 
 257      63191730 
 257      B202E5
 258 005f AA187E36 		.ascii	"\252\030~6p\244\002\235\022\317\310\010\321\003\025"
 258      70A4029D 
 258      12CFC808 
 258      D10315
 259 006e 6164CC84 		.ascii	"ad\314\204\360SA:\201\272\216D\023\245\207\021\256\347"
 259      F053413A 
 259      81BA8E44 
 259      13A58711 
 259      AEE7
 260 0080 1C0323D0 		.ascii	"\034\003#\320q0M0\3670\202\235\001\224f\220\326\323"
 260      71304D30 
 260      F730829D 
 260      01946690 
 260      D6D3
 261 0092 D387A092 		.ascii	"\323\207\240\222\324\342\022\375\242\0220\235[R\241"
 261      D4E212FD 
 261      A212309D 
 261      5B52A1
 262 00a1 97CC0000 		.ascii	"\227\314\000\000Ks3\307"
 262      4B7333C7 
 263              		.text
 264              		.section	.gnu.lto_mtx1_setup.1132f09afbc4ccff,"",%progbits
 265 0000 789C6362 		.ascii	"x\234cb`\004BL \011\304\023\200X\026\210\031\231\031"
 265      6004424C 
 265      2009C413 
 265      80581688 
 265      199919
 266 0013 1899269C 		.ascii	"\030\231&\234c`hT`bd\0041\200Z\352\231\030\353C!:O\255"
 266      63606854 
 266      60626404 
 266      31805AEA 
 266      9918EB43 
 267 002b 592CFF67 		.ascii	"Y,\377g\026\333~\246\003\017\376\327300\003\205X\031"
 267      16DB7EA6 
 267      030FFED7 
 267      33303003 
 267      855819
 268 003e 5A1A1A04 		.ascii	"Z\032\032\004\030\342\241F\007\202h\220\306 F&0\203"
ARM GAS  /tmp/ccv0K2b2.s 			page 20


 268      18E2A146 
 268      07826890 
 268      C6204626 
 268      3083
 269 0050 F90C03CB 		.ascii	"\371\014\003\313\227Y\253\030c\031\0270\262\002\345"
 269      9759AB18 
 269      63191730 
 269      B202E5
 270 005f AA187E36 		.ascii	"\252\030~6p\244\002\235\022\317\310\010\321\003\025"
 270      70A4029D 
 270      12CFC808 
 270      D10315
 271 006e 6164CC84 		.ascii	"ad\314\204\360SA:\31710\002-\202i\202\231\315\0106\022"
 271      F053413A 
 271      CF313002 
 271      2D826982 
 271      99CD0836 
 272 0083 28CD20AD 		.ascii	"(\315 \255\247\247\017A%\251\305%\372E%`:\267\244B/"
 272      A7A70F41 
 272      25A9C525 
 272      FA452560 
 272      3AB7A442 
 273 0098 990100C0 		.ascii	"\231\001\000\300:*2"
 273      3A2A32
 274              		.text
 275              		.section	.gnu.lto_mtx7_execute.1132f09afbc4ccff,"",%progbits
 276 0000 789CCD95 		.ascii	"x\234\315\225\315K\024q\030\307\237\347\367\233\331"
 276      CD4B1471 
 276      18C79FE7 
 276      F79BD9
 277 000f F7372B4D 		.ascii	"\3677+M3m\325N\005\273\377B\276\321\013\004Y\324!R\211"
 277      336DD54E 
 277      05BBFF42 
 277      BED10B04 
 277      59D42152 
 278 0024 7140A132 		.ascii	"q@\2412t\203\350\262\243vs\017\022D&\004\231\275\330"
 278      7483E8B2 
 278      A376730F 
 278      12442604 
 278      99BDD8
 279 0037 DB864197 		.ascii	"\333\206A\227(\012\222\220m\361\324)<\010z\350\340\321"
 279      280A9290 
 279      6DF1D429 
 279      3C087AE8 
 279      E0D1
 280 0049 4B60D8F3 		.ascii	"K`\330\363\233\337\3544\256\273\033-{\330\361\345\363"
 280      9BDFEC34 
 280      AEBB1B2D 
 280      7BD8F1E5 
 280      F3
 281 005a DB99E779 		.ascii	"\333\231\347y\346\373\373(3\014\220\276v\037\015\364"
 281      E6FBFB28 
 281      330C90BE 
 281      761F0DF4 
 282 006a A3F9012E 		.ascii	"\243\371\001.\021\221\003\262\251e\200\261(C\024\013"
 282      119103B2 
 282      A96580B1 
ARM GAS  /tmp/ccv0K2b2.s 			page 21


 282      2843140B 
 283 007a 6A49324C 		.ascii	"jI2L\2367;kZa\3260\356L}\031?1\276\272\275}H\027g\373"
 283      9E373B6B 
 283      5A61D630 
 283      EE4C7D19 
 283      3F31BEBA 
 284 0094 11321F17 		.ascii	"\0212\037\027\262J\003\350\210\020\005A\006\312\316"
 284      B24A03E8 
 284      88100541 
 284      06CACE
 285 00a3 9BEC6AE4 		.ascii	"\233\354j\344f#\374_\223RN\223\214\2709\311\253;\340"
 285      6623FC5F 
 285      93524E93 
 285      8CB839C9 
 285      AB3BE0
 286 00b6 56B5075C 		.ascii	"V\265\007\\LUy\300l\265\005\2340rM*\203f\024}\353\223"
 286      4C5579C0 
 286      6CB5059C 
 286      30724D2A 
 286      8366147D 
 287 00cc 6BC17FB7 		.ascii	"k\301\177\267\316\354\272_\372\307\275\337\254dc\346"
 287      CEECBA5F 
 287      FAC7BDDF 
 287      AC6463E6 
 288 00dc FDC2A2B2 		.ascii	"\375\302\242\262\221\322>\261\317\253\333I\2006\006"
 288      91D23EB1 
 288      CFABDB49 
 288      803606
 289 00eb BDF8105B 		.ascii	"\275\370\020[\201\023g\211\012\361\021Q%\316\021]\304"
 289      81136789 
 289      0AF11151 
 289      25CE115D 
 289      C4
 290 00fc C74437F1 		.ascii	"\307D7\361\011\321C|J\364\022\237\021}\304y\242\237"
 290      09D1437C 
 290      4AF4129F 
 290      117DC479 
 290      A29F
 291 010e F89C1820 		.ascii	"\370\234\030 \276 \006\211/\211!\342+b\230\370\232\030"
 291      BE200689 
 291      2F8921E2 
 291      2B6298F8 
 291      9A18
 292 0120 21A68951 		.ascii	"!\246\211Q\342\002\261\205\370\206H\207\012\267\015"
 292      E202B185 
 292      F8864887 
 292      0AB70D
 293 012f 2382F273 		.ascii	"#\202\362s\277\365\020\352\021\024\217\230\263\264\031"
 293      BFF510EA 
 293      11148F98 
 293      B3B419
 294 013e B1E01918 		.ascii	"\261\340\031\030\277\230\316\334m\222\345P\020\275\370"
 294      BF98CEDC 
 294      6D92E550 
 294      10BDF8
 295 014d 16552874 		.ascii	"\026U(th\030=\012GH\0307\341\3423p\037ut\263[\360\313"
 295      68183D0A 
ARM GAS  /tmp/ccv0K2b2.s 			page 22


 295      47481837 
 295      E1E23370 
 295      1F7574B3 
 296 0164 F0E8E8C1 		.ascii	"\360\350\350\301!\371\000\024\372<\000\346\272O\374"
 296      21F90014 
 296      FA3C00E6 
 296      BA4FFC
 297 0173 5AE2E68A 		.ascii	"Z\342\346\212\226\363r\264\010\262\365-\324\213\357"
 297      96F372B4 
 297      08B2F52D 
 297      D48BEF
 298 0182 E85E1AB6 		.ascii	"\350^\032\266\230\003Uk\240\227\321\235\304\014\305"
 298      9803556B 
 298      A097D19D 
 298      C40CC5
 299 0191 9E41F9A7 		.ascii	"\236A\371\247\335f\347W`\231\017\013+(c\332\002\304"
 299      DD66E757 
 299      60990F0B 
 299      2B2863DA 
 299      02C4
 300 01a3 C4BE8DC9 		.ascii	"\304\276\215\311\265\303\362\274\206,\016i#\242\243"
 300      B5C3F2BC 
 300      862C0E69 
 300      23A2A3
 301 01b2 4FA1A163 		.ascii	"O\241\241c\264\360\2331\353u\014PL\314\305\014X\267"
 301      B4F09B31 
 301      EB750C50 
 301      4CCCC50C 
 301      58B7
 302 01c4 10EBE0CE 		.ascii	"\020\353\340\316?7L$!7\215SFQ\302\315\342,\324\333W"
 302      3F374C24 
 302      21378D53 
 302      4651C2CD 
 302      E22CD4DB 
 303 01d9 146BF321 		.ascii	"\024k\363!\354\227S\205'\363\037)\014KL\264Z\005\021"
 303      EC975385 
 303      27F31F29 
 303      0C4B4CB4 
 303      5A0511
 304 01ec 2A60E2B2 		.ascii	"*`\342\262\025\243\006\233\341\370\003c\372\230\216"
 304      15A3069B 
 304      E1F80363 
 304      FA988E
 305 01fb 7BCC361D 		.ascii	"{\3146\035\367\232\3338\371\223\313\341q\210\221\003"
 305      F79ADB38 
 305      F993CBE1 
 305      71889103 
 306 020b 454AD997 		.ascii	"EJ\331\227\263\\K\361Y.rm\201\370\363\334\314\240H'"
 306      B35C4BF1 
 306      592E726D 
 306      81F8F3DC 
 306      CCA04827 
 307 021f 9B0E276A 		.ascii	"\233\016'j9N\260\230\023\227\355\204\3459q\027r\242"
 307      394EB098 
 307      1397ED84 
 307      E5397117 
 307      72A2
ARM GAS  /tmp/ccv0K2b2.s 			page 23


 308 0231 3A9CB84A 		.ascii	":\234\270J89UY'\350t\342\226N\266\034N<\3458a\305\234"
 308      38395559 
 308      27E874E2 
 308      964EB61C 
 308      4E3CE538 
 309 0248 786D273C 		.ascii	"xm'<\317\211\257\220\023\217\303\211\267\204\223\323"
 309      CF89AF90 
 309      138FC389 
 309      B78493D3 
 310 0258 9575C29C 		.ascii	"\225u\302\234N|\322\311b\352\257\023\1779Nx1'\001\333"
 310      4E7CD2C9 
 310      62EAAF13 
 310      7F394E78 
 310      312701DB 
 311 026c 8992E724 		.ascii	"\211\222\347$X\310\211\337\341$P\302\311\231\312:\341"
 311      58C889DF 
 311      E12450C2 
 311      C999CA3A 
 311      E1
 312 027d 4E2741E9 		.ascii	"N'A\351$\353p\022*\307\211R\314I\330v\242\3469\211\024"
 312      24EB7012 
 312      2AC78952 
 312      CC49D876 
 312      A2E63989 
 313 0292 72127238 		.ascii	"r\022r8\011\227pr\256\262N\024\247\223\210\310\251|"
 313      09977072 
 313      AEB24E14 
 313      A79388C8 
 313      A97C
 314 02a4 4FCDD5E6 		.ascii	"O\315\325\346\336\020\326\200:\012\302eR\353\314~\032"
 314      DE10D680 
 314      3A0AC265 
 314      52EBCC7E 
 314      1A
 315 02b5 C965847A 		.ascii	"\311e\204z\321\305WRsuy]\015\324\245\240\025\364\200"
 315      D1C55752 
 315      7375795D 
 315      0DD4A5A0 
 315      15F480
 316 02c8 A852D753 		.ascii	"\250R\327Sk\230W\325HU\252\254\222\0120\267\335\203"
 316      6B9857D5 
 316      4855AAAC 
 316      920A30B7 
 316      DD83
 317 02da B4DD0B72 		.ascii	"\264\335\013r\273M\326\224f\200e*\330\371\002\353\021"
 317      BB4DD694 
 317      6680652A 
 317      D8F902EB 
 317      11
 318 02eb 12E9DD27 		.ascii	"\022\351\335'T5\306bq\371\235\320G\023\361\221\204\311"
 318      5435C662 
 318      71F99DD0 
 318      4713F191 
 318      84C9
 319 02fd AB899B31 		.ascii	"\253\211\2331\015\224\353#C\303mv\301\360\250\270<t"
 319      0D94EB23 
 319      43C36D76 
ARM GAS  /tmp/ccv0K2b2.s 			page 24


 319      C1F0A8B8 
 319      3C74
 320 030f 4DBB7263 		.ascii	"M\273rc@\217k\203\211\301\021\375\362\300hl\020X7\260"
 320      408F6B83 
 320      89C111FD 
 320      F2C0686C 
 320      105837B0 
 321 0323 2E609DC0 		.ascii	".`\235\300:\200\265\203\253\275\243\263\253\033\376"
 321      3A80B583 
 321      ABBDA3B3 
 321      AB1BFE
 322 0332 002B9021 		.ascii	"\000+\220!\256"
 322      AE
 323              		.text
 324              		.section	.gnu.lto_mtx6_execute.1132f09afbc4ccff,"",%progbits
 325 0000 789CCD96 		.ascii	"x\234\315\226Ml\023G\024\307\337\233\331\265\235\304"
 325      4D6C1347 
 325      14C7DF9B 
 325      D9B59DC4 
 326 0010 5FB49026 		.ascii	"_\264\220&\245\204\210\202\240mds\243\307\206@[*Y*\211"
 326      A5848882 
 326      A06D6473 
 326      A3C78640 
 326      5B2A592A 
 327 0025 CAA19289 		.ascii	"\312\241\222\211\302\262R\"\341\030\331\016J{\300&P"
 327      C2B25222 
 327      E118D90E 
 327      4A7BC026 
 327      50
 328 0036 29974AA8 		.ascii	")\227J\250**E\252T\372A\323/Gm\305\245\227V*\242\310"
 328      2A2A45AA 
 328      54FA41D3 
 328      2F476DC5 
 328      A597562A 
 329 004c 58F4422F 		.ascii	"X\364B/%j\221\310\201V\221\242\"\204\032\011p\337\314"
 329      256A91C8 
 329      815691A2 
 329      22841A09 
 329      70DFCC
 330 005f AC376B7B 		.ascii	"\2547k{\275\020+\207l>\376\343\235\367\177\363\346\267"
 330      BD102B87 
 330      6C3EFEE3 
 330      9DF77FF3 
 330      E6B7
 331 0071 B3336680 		.ascii	"\2633f\200\364\323xu\323\337\275\020\300\357\244\310"
 331      F4D37875 
 331      D3DFBD10 
 331      C0EFA4C8 
 332 0081 01D9E96B 		.ascii	"\001\331\351k\000'z\031\242h\220%\3170\377\206t\256"
 332      00277A19 
 332      A2689025 
 332      CF30FF86 
 332      74AE
 333 0093 DB02E70B 		.ascii	"\333\002\347\013\205\367N\3772\365\352\324\315Je\263"
 333      85F74EFF 
 333      32F5EAD4 
 333      CD4A65B3 
ARM GAS  /tmp/ccv0K2b2.s 			page 25


 334 00a3 29EE0E23 		.ascii	")\356\016#\224\376Y\334\332\015&\"\364\202P\006Z\355"
 334      94FE59DC 
 334      DA0D2622 
 334      F4825006 
 334      5AED
 335 00b5 180D3E2E 		.ascii	"\030\015>.}\2602\223\326\212IU8w|m\3277\277\306\353"
 335      7DB03293 
 335      D68A4955 
 335      38777C6D 
 335      D737BFC6 
 336 00ca 5B58E3F5 		.ascii	"[X\343\365\335]c\365\235,TM:\203\036\024\276\362\303"
 336      DD5D63F5 
 336      9D2C544D 
 336      3A831E14 
 336      BEF2C3
 337 00dd F1473BCF 		.ascii	"\361G;\3175\014W\374\343\203\007\314\323X\372kvky\332"
 337      350C57FC 
 337      E38307CC 
 337      D358FA6B 
 337      766B79DA 
 338 00f1 F889FD7C 		.ascii	"\370\211\375|\263\222\007\350c\220\304\217q\013p\322"
 338      B39207E8 
 338      6390C48F 
 338      710B70D2 
 339 0101 F3A41AE9 		.ascii	"\363\244\032\351'\244:\351\247\244>\322\317H\375\244"
 339      27A43AE9 
 339      A7A43ED2 
 339      CF48FDA4 
 340 0111 9F930648 		.ascii	"\237\223\006H/\220\266\221~A\332N:C\332A\372%i\220\364"
 340      2F90B691 
 340      7E41DA4E 
 340      3A43DA41 
 340      FA256990 
 341 0126 2BD210E9 		.ascii	"+\322\020\351\327\244a\322oH#\244\337\222FI\213\244"
 341      D7A461D2 
 341      6F4823A4 
 341      DF924649 
 341      8BA4
 342 0138 DB49BF23 		.ascii	"\333I\277#\335A:KJ\227\016\247\012\205(\252\317\303"
 342      DD413A4B 
 342      4A970EA7 
 342      0A8528AA 
 342      CFC3
 343 014a D6EEB35F 		.ascii	"\326\356\263_\250\330[\006i.\242\301K0\365f\261tf\223"
 343      A8D85B06 
 343      692EA2C1 
 343      4B30F566 
 343      B1746693 
 344 015e 0A075749 		.ascii	"\012\007WI\342\367\250\203\333e\340\366\027\340y\342"
 344      E2F7A883 
 344      DB65E0F6 
 344      17E079E2 
 345 016e C5A5F8F8 		.ascii	"\305\245\370\3709\370\020M\364\263\267a\251\02001\200"
 345      39F8104D 
 345      F4B3B761 
 345      A9103031 
 345      80
ARM GAS  /tmp/ccv0K2b2.s 			page 26


 346 017f 636AE713 		.ascii	"cj\347\023\364\002\000\262}P\374\273\302e\213\2323*"
 346      F40200B2 
 346      7D50FCBB 
 346      C2658B9A 
 346      332A
 347 0191 B528E4FE 		.ascii	"\265(\344\376\325p\022/\322X\006\356\220\011u+a\033"
 347      D570122F 
 347      D25806EE 
 347      9009752B 
 347      611B
 348 01a3 A391440E 		.ascii	"\243\221D\016\315\316A\365\237\365K\347e`\245\277\027"
 348      CDCE41F5 
 348      9FF54BE7 
 348      6560A5BF 
 348      17
 349 01b4 43AA4A7B 		.ascii	"C\252J{\376\"\341\301\353\017/0u\337@\026\207b!jb\273"
 349      FE22E1C1 
 349      EB0F2F30 
 349      75DF4016 
 349      8762216A 
 350 01ca 46394F50 		.ascii	"F9OP\243CV\331eb\220\252\304j\225Ak\004\321\016\325"
 350      A34356D9 
 350      656290AA 
 350      C46A9541 
 350      6B04D10E 
 351 01df 3E6C3899 		.ascii	">l8\231\207j6N%\212\020.\203\313\320e\367h\326\334\303"
 351      876A364E 
 351      258A102E 
 351      83CBD065 
 351      F768D6DC 
 352 01f4 38ACB20A 		.ascii	"8\254\262\012Lr\031E\340\012\023V+ J\001Lt[e\254\303"
 352      4C721945 
 352      E00A1356 
 352      2B204A01 
 352      4C745B65 
 353 020a 1E78E5A3 		.ascii	"\036x\345\243\302\331\227L|B\332L|RNc\337m\256\222\307"
 353      C2D9974C 
 353      7C42DA4C 
 353      7C524E63 
 353      DF6DAE92 
 354 021f 21460834 		.ascii	"!F\0104\305d}\025\362\006*\237UK\336\340R\376\014\227"
 354      C5647D15 
 354      F2062A9F 
 354      554BDEE0 
 354      52FE0C97 
 355 0233 35688AC9 		.ascii	"5h\212\311\234\203\211\336\012\023l\306\304g3auL\374"
 355      9C8389DE 
 355      0A136CC6 
 355      C4673361 
 355      754CFC
 356 0246 6E4C7407 		.ascii	"nLt\007\023\237\007\223\327V\227\011:\231\370\025\223"
 356      139F0793 
 356      D7569709 
 356      3A99F815 
 356      93
 357 0257 79079340 		.ascii	"y\007\223@+LX3&m6\023^\307\244\335\215I\300\301\244"
 357      2B4C5833 
ARM GAS  /tmp/ccv0K2b2.s 			page 27


 357      266D3613 
 357      5EC7A4DD 
 357      8D49C0C1 
 358 026c CD834962 		.ascii	"\315\203Ibu\2310'\223v\305d\301\301\244\243\025&\274"
 358      75993027 
 358      9376C564 
 358      C1C1A4A3 
 358      1526BC
 359 027f 1993A0CD 		.ascii	"\031\223\240\315D\253c\022rc\322\341`\022\364`\362\372"
 359      44AB6312 
 359      7263D2E1 
 359      6012F460 
 359      F2FA
 360 0291 EA32E14E 		.ascii	"\3522\341N&!\305\344\256\203I\270\025&Z3&\021\233\211"
 360      2621C5E4 
 360      AE8349B8 
 360      15265A33 
 360      26119B89 
 361 02a5 5EC724EA 		.ascii	"^\307$\352\306$\354`\022\361`2\264\272L4'\223\250\334"
 361      C624EC60 
 361      12F16032 
 361      B4BA4C34 
 361      2793A8DC 
 362 02b9 7AD1FBAC 		.ascii	"z\321\373\254h8\224;\031\034\220\207\362\235w\227n\364"
 362      6838943B 
 362      191C9087 
 362      F29D7797 
 362      6EF4
 363 02cb 799EAEE2 		.ascii	"y\236\256\342f'u\002\\\205)\374\361\3753\267^\254\031"
 363      66277502 
 363      5C8529FC 
 363      F1FD33B7 
 363      5EAC19
 364 02de 8C0EB77F 		.ascii	"\214\016\267\177i\263O\342b\315\220\342\304\371AmBj"
 364      69B34FE2 
 364      62CD90E2 
 364      C4F9416D 
 364      426A
 365 02f0 27821EB8 		.ascii	"'\202\036\270\204\313 \226\323\332\335\277Z\335O\311"
 365      84CB2096 
 365      D3DADDBF 
 365      5ADD4FC9 
 366 0300 0465D04A 		.ascii	"\004e\320J\377\315\256\257N\305\302\322Ex\271\342o\335"
 366      FFCDAEAF 
 366      4EC5C2D2 
 366      4578B9E2 
 366      6FDD
 367 0312 E926505C 		.ascii	"\351&P\\\201}Z\272\312\371\225{\256\267\340\231k\301"
 367      817D5ABA 
 367      CAF9957B 
 367      AEB7E099 
 367      6BC1
 368 0324 33BF720F 		.ascii	"3\277r\017_\250\024\261\316\265\221\\\032Z\313\351\031"
 368      5FA814B1 
 368      CEB5915C 
 368      1A5ACBE9 
 368      19
ARM GAS  /tmp/ccv0K2b2.s 			page 28


 369 0335 B715E0F5 		.ascii	"\267\025\340\365\245\241q5$\361\016=x\271\034.\376\371"
 369      A5A17135 
 369      24F10E3D 
 369      78B91C2E 
 369      FEF9
 370 0347 38CB01BC 		.ascii	"8\313\001\274\226\3034\023\313\341\035\326d9$\361\036"
 370      96C33413 
 370      CBE11DD6 
 370      643924F1 
 370      1E
 371 0358 3596F358 		.ascii	"5\226\363X\317?\211K\364\252\250'\317K\225\331N\227"
 371      CF3F894B 
 371      F4AAA827 
 371      CF4B95D9 
 371      4E97
 372 036a 39EB8E39 		.ascii	"9\353\2169\227A\2774}\253\236\314&\212\362\241]i\204"
 372      9741BF34 
 372      7DAB9ECC 
 372      268AF2A1 
 372      5D6984
 373 037d 86B55EC4 		.ascii	"\206\265^\304\036\312\376\233\265\3026[ih\371]\243\210"
 373      1ECAFE9B 
 373      B5C2365B 
 373      6968F95D 
 373      A388
 374 038f 5A4AFBC5 		.ascii	"ZJ\373\305\373M\337\312DU\033c\261\270\372\315\231\331"
 374      FB4DDFCA 
 374      44551B63 
 374      B1B8FACD 
 374      99D9
 375 03a1 5C3C9393 		.ascii	"\\<\223\223\232\312M\306\014\320\216f\306\322\317\332"
 375      9ACA4DC6 
 375      0CD08E66 
 375      C6D2CFDA 
 376 03b1 01E9ACE8 		.ascii	"\001\351\254\350\036\0337\216L\0346\343\306hn4c\216"
 376      1E1B378E 
 376      4C1C36E3 
 376      C6686E34 
 376      638E
 377 03c3 1CCEC646 		.ascii	"\034\316\306F\201\355\005\266\007\330\000\260\335\300"
 377      81ED05B6 
 377      07D800B0 
 377      DDC0
 378 03d1 FA413F36 		.ascii	"\372A?6rd\302|\256\316x4\235\311e\343\375\203\211\201"
 378      7264C27C 
 378      AECE7834 
 378      9DC965E3 
 378      FD838981 
 379 03e5 C424B98D 		.ascii	"\304$\271\215t\306\034>\266+E\366>g\2449\231\213\017"
 379      74C61C3E 
 379      B62B45F6 
 379      3E67A439 
 379      998B0F
 380 03f8 2486F60D 		.ascii	"$\206\366\015-\217$\"\215\324\313\023\343\006\005G\023"
 380      2D8F2422 
 380      8DD4CB13 
 380      E3060547 
ARM GAS  /tmp/ccv0K2b2.s 			page 29


 380      13
 381 0409 4383BD87 		.ascii	"C\203\275\207F\262&\025\327\327\273m'\260\014\370Sf"
 381      46B22615 
 381      D7D7BB6D 
 381      27B00CF8 
 381      5366
 382 041b 2A9D790B 		.ascii	"*\235y\013|\375\273\007\366\354\205\377\001\217}\276"
 382      7CFDBB07 
 382      F6EC85FF 
 382      018F7DBE 
 383 042b C7       		.ascii	"\307"
 384              		.text
 385              		.section	.gnu.lto_mtx1_execute.1132f09afbc4ccff,"",%progbits
 386 0000 789CCD96 		.ascii	"x\234\315\226\335o\024U\030\207\337\367\2343\263\273"
 386      DD6F1455 
 386      1887DFF7 
 386      9C33B3BB 
 387 0010 6D77BBB6 		.ascii	"mw\273\266\002\255\320\245\"\201\242d\327\360\027\310"
 387      02ADD0A5 
 387      2281A264 
 387      D7F017C8 
 388 0020 57FC4848 		.ascii	"W\374HH\000\243\027\306\322\230e\2226Q0\355\232\030"
 388      00A317C6 
 388      D2986592 
 388      365130ED 
 388      9A18
 389 0032 6E3A14FE 		.ascii	"n:\024\376\200\306\204\200\244\233\360%\326\257*\037"
 389      80C68480 
 389      A49BF025 
 389      D6AF2A1F 
 390 0042 9AC88D46 		.ascii	"\232\310\215F\321\300\262pe\2740\275 )\211^p\341Eo4"
 390      D1C0B270 
 390      65BC30BD 
 390      2029895E 
 390      70E1456F 
 391 0057 35F577CE 		.ascii	"5\365w\316\231Y\246\333\335\025\326%\351\264\3459\231"
 391      9959A6DB 
 391      DD15D625 
 391      E9B4E539 
 391      99
 392 0068 99F79DDF 		.ascii	"\231\367\235\337y\316\344\014\202\030?\313\217m\370"
 392      79CEE40C 
 392      82183FCB 
 392      8F6DF8
 393 0077 2B2789DE 		.ascii	"+'\211\336\004\331!\026\223w\210\216\366\013\241~\315"
 393      04D92116 
 393      9377888E 
 393      F60BA17E 
 393      CD
 394 0088 913F20AF 		.ascii	"\221? \257e\310\177^\262\262\247\025\263\036\240\323"
 394      65C87F5E 
 394      B2B2A715 
 394      B31EA0D3 
 395 0098 B8908AC7 		.ascii	"\270\220\212\307_3-Wm\240\263\276\377\301\344\217\023"
 395      5F332D57 
 395      6DA0B3BE 
 395      FFC1E48F 
ARM GAS  /tmp/ccv0K2b2.s 			page 30


 395      13
 396 00a9 2F4DDC5D 		.ascii	"/M\334]\\\\\357\351\263CL\245\333s\033{\311c\246~\322"
 396      5C5CEFE9 
 396      B3434CA5 
 396      DB731B7B 
 396      C963A67E 
 397 00be 14A4963E 		.ascii	"\024\244\226>|Y\2354u\364hE\252\231\"\233p~\335\312"
 397      7C599D34 
 397      75F46845 
 397      AA99229B 
 397      707EDDCA 
 398 00d2 CEB7B0C2 		.ascii	"\316\267\260\302\363]\357[\331\371\312++\337\237?L\364"
 398      F35DEF5B 
 398      D9F9CA2B 
 398      2BDF9F3F 
 398      4CF4
 399 00e4 04458E29 		.ascii	"\004E\216)\272WL\331\262xP\306\017UF\017Q4y\314\017"
 399      BA574CD9 
 399      B27850C6 
 399      0F55460F 
 399      513479CC 
 400 00f9 03BA8232 		.ascii	"\003\272\2022\254\353f\247\016\375w\312\323\313\246"
 400      ACEB66A7 
 400      0EFD77CA 
 400      D3CBA6
 401 0108 36F3DBC9 		.ascii	"6\363\333\311\177\304\243\025\272v\003\2709\227z<\017"
 401      7FC4A315 
 401      BA7603B8 
 401      39977A3C 
 401      0F
 402 0119 2CDD3CBF 		.ascii	",\335<\277q\276\350~'\276\277\2738N\264U\320 \237\341"
 402      71BEE87E 
 402      27BEBFBB 
 402      384EB455 
 402      D0209FE1 
 403 012d 0D24C1B3 		.ascii	"\015$\301\263\240\002\317\201\016x\036t\301\013`\014"
 403      A002CF81 
 403      0E781E74 
 403      C10B600C 
 404 013d FC088C83 		.ascii	"\374\010\214\203\027\301\004\3701\330\006N\203\355\340"
 404      17C104F8 
 404      31D8064E 
 404      83EDE0
 405 014c 276007F8 		.ascii	"'`\007\370)\230\004?\003S\340\347`'\370\005\230\006"
 405      2998043F 
 405      0353E0E7 
 405      6027F805 
 405      9806
 406 015e 67C02EF0 		.ascii	"g\300.\360K\260\033\374\012\334\004^\0017\203\227\300"
 406      4BB01BFC 
 406      0ADC045E 
 406      01378397 
 406      C0
 407 016f 01F06B70 		.ascii	"\001\360kp\013x\025\304\341\320q\337O\263\275>\024\254"
 407      0B7815C4 
 407      E1D071DF 
 407      4FB3BD3E 
ARM GAS  /tmp/ccv0K2b2.s 			page 31


 407      14AC
 408 0181 DD3E4DBD 		.ascii	"\335>M\275\265\356\307\\\365@\226h\342\215\231\322\211"
 408      B5EEC75C 
 408      F5409668 
 408      E28D99D2 
 408      89
 409 0192 3E7B3BD5 		.ascii	">{;\325\304 \177\243\337\210\032G\2367=G\317\302\247"
 409      C4207FA3 
 409      DF881A47 
 409      9E373D47 
 409      CFC2A7
 410 01a5 3488C9D3 		.ascii	"4\210\311\323\364!{\034\027G\350/?\356q\202G\354\367"
 410      F4217B1C 
 410      1747E82F 
 410      3FEE7182 
 410      47ECF7
 411 01b8 40DB4D10 		.ascii	"@\333M\020\231\361\001\375\317\015iF\030N\333\326:\310"
 411      99F101FD 
 411      CF0D6946 
 411      184EDBD6 
 411      3AC8
 412 01ca C2ADD420 		.ascii	"\302\255\324 \177\213g\345y\263i\350\006\015\333\004"
 412      7F8B67E5 
 412      79B369E8 
 412      060DDB04 
 413 01da 9EA47BA8 		.ascii	"\236\244{\250J\017\344?\0253\225?\223(\335\232K\332"
 413      4A0FE43F 
 413      1533953F 
 413      9328DD9A 
 413      4BDA
 414 01ec 9476BEFA 		.ascii	"\224v\276\372(\223\27275\032f\017\002\265\363\020\263"
 414      2893BA37 
 414      351A660F 
 414      02B5F310 
 414      B3
 415 01fd 95119CE9 		.ascii	"\225\021\234\351@Ds\302\343\244Iq\340\376\324Ea\313"
 415      404473C2 
 415      E3A44971 
 415      E0FED445 
 415      61CB
 416 020f F22C7234 		.ascii	"\362,r4\343\247=N)\0049\212A\247\231Z\217\307i\324\211"
 416      E3A73D4E 
 416      2904398A 
 416      41A7995A 
 416      8FC769D4 
 417 0224 706AE920 		.ascii	"pj\351 \226\036?\261\364\015\242c\343\024v\223\230\227"
 417      961E3FB1 
 417      F40DA263 
 417      E3147693 
 417      9897
 418 0236 BE459A9B 		.ascii	"\276E\232\233\313\324S\271\242\2024]\310'8pk\336\315"
 418      CBD453B9 
 418      A282345D 
 418      C8273870 
 418      6BDECD
 419 0249 6EBA2174 		.ascii	"n\272!tip\303\223\270A\206\361\021c\025g\350\305\242"
 419      6970C393 
ARM GAS  /tmp/ccv0K2b2.s 			page 32


 419      B84186F1 
 419      11631567 
 419      E8C5A2
 420 025c 7FEA058F 		.ascii	"\177\352\005\217W\223\235\306\0323\215\227\377\220\266"
 420      57939DC6 
 420      1A338D97 
 420      FF90B6
 421 026b 798EB2F0 		.ascii	"y\216\262\360\246\254\310\236pez\021_\206\221{k\304"
 421      A6ACC89E 
 421      70657A11 
 421      5F86917B 
 421      6BC4
 422 027d 9F962683 		.ascii	"\237\226&\203\262N\346#N\234f\234p='n\305\211\250r\022"
 422      B24EE623 
 422      4E9C669C 
 422      703D276E 
 422      C589A872 
 423 0292 ABE5C489 		.ascii	"\253\345\304\2118q\0338y\245\265N8\352$f\235,D\234\304"
 423      38711B38 
 423      79A5B54E 
 423      38EA2466 
 423      9D2C449C 
 424 02a7 9B7122EA 		.ascii	"\233q\"\3529IT\234\310*'m\265\234\304#N\022\015\234"
 424      3949549C 
 424      C82A276D 
 424      B59CC423 
 424      4E120D9C 
 425 02bb EC69AD13 		.ascii	"\354i\255\023\021u\322f\235\\/>p\322\336\214\023Y\317"
 425      1175D266 
 425      9D5C2F3E 
 425      70D2DE8C 
 425      1359CF
 426 02ce 4947C589 		.ascii	"IG\305\211\252r\222\254\345\244=\342\244\243\201\223"
 426      AA7292AC 
 426      E5A43DE2 
 426      A4A38193 
 427 02de BDAD7522 		.ascii	"\275\255u\"\243N\202\375\244\034q\222j\306\211\252\347"
 427      A34E82FD 
 427      A41C7192 
 427      6AC689AA 
 427      E7
 428 02ef A4B3E2C4 		.ascii	"\244\263\342\304\251r\222\256\345$\025q\322\331\300"
 428      A97292AE 
 428      E5241571 
 428      D2D9C0
 429 02fe C9ABAD75 		.ascii	"\311\253\255u\242\242N\322fc\376\245x\244\306\306\254"
 429      A2A24ED2 
 429      6663FEA5 
 429      78A4C6C6 
 429      AC
 430 030f 1A6CCC65 		.ascii	"\032l\314e\222\263\305\313\\U\365\024\252\034\016r\256"
 430      92B3C5CB 
 430      5C55F514 
 430      AA1C0E72 
 430      AE
 431 0320 B51F91FF 		.ascii	"\265\037\221\377\3635\033h\371\327\354o\263\034[\226"
 431      F3351B68 
ARM GAS  /tmp/ccv0K2b2.s 			page 33


 431      F9D7EC6F 
 431      B31C5B96 
 432 0330 7DCD06EA 		.ascii	"}\315\006\352}\315\260\300\267eiv\216\303\245\354\302"
 432      7DCDB0C0 
 432      B7656976 
 432      8EC3A5EC 
 432      C2
 433 0341 22A38356 		.ascii	"\"\243\203V\340T\326\267;\210\264\016\002\\+\300..\353"
 433      E054D6B7 
 433      3B88B40E 
 433      025C2BC0 
 433      2E2EEB
 434 0354 0A8FFB88 		.ascii	"\012\217\373\210~\242\343\277\363\203\002}y\351\264"
 434      7EA2E3BF 
 434      F383027D 
 434      79E9B4
 435 0363 F7EB85BF 		.ascii	"\367\353\205\277\226\221\350{\277\257Jl\006}c\321\276"
 435      9691E87B 
 435      BFAF4A6C 
 435      067D63D1 
 435      BE
 436 0374 227C41D6 		.ascii	"\"|A\326\343\005y\335\276 \375\201\370\247\303~\312"
 436      E30579DD 
 436      BE20FD81 
 436      F8A7C37E 
 436      CA
 437 0385 FE9FE20E 		.ascii	"\376\237\342\0161/\265\274O\253\301%\275e\254\315fs"
 437      312FB5BC 
 437      4FABC125 
 437      BD65ACCD 
 437      6673
 438 0397 F6B7E08D 		.ascii	"\366\267\340\215\025r\243\005\303w\012\357g\363\244"
 438      1572A305 
 438      C3770AEF 
 438      67F3A4
 439 03a6 DE1D1D39 		.ascii	"\336\035\0359\374L\345\206\303c\372\362\310\241\374"
 439      FC4CE586 
 439      C363FAF2 
 439      C8A1FC
 440 03b5 DBEF1DF4 		.ascii	"\333\357\035\364r\371\341\302\360\250\367\326\301\261"
 440      72F9E1C2 
 440      F0A8F7D6 
 440      C1B1
 441 03c3 EC3089DD 		.ascii	"\3540\211\335$v\221\330Ib\007\211\355\344n\337\261s"
 441      247691D8 
 441      49620789 
 441      EDE46EDF 
 441      B173
 442 03d5 D76EFA17 		.ascii	"\327n\372\027Ey\224["
 442      4579945B 
 443              		.text
 444              		.section	.gnu.lto_mtx5_execute.1132f09afbc4ccff,"",%progbits
 445 0000 789CD556 		.ascii	"x\234\325V_h[U\030\377\276so\376\256M\332.\255\023\261"
 445      5F685B55 
 445      18FFBE73 
 445      6FFEAE4D 
 445      DA2EAD13 
ARM GAS  /tmp/ccv0K2b2.s 			page 34


 446 0015 866D42FF 		.ascii	"\206mB\377\244\311\236\324Ge \363\241\017k\021D\310"
 446      A4C99ED4 
 446      476520F3 
 446      A10F6B11 
 446      44C8
 447 0027 4A7B7BA1 		.ascii	"J{{\241\035KS\223\264\244\2024f{\222\201C(n\003\301"
 447      1D4B5393 
 447      B4A48234 
 447      667B9281 
 447      43286E03 
 448 003c 4D9D53FC 		.ascii	"M\235S\374;\335\030}\231\350\2343\313\306\3002e+u\260"
 448      3BDD187D 
 448      99E89C33 
 448      CBC6C032 
 448      652B75B0 
 449 0050 B241B1AD 		.ascii	"\262A\261\255\017>,P\251\3379\367\334\244I\356\2551"
 449      0F3E2C50 
 449      A9DF39F7 
 449      DCA449EE 
 449      AD31
 450 0062 D6076FD2 		.ascii	"\326\007o\322\374\356\271\367\373\276\363\373~\347|"
 450      FCEEB9F7 
 450      FBBEF3FB 
 450      7EE77C
 451 0071 DF2903A4 		.ascii	"\337)\003\244O\365\365\032\375-\370\000\356\023\242"
 451      4FF5F51A 
 451      FD2DF800 
 451      EE13A2
 452 0080 17901DBB 		.ascii	"\027\220\035\273\001\360z\2201\317\255\010d:\224\331"
 452      01F07A90 
 452      31CFAD08 
 452      643A94D9 
 453 0090 76C8EC51 		.ascii	"v\310\354Q\344H\025#U\216\034b\344\220#\247\0309\345"
 453      E4481523 
 453      558E1C62 
 453      E49023A7 
 453      1839E5
 454 00a3 C825462E 		.ascii	"\310%F.9r\213\221\033=Fp\017\"\277!>\323LQ\035N\227"
 454      39728B91 
 454      1B3D4670 
 454      0F22BF21 
 454      3ED34C51 
 455 00ba DB83D32F 		.ascii	"\333\203\323/\012v\333w\302\251L\346\255\337\277\315"
 455      0A76DB77 
 455      C2A94CE6 
 455      ADDFBFCD 
 456 00ca EEC8DE5D 		.ascii	"\356\310\336]_\177B\347O\007\020r\205e|\024tDp\003G"
 456      5F7F42E7 
 456      4F071072 
 456      85657C14 
 456      74447003 
 457 00df 56998C8D 		.ascii	"V\231\214\215\337b\274\036/\250\307i.]\203\327\261\357"
 457      DF62BC1E 
 457      2FA8C769 
 457      2E5D83D7 
 457      B1EF
 458 00f1 B2FBA497 		.ascii	"\262\373\244\227\"\274\346\245WPz\251\377\035\301\272"
ARM GAS  /tmp/ccv0K2b2.s 			page 35


 458      22BCE6A5 
 458      57507AA9 
 458      FF1DC1BA 
 459 0101 9C166BC9 		.ascii	"\234\026k\311jk\246\312O\325\342\225\315\024\275\030"
 459      6A6BA6CA 
 459      4FD5E295 
 459      CD14BD18 
 460 0111 B42377FC 		.ascii	"\264#w\374me\250\026\351\017gL\351U\006A\341\371\307"
 460      6D65A816 
 460      E90F674C 
 460      E9550641 
 460      E1F9C7
 461 0124 CAD8DFCB 		.ascii	"\312\330\337\313\177\262j\321.\334~\373OV\203c\3656"
 461      7FB26AD1 
 461      2EDC7EFB 
 461      4F568363 
 461      F536
 462 0136 5E5AF6D5 		.ascii	"^Z\366\325\263K\356\037\375y\241\347\2371U+&\374\337"
 462      B34BEE1F 
 462      FD79A1E7 
 462      9F31552B 
 462      26FCDF
 463 0149 67985BFA 		.ascii	"g\230[\372t\367|\301y\211}sw}\032\340)\006Q\374\030"
 463      74F77CC1 
 463      79897D73 
 463      777D1AE0 
 463      290651FC 
 464 015e 778242F8 		.ascii	"w\202B\370.\241*\307.\302S\204^\302\323\204\015\204"
 464      2EA12AC7 
 464      2EC25384 
 464      5EC2D384 
 464      0D84
 465 0170 EF113612 		.ascii	"\357\0216\022\276O\350#\374\200\320Ox\206\260\231\360"
 465      BE4FE823 
 465      FC80D04F 
 465      7886B099 
 465      F0
 466 0181 43C216C2 		.ascii	"C\302\026\302\263\204\001\302\217\010[\245}\233\264"
 466      B38401C2 
 466      8F085BA5 
 466      7D9BB4
 467 0190 EF20FC8C 		.ascii	"\357 \374\214\260\223\360\023\302.\302/\010\273\011"
 467      B093F013 
 467      C22EC22F 
 467      08BB09
 468 019f 3F270C11 		.ascii	"?'\014\021\236#\354!\374\2220L\3705a\204\360+B\272\034"
 468      9E23EC21 
 468      FC92304C 
 468      F8356184 
 468      F02B42BA 
 469 01b4 70249369 		.ascii	"p$\223ib\006O#\312\200\224g?G\336\025\373(s~\243\344"
 469      62064F23 
 469      CA809467 
 469      3F47DE15 
 469      FB28737E 
 470 01ca 20FBF285 		.ascii	" \373\362\205\334\314\343\206\023XB\024\317\243\003"
 470      DCCCE386 
ARM GAS  /tmp/ccv0K2b2.s 			page 36


 470      13584214 
 470      CFA303
 471 01d9 AC2E0D3B 		.ascii	"\254.\015;\272\241\213\324U\0048\224\223p\002ut\262"
 471      BAA18BD4 
 471      55043894 
 471      93700275 
 471      74B2
 472 01eb 57A19071 		.ascii	"W\241\220q\353\350\302Q\343@\340Z\273\000\304\375\001"
 472      EBE8C251 
 472      E340E05A 
 472      BB00C4FD 
 472      01
 473 01fc FE735511 		.ascii	"\376sU\021wt{\326\010\315\211\254]\363E\361\"\315\245"
 473      77747BD6 
 473      08CD89AC 
 473      5DF345F1 
 473      22CDA5
 474 020f 61A708A8 		.ascii	"a\247\010\250\312\200nF3\361\030J1\006\361?\356\022"
 474      CA806E46 
 474      33F1184A 
 474      3106F13F 
 474      EE12
 475 0221 9E5780E5 		.ascii	"\236W\200\345V\226\033\015\226F\276\374\312\203zy\265"
 475      56961B0D 
 475      9646BEFC 
 475      CA837A79 
 475      B5
 476 0232 CD78AAA1 		.ascii	"\315x\252\241\311\310\203\003\210\206\032\362\211\227"
 476      C9C88303 
 476      88861AF2 
 476      8997
 477 0240 38E2454E 		.ascii	"8\342ENB\307m\"\332Kf(.\240\306g\312\203#\277\3523c"
 477      42C76D22 
 477      DA4B6628 
 477      2EA0C667 
 477      CA8323BF 
 478 0257 29D2B381 		.ascii	")\322\263\201b1#\026\347\326H\314\310ZG:\350\276\207"
 478      62312316 
 478      E7D648CC 
 478      C85A473A 
 478      E8BE87
 479 026a 230F108A 		.ascii	"#\017\020\212\016\374u\271r}<\225\331v\205X\316\227"
 479      0EFC75B9 
 479      727D3C95 
 479      D9768558 
 479      CE97
 480 027c 58AAF5B3 		.ascii	"X\252\365\263T\205\204\263\312b\211\247K<%\356E\"^;"
 480      548584B3 
 480      CA6289A7 
 480      4B3C25EE 
 480      45225E3B 
 481 0290 E68C9B5B 		.ascii	"\346\214\233[0\367Z1\247\240\253\333\024\242\200\233"
 481      30F75A31 
 481      A7A0ABDB 
 481      14A2809B 
 482 02a0 EF93AA8E 		.ascii	"\357\223\252\216\350gpPt\304\323o\236\303M\313\220?"
 482      E8677050 
ARM GAS  /tmp/ccv0K2b2.s 			page 37


 482      74C4D36F 
 482      9EC34DCB 
 482      903F
 483 02b2 F4D34B80 		.ascii	"\364\323K\200k\220\305\245\231\231{\317\224\315\205"
 483      6B90C5A5 
 483      99997BCF 
 483      94CD85
 484 02c1 51BC2A76 		.ascii	"Q\274*v\367\225\262\031\371f\373\201\224\245%\023?\000"
 484      F795B219 
 484      F966FB81 
 484      94A52513 
 484      3F00
 485 02d3 EDF00BBE 		.ascii	"\355\360\013\276\2239\376\254\216Mea\213\257\357\310"
 485      9339FEAC 
 485      8E4D6561 
 485      8BAFEFC8 
 486 02e3 D7CDE6A6 		.ascii	"\327\315\346\246\311\255/\373\315L\244\\-$\227R\275"
 486      C9AD2FFB 
 486      CD4CA45C 
 486      2D249752 
 486      BD
 487 02f4 1C205663 		.ascii	"\034 Vc\273X\015\254\275r\252e\211\342\217$\201\320"
 487      BB580DAC 
 487      BD72AA65 
 487      89E28F24 
 487      81D0
 488 0306 E5FC42A8 		.ascii	"\345\374B\250\006a`3an\011a~\262\023&\212\327\351\246"
 488      06616033 
 488      616E0961 
 488      7EB21326 
 488      8AD7E9A6 
 489 031a 14472A11 		.ascii	"\024G*\021\305\233\330.\036\360l,X\006\030\334C\254"
 489      C59BD82E 
 489      1EF06C2C 
 489      580618DC 
 489      43AC
 490 032c A9DD4B91 		.ascii	"\251\335K\221\002(\212\270U!\255\016\360\375>\367\320"
 490      02288AB8 
 490      5521AD0E 
 490      F0FD3EF7 
 490      D0
 491 033d 57B4E1F5 		.ascii	"W\264\341\365.\332q%\375;\202~\271n\032v\311>c\364\203"
 491      2EDA7125 
 491      FD3B827E 
 491      B96E1A76 
 491      C93E63F4 
 492 0352 56B6711D 		.ascii	"V\266q\035\314\006\023\000\2639\250\245Y\016_W\366E"
 492      CC061300 
 492      B339A8A5 
 492      590E5F57 
 492      F645
 493 0364 F157B19B 		.ascii	"\361W\261\233\273)\216\035\267\334\033\253\245\215\276"
 493      BB298E1D 
 493      B7DC1BAB 
 493      A58DBE
 494 0373 B1661AEC 		.ascii	"\261f\032\354jF\341\021-j\246\301\252f(\233\233\252"
 494      6A46E111 
ARM GAS  /tmp/ccv0K2b2.s 			page 38


 494      2D6AA6C1 
 494      AA66289B 
 494      9BAA
 495 0385 E8B6F369 		.ascii	"\350\266\363i\323\260\261,\2476\313\234\274\305\234"
 495      D3B0B12C 
 495      A736CB9C 
 495      BCC59C
 496 0394 1C653915 		.ascii	"\034e9\025g\363Q\034\2633\226\023\367\333\021W\271\233"
 496      67F3511C 
 496      B3339613 
 496      F7DB1157 
 496      B99B
 497 03a6 0571BF15 		.ascii	"\005q\277\025q'\300\0034\217\011\353]^\3031\021\332"
 497      7127C003 
 497      348F09EB 
 497      5D5EC331 
 497      11DA
 498 03b8 F2636259 		.ascii	"\362cbYP\356\251:&Bv\307\204\220-wt\025\315t\233\351"
 498      50EEA93A 
 498      264276C7 
 498      84902D77 
 498      7415CD74 
 499 03ce 94A108E5 		.ascii	"\224\241\010\345\242\265\330\211&<,Dk\261\022\215f\274"
 499      A2B5D889 
 499      263C2C44 
 499      6BB1128D 
 499      66BC
 500 03e0 0DBCB7AF 		.ascii	"\015\274\267\257=LX\364\022u\223^\222\007\345r\341\014"
 500      3D4C58F4 
 500      1275935E 
 500      9207E572 
 500      E10C
 501 03f2 56783D42 		.ascii	"Vx=B^\016\303K\307\035\242F%\203\352:\215\342\274\321"
 501      5E0EC34B 
 501      C71DA246 
 501      2583EA3A 
 501      8DE2BCD1 
 502 0406 4DE65626 		.ascii	"M\346V&\353*\323|\241\2062-X\226i\370\337\225\351\232"
 502      EB2AD37C 
 502      A186322D 
 502      589669F8 
 502      DF95E99A 
 503 041a 90344271 		.ascii	"\2204Bql\313\364\204M\231\006\354\026\316\311#Z,\\\300"
 503      6CCBF484 
 503      4D9906EC 
 503      16CEC923 
 503      5A2C5CC0 
 504 042e 6AE1DC00 		.ascii	"j\341\334\000\273\304f\237\2332\355Z\267\242J\333(\216"
 504      BBC4669F 
 504      9B32ED5A 
 504      B7A24ADB 
 504      288E
 505 0440 55951617 		.ascii	"U\225\026\027\241\212\266\213{\011\332\0063\217\361"
 505      A18AB68B 
 505      7B09DA06 
 505      338FF1
 506 044f FFDA0D40 		.ascii	"\377\332\015@,\227}?gA\257x\027\177,\034\216\030\337"
ARM GAS  /tmp/ccv0K2b2.s 			page 39


 506      2C977D3F 
 506      6741AF78 
 506      177F2C1C 
 506      8E18DF
 507 0462 949E4C45 		.ascii	"\224\236LE\022)\201\261T:\254\001\016\251\343\211\321"
 507      122981B1 
 507      543AAC01 
 507      0EA9E389 
 507      D1
 508 0473 F8AEA249 		.ascii	"\370\256\242I<\311\015F\307\264C\023\303zD\033I\215"
 508      3CC90D46 
 508      C7B44313 
 508      C37A441B 
 508      498D
 509 0485 24F4C1E1 		.ascii	"$\364\301\341dx\004\202\2666Imd\230\014\034\223\203"
 509      64780482 
 509      B636496D 
 509      64980C1C 
 509      9383
 510 0497 8726F4CE 		.ascii	"\207&\364\316\012\263\361x\"\225\214<\327\327\273\267"
 510      0AB3F178 
 510      22958C3C 
 510      D7D7BBB7 
 511 04a7 374DB65A 		.ascii	"7M\266Z<\241\017L>\035#\373\320FK=\235\212\354\355\355"
 511      3CA10F4C 
 511      3E1D23FB 
 511      D0464B3D 
 511      9D8AECED 
 512 04bc 7FA1BF14 		.ascii	"\177\241\277\024\227[j\261\347'\30642n\352\355\357\013"
 512      975B6AB1 
 512      E727C634 
 512      326EEAED 
 512      EF0B
 513 04ce 0E0D2675 		.ascii	"\016\015&u\242\033\012>\271\007X\002\\1=\026OL\201\222"
 513      A21B0A3E 
 513      B9075802 
 513      5C313D16 
 513      4F4C8192 
 514 04e2 7A65FC2F 		.ascii	"ze\374/\303\311\025\322"
 514      C3C915D2 
 515              		.text
 516              		.section	.gnu.lto_mtx4_execute.1132f09afbc4ccff,"",%progbits
 517 0000 789CED99 		.ascii	"x\234\355\231kl\034\325\025\307\357\235\331\267w\327"
 517      6B6C1CD5 
 517      15C7EF9D 
 517      D9B777D7 
 518 0010 EBA4716D 		.ascii	"\353\244qm\022\026\023\223(!\226\227DD\355\307\322T"
 518      12161393 
 518      28219697 
 518      4444EDC7 
 518      D254
 519 0022 55A964A9 		.ascii	"U\251d\251$\202\017\225l\313\331Lb;~e\275v\034\347\265"
 519      24820F95 
 519      6CCBD94C 
 519      623B7E65 
 519      BD761CE7 
 520 0037 18A4A24A 		.ascii	"\030\244\242J\225\242\026T\240\2454\245u\303#i\313\243"
ARM GAS  /tmp/ccv0K2b2.s 			page 40


 520      95A21654 
 520      A0A534A5 
 520      75C32369 
 520      CBA3
 521 0049 0503254D 		.ascii	"\005\003%M]\023\034\023(\230G\203\343\244\305\025\006"
 521      5D131C13 
 521      28984783 
 521      E3A4C515 
 521      06
 522 005a 078A502A 		.ascii	"\007\212P*\025\3446\375\3373\263\336\035\317\335\301"
 522      15E436FD 
 522      DF33B3DE 
 522      1DCFDDC1 
 523 006a D8E3F9E4 		.ascii	"\330\343\371\344M\354\337\334\3359\367\361\333sf\257"
 523      4DECDFDC 
 523      DD39F7F1 
 523      DB7366AF 
 524 007a 6715C6F1 		.ascii	"g\025\306\361\317\372\3707~^\271\236\261\263 _\306\270"
 524      CFFAF837 
 524      7E5EB99E 
 524      B1B3205F 
 524      C6B8
 525 008c 720447B7 		.ascii	"r\004G\267W(J\311\233\011\226Y\247\016\304Y\346\006"
 525      57284AC9 
 525      9B099659 
 525      A70EC459 
 525      E606
 526 009e D56879A8 		.ascii	"\325hy\250\3451Z^jy\215\226\217Z>\243\345\247\226\337"
 526      E5315A5E 
 526      6A798D96 
 526      8F5A3EA3 
 526      E5A796DF 
 527 00b2 6805A815 		.ascii	"h\005\250\0250ZAj\005\215V\210Z!\243UD\255\"\243\025"
 527      305A416A 
 527      058D5688 
 527      5A21A355 
 527      44AD22A3 
 528 00c7 A656D868 		.ascii	"\246V\330hE\250\0251ZQjE\215V1\265\212\215V\214Z1^\242"
 528      45A81531 
 528      5A516A45 
 528      8D5631B5 
 528      8A8D568C 
 529 00df 2FA684F3 		.ascii	"/\246\204\363#\264>vXQ=^\237?\020\014\025\205#\321\342"
 529      23B43E76 
 529      58513D5E 
 529      9F3F100C 
 529      158523D1 
 530 00f4 58093F7C 		.ascii	"X\011?|+Y9\305V\263\243\231\314\017\217\374\271\357"
 530      2B5939C5 
 530      56B3A399 
 530      CC0F8FFC 
 530      B9EF
 531 0106 5B7D17AF 		.ascii	"[}\027\257\\\271F\023O\327s6<5u]9\3238g\025LPa\036\263"
 531      5CB94613 
 531      4FD77336 
 531      3C35755D 
 531      39D33867 
ARM GAS  /tmp/ccv0K2b2.s 			page 41


 532 0120 404B9C4A 		.ascii	"@K\234Jq\354\213\005\351\203M\324-\326P\037\237\352"
 532      71EC8B05 
 532      E9834DD4 
 532      2DD6501F 
 532      9FEA
 533 0132 2B33823C 		.ascii	"+3\202<\024ty<\252\207\005\2140>\24706\237\240\301z"
 533      1474793C 
 533      AA87058C 
 533      303EA730 
 533      369FA0C1 
 534 0147 D7861A75 		.ascii	"\327\206\032uo\250\011\367\206\272\354\336P\203\215"
 534      6FA809F7 
 534      86BAECDE 
 534      50838D
 535 0156 EEBD578B 		.ascii	"\356\275W\2136\224\245D.O\366+\363)\255\351\306\371"
 535      3694A544 
 535      2E4FF62B 
 535      F329ADE9 
 535      C6F9
 536 0168 D4D6C8FB 		.ascii	"\324\326\310\373\356\325\326X\223kC]ro\250i\367\206"
 536      EED5D658 
 536      936B435D 
 536      726FA869 
 536      F786
 537 017a 9A6876AF 		.ascii	"\232hv\257\214\335\033jp\367\242\325\326\035\231l\215"
 537      8CDD1B6A 
 537      70F7A2D5 
 537      D61D996C 
 537      8D
 538 018b 781516E7 		.ascii	"x\025\026\347\264\260\363ms\251.Sd\005EN\252_8\260\222"
 538      B4B0F36D 
 538      73A92E53 
 538      6405454E 
 538      AA5F38B0 
 539 01a0 028F793F 		.ascii	"\002\217y??\360~K=\017\234\373\361\177\347p!\310\017"
 539      3FF07E4B 
 539      3D0F9CFB 
 539      F17FE770 
 539      21C80F
 540 01b3 F4EADB80 		.ascii	"\364\352\333\200\363S\321\245\001\227\006\\\032pi\300"
 540      F353D1A5 
 540      0197065C 
 540      1A7069C0 
 541 01c3 A5019706 		.ascii	"\245\001\227\0064\036\303\347\037\275nt\312\367\202"
 541      341EC3E7 
 541      1FBD6E74 
 541      CAF782
 542 01d2 72F2E295 		.ascii	"r\362\342\225\303\214\035\301\031\265|\220\257f*8\004"
 542      C38C1DC1 
 542      19B57C90 
 542      AF662A38 
 542      04
 543 01e3 7AC09F83 		.ascii	"z\300\237\203^\360(\350\003\177\001\372\301\207\300"
 543      5EF028E8 
 543      037F01FA 
 543      C187C0
 544 01f2 20F84B30 		.ascii	" \370K0\004\376\012\014\203\375`\004\3745X\014\036\003"
ARM GAS  /tmp/ccv0K2b2.s 			page 42


 544      04FE0A0C 
 544      83FD6004 
 544      FC35580C 
 544      1E03
 545 0204 63E0C3E0 		.ascii	"c\340\303\3402\360\021p9\370(\270\002|\014,\005\217"
 545      32F01170 
 545      39F828B8 
 545      027C0C2C 
 545      058F
 546 0216 8365E009 		.ascii	"\203e\340\011\260\034\374\015\270\022\374-\270\012\374"
 546      B01CFC0D 
 546      B812FC2D 
 546      B80AFC
 547 0225 1D18071F 		.ascii	"\035\030\007\037\007+\300'\300\325\340\223`%\370\024"
 547      072BC027 
 547      C0D5E093 
 547      6025F814 
 548 0235 B806FC3D 		.ascii	"\270\006\374=\270\026\374\003\270\016|\032\\\017>\003"
 548      B816FC03 
 548      B80E7C1A 
 548      5C0F3E03 
 549 0245 6E0007C0 		.ascii	"n\000\007\300*\360Y\260\032|\016L\200\317\203\033\301"
 549      2AF059B0 
 549      1A7C0E4C 
 549      80CF831B 
 549      C1
 550 0256 3F829BC0 		.ascii	"?\202\233\300\027\300\033\301\223\340f\360O`\003x\032"
 550      17C01BC1 
 550      93E066F0 
 550      4F600378 
 550      1A
 551 0267 DC0E9E02 		.ascii	"\334\016\236\002\223\3400\270\003|\011\324\300\021p"
 551      93E030B8 
 551      037C09D4 
 551      C01170
 552 0276 277806DC 		.ascii	"'x\006\334\005\236\005\033\301\227\301&\360U\260\031"
 552      059E051B 
 552      C197C126 
 552      F055B019 
 553 0286 7C05DC0D 		.ascii	"|\005\334\015\276\006\266\200\177\005[\301Q\260\015"
 553      BE06B680 
 553      7F055BC1 
 553      51B00D
 554 0295 7C1D6C07 		.ascii	"|\035l\007\337\004;\3007\300=\340\333`\012|\013\354"
 554      DF043BC0 
 554      37C03DE0 
 554      DB600A7C 
 554      0BEC
 555 02a7 04CF8169 		.ascii	"\004\317\201i\360o`\0278\006v\203\357\200{\301q\260"
 555      F06F6017 
 555      38067683 
 555      EF807BC1 
 555      71B0
 556 02b9 073C0FEE 		.ascii	"\007<\017\356\003/\202\275\340\005p?\370\017\360\000"
 556      032F82BD 
 556      E005703F 
 556      F80FF000 
ARM GAS  /tmp/ccv0K2b2.s 			page 43


 557 02c9 F877F020 		.ascii	"\370w\360 8\001\036\002\337\005\361\360\262;3\231\230"
 557      38011E02 
 557      DF05F1F0 
 557      B23B3399 
 557      98
 558 02da AAAF57CF 		.ascii	"\252\257W\317\016=7\352\215\375\325-\202\342\006\305"
 558      0E3D37EA 
 558      8DFDD52D 
 558      82E206C5 
 559 02ea 56A48F38 		.ascii	"V\244\2178P\207Y\337w\007\206\357\271Z\017eR\324\362"
 559      508759DF 
 559      770786EF 
 559      B95A0F65 
 559      52D4F2
 560 02fd 7F8AF496 		.ascii	"\177\212\364\226<\222\274a\003\273\036I\254\022|\352"
 560      3C92BC61 
 560      03BB1E49 
 560      AC127CEA 
 561 030d FDEC3EAE 		.ascii	"\375\354>\256q\277\322\313>\315\0044\036\340M\372\275"
 561      71BFD2CB 
 561      3ECD0434 
 561      1EE04DFA 
 561      BD
 562 031e 2091D201 		.ascii	" \221\322\001\306\350\270N\374:\255\322\021\016\217"
 562      C6E8B84E 
 562      FC3AADD2 
 562      110E8F
 563 032d E95D8B89 		.ascii	"\351]\213\211L\237\211\326\362I\214\225\344\333\251"
 563      4C9F89D6 
 563      F2498C95 
 563      E4DBA9
 564 033c 43AFD161 		.ascii	"C\257\321aP\301H\242\017u\246\017\314\377^?E\0161ex"
 564      50C148A2 
 564      0F75A60F 
 564      CCFF5E3F 
 564      450E3165 
 565 0351 724AD167 		.ascii	"rJ\321g\251\257]\357\360\216\303#\343W\351O'9z\330."
 565      A9AF5DEF 
 565      F08EC323 
 565      E357E94F 
 565      27397AD8 
 566 0366 7A08513C 		.ascii	"z\010Q<bX6@hJ\212\376D\304h]6@\235\011Pf\005\014Q\200"
 566      62583640 
 566      684A8AFE 
 566      44C4685D 
 566      36409D09 
 567 0380 4A73AE1B 		.ascii	"Js\256\033\033\357W\262!\236\004;\221\211i\274\310\203"
 567      1BEF57B2 
 567      219E043B 
 567      918969BC 
 567      C883
 568 0392 69DF8E83 		.ascii	"i\337\216\2030\211(\323x\004\"xVD\304X\2048\216\232"
 568      308928D3 
 568      78042278 
 568      5644C458 
 568      84388E9A 
 569 03a6 7C8E5055 		.ascii	"|\216PU\351\235y\015\207\305\274^\017\025\272=\"&\306"
ARM GAS  /tmp/ccv0K2b2.s 			page 44


 569      E99D790D 
 569      87C5BC5E 
 569      0F15BA3D 
 569      2226C6
 570 03b9 4E2B62C6 		.ascii	"N+b\306\306\011%8AL\221\031c-\343q\366\355\0072\367"
 570      C6092538 
 570      414C9119 
 570      632DE371 
 570      F6ED0732 
 571 03ce 7E4DE3CB 		.ascii	"~M\343\313)L\343_\242\271\336<\251\352\235'X5Tzt\267"
 571      294CE35F 
 571      A2B9DE3C 
 571      A9EA9D27 
 571      5835547A 
 572 03e4 2BB2FD94 		.ascii	"+\262\375\224b\216Jv^\245\2229\036Si\016^}\341\023y"
 572      628E4A76 
 572      5EA59239 
 572      1E53690E 
 572      5E7DE113 
 573 03f9 0BF7CD67 		.ascii	"\013\367\315g\341\274\300\302\375\262\205\373\362\026"
 573      E1BCC0C2 
 573      FDB285FB 
 573      F216
 574 0407 AEE62D5C 		.ascii	"\256\346-\\\235\265\360\032g\027\316\363\027\356\027"
 574      9DB5F01A 
 574      6717CEF3 
 574      17EE17
 575 0416 F3F45C1A 		.ascii	"\363\364\\\032Oe\013\302\210\3772\346\341\321\3174\236"
 575      4F650BC2 
 575      88FF32E6 
 575      E1D1CF34 
 575      9E
 576 0427 29438FAA 		.ascii	")C\217\252>\203r=\265\027RcI\307k\354.E\210\336a\251"
 576      3E83723D 
 576      B5175263 
 576      49C76BEC 
 576      2E4588DE 
 577 043d B164A11A 		.ascii	"\261d\241\032Ci\274\254\016\1774\305\263oR\020\325\201"
 577      4369BCAC 
 577      0E7F34C5 
 577      B36F5210 
 577      D581
 578 044f 1E8411EF 		.ascii	"\036\204\021\357\314;\0272\246t\025\204xu!\372\333\306"
 578      CC3B1732 
 578      A6741584 
 578      787521FA 
 578      DBC6
 579 0461 4584C657 		.ascii	"E\204\306W2\366\027v\347{<\027 ^6\177\320m\025\343\017"
 579      32F61776 
 579      E77B3C17 
 579      205E367F 
 579      D06D15E3 
 580 0476 C455989E 		.ascii	"\304U\230\236\256\233%z\025\372\365\345\372\275\232"
 580      AE9B257A 
 580      15FAF5E5 
 580      FABD9A
 581 0485 4DFA81F8 		.ascii	"M\372\201\370\214a>_\303\232\343\206\357&\303;-\206"
ARM GAS  /tmp/ccv0K2b2.s 			page 45


 581      8C613E5F 
 581      C39AE386 
 581      EF26C33B 
 581      2D86
 582 0497 357BC3FF 		.ascii	"5{\303\377\311\031\016\3235k\247\331p\244\220aQ\027"
 582      C9190ED3 
 582      356BA7D9 
 582      70A49061 
 582      5117
 583 04a9 6189E188 		.ascii	"a\211\341\210\3140\332\377*\022\206G.\314-\227=\216"
 583      CC30DAFF 
 583      2A128647 
 583      2ECC2D97 
 583      3D8E
 584 04bb E5F22EC7 		.ascii	"\345\362.\307M\037%\323\215\026\323\273\354M\177\226"
 584      4D1F25D3 
 584      8D16D3BB 
 584      EC4D7F96 
 585 04cb 335D4CA6 		.ascii	"3]L\246\033\315\246c\205L\253\"Bb:&3\215\271\276\352"
 585      1BCDA663 
 585      854CAB22 
 585      42623A26 
 585      338DB9BE 
 586 04e0 11A6C7EA 		.ascii	"\021\246\307\352\335\312\345&\307\015\037'\303\315\026"
 586      DDCAE526 
 586      C70D1F27 
 586      C3CD16
 587 04ef C34DF686 		.ascii	"\303M\366\206\247s\206\227\321\307i\263\331\360\362"
 587      A7738697 
 587      D1C769B3 
 587      D9F0F2
 588 04fe 42863D22 		.ascii	"B\206=\"Bbx\271\314\260\217\261\367\2700|\351B\257$"
 588      426278B9 
 588      CCB08FB1 
 588      F7B8307C 
 588      E942AF24 
 589 0512 97FD8B98 		.ascii	"\227\375\213\230\313\273\0357=@\246[,\246w\333\233\376"
 589      CBBB1D37 
 589      3D40A65B 
 589      2CA677DB 
 589      9BFE
 590 0524 5FCEF40A 		.ascii	"_\316\364\012\312\345\026\263\351\322B\246)Bb\272Tf"
 590      CAE516B3 
 590      E9D242A6 
 590      294262BA 
 590      5466
 591 0536 1A239E63 		.ascii	"\032#\236ct]v-\227[\0357<D\206\333,\206[\355\015\337"
 591      745D762D 
 591      975B1D37 
 591      3C4486DB 
 591      2C865BED 
 592 054c F5E18CE1 		.ascii	"\365\341\214\34122\334f6\\^\310\260ODH\014\227\313\014"
 592      3232DC66 
 592      365C5EC8 
 592      B04F4448 
 592      0C97CB0C 
 593 0560 630D9510 		.ascii	"c\015\225\020\254\216L\366\363Y\212\257A\307\001\275"
ARM GAS  /tmp/ccv0K2b2.s 			page 46


 593      AC8E4CF6 
 593      F3598AAF 
 593      41C701BD 
 594 0570 638D572C 		.ascii	"c\215W,<w\333\0357\373\032\231\355\260\230m\2677\373"
 594      3C77DB1D 
 594      37FB1A99 
 594      EDB0986D 
 594      B737FB
 595 0583 FD9CD995 		.ascii	"\375\234\331\225\264\247\3500\233]U\310\254_DH\314\256"
 595      B4A7E830 
 595      9B5D55C8 
 595      AC5F4448 
 595      CCAE
 596 0595 92990D32 		.ascii	"\222\231\0152\026\025f\307&\037\227\231\015\346\231"
 596      161566C7 
 596      261F9799 
 596      0DE699
 597 05a4 C556547C 		.ascii	"\305VT|\207\223\355.\276\220m\370w\026q\033\036\247"
 597      8793ED2E 
 597      BE906DF8 
 597      7716711B 
 597      1EA7
 598 05b6 A94EE74D 		.ascii	"\251N\347M\265b!\033\347m\213\270q&\253\236\301\367"
 598      B562211B 
 598      E76D8BB8 
 598      7126AB9E 
 598      C1F7
 599 05c8 DDDE38EF 		.ascii	"\335\3368\357q<\311?\242$OY\222|\217}\222\337\227K\362"
 599      713CC93F 
 599      A2244F59 
 599      927C8F7D 
 599      92DF974B 
 600 05dd D594E429 		.ascii	"\325\224\344)s\222W\026J\362\200\210\220$y\245,\311"
 600      73925716 
 600      4AF28088 
 600      902479A5 
 600      2CC9
 601 05ef 438C79C5 		.ascii	"C\214y\305\365y\264\311\255\353s\247\343\202?#\301i"
 601      F579B4C9 
 601      ADEB73A7 
 601      E3823F23 
 601      C169
 602 0601 8BE04E7B 		.ascii	"\213\340N{\301?\311\011^C\327\347\264Y\360\332B\202"
 602      C13FC909 
 602      5E43D7E7 
 602      B459F0DA 
 602      4282
 603 0613 83224222 		.ascii	"\203\"B\"x\255Lp\021c\212\020<1\307Lvn\253\321\345\270"
 603      78AD4C70 
 603      11638A10 
 603      3C31C74C 
 603      766EABD1 
 604 0629 E8EFA962 		.ascii	"\350\357\251b\231\335\026\321]\366\242\037\310\211^"
 604      99DD16D1 
 604      5DF6A21F 
 604      C8895E
 605 0638 47A2BBCD 		.ascii	"G\242\273\315\242\327\027\022\035\022\021\022\321\353"
ARM GAS  /tmp/ccv0K2b2.s 			page 47


 605      A2D71712 
 605      1D121112 
 605      D1EB
 606 0646 65A2C318 		.ascii	"e\242\303\030^\210\276\354Z&\357u\\\360\217Hp\217E\360"
 606      5E88BEEC 
 606      5A26EF75 
 606      5CF08F48 
 606      708F45F0 
 607 065a 5E7BC10F 		.ascii	"^{\301\017\346\004o\240]s\217YpU!\301E\"B\"\270J&X\334"
 607      E6046FA0 
 607      5D738F59 
 607      705521C1 
 607      45224222 
 608 0673 89518798 		.ascii	"\211Q\207\230\302\355\015Y\276\024\275Va\267\321\227"
 608      C2ED0D59 
 608      BE14BD56 
 608      61B7D197 
 609 0683 A29FFCE0 		.ascii	"\242\237\374\340\323w\252loX\213'\257\305\213\214\235"
 609      D377AA6C 
 609      6F588B27 
 609      AFC58B8C 
 609      9D
 610 0694 617D7CE0 		.ascii	"a}|\340\356{\336\375\252i0,\363g\252\270A\371S5\177"
 610      EE7BDEFD 
 610      AA69302C 
 610      F367AAB8 
 610      41F95335 
 611 06a9 48E1F909 		.ascii	"H\341\371\011\370\201\027\372\305X\234\015\362\334\207"
 611      F88117FA 
 611      C5589C0D 
 611      F2DC87
 612 06b8 53AEDB99 		.ascii	"S\256\333\231\227_4^\326\357\373!m\206\037\376\260X"
 612      975F345E 
 612      D6EFFB21 
 612      6D861FFE 
 612      B058
 613 06ca 52A0219B 		.ascii	"R\240!\233\002\305\336`\364\203\023\262\275AQ\336\336"
 613      02C5DE60 
 613      F48313B2 
 613      BD4151DE 
 613      DE
 614 06db C06ACC2E 		.ascii	"\300j\314.\265\254\366j\371\203\252\242\353{j|.\372"
 614      B5ACF66A 
 614      F983AAA2 
 614      EB7B6A7C 
 614      2EFA
 615 06ed 989DBEE3 		.ascii	"\230\235\276\343\244\357\221B\372j\371C\252\232\327"
 615      A4EF9142 
 615      FA6AF943 
 615      AA9AD7
 616 06fc 8FE1AB96 		.ascii	"\217\341\253\226\367\253\361\231T]H\315\354s\274f\236"
 616      F7ABF199 
 616      545D48CD 
 616      EC73BC66 
 616      9E
 617 070d A49AE9B5 		.ascii	"\244\232\351\265\324\314>\373\232y,W3\325tQ\3525\327"
 617      D4CC3EFB 
ARM GAS  /tmp/ccv0K2b2.s 			page 48


 617      9A792C57 
 617      33D57451 
 617      EA35D7
 618 0720 4CA250CD 		.ascii	"L\242P\315\204E\204\244f\022\262\232\021\373/\372C\263"
 618      844584A4 
 618      6612B29A 
 618      11FB2FFA 
 618      43B3
 619 0732 D9AD8BD2 		.ascii	"\331\255\213\322~\307\005\237$\301\007,\202\367\333"
 619      7EC7059F 
 619      24C1072C 
 619      82F7DB
 620 0741 0B3E9113 		.ascii	"\013>\221\023\274\221\004\0370\013\336THpDDH\004o\222"
 620      BC91041F 
 620      300BDE54 
 620      48704444 
 620      48046F92 
 621 0755 092ED605 		.ascii	"\011.\326\005\253\323\037,\372\237?\007\0357;Bf\017"
 621      ABD31F2C 
 621      FA9F3F07 
 621      1D373B42 
 621      660F
 622 0767 59CC1EB4 		.ascii	"Y\314\036\2647\373t\316\354\215\2643<d6\273\271\220"
 622      37FB74CE 
 622      EC8DB433 
 622      3C6436BB 
 622      B990
 623 0779 D9A88890 		.ascii	"\331\250\210\220\230\335,3\0333\314\216L}\356\237?z"
 623      98DD2C33 
 623      1B33CC8E 
 623      4C7DEE9F 
 623      3F7A
 624 078b 4089FEED 		.ascii	"@\211\376\355\320Y\306\271Y\343-b\355xI\\JVVW'\364\377"
 624      D059C6B9 
 624      59E32D62 
 624      ED78495C 
 624      4A565657 
 625 07a2 69AD339D 		.ascii	"i\2553\235H\245\211\255\351\236\352$\343\035J\307F\245"
 625      48A589AD 
 625      E99EEA24 
 625      E31D4AC7 
 625      46A5
 626 07b4 6353E5CC 		.ascii	"cS\345\3149\355\235\342\214\246\266dK\327\016-\221l"
 626      39ED9DE2 
 626      8CA6B664 
 626      4BD70E2D 
 626      916C
 627 07c6 4C37A6B4 		.ascii	"L7\246\264\206\035\235\325\215L"
 627      861D9DD5 
 627      8D4C
 628 07d0 F93A536E 		.ascii	"\371:Snb\3127\230\262\205y\273\033Z\272\264\365\263"
 628      62CA3798 
 628      B28579BB 
 628      1B5ABAB4 
 628      F5B3
 629 07e2 A23ADA53 		.ascii	"\242:\332S\351\316\304M[k\266\324\364 4\331\236\322"
 629      E9CEC44D 
ARM GAS  /tmp/ccv0K2b2.s 			page 49


 629      5B6BB6D4 
 629      F42034D9 
 629      9ED2
 630 07f4 EABBBFD2 		.ascii	"\352\273\277\322\212\330\252\3743\265\236tbK\315\266"
 630      8AD8AAFC 
 630      33B59E74 
 630      624BCDB6 
 631 0804 9BB7E586 		.ascii	"\233\267\345\206\021g&[\277\331\325\226\304\311\261"
 631      1167265B 
 631      BFD9D596 
 631      C4C9B1
 632 0813 9A6D5B2B 		.ascii	"\232m[+\2667tj\035\251\246\252\212570%\305\374\255Z"
 632      B637746A 
 632      1DA9A6AA 
 632      8A353730 
 632      25C5FCAD 
 633 0828 6B7B6A1F 		.ascii	"k{j\037\373?\000\265j\250"
 633      FB3F00B5 
 633      6AA8
 634              		.text
 635              		.section	.gnu.lto_thread4a.1132f09afbc4ccff,"",%progbits
 636 0000 789C6362 		.ascii	"x\234cb`\004BL \011\304j@\011y \315\310\314\300\310"
 636      6004424C 
 636      2009C46A 
 636      40097920 
 636      CDC8CCC0 
 637 0015 34E11C03 		.ascii	"4\341\034\003C\243\002\023##\210\001\324R\317\304X\037"
 637      43A30213 
 637      23238801 
 637      D452CFC4 
 637      581F
 638 0027 0AD1796A 		.ascii	"\012\321yj\367j\225+w\330\3663\035x\360\277^\205aqC"
 638      F76A952B 
 638      77D8F633 
 638      1D78F0BF 
 638      5E856171 
 639 003c C3A409CD 		.ascii	"\303\244\011\315\015\036\251\214\014L\014r\214\014\361"
 639      0D1EA98C 
 639      0C4C0C72 
 639      8C0CF1
 640 004b 8C0C776E 		.ascii	"\214\014wn\177c\224dHeddP`\000\321L\014, \215@\025\014"
 640      7F639464 
 640      48656464 
 640      506000D1 
 640      4C0C2C20 
 641 0063 6C409A95 		.ascii	"l@\232\225\241\245\241A\000\244\020\014\002A4\310\232"
 641      A1A5A141 
 641      00A4100C 
 641      024134C8 
 641      9A
 642 0074 20A04210 		.ascii	" \240B\020\203\371\014\003\313\227\333|\261\214\213"
 642      83F90C03 
 642      CB97DB7C 
 642      B18C8B
 643 0083 18598152 		.ascii	"\030Y\201RU\014?\0338R\031\231\031\343\031\031\031\241"
 643      550C3F1B 
 643      38521999 
ARM GAS  /tmp/ccv0K2b2.s 			page 50


 643      19E31919 
 643      19A1
 644 0095 AE4D6564 		.ascii	"\256Meda\370\302\014\244\200\012\200\252\377\334.BS"
 644      61F8C20C 
 644      A4800A80 
 644      AAFFDC2E 
 644      4253
 645 00a7 CD0654CD 		.ascii	"\315\006T\315\004Q\015\025ag\314\204\360S\0319\300\232"
 645      04510D15 
 645      6167CC84 
 645      F0531939 
 645      C09A
 646 00b9 8EDCA9C2 		.ascii	"\216\334\251\302\242\211\031\217\246s\014\214g\356@"
 646      A289198F 
 646      A6730C8C 
 646      67EE40
 647 00c8 DD057203 		.ascii	"\335\005r\003'<\374\002A.\003:\035\350\001\006i==}\010"
 647      273CFC02 
 647      412E033A 
 647      1DE80106 
 647      693D3D7D 
 648 00dd 2A492D2E 		.ascii	"*I-.\321/*\001\323\271%\025z\311\014\214\005\000\221"
 648      D12F2A01 
 648      D3B92515 
 648      7AC90C8C 
 648      050091
 649 00f0 0A46EE   		.ascii	"\012F\356"
 650              		.text
 651              		.section	.gnu.lto_thread4b.1132f09afbc4ccff,"",%progbits
 652 0000 789C6362 		.ascii	"x\234cb`\004BL \011\304j@\011y \315\310\314\300\310"
 652      6004424C 
 652      2009C46A 
 652      40097920 
 652      CDC8CCC0 
 653 0015 34E11C03 		.ascii	"4\341\034\003C\243\002\023##\210\001\324R\317\304X\037"
 653      43A30213 
 653      23238801 
 653      D452CFC4 
 653      581F
 654 0027 0AD179EA 		.ascii	"\012\321y\352\314j\225;w\331\3663\035x\360\277^\205"
 654      CC6A953B 
 654      77D9F633 
 654      1D78F0BF 
 654      5E85
 655 0039 617143C3 		.ascii	"aqC\303\244\011\315\015\036\251\214\014L\014r\214\014"
 655      A409CD0D 
 655      1EA98C0C 
 655      4C0C728C 
 655      0C
 656 004a F18C0C4F 		.ascii	"\361\214\014O\356|c\224dHeddP`\000\321L\014, \215@\025"
 656      EE7C6394 
 656      64486564 
 656      64506000 
 656      D14C0C2C 
 657 0062 0C6C409A 		.ascii	"\014l@\232\225\241\245\241A\000\244\020\014\002A4\310"
 657      95A1A5A1 
 657      4100A410 
ARM GAS  /tmp/ccv0K2b2.s 			page 51


 657      0C024134 
 657      C8
 658 0073 9A20A042 		.ascii	"\232 \240B\020\203\371\014\003\313\237;|\261\214\213"
 658      1083F90C 
 658      03CB9F3B 
 658      7CB18C8B 
 659 0083 18598152 		.ascii	"\030Y\201RU\014?\0338R\031\231\031\343\031\031\031\241"
 659      550C3F1B 
 659      38521999 
 659      19E31919 
 659      19A1
 660 0095 AE4D6564 		.ascii	"\256Meda\270\303\015\244\200\012\200\252\217\334-BS"
 660      61B8C30D 
 660      A4800A80 
 660      AA8FDC2D 
 660      4253
 661 00a7 CD0654CD 		.ascii	"\315\006T\315\004Q\015\025ag\314\204\360S\0319\300\232"
 661      04510D15 
 661      6167CC84 
 661      F0531939 
 661      C09A
 662 00b9 CEDCADC2 		.ascii	"\316\334\255\302\242\211\031\217\246s\014\214W\356B"
 662      A289198F 
 662      A6730C8C 
 662      57EE42
 663 00c8 DD057203 		.ascii	"\335\005r\003'<\374\002A.\003:\035\350\001\006i==}\010"
 663      273CFC02 
 663      412E033A 
 663      1DE80106 
 663      693D3D7D 
 664 00dd 2A492D2E 		.ascii	"*I-.\321/*\001\323\271%\025z\311\014\214\005\000\231"
 664      D12F2A01 
 664      D3B92515 
 664      7AC90C8C 
 664      050099
 665 00f0 AC46E6   		.ascii	"\254F\346"
 666              		.text
 667              		.section	.gnu.lto_.cgraph.1132f09afbc4ccff,"",%progbits
 668 0000 789C4592 		.ascii	"x\234E\222KkSQ\020\307gr\223\364\221{\363lr\323g\322"
 668      4B6B5351 
 668      10C76772 
 668      93F4917B 
 668      F36C72D3 
 669 0016 C74770DB 		.ascii	"\307Gp\333O\"TT\260`\027E\205n\247p\301b\005+\256\335"
 669      4F225454 
 669      B0601745 
 669      856EA770 
 669      C162052B 
 670 002c 65A3E203 		.ascii	"e\243\342\003\305\212\342c\341\325\252\255&\332j\012"
 670      C58AE263 
 670      E1D5AAAD 
 670      26DA6A0A 
 671 003c BA51EFD6 		.ascii	"\272Q\357\326\317 \236\2313\236\323E~\374\346\177\346"
 671      CF209E99 
 671      339ED345 
 671      7EFCE67F 
 671      E6
ARM GAS  /tmp/ccv0K2b2.s 			page 52


 672 004d CCE97073 		.ascii	"\314\351ps\200\020\000\300\205\002\330\277\334+\244"
 672      801000C0 
 672      8502D8BF 
 672      DC2BA4
 673 005c 225CEF03 		.ascii	"\"\\\357\003\321\315+\247s/\220r\336v\221\320\333K$"
 673      D1CD2BA7 
 673      732F9072 
 673      DE7691D0 
 673      DB4B24
 674 006f F0761B29 		.ascii	"\360v\033)\360\366\034i\304\333S\244Qo\217\221\306\274"
 674      F0F61C69 
 674      C4DB53A4 
 674      516F8F91 
 674      C6BC
 675 0081 3D441AF7 		.ascii	"=D\032\367v\027\251\344\355\026R\350\355\031R\344\355"
 675      7617A9E4 
 675      ED1652E8 
 675      ED1952E4 
 675      ED
 676 0092 0952D9DB 		.ascii	"\011R\331\333\035\244\212\267GHUo\017\220j\336\356!"
 676      1DA48AB7 
 676      4748556F 
 676      0F906ADE 
 676      EE21
 677 00a4 15BCDD47 		.ascii	"\025\274\335G\312;\303=\244\272\330\346&\342[\244\206"
 677      CA3BC33D 
 677      A4BAD8E6 
 677      26E25BA4 
 677      86
 678 00b5 93374813 		.ascii	"\2237H\023N^#5\235\354#\265\234|@\212\235\274Gj;9@\232"
 678      4E5E2335 
 678      9DEC23B5 
 678      9C7C408A 
 678      9DBC476A 
 679 00cd 74F21169 		.ascii	"t\362\021i\312I\037i\332\311'\244\031'\003\244Y'_\220"
 679      CA491F69 
 679      DAC927A4 
 679      192703A4 
 679      59275F90 
 680 00e1 E69C7C46 		.ascii	"\346\234|F\3528\371\212\324u2D\232w\362\015i\301\311"
 680      EA38F98A 
 680      D4753244 
 680      9A77F20D 
 680      69C1C9
 681 00f4 11D2A293 		.ascii	"\021\322\242\223c\244\245\377\022@\023z\277\376Z^\376"
 681      63A4A5FF 
 681      1240137A 
 681      BFFE5A5E 
 681      FE
 682 0105 D3116E31 		.ascii	"\323\021n1' S&\333\314\006\364\204uH\231A\033\222\237"
 682      27205326 
 682      DBCC06F4 
 682      84754899 
 682      411B929F 
 683 0119 A62F8821 		.ascii	"\246/\210!\025\266 c\346\265\236\327z^\3539\255\347"
 683      15B62063 
 683      E6B59ED7 
ARM GAS  /tmp/ccv0K2b2.s 			page 53


 683      7A5EEB39 
 683      ADE7
 684 012b 26A1278C 		.ascii	"&\241'\214\265\336\202\204\347\243\346\206\222\343\224"
 684      B5DE8284 
 684      E7A3E686 
 684      92E394
 685 013a EDC758F3 		.ascii	"\355\307X\363\226}\247a\312,\314\330\363\205i{\336P"
 685      967DA761 
 685      CA2CCCD8 
 685      F385697B 
 685      DE50
 686 014c CE17B55E 		.ascii	"\316\027\265^\324\372\210\372\210\372\350\264\3651O"
 686      D4FA88FA 
 686      88FAE8B4 
 686      F5314F
 687 015b A98FAB97 		.ascii	"\251\217\253\227t\037%\335GI\367\301\334V^e\316B&l@"
 687      741F25DD 
 687      4749F7C1 
 687      DC565E65 
 687      CE42266C 
 688 0170 728D5987 		.ascii	"r\215Y\207\0363\324\376P\373C\355\017\265?\324\376\260"
 688      1E33D4FE 
 688      50FB43ED 
 688      0FB53FD4 
 688      FEB0
 689 0182 A3E73B90 		.ascii	"\243\347;\220*3e\262\243\271p\016R\241\331\377\015\246"
 689      2A3365B2 
 689      A3B9700E 
 689      52A1D9FF 
 689      0DA6
 690 0194 D93F336A 		.ascii	"\331?3j\333\375EM\273\017&\317cn)\267\225</j\331wF\015"
 690      DBFD454D 
 690      BB0F26CF 
 690      636E29B7 
 690      953C2F6A 
 691 01ac 3B37EADA 		.ascii	";7\352\332\373\243:d\203\275bP^\264\367\225\273\366"
 691      FBA33A64 
 691      83BD6250 
 691      5EB4F795 
 691      BBF6
 692 01be FDECBB27 		.ascii	"\375\354\273'X\323=\216\027 }w\234cO\016\224\375e9="
 692      58D33D8E 
 692      17207D77 
 692      9C634F0E 
 692      94FD6539 
 693 01d3 8883B279 		.ascii	"\210\203\262y\314 \014\312\363\220\034\206\222\035Y"
 693      CC200CCA 
 693      F3901C86 
 693      921D59
 694 01e2 0C31A834 		.ascii	"\0141\2504!\341\207\031f\302\266]H\245k\027RY\202l\337"
 694      21E18719 
 694      66C2B65D 
 694      48A56B17 
 694      5259826C 
 695 01f7 4C309E1D 		.ascii	"L0\236\0350M\3367\0238\0370M>X\226\370\320\300|\006"
 695      304DDE37 
 695      13381F30 
ARM GAS  /tmp/ccv0K2b2.s 			page 54


 695      4D3E5896 
 695      F8D0C07C 
 696 020c 47B184C3 		.ascii	"G\261\204\303X\262a(\331\261\301<\364\276\243d?\014"
 696      58B26128 
 696      D9B1C13C 
 696      F4BEA364 
 696      3F0C
 697 021e 1A909D94 		.ascii	"\032\220\235\224\351+\374\233\256\360\315\311)\216\223"
 697      E92BFC9B 
 697      AEF0CDC9 
 697      298E93
 698 022d DFA3DC9A 		.ascii	"\337\243\334\232\236aI\317JpN\202U\251\257J\375|P1\377"
 698      9E6149CF 
 698      4A704E82 
 698      55A9AF4A 
 698      FD7C5031 
 699 0242 F45A5099 		.ascii	"\364ZP\231\203lMn]\227\201\3532\357\242\214\273$\365"
 699      836C4D6E 
 699      5D9781EB 
 699      32EFA28C 
 699      BB24F5
 700 0255 0D19B611 		.ascii	"\015\031\266\021\324\226\3547T\323o\270\326\262\337"
 700      D496EC37 
 700      54D36FB8 
 700      D6B2DF
 701 0264 6455EB55 		.ascii	"dU\353U\255Wm\035\376\001\2527\267\257"
 701      AD576D1D 
 701      FE01AA37 
 701      B7AF
 702              		.text
 703              		.section	.gnu.lto_.vars.1132f09afbc4ccff,"",%progbits
 704 0000 789C25C4 		.ascii	"x\234%\304;\016@@\000E\321w\315\370\2636K\232\325\240"
 704      3B0E4040 
 704      0045D177 
 704      CDF8B336 
 704      4B9AD5A0 
 705 0014 D0481412 		.ascii	"\320H\024\022\015\242\260-/q\212\223\011\005I\203~\375"
 705      0DA2B02D 
 705      2F718A93 
 705      09054983 
 705      7EFD
 706 0026 4B50D24D 		.ascii	"KP\322M\364\017\271\237QLa\002?\222\371\213\"OZ(\375"
 706      F40FB99F 
 706      514C6102 
 706      3F92F98B 
 706      224F5A28 
 707 003b 4AE5376A 		.ascii	"J\3457j\277\323\370\203\326\237t\376\003\255\202\020"
 707      BFD3F883 
 707      D69F74FE 
 707      03AD8210 
 708 004b A4       		.ascii	"\244"
 709              		.text
 710              		.section	.gnu.lto_.refs.1132f09afbc4ccff,"",%progbits
 711 0000 789C8D50 		.ascii	"x\234\215P\355n\3030\010\344\343.!\211\333&\232&\355"
 711      ED6EC330 
 711      08E4E32E 
 711      2189DB26 
ARM GAS  /tmp/ccv0K2b2.s 			page 55


 711      9A26ED
 712 0013 DFDEFF2D 		.ascii	"\337\336\377-\007VW\271Q\253\015t\007\346\000[6Qq\021"
 712      075657B9 
 712      51AB0D74 
 712      07E6005B 
 712      36517111 
 713 0027 D94DBAB5 		.ascii	"\331M\272\265<\253B\335\222\255\263\273\321\351\346"
 713      3CAB42DD 
 713      92ADB3BB 
 713      D1E9E6
 714 0036 0461605A 		.ascii	"\004a`ZV\222\022J\3343\370=\332T\321\346b\215\314\226"
 714      5692124A 
 714      DC33F83D 
 714      DA54D1E6 
 714      628DCC96 
 715 004a AAEA4A1E 		.ascii	"\252\352J\036[\337m\303\356\023\323?\333\337=\277\376"
 715      5BDF6DC3 
 715      EE13D33F 
 715      DBDF3DBF 
 715      FE
 716 005b 7151C93B 		.ascii	"qQ\311;\024\350\332KN]\332\265\372\330\237[\350S=\373"
 716      14E8DA4B 
 716      4E5DDAB5 
 716      FAD89F5B 
 716      E8533DFB 
 717 006f BEF5DBF6 		.ascii	"\276\365\333\366\336}d7\362\\\352\203UJ}\247\331Q[m"
 717      DE7D6437 
 717      F25CEA83 
 717      554A7DA7 
 717      D9515B6D 
 718 0083 AF9F91AF 		.ascii	"\257\237\221\257\2113\203\013Wnl\377\311\243\325\334"
 718      8933830B 
 718      576E6CFF 
 718      C9A3D5DC 
 719 0093 88D830E1 		.ascii	"\210\3300\341\011\261bF\033\021\013\002\327\021\021"
 719      09B16246 
 719      1B110B02 
 719      D71111
 720 00a2 58701B11 		.ascii	"Xp\033\0213V\\F\204\363\344\001\236<x6\371\001\004\207"
 720      33565C46 
 720      84F3E401 
 720      9E3C7836 
 720      F9010487 
 721 00b6 09E6     		.ascii	"\011\346"
 722              		.text
 723              		.section	.gnu.lto_.statics.1132f09afbc4ccff,"",%progbits
 724 0000 789C6362 		.ascii	"x\234cb`d`b\300\016@\342\214\020&\000\000\375\000\011"
 724      60646062 
 724      C00E40E2 
 724      8C102600 
 724      00FD0009 
 725              		.text
 726              		.section	.gnu.lto_.decls.1132f09afbc4ccff,"",%progbits
 727 0000 789CC55B 		.ascii	"x\234\305[\011t\025U\232\256\252\267%$$\270\365\004"
 727      09741555 
 727      9AAEAAB7 
 727      252424B8 
ARM GAS  /tmp/ccv0K2b2.s 			page 56


 727      F504
 728 0012 37A2DD4C 		.ascii	"7\242\335L\243#\204(\012\036[G\233>\335\332\323\320"
 728      A3238428 
 728      0A1E5B47 
 728      9B3EDDDA 
 728      D3D0
 729 0024 E780ADE7 		.ascii	"\347\200\255\347\330\375\372\315\343\245 \201\274\305"
 729      D8FDFACD 
 729      E3A52081 
 729      BCC5
 730 0032 7A15168F 		.ascii	"z\025\026\217s\346\011=\030A\302&\213l\206MT4\266@\""
 730      73E6093D 
 730      1841C226 
 730      8B6C864D 
 730      5434B640 
 731 0047 9B013584 		.ascii	"\233\0015\204-\3102QD\342\202fP!*H\032\005\243\314\177"
 731      2DC83251 
 731      44E28266 
 731      50212A48 
 731      1A05A3CC 
 732 005c 6FDDBA75 		.ascii	"o\335\272u\253^m\357%s\246N\356\253\365\377\356\367"
 732      AB5E6DEF 
 732      2573A64E 
 732      EEABF5FF 
 732      EEF7
 733 006e 2F77BF11 		.ascii	"/w\277\0218\236C\307\220^\034w\011\216\373Gr\\{\200"
 733      389E43C7 
 733      905E1C77 
 733      098EFB47 
 733      725C7B80 
 734 0082 E3AE8067 		.ascii	"\343\256\200gwC\312\203\344\203T\013i%\244\347!\015"
 734      7743CA83 
 734      E483540B 
 734      6925A4E7 
 734      210D
 735 0094 0391BB20 		.ascii	"\003\221\273 \375\012\322-\220<\360\354\0368\377\253"
 735      FD0AD22D 
 735      903CF0EC 
 735      1E38FFAB 
 736 00a4 02C5F587 		.ascii	"\002\305\365\207t\037\\\377\026\322\357!\215\2044\012"
 736      741F5CFF 
 736      16D2EF21 
 736      8D84340A 
 737 00b4 D243901E 		.ascii	"\322C\220\036\201\364WHaHe\220\306A\032\017)\012)\001"
 737      81F45748 
 737      61486590 
 737      C6411A0F 
 737      290A2901 
 738 00c8 29096922 		.ascii	")\011i\"\244)\220\036\207\364\237\220\252!\315\200T"
 738      A429901E 
 738      87F49F90 
 738      AA21CD80 
 738      54
 739 00d9 036919A4 		.ascii	"\003i\031\244ZHk =\017\351%H\365\220^\207\264\005\322"
 739      5A486B20 
 739      3D0FE925 
 739      48F5905E 
ARM GAS  /tmp/ccv0K2b2.s 			page 57


 739      87B405D2 
 740 00ed 36486F40 		.ascii	"6Ho@\332\001\251\011R3\244=\220Z \365\006^\207\340|"
 740      DA01A909 
 740      5233A43D 
 740      905A20F5 
 740      065E87E0 
 741 0102 0CD20948 		.ascii	"\014\322\011H_\"\376\002\307\225B\272\035\322\277Az"
 741      5F22FE02 
 741      C79542BA 
 741      1DD2BF41 
 741      7A
 742 0113 18D21848 		.ascii	"\030\322\030HQH\223!M\0238\335\201\370\367C\372B*\200"
 742      51489321 
 742      4D1338DD 
 742      81F8F743 
 742      FA422A80 
 743 0127 940F09CC 		.ascii	"\224\017\011\314\305\325Cj\204t\026\336\237\2024\013"
 743      C5D5436A 
 743      847416DE 
 743      9F82340B 
 744 0137 E41AE07E 		.ascii	"\344\032\340~\020\234\007B\252\201\344\205\373\331\202"
 744      109C0742 
 744      AA81E485 
 744      FBD982
 745 0146 624FD686 		.ascii	"bO\326\206\263!\335\012\317\347@\232+(6\236\211\354"
 745      B321DD0A 
 745      CFE7409A 
 745      2B28369E 
 745      89EC
 746 0158 09D77F86 		.ascii	"\011\327\177\206\363<A\263\177\212\330\373\014\2625"
 746      F33C41B3 
 746      7F8AD8FB 
 746      0CB235
 747 0167 3C7F034E 		.ascii	"<\177\003N9\204W\015\2617\262\373}\304f\325\304\206"
 747      3984570D 
 747      B137B2FB 
 747      7DC466D5 
 747      C486
 748 0179 286F56DF 		.ascii	"(oV\337C\274^/$W\010\347U\214^H\307\371\202\342\343"
 748      43BC5E2F 
 748      245708E7 
 748      558C5E48 
 748      C7F982E2 
 749 018e E5909E21 		.ascii	"\345\220\236!\334P\376\353\341~:\244\005\360l%\342D"
 749      DC50FEEB 
 749      E17E3AA4 
 749      05F06C25 
 749      E244
 750 01a0 F07C046B 		.ascii	"\360|\004k\015\361M-\361\031\222Q\355n\314\033\361-"
 750      0DF14D2D 
 750      F1199251 
 750      ED6ECC1B 
 750      F12D
 751 01b2 70C87B21 		.ascii	"p\310{!\311{\235M\276\277e\342B\315\027\271\317,Od\237"
 751      C97B9D4D 
 751      BEBF65E2 
 751      42CD17B9 
ARM GAS  /tmp/ccv0K2b2.s 			page 58


 751      CF2C4F64 
 752 01c7 3C873CCD 		.ascii	"<\207<\315\362\361\022\3315L\036<\321\215=Fv\003\177"
 752      F2F112D9 
 752      354C1E3C 
 752      D18D3D46 
 752      76037F
 753 01da A409FE09 		.ascii	"\244\011\376\011\003>*C~N\037/,6G\374\364WR6\352\211"
 753      033E2A43 
 753      7E4E1F2F 
 753      2C3647FC 
 753      F4575236 
 754 01f0 0F0E111F 		.ascii	"\017\016\021\037\030\371\206]\342\205\031<\201\301c"
 754      18F9865D 
 754      E285193C 
 754      81C163
 755 01ff 8F329758 		.ascii	"\2172\227Xe.\260\306\021\336Fy\201\274\253\267\260\317"
 755      652EB0C6 
 755      11DE4679 
 755      81BCABB7 
 755      B0CF
 756 0211 781BB9F1 		.ascii	"x\033\271\361L\236f\266\210\332\310Fm\362L\374?\325"
 756      4C9E66B6 
 756      88DAC846 
 756      6DF24CFC 
 756      3FD5
 757 0223 0D6ADD6B 		.ascii	"\015j\335kV7\370\011\257\032R/l\311\240N@u\361\015\377"
 757      5637F809 
 757      AF1A522F 
 757      6CC9A04E 
 757      4075F10D 
 758 0238 87FABC09 		.ascii	"\207\372\274\011\357\026e\251W\200\360S\365Bu\376\266"
 758      EF1665A9 
 758      5780F053 
 758      F54275FE 
 758      B6
 759 0249 0C74436D 		.ascii	"\014tCm\314\215\026\272=\301\233\353\307\306C\246\272"
 759      CC8D16BA 
 759      3DC19BEB 
 759      C7C643A6 
 759      BA
 760 025a AA7A2D86 		.ascii	"\252z-\206\363N\027\372\345\020\216k\210\216#I]\200"
 760      F34E17FA 
 760      E5108E6B 
 760      888E2349 
 760      5D80
 761 026c F4DB61D0 		.ascii	"\364\333a\320\361\004\243'{\2406\264/\321G\325\321\312"
 761      F104A327 
 761      7BA036B4 
 761      2FD147D5 
 761      D1CA
 762 027e 77CF12DD 		.ascii	"w\317\022\335\366\022\216H\027\304\023\371\010\351\202"
 762      F6128E48 
 762      17C413F9 
 762      08E982
 763 028d FC84F447 		.ascii	"\374\204\364G\272\277\013\351Ux>\220\361\227\337\300"
 763      BABF0BE9 
 763      55783E90 
ARM GAS  /tmp/ccv0K2b2.s 			page 59


 763      F197DFC0 
 764 029d FF9770BD 		.ascii	"\377\227p\275\011\3167\221w\210\313\036\302\275\231"
 764      09CE3791 
 764      7788CB1E 
 764      C2BD99
 765 02ac E8D544CA 		.ascii	"\350\325D\312\240\252\003{\240\266\377\347\006\377\330"
 765      A0AA037B 
 765      A0B6FFE7 
 765      06FFD8
 766 02bb F9269045 		.ascii	"\371&\220E\374\261\376T\375\262DP|q\200\321M\215S\243"
 766      FCB1FE54 
 766      FDB24450 
 766      7C7180D1 
 766      4D8D53A3 
 767 02cf 8FF2094F 		.ascii	"\217\362\011O\344\037\324\267\031E\364B:\266\020\177"
 767      E41FD4B7 
 767      1945F442 
 767      3AB6107F 
 768 02df 35119F35 		.ascii	"5\021\2375\223\370\364\031\342\362\230\211\356\010\253"
 768      93F8F419 
 768      E2F29889 
 768      EE08AB
 769 02ee 97417796 		.ascii	"\227Aw\226\027\313\233m7\036\"\371\256\341\255\333\245"
 769      17CB9B6D 
 769      371E22F9 
 769      AEE1ADDB 
 769      A5
 770 02ff 5159628F 		.ascii	"QYb\2172\3016\362\316\343f\244RSS\265\323S\367\357)"
 770      32C136F2 
 770      CEE366A4 
 770      525353B5 
 770      D353F7EF 
 771 0314 B88C9B93 		.ascii	"\270\214\233\223\202\243\366\336\305\005\271\\5z\376"
 771      82A3F6DE 
 771      C505B95C 
 771      357AFE
 772 0323 C9DA5451 		.ascii	"\311\332TQ\021\212\310 \017\217 \302\321U~\256\202\325"
 772      118AC820 
 772      0F8F20C2 
 772      D1557EAE 
 772      82D5
 773 0335 9F5B93C2 		.ascii	"\237[\223\302\007\037\344W\361\271`b\001=6\344\200\017"
 773      071FE457 
 773      F1B96062 
 773      013D36E4 
 773      800F
 774 0347 E50374F4 		.ascii	"\345\003t\364\325\256\351\345%^\313\242\230f\341%\222"
 774      D5AEE9E5 
 774      255ECBA2 
 774      9866E125 
 774      92
 775 0358 2BF9CBF0 		.ascii	"+\371\313\360\025\246\224\"T\361'\3262k\231\334\362"
 775      15A69422 
 775      54F127D6 
 775      326B99DC 
 775      F2
 776 0369 73D92B0F 		.ascii	"s\331+\017ad-[\313\347\231Z\347rn\256b\235=\005\232"
ARM GAS  /tmp/ccv0K2b2.s 			page 60


 776      61642D5B 
 776      CBE7995A 
 776      E7726EAE 
 776      629D3D05 
 777 037e F8BD543C 		.ascii	"\370\275T<G\265\310\034\305\"\353\370\313\301\"\001"
 777      47B5C81C 
 777      C522EBF8 
 777      CBC12201 
 778 038e 9EBB997B 		.ascii	"\236\273\231{\221\230I\001%\247k\271\272\213\337\220"
 778      91984901 
 778      25A76BB9 
 778      BA8BDF90 
 779 039e 6B17D002 		.ascii	"k\027\320\002\367\033\036n\327\003j\220\177\211\277"
 779      F71B1E6E 
 779      D7036A90 
 779      7F89BF
 780 03ad 59677DF4 		.ascii	"Yg}\364\224#\317\333\027\3652q\000\177\003W\233\302"
 780      9423CFDB 
 780      17F53271 
 780      007F0357 
 780      9BC2
 781 03bf DCEEF767 		.ascii	"\334\356\367g\250\310\253X\221\207y\202\337X\363a\263"
 781      A8C8AB58 
 781      91877982 
 781      DF58F361 
 781      B3
 782 03d0 C7356DC4 		.ascii	"\3075m\304j\203)\347\015\014\347\266%cM8\013\230\363"
 782      6A8329E7 
 782      0D0CE7B6 
 782      25634D38 
 782      0B98F3
 783 03e3 D439D380 		.ascii	"\3249\323\200\263\231'\212\331lk\2754\337\337`sU\363"
 783      B399278A 
 783      D96C6BBD 
 783      34DFDF60 
 783      7355F3
 784 03f6 88718369 		.ascii	"\210q\203i\336\015L\336-\317\2151\311\373r&\357 _\017"
 784      DE0D4CDE 
 784      2DCF8D31 
 784      C9FB7226 
 784      EF205F0F 
 785 040a 2121403D 		.ascii	"!!@=\244\"\266>w\2127\017 -\340\330 #\207\011\346B\212"
 785      A422B63E 
 785      778A370F 
 785      202DE0D8 
 785      20238709 
 786 0421 D9DE2F13 		.ascii	"\331\336/\023\304\3424DRb\025\013Y\3057\353\327F\\d"
 786      C4E23444 
 786      5262150B 
 786      59C537EB 
 786      D7465C64 
 787 0435 97F3AA63 		.ascii	"\227\363\252c\033\026nk\276[\201\315\030\353M\214\365"
 787      1B166E6B 
 787      BE5B81CD 
 787      18EB4D8C 
 787      F5
 788 0446 01C5AA5B 		.ascii	"\001\305\252[q\270\271\204#\376\017h\026P\357\225\257"
ARM GAS  /tmp/ccv0K2b2.s 			page 61


 788      71B8B984 
 788      23FE0F68 
 788      1650EF95 
 788      AF
 789 0457 14E4002D 		.ascii	"\024\344\000-\237\350\012\015h\013\271\314\005\004\356"
 789      9FE80A0D 
 789      680BB9CC 
 789      0504EE
 790 0466 7D413565 		.ascii	"}A5ec\315\217\273\357\264\267f\216\245\177R\330\232"
 790      63CD8FBB 
 790      EFB4B766 
 790      8EA57F52 
 790      D89A
 791 0478 6A68FBAD 		.ascii	"jh\373\255\365\027\270\217q\216\315\246!\326\314\204"
 791      F517B88F 
 791      718ECDA6 
 791      21D6CC84 
 792 0488 5863DDD1 		.ascii	"Xc\335\321\375E&A\306g\024\340\002\315\375\0278\367"
 792      FD452641 
 792      C66714E0 
 792      02CDFD17 
 792      38F7
 793 049a 591E94FB 		.ascii	"Y\036\224\373~\323\334\3673\271\237\254?^h\222y\256"
 793      7ED3DCF7 
 793      33B99FAC 
 793      3F5E6892 
 793      79AE
 794 04ac 55E641FE 		.ascii	"U\346A\376\356\253\\\270\374 \216\337\267=\264^\250"
 794      EEAB5CB8 
 794      FC208EDF 
 794      B73DB45E 
 794      A8
 795 04bd DBB1AF9F 		.ascii	"\333\261\257\237\352\261{\362\330\254\360\275\352A\314"
 795      EAB17BF2 
 795      D8ACF0BD 
 795      EA41CC
 796 04cc BD85723F 		.ascii	"\275\205r?Y\377\332\221\233\272[\226\024.\007)h\313"
 796      59FFDA91 
 796      9BBA5B96 
 796      142E0729 
 796      68CB
 797 04de 03DD2B4B 		.ascii	"\003\335+K*\342\021\212\330\352\200h\035Oz\304w)b[F"
 797      2AE2118A 
 797      D8EA8068 
 797      1D4F7AC4 
 797      7729625B 
 798 04f3 88D61CDF 		.ascii	"\210\326\034\337\247\210\355\016\210}\\r<N\021;2B\264"
 798      A788ED0E 
 798      887D5C72 
 798      3C4E113B 
 798      3242B4
 799 0506 E6F81145 		.ascii	"\346\370\021E\354t@,r\311\361S\212\330\225\021\2425"
 799      EC74402C 
 799      72C9F153 
 799      8AD89511 
 799      A235
 800 0518 C79314B1 		.ascii	"\307\223\024\261\351\367\366\210\305f\034\323b\312\330"
ARM GAS  /tmp/ccv0K2b2.s 			page 62


 800      E9F7F688 
 800      C5661CD3 
 800      62CAD8
 801 0527 ADD8A775 		.ascii	"\255\330\247u+\004\356K\217Zs4\326\035\333_\222E\374"
 801      2B04EE4B 
 801      8F5A7334 
 801      D61DDB5F 
 801      9245FC
 802 053a 53A8AF3C 		.ascii	"S\250\257<Z\265w)\263j\317\314\030J\263t\216\202\266"
 802      5AB57729 
 802      B36ACFCC 
 802      184AB374 
 802      8E82B6
 803 054d BCE0D4D4 		.ascii	"\274\340\324\3249\207\225\202\371\003\305l\035\320\275"
 803      39879582 
 803      F903C56C 
 803      1DD0BD
 804 055c B0D25557 		.ascii	"\260\322UW\264\247\272\263h1S]\352\273\252A~5\337\237"
 804      B4A7BAB3 
 804      6831535D 
 804      EABBAA41 
 804      7E35DF9F 
 805 0570 EB4E2FF4 		.ascii	"\353N/\364\024\353\276i^j\036\207\272\313&\236\317L"
 805      14EBBE69 
 805      5E6A1E87 
 805      BACB269E 
 805      CF4C
 806 0582 4D15F999 		.ascii	"M\025\371\231~\2665{\266\332\375\032\267\2643\274Z\253"
 806      7EB6357B 
 806      B6DAFD1A 
 806      B7B433BC 
 806      5AAB
 807 0594 5D6F68B5 		.ascii	"]oh\265\335c\235\305X\363\275Z\253]\377#\031\217\006"
 807      DD639DC5 
 807      58F3BD5A 
 807      AB5DFF23 
 807      198F06
 808 05a7 79DED06A 		.ascii	"y\336\320j\363\372FX3\236j\273\314\276\026\270\245^"
 808      F3FA4658 
 808      339E6ABB 
 808      CCBE16B8 
 808      A55E
 809 05b9 2D708FED 		.ascii	"-p\217\355\273\323\234\256\213R\234\235\035\317c\335"
 809      BBD39CAE 
 809      8B529C9D 
 809      1DCF63DD 
 810 05c9 573376DC 		.ascii	"W3v\334\250\332Q1L\246\352\254g\3249\233\231:\003\272"
 810      A8DA5131 
 810      4CA6EAAC 
 810      67D4399B 
 810      993A03BA 
 811 05dd AFCE0F58 		.ascii	"\257\316\017X\235\215\214:\257wO\235m\214:?d\246\316"
 811      9D8D8C3A 
 811      AF774F9D 
 811      6D8C3A3F 
 811      64A6CE
 812 05f0 60461DA5 		.ascii	"`F\035\2457u\0057\317\2517\205h\245\204+\270\364\276"
ARM GAS  /tmp/ccv0K2b2.s 			page 63


 812      37750537 
 812      CFA93785 
 812      68A5842B 
 812      B8F4BE
 813 0603 0C7A4A3B 		.ascii	"\014zJ;\353u\005\\\372\341e\262\322\215\022\335t]\247"
 813      EB75055C 
 813      FAE165B2 
 813      D28D12DD 
 813      745DA7
 814 0616 09C8726F 		.ascii	"\011\310ro1\226{CW\2402\301\232\216\261\3660\005jG\363"
 814      31967B43 
 814      57A032C1 
 814      9A8EB1F6 
 814      30056A47 
 815 062b 40D5E87E 		.ascii	"@\325\350~\203\023\374z'\240\327(\267\357Q\207\226\277"
 815      8313FC7A 
 815      27A0D728 
 815      B7EF5187 
 815      96BF
 816 063d A41EBCFA 		.ascii	"\244\036\274\372\016\335\004\270\236\200\020\270C\230"
 816      0EDD04B8 
 816      9E8010B8 
 816      4398
 817 064b 21322CC4 		.ascii	"!2,\304\352~\2076\203\3239\227Ks\256j\302\243\024\264"
 817      EA7E8736 
 817      83D33997 
 817      4B73AE6A 
 817      C2A314B4 
 818 065f 2B9B064D 		.ascii	"+\233\006M\327b\334\203\032\214O(`\347\346\356\216\267"
 818      D762DC83 
 818      1A8C4F28 
 818      60E7E6EE 
 818      8EB7
 819 0671 321ED1CC 		.ascii	"2\036\321\314\306:}\316\204\305a\255@\275i,P\356F(\347"
 819      C63A7DCE 
 819      84C561AD 
 819      40BD692C 
 819      50EE4628 
 820 0686 18B36F7B 		.ascii	"\030\263o{'\033\263\223C\340.\322\342\331\345\200S\354"
 820      271BB393 
 820      43E02ED2 
 820      E2D9E580 
 820      53EC
 821 0698 E03E1723 		.ascii	"\340>\027#\035\326.\013\0044\033\360\023\265K\307RR"
 821      1DD62E0B 
 821      04341BF0 
 821      13B54BC7 
 821      5252
 822 06aa 225DE020 		.ascii	"\"]\340 K-\026\314\306+\350)\235\014Xj6\031\300\247"
 822      4B2D16CC 
 822      C62BE829 
 822      9D0C586A 
 822      3619C0A7 
 823 06be F52882FC 		.ascii	"\365(\202\374V^ \210\355K\263\012\220\364\203%\030\344"
 823      565E2088 
 823      ED4BB30A 
 823      90F48325 
ARM GAS  /tmp/ccv0K2b2.s 			page 64


 823      18E4
 824 06d0 9F15FA73 		.ascii	"\237\025\372s\300n\211p\203f\371Y>:b\337z\322!S\275"
 824      C06E8970 
 824      8366F959 
 824      3E3A62DF 
 824      7AD22153 
 825 06e5 ED8B75B6 		.ascii	"\355\213u\266OaE\224\311\225E\024\263\365.\365k\375"
 825      4F614594 
 825      C9954514 
 825      B3F52EF5 
 825      6BFD
 826 06f7 3C8A7A3D 		.ascii	"<\212z=\300\301\233ja\\E\021;\357\262\3478\330\022Q"
 826      C0C19B6A 
 826      615C4511 
 826      3BEFB2E7 
 826      38D81251 
 827 070b 35B65214 		.ascii	"5\266R\024^\320\364\376U&\210\305i\210\216C\335\024"
 827      5ED0F4FE 
 827      552688C5 
 827      69888E43 
 827      DD14
 828 071d AFEB0A42 		.ascii	"\257\353\012B\273\206\363^c\032:k\230\3209y\364\360"
 828      BB86F35E 
 828      631A3A6B 
 828      98D03979 
 828      F4F0
 829 072f 4766036D 		.ascii	"Gf\003m\217\211\315\217Q\314\266\327\013\354\215n\032"
 829      8F89CD8F 
 829      51CCB6D7 
 829      0BEC8D6E 
 829      1A
 830 0740 3B263DDC 		.ascii	";&=\334\023\024\262\343h\201\275\215\234\306\213\231"
 830      1314B2E3 
 830      6881BD8D 
 830      9CC68B99 
 831 0750 DA882DA2 		.ascii	"\332\210-\242\257\340\"\372\245\217\026\321\367\362"
 831      AFE022FA 
 831      A58F16D1 
 831      F7F2
 832 075e D4E0568C 		.ascii	"\324\340V\214\305D\373\032&\332\237\207h\367\004\371"
 832      C544FB1A 
 832      26DA9F87 
 832      68F704F9 
 833 076e 7510ED41 		.ascii	"u\020\355A\376E\374\273^\213|\353\"\375\262\300t\215"
 833      FE45FCBB 
 833      5E8B7CEB 
 833      22FDB2C0 
 833      748D
 834 0780 CF521B74 		.ascii	"\317R\033tef\203b\235\307\254s[\315\346\366\275O\353"
 834      65668362 
 834      9DC7AC73 
 834      5BCDE6F6 
 834      BD4FEB
 835 0793 A5BC5E68 		.ascii	"\245\274^h\237\3350G/*3bS\375\264j}\303\251\200\017"
 835      9FDD3047 
 835      2F2A3362 
 835      53FDB46A 
ARM GAS  /tmp/ccv0K2b2.s 			page 65


 835      7DC3A980 
 836 07a8 33904DC7 		.ascii	"3\220M\307\304-\331,\012\331\321\350TQ\335kF\323\321"
 836      C42DD92C 
 836      0AD9D1E8 
 836      5451DD6B 
 836      46D3D1
 837 07bb 2A4A8548 		.ascii	"*J\205HgX\324\272\021M\262\266_\335\335\326X\001\337"
 837      6758D4BA 
 837      114DB2B6 
 837      5FDDDDD6 
 837      5801DF
 838 07ce 4E11     		.ascii	"N\021"
 839 07d0 3B3242D4 		.ascii	";2B\324;\2269\330\231\341 \277\021\006hB\220\337\304"
 839      3B9639D8 
 839      99E120BF 
 839      11066842 
 839      90DFC4
 840 07e3 A3B86B60 		.ascii	"\243\270k`k\334\005~u\346\273\356\203o\256\315\242\250"
 840      6BDC057E 
 840      75E6BBEE 
 840      836FAECD 
 840      A2A8
 841 07f5 9A65BD9E 		.ascii	"\232e\275\236\311\372\025\036W\363u\274\213`\177\336"
 841      C9FA151E 
 841      57F375BC 
 841      8B607FDE 
 842 0805 6275E067 		.ascii	"bu\340g\334\002\322WL\361\262R\013[\203l\021~\206\257"
 842      DC02D257 
 842      4CF1B252 
 842      0B5B836C 
 842      117E86AF 
 843 0819 3C782D8D 		.ascii	"<x-\215\303Q\002\004\036t^\234\330,\350\374l\265|\243"
 843      C3510204 
 843      1E745E9C 
 843      D82CE8FC 
 843      6CB57CA3 
 844 082d 0C695598 		.ascii	"\014iU\230>\024F 0\333\205\314\327T\336\020r)9\375\232"
 844      3E144620 
 844      30DB85CC 
 844      D754DE10 
 844      722939FD 
 845 0842 0AEF487B 		.ascii	"\012\357H{\233`n5B\271\330\310x0E\360\023\204\035Y0"
 845      9B606E35 
 845      42B9D8C8 
 845      783045F0 
 845      13841D59 
 846 0857 DE69C9D8 		.ascii	"\336i\311\330\347\310\270Qc\334\217[\221\332y\006\225"
 846      E7C8B851 
 846      63DC8F5B 
 846      91DA7906 
 846      95
 847 0868 05E85807 		.ascii	"\005\350X\007\024\357\011\334r\277Z\277n=\371\332\347"
 847      14EF09DC 
 847      72BF5ABF 
 847      6E3DF9DA 
 847      E7
 848 0879 4F93BEE1 		.ascii	"O\223\276\341/\270\325\251\324<\364-)\372o\341\317\336"
ARM GAS  /tmp/ccv0K2b2.s 			page 66


 848      2FB8D5A9 
 848      D43CF42D 
 848      29FA6FE1 
 848      CFDE
 849 088b 14FA71EF 		.ascii	"\024\372q\357\007,rS\246K\377\231[\213\232\250\267\247"
 849      072C7253 
 849      A64BFF99 
 849      5B8B9AA8 
 849      B7A7
 850 089d DEAF440F 		.ascii	"\336\257D\017G\304\276\360X\221\304\237\274%\350V\220"
 850      47C4BEF0 
 850      5891C49F 
 850      BC25E856 
 850      90
 851 08ae CDB93651 		.ascii	"\315\2716Q\256\235\217\233\362\014\362M\002*\335\315"
 851      AE9D8F9B 
 851      F20CF24D 
 851      022ADDCD 
 852 08be D9F16C76 		.ascii	"\331\361lv\346\271\333\015\317\003\032\317\331\036["
 852      E6B9DB0D 
 852      CF031ACF 
 852      D91E5B
 853 08cd A2FBB223 		.ascii	"\242\373\262#\272\317\231\350~7D\337\243D[\256\261\345"
 853      BACF99E8 
 853      7E3744DF 
 853      A3445BAE 
 853      B1E5
 854 08df F90E64B8 		.ascii	"\371\016d\270's\236\3578\363<\350\206\347G\224g\373"
 854      27739EEF 
 854      38F33CE8 
 854      86E74794 
 854      67FB
 855 08f1 5F6C791E 		.ascii	"_ly\036\311\316\236G\234y\376\267\033\236\237S\236m"
 855      C9CE9E47 
 855      9C79FEB7 
 855      1B9E9F53 
 855      9E6D
 856 0903 7FB6E5F9 		.ascii	"\177\266\345\371^v<\337s\346y\324\216\247\241v\267\\"
 856      5E763CDF 
 856      73E679D4 
 856      8EA7A176 
 856      B75C
 857 0915 204140C7 		.ascii	" A@\307I\345\256\325\347\002w\206\352\327\261\3443:"
 857      49E5AED5 
 857      E7027786 
 857      EAD7B1E4 
 857      333A
 858 0927 85A1304D 		.ascii	"\205\2410M\355\234Z\204!\221\310\007B?\226\005<i\263"
 858      ED9C5A84 
 858      2191C807 
 858      423F9605 
 858      3C69B3
 859 093a B7DF716C 		.ascii	"\267\337ql\277\037)~W\215\307\006\376\2434\370\217\335"
 859      BF1F297E 
 859      578DC706 
 859      FEA334F8 
 859      8FDD
ARM GAS  /tmp/ccv0K2b2.s 			page 67


 860 094c C0570768 		.ascii	"\300W\007h\030\315\260\203?\221\006\377\251\033\370"
 860      18CDB083 
 860      3F9106FF 
 860      A91BF8
 861 095b F914BEE9 		.ascii	"\371\024\276\351q\033\364\3664\364\377q\203\276\202"
 861      711BF4F6 
 861      34F4FF71 
 861      83BE82
 862 096a A277446D 		.ascii	"\242wDm\320?OC\377\302\015\372\213\032\372#6\350\247"
 862      D03F4F43 
 862      FFC20DFA 
 862      8B1AFA23 
 862      36E8A7
 863 097d D2D04FBB 		.ascii	"\322\320O\273A\337\244\031\376j\033\364\257\322\320"
 863      41DFA419 
 863      FE6A1BF4 
 863      AFD2D0
 864 098c BF7683BE 		.ascii	"\277v\203\276\203\242\267\316\264s\353\2314\370\263"
 864      83A2B7CE 
 864      B473EB99 
 864      34F8B3
 865 099b 6EE05B28 		.ascii	"n\340[(|\327\177\330\240\237KC\357t\203~\214\242\267"
 865      7CD77FD8 
 865      A09F4B43 
 865      EF74837E 
 865      8CA2B7
 866 09ae 5C6B837E 		.ascii	"\\k\203~>\015\375;7\350'5\323\304l\320/\244\241_t\203"
 866      3E0DFD3B 
 866      37E82735 
 866      D3C46CD0 
 866      2FA4A15F 
 867 09c4 7E4E0B9A 		.ascii	"~N\013\232\240\015zW\032\372\217\351\350\237\314\231"
 867      A00D7A57 
 867      1AFA8FE9 
 867      E89FCC99 
 868 09d4 33AD36BD 		.ascii	"3\2556\275\222\312\341\236\3043\310\377\225z\202\177"
 868      92CAE19E 
 868      C433C8FF 
 868      957A827F 
 869 09e4 D4760699 		.ascii	"\324v\006\231\214\243\237\360\344\000\263T\216\365\026"
 869      8CA39FF0 
 869      E400B354 
 869      8EF516
 870 09f3 1EF4053A 		.ascii	"\036\364\005:\372j\327\364\322v\355$\3451tw}0\316\""
 870      FA6AD7F4 
 870      D276ED24 
 870      E5317477 
 870      7D30CE22 
 871 0a07 3786A567 		.ascii	"7\206\245g\266\023\230\0164\335\223\307\022\242\375"
 871      B613980E 
 871      34DD93C7 
 871      12A2FD
 872 0a16 65819B9E 		.ascii	"e\201\233\236\243Z\364\333]\033\276\256\366p\034\373"
 872      A35AF4DB 
 872      5D1BBEAE 
 872      F6701CFB 
 873 0a26 E1931E1B 		.ascii	"\341\223\036\033\263\251N\251\247\020\355\327\350\305"
ARM GAS  /tmp/ccv0K2b2.s 			page 68


 873      B3A94EA9 
 873      A710EDD7 
 873      E8C5
 874 0a34 9FB213CF 		.ascii	"\237\262\023\317\244i\230i4\004\032M\360:EvS\026u\027"
 874      A4699869 
 874      34041A4D 
 874      F03A4576 
 874      53167517 
 875 0a48 87EA69CC 		.ascii	"\207\352i\314\312\200\006\032\262Y\363\230m\344\001"
 875      CA80061A 
 875      B259F398 
 875      6DE401
 876 0a57 EDA68FDC 		.ascii	"\355\246\217\334d<S:\317\203F\315\255\224\367\327\007"
 876      643C533A 
 876      CF8346CD 
 876      AD94F7D7 
 876      07
 877 0a68 369CBEE0 		.ascii	"6\234\276\340SI\373t\3030|\317\316\224\372h\267\034"
 877      5349FB74 
 877      C3307CCF 
 877      CE94FA68 
 877      B71C
 878 0a7a 5DD1CD1F 		.ascii	"]\321\315\037\224X#\236i5\217\025\324up\246\267\310"
 878      9458239E 
 878      69358F15 
 878      D47570A6 
 878      B7C8
 879 0a8c 83BAE10D 		.ascii	"\203\272\341\015\271*\275\213G\347\235_L\351m\026\014"
 879      B92ABD8B 
 879      47E79D5F 
 879      4CE96D16 
 879      0C
 880 0a9d 3B150C03 		.ascii	";\025\014\003,\275\215\014A\367)\005mj\234\250\207Y"
 880      2CBD8D0C 
 880      41F72905 
 880      6D6A9CA8 
 880      8759
 881 0aaf DA5321B3 		.ascii	"\332S!\263\334\350*4\333\242\017\231NJ\343\344\321\327"
 881      DCE82A34 
 881      DBA20F99 
 881      4E4AE3E4 
 881      D1D7
 882 0ac1 BE33C6FE 		.ascii	"\2763\306\376s=\305d\245\221\011*\253z&\251^Z)<2A\317"
 882      733DC564 
 882      A591092A 
 882      AB7A26A9 
 882      5E5A293C 
 883 0ad8 63B57D19 		.ascii	"c\265}\031Dz\012\334\234^\214*\006\223\256\315@\021"
 883      447A0ADC 
 883      9C5E8C2A 
 883      0693AECD 
 883      4011
 884 0aea FBE1F73A 		.ascii	"\373\341\367:\347b\270\204\022\251\333\272\245EW\037"
 884      E762B884 
 884      12A9DBBA 
 884      A545571F 
 885 0afa 06F9177B 		.ascii	"\006\371\027{\214\311z3&\202\276$\246\246\247\006\274"
ARM GAS  /tmp/ccv0K2b2.s 			page 69


 885      8CC97A33 
 885      2682BE24 
 885      A6A6A706 
 885      BC
 886 0b0b C09444FD 		.ascii	"\300\224D\375h\236\015\365:\\\022\327R\352\215u\033"
 886      689E0DF5 
 886      3A5C12D7 
 886      52EA8D75 
 886      1B
 887 0b1c F79138CE 		.ascii	"\367\2218\316\030\3535\214\365\252f\206\025\037\356"
 887      18EB358C 
 887      F5AA6686 
 887      151FEE
 888 0b2b F2A806F0 		.ascii	"\362\250\006\360\030\012\265G_\250=\264P{p\241\326E"
 888      180AB547 
 888      5FA83DB4 
 888      507B70A1 
 888      D645
 889 0b3d A4CBCF75 		.ascii	"\244\313\317u\336\330\254\3218\225\346\215Mn\002k\037"
 889      DED8ACD1 
 889      3895E68D 
 889      4D6E026B 
 889      1F
 890 0b4e 135873CF 		.ascii	"\023Xs\317\033\313H\203=\304L\014\361\001C\302P3ov#"
 890      1BCB4883 
 890      3DC44C0C 
 890      F10143C2 
 890      50336F76 
 891 0b63 7FBA577A 		.ascii	"\177\272Wz\207E\021\337\352\246y\372Ask\315\307W\353"
 891      874511DF 
 891      EAA679FA 
 891      41736BCD 
 891      C757EB
 892 0b76 01B6BBC9 		.ascii	"\001\266\273\311\377\351<\312\177\306\235z\371\306\014"
 892      FFE93CCA 
 892      7FC69D7A 
 892      F9C60C
 893 0b85 021A35F7 		.ascii	"\002\0325\3676S.6M\275\332k\320\027\264<\255\312\230"
 893      36532E36 
 893      4DBDDA6B 
 893      D017B43C 
 893      ADCA98
 894 0b98 17635904 		.ascii	"\027cY\004\371\267\335\330e]\236\346\331\263\223\364"
 894      F9B7DDD8 
 894      655D9EE6 
 894      D9B393F4 
 895 0ba8 00BBDC84 		.ascii	"\000\273\334\204F\003\005\350\274N/\276\273\307\314"
 895      460305E8 
 895      BC4E2FBE 
 895      BBC7CC
 896 0bb7 B2D7B916 		.ascii	"\262\327\271\026\177\233\322h3\320\330\337S5\370\001"
 896      7F9BD268 
 896      33D0D8DF 
 896      5335F801 
 897 0bc7 230B5461 		.ascii	"#\013Ta\350Y\034\312\323\332\311\015\227\014%\355\240"
 897      E8591CCA 
 897      D3DAC90D 
ARM GAS  /tmp/ccv0K2b2.s 			page 70


 897      970C25ED 
 897      A0
 898 0bd8 9EC88DDC 		.ascii	"\236\310\215\334\312\324\316ChQ%\365\311\245K\375\324"
 898      CAD4CE43 
 898      685125F5 
 898      C9A54BFD 
 898      D4
 899 0be9 2DCFC729 		.ascii	"-\317\307)\304\326\223g#\346\323\265\010\3550A\273\215"
 899      C4D69367 
 899      23E6D3B5 
 899      08ED3041 
 899      BB8D
 900 0bfb DB90AABE 		.ascii	"\333\220\252\276W\221&\263\260\352#\274R\243\314\011"
 900      579126B3 
 900      B0EA23BC 
 900      52A3CC09 
 901 0c0b 3FC65D48 		.ascii	"?\306]H\345\030:\000\350\265\265\266\357j\235E\376_"
 901      E5183A00 
 901      E8B5B5B6 
 901      EF6A9D45 
 901      FE5F
 902 0c1d B89B95CF 		.ascii	"\270\233\225\317=A\376\220\347FN7\331\213\277F3\316"
 902      3D41FE90 
 902      E7464E37 
 902      D98BBF46 
 902      33CE
 903 0c2f 380F45D0 		.ascii	"8\017E\320Q\302L\177e\341\345#\252\177G\221\305j\015"
 903      51C24C7F 
 903      65E1E523 
 903      AA7F4791 
 903      C56A0D
 904 0c42 1EE91BD4 		.ascii	"\036\351\033\324G\302d\365\305J}\023j\3070\265u\202"
 904      47C264F5 
 904      C54A7D13 
 904      6AC730B5 
 904      7582
 905 0c54 7B65CC24 		.ascii	"{e\314$8e\275\007Q\254W\346\267\225\245\237\276\034"
 905      3865BD07 
 905      51AC57E6 
 905      B795A59F 
 905      BE1C
 906 0c66 B3BA63A1 		.ascii	"\263\272c\241\356\011\252n\273\235\272\237\366\210\272"
 906      EE09AA6E 
 906      BB9DBA9F 
 906      F688BA
 907 0c75 273256D7 		.ascii	"'2V\327L\302\265\272P\314R\265\212\272fkp\237h[ro\341"
 907      4CC2B5BA 
 907      50CC52B5 
 907      8ABA666B 
 907      709F685B 
 908 0c8c F4CDE729 		.ascii	"\364\315\347)\017\262M{\236Vg/=\252\3375o\207$pg\260"
 908      0FB24D7B 
 908      9E56672F 
 908      3DAADF35 
 908      6F872470 
 909 0ca2 E4571EB3 		.ascii	"\344W\036\263\025O\364\224S\253\254wV\231\015\326\330"
 909      154FF494 
ARM GAS  /tmp/ccv0K2b2.s 			page 71


 909      53ABAC77 
 909      56990DD6 
 909      D8
 910 0cb3 054FD3FC 		.ascii	"\005O\323\3744\007]k`~\0263\277H\231\267\254(\260\341"
 910      34075D6B 
 910      607E1633 
 910      BF4899B7 
 910      AC28B0E1 
 911 0cc7 ADC7C183 		.ascii	"\255\307\301\203wS\316\235\014\347\366ef\013\374~\223"
 911      7753CE9D 
 911      0CE7F665 
 911      660BFC7E 
 911      93
 912 0cd8 35DA27F3 		.ascii	"5\332'\363y\202\330\261L[\212\313v\221VY\336\233M1;"
 912      7982D8B1 
 912      4C5B8ACB 
 912      76915659 
 912      DE9B4D31 
 913 0ced AF35AF3C 		.ascii	"\2575\257<\364\025\225\031\242\272\326\336\214Y.\244"
 913      F4159519 
 913      A2BAD6DE 
 913      8C592EA4 
 914 0cfd 884DD765 		.ascii	"\210M\327e\202Xl\302QYH^F\021\333\226\367\324\366\313"
 914      82586CC2 
 914      5159485E 
 914      4611DB96 
 914      F7D4F6CB 
 915 0d11 3514B3DD 		.ascii	"5\024\263\335\201\245\363\256^\005\361e\212\330\345"
 915      81A5F3AE 
 915      5E05F165 
 915      8AD8E5
 916 0d20 8068BA0B 		.ascii	"\200h\272\0132\375`\203'\310\377\303\323\237\203\274"
 916      32FD6083 
 916      27C8FFC3 
 916      D39F83BC 
 917 0d30 CE7BD082 		.ascii	"\316{\320\202\340\367\370\367\"\376\355\302\277?\341"
 917      E0F7F8F7 
 917      22FEEDC2 
 917      BF3FE1
 918 0d3f DF949759 		.ascii	"\337\224\227Y(l\310W\013M\353A-\\\0141\352\034/\326"
 918      286CC857 
 918      0B4DEB41 
 918      2D5C0C31 
 918      EA1C2FD6 
 919 0d53 C5E6DFA9 		.ascii	"\305\346\337\2514\372\037,\266\324\374\315\213\"a{>"
 919      34FA1F2C 
 919      B6D4FCCD 
 919      8B22617B 
 919      3E
 920 0d64 9DF13A60 		.ascii	"\235\361:`Sj\3640x\202\302kVh\320S\265\320t\3557+4\336"
 920      536AF430 
 920      7882C26B 
 920      5668D053 
 920      B5D074ED 
 921 0d7c 8CFE8340 		.ascii	"\214\376\203@3\304\225\006\37231\375#\224~\323\336\213"
 921      33C49506 
 921      FA3331FD 
ARM GAS  /tmp/ccv0K2b2.s 			page 72


 921      23947ED3 
 921      DE8B
 922 0d8e BC357F03 		.ascii	"\2745\177\003\020\014\204\261`\215\251\0225\254\022"
 922      100C84B1 
 922      608DA912 
 922      35AC12
 923 0d9d 7BCDFED7 		.ascii	"{\315\376\327\306\247\213\255\031^\024[g(b\323\276\356"
 923      C6A78BAD 
 923      195E145B 
 923      672862D3 
 923      BEEE
 924 0daf FFAF8D82 		.ascii	"\377\257\215\202\371=\305lq\330\341\255G\324\225\200"
 924      F93DC56C 
 924      71D8E1AD 
 924      47D49580 
 925 0dbf D4B4D400 		.ascii	"\324\264\324\000\277:\324J\365V\021[\367i\001\247\037"
 925      BF3AD44A 
 925      F556115B 
 925      F76901A7 
 925      1F
 926 0dd0 5439D726 		.ascii	"T9\327&&\356\313\244W\367\2547\233\305d\326\373\213"
 926      26EECBA4 
 926      57F7AC37 
 926      9BC564D6 
 926      FB8B
 927 0de2 B1799EEA 		.ascii	"\261y\236\352M;\240{\324F\305\320\341BY\331LUx\015S"
 927      4D3BA07B 
 927      D446C5D0 
 927      E14259D9 
 927      4C55780D 
 928 0df7 27F4487B 		.ascii	"'\364H{'p\363\250\351\332\3669\355\262p\2566\361R\353"
 928      2770F3A8 
 928      E9DAF639 
 928      EDB270AE 
 928      36F152EB 
 929 0e0b 120AD9E1 		.ascii	"\022\012\331\341\0303\246\265f\372\301\006u\220\237"
 929      1833A6B5 
 929      66FAC106 
 929      75909F
 930 0e1a E3EDCFF9 		.ascii	"\343\355\317\371\202\374\\/\252y\346\343\337\005\370"
 930      82FC5C2F 
 930      AA79E6E3 
 930      DF05F8
 931 0e29 7711FE7D 		.ascii	"w\021\376}N\253\213\254\215\204B\221\202\317\363\012"
 931      4EAB8BAC 
 931      8D844291 
 931      82CFF30A 
 932 0e39 A4F037FD 		.ascii	"\244\3607\375\241'b<\310?C\021[3B\324\031\225\211\361"
 932      A127623C 
 932      C83F4311 
 932      5B3342D4 
 932      199589F1 
 933 0e4d 20BF9022 		.ascii	" \277\220\"\266\267t#\306u\345f%\366\024\306\034\221"
 933      B6B77423 
 933      C675E566 
 933      25F614C6 
 933      1C91
ARM GAS  /tmp/ccv0K2b2.s 			page 73


 934 0e5f 09621F6B 		.ascii	"\011b\037k?=\311\370\251\032\374\344\015\362Oa\257\254"
 934      3F3DC9F8 
 934      A91AFCE4 
 934      0DF24F61 
 934      AFAC
 935 0e71 C4BFABF0 		.ascii	"\304\277\253\360\357j\266\265x\245\267\332Zt\376\321"
 935      EF6AB6B5 
 935      78A5B7DA 
 935      5A74FED1 
 936 0e81 BC66366F 		.ascii	"\274f6o\276\322\343/\343)\323u^d\205M\264\3005,\\\336"
 936      BED2E32F 
 936      E329D375 
 936      5E64854D 
 936      B4C0352C 
 937 0e97 EDCDA5DB 		.ascii	"\355\315\245\333\251:\2155\213\336s\330\024j\272\215"
 937      A93A8D35 
 937      8BDE73D8 
 937      146ABA8D 
 938 0ea7 D0CCAC5F 		.ascii	"\320\314\254_1\015\3627\036\274?\354\014nx\247a\203"
 938      310DF237 
 938      1EBC3FEC 
 938      0C6E78A7 
 938      6183
 939 0eb9 3ECF1AF4 		.ascii	">\317\032\364 \325\247\345\313\015Z\363\253\357\332"
 939      20D5A7E5 
 939      CB0D5AF3 
 939      ABEFDA
 940 0ec8 E2BEB697 		.ascii	"\342\276\266\227\216#Q/\373\357Z/[\335\017\262\247\200"
 940      8E23512F 
 940      FBEF5A2F 
 940      5BDD0FB2 
 940      A780
 941 0eda D63C3BED 		.ascii	"\326<;\355\377%\215Tx&\365\216\206\245\373\1774\350"
 941      FF258D54 
 941      7826F58E 
 941      86A5FB7F 
 941      34E8
 942 0eec 5B7A2FB3 		.ascii	"[z/\263\320\027\232@\252\303\267\273\276\335\370T@\223"
 942      D0179A40 
 942      AAC3B7BB 
 942      BEDDF854 
 942      4093
 943 0efe FABB9E74 		.ascii	"\372\273\236t\255\031i\375\274\273\241\231D \033\274"
 943      AD1969FD 
 943      BCBBA199 
 943      44201BBC 
 944 0f0e 99EF62D9 		.ascii	"\231\357b\331\350\315\245\336\322\357b\361R\332\357"
 944      E8CDA5DE 
 944      D2EF62F1 
 944      52DAEF
 945 0f1d 52DA1D2F 		.ascii	"R\332\035/\277\304\333\020\330d0\375N:\236\2630\275"
 945      BFC4DB10 
 945      D86430FD 
 945      4E3A9EB3 
 945      30BD
 946 0f2f BAAD17E2 		.ascii	"\272\255\027\342\326v\213\346\207\300\300\305>\305 "
 946      D6768BE6 
ARM GAS  /tmp/ccv0K2b2.s 			page 74


 946      87C0C0C5 
 946      3EC520
 947 0f3e BF05D727 		.ascii	"\277\005\327'[M\373\012[\231\276B\333\"\277\211\207"
 947      5B4DFB0A 
 947      5B99BE42 
 947      DB22BF89 
 947      87
 948 0f4f BCBA3AEF 		.ascii	"\274\272:\357\224\362\237[Xy$\333\376\235\305\326\000"
 948      94F29F5B 
 948      587924DB 
 948      FE9DC5D6 
 948      00
 949 0f60 B7D5A8A1 		.ascii	"\267\325\250\241\275;n\271\302\200X\356\3602;\021OS"
 949      BD3B6EB9 
 949      C28058EE 
 949      F0323B11 
 949      4F53
 950 0f72 121D47FD 		.ascii	"\022\035G\375Y\327\274D\257\035\270A>K!;\035\324r\376"
 950      59D7BC44 
 950      AF1DB841 
 950      3E4B213B 
 950      1DD472FE 
 951 0f86 EF4305F1 		.ascii	"\357C\005\361\"E\354\312\010\261X\347\003\265\254A\025"
 951      2245ECCA 
 951      08B158E7 
 951      03B5AC41 
 951      15
 952 0f97 BB1DD702 		.ascii	"\273\035\327\002\215\370\367M\374"
 952      8DF8F74D 
 952      FC
 953 0fa0 FBB67323 		.ascii	"\373\266s#h0\362f\257\335,\316.\257n\201\206\201M\033"
 953      6830F266 
 953      AFDD2CCE 
 953      2EAF6E81 
 953      86814D1B 
 954 0fb4 7BB2E510 		.ascii	"{\262\345\020\211Y~\010\003\267,\312\341n\313r\310\006"
 954      89597E08 
 954      03B72CCA 
 954      E16ECB72 
 954      C806
 955 0fc6 AAF61DDA 		.ascii	"\252\366\035\332JZ\300\354\021\373\356\351\245Vc\022"
 955      4A5AC0EC 
 955      11FBEEE9 
 955      A5566312 
 956 0fd6 24B6C7AB 		.ascii	"$\266\307\253\237 i\000\212\001\315\245h~\243H\321\213"
 956      9F206900 
 956      8A01CDA5 
 956      687EA348 
 956      D18B
 957 0fe8 4725F70C 		.ascii	"G%\367\014;\023\263\031w\337g\321\334\232Vh\375\037"
 957      3B13B319 
 957      77DF67D1 
 957      DC9A5668 
 957      FD1F
 958 0ffa 93B99816 		.ascii	"\223\271\230\026\310\352"
 958      C8EA
 959 1000 7A6E61C1 		.ascii	"zna\301\362T\216.K\004C\234\212\263s\265U\257Z\253\337"
ARM GAS  /tmp/ccv0K2b2.s 			page 75


 959      F2548E2E 
 959      4B04439C 
 959      8AB373B5 
 959      55AF5AAB 
 960 1015 6F20F887 		.ascii	"o \370\207\263\260\356\021K\353\252\301g-{H\213\021"
 960      B3B0EE11 
 960      4BEBAAC1 
 960      672D7B48 
 960      8B11
 961 1027 FE7A6E1D 		.ascii	"\376zn\035\350\265\370^\302B\231\275PB\224L\021\241"
 961      E8B5F85E 
 961      C24299BD 
 961      5042944C 
 961      11A1
 962 1039 A2C02B7B 		.ascii	"\242\300+{&Z\257\307/Q\344\366\325\012\264\022\304\372"
 962      265AAFC7 
 962      2F51E4F6 
 962      D50AB412 
 962      C4FA
 963 104b AFD13682 		.ascii	"\257\3216\202\366\353q\026]\313=\014\033\336\215g\366"
 963      F6EB7116 
 963      5DCB3D0C 
 963      1BDE8D67 
 963      F6
 964 105c 52CFB49F 		.ascii	"R\317\264\237\266\365\314\373\206 \310\312#{4\334\276"
 964      B6F5CCFB 
 964      8620C8CA 
 964      237B34DC 
 964      BE
 965 106d 04B72D0B 		.ascii	"\004\267-\013\217|h\351\021u\213\275\265\354q\235G\216"
 965      8F7C68E9 
 965      11758BBD 
 965      B5EC719D 
 965      478E
 966 107f 108F6016 		.ascii	"\020\217`\026\035\247\255<\202\366\310tNp\353\021\264"
 966      1DA7AD3C 
 966      82F6C874 
 966      4E70EB11 
 966      B4
 967 1090 39A2A912 		.ascii	"9\242\251\022g\321\276\202\365\210\340\306#\035\324"
 967      67D1BE82 
 967      F588E0C6 
 967      231DD4
 968 109f 231D176C 		.ascii	"#\035\027l=\362YOx\304\004\367\363,<\362\205\245G\324"
 968      3DF2594F 
 968      78C404F7 
 968      F32C3CF2 
 968      85A547D4 
 969 10b3 7FF0B796 		.ascii	"\177\360\267\226=\251\363\310?\210G0\213\316\013V\036"
 969      3DA9F3C8 
 969      3F884730 
 969      8BCE0B56 
 969      1E
 970 10c4 417BA2BA 		.ascii	"A{\242\272\246\270\365\010\332\014\323\362\030\316\242"
 970      A6B8F508 
 970      DA0CD3F2 
 970      18CEA2
ARM GAS  /tmp/ccv0K2b2.s 			page 76


 971 10d3 43E7118F 		.ascii	"C\347\021\217\033\217L/\244\303\317\352\325\327\331"
 971      1B8F4C2F 
 971      A4C3CFEA 
 971      D5D7D9
 972 10e2 58EEEB9E 		.ascii	"X\356\353\236\360\310\013\032\356U\004\367\333,<r\316"
 972      F0C80B1A 
 972      EE5504F7 
 972      DB2C3C72 
 972      CE
 973 10f3 D223573A 		.ascii	"\322#W:z\344\254\316#\263\013\025\217`\026\355\325\237"
 973      7AE4ACCE 
 973      23B30B15 
 973      8F6016ED 
 973      D59F
 974 1105 F1162E41 		.ascii	"\361\026.A\233\340:\360\372\245+\237\240\315U]d\271"
 974      9BE03AF0 
 974      FAA52B9F 
 974      A0CD555D 
 974      64B9
 975 1117 B34BE714 		.ascii	"\263K\347\024\257\033\247\254\245N\351z\332\326)\027"
 975      AF1BA7AC 
 975      A54EE97A 
 975      DAD62917 
 976 1127 7AC2293B 		.ascii	"z\302);yC\025\023\344\177\314\302)?Y:\345\237\034\235"
 976      79431513 
 976      E47FCCC2 
 976      293F593A 
 976      E59F1C9D 
 977 113b D2A5734A 		.ascii	"\322\245sJ\035q\012f\3214\313\322)h\337c\313,\327NA"
 977      1D710A66 
 977      D134CBD2 
 977      2968DF63 
 977      CB2CD74E 
 978 1150 FBE9DA66 		.ascii	"\373\351\332f)Niz\216u\212\317\215SvS\247\264,\263u"
 978      294E697A 
 978      8E758ACF 
 978      8D537653 
 978      A7B42CB3 
 979 1165 CADF7C3D 		.ascii	"\312\337|=\340\024\223AD\265/s\247<\345\263r\312\025"
 979      E0149341 
 979      44B52F73 
 979      A73CE5B3 
 979      72CA15
 980 1178 8E4E79D2 		.ascii	"\216Ny\322\307:\345\020q\012f\321\272\314\322)h\257"
 980      C73AE510 
 980      710A66D1 
 980      BACCD229 
 980      68AF
 981 118a 6BDB32D7 		.ascii	"k\3332\327NA;o;\226)Ni\3219\305\217\257hG\324\320}E"
 981      4E413B6F 
 981      3B96294E 
 981      69D139C5 
 981      8FAF6847 
 982 11a2 2B3DD6D4 		.ascii	"+=\326\324gi\324\015r\257@LY\313\325X\312\241\275[\326"
 982      6769D40D 
 982      72AF404C 
 982      59CBD558 
ARM GAS  /tmp/ccv0K2b2.s 			page 77


 982      CAA1BD5B 
 983 11b7 72B32DE5 		.ascii	"r\263-\3456\330\3467\307Rn\246m~s-\345R\266r\363,\345"
 983      36D8E637 
 983      C7526EA6 
 983      6D7E732D 
 983      E552B672 
 984 11ce 96DBCACD 		.ascii	"\226\333\312\315\267\224[o+\367\214\245\334J[\271\005"
 984      B7945B6F 
 984      2BF78CA5 
 984      DC4A5BB9 
 984      05
 985 11df 9672EB6C 		.ascii	"\226r\353l\345\026jrV\005k\030\025\012\020\241E\244"
 985      E5166A72 
 985      56056B18 
 985      150A10A1 
 985      45A4
 986 11f1 5C316308 		.ascii	"\\1c\010C\246;m3]lIv\257\255\334\263\226r\007l\345\226"
 986      43A63B6D 
 986      335D6C49 
 986      76AFADDC 
 986      B3967207 
 987 1208 68729C37 		.ascii	"hr\2347R\036\226\256\214\304ce\025rE<\026\232\030\226"
 987      521E96AE 
 987      8CC46365 
 987      1572453C 
 987      169A1896 
 988 121c 2AC2632A 		.ascii	"*\302c*\305\220\354\377\335\310?\025\017\347\212\007"
 988      C590ECFF 
 988      DDC83F15 
 988      0FE78A07 
 989 122c 0D2A51FE 		.ascii	"\015*Q\376\342\311\022I.\251\210E*\253\312\304\222H"
 989      E2C91249 
 989      2EA98845 
 989      2AABCAC4 
 989      9248
 990 123e 39121A54 		.ascii	"9\022\032T\316]\236.\\(\227Kb\270,\031z\264J\254\002"
 990      CE5D9E2E 
 990      5C28974B 
 990      62B82C19 
 990      7AB44AAC 
 991 1253 286B8C64 		.ascii	"(k\214d\244\034a\370\025\001\177\"\024\023'\313pJH\342"
 991      A41C61F8 
 991      15017F22 
 991      141327CB 
 991      704A48E2 
 992 1267 C4809C90 		.ascii	"\304\200\234\220*\342!y\210A:\021\227\344d\311}\243"
 992      2AE22179 
 992      88413A11 
 992      97E464C9 
 992      7DA3
 993 1279 460C1F31 		.ascii	"F\014\0371\271$\022\217&**E)Y\362\273\341\303\001P\236"
 993      B924128F 
 993      262A2A45 
 993      2959F2BB 
 993      E1C30150 
 994 128e 92109380 		.ascii	"\222\020\223\200\230SU\021\223o\2735$\313%\361\204\214"
 994      98535511 
ARM GAS  /tmp/ccv0K2b2.s 			page 78


 994      936FBB35 
 994      24CB25F1 
 994      848C
 995 12a0 BE2E1917 		.ascii	"\276.\031\027\211\014\014K\321\201\261xL\034(\206\307"
 995      890C0C4B 
 995      D181B178 
 995      4C1C2886 
 995      C7
 996 12b1 540C1C12 		.ascii	"T\014\034\022\032:\360\326\301\245\267=z[\311\230\212"
 996      1A3AF0D6 
 996      C1A5B73D 
 996      7A5BC998 
 996      8A
 997 12c2 18CAA1B2 		.ascii	"\030\312\241\262b\014\372\256D\367]\311\220AC\007\015"
 997      620CFAAE 
 997      44F75DC9 
 997      90414307 
 997      0D
 998 12d3 29A134E0 		.ascii	")\2414\340O\377^\325')\227A\256H\037\244AE<\000\246"
 998      4FFF5ED5 
 998      27299741 
 998      AE481FA4 
 998      41453C00 
 999 12e8 9141A1FE 		.ascii	"\221A\241\376\266\032\200!%\021\204\362\320\343\020"
 999      B61A8021 
 999      251184F2 
 999      D0E310
 1000 12f7 0044E4C9 		.ascii	"\000D\344\31179K\204&\016\215\"E%q\034\260\011\311\202"
 1000      37394B84 
 1000      260E8D22 
 1000      4525711C 
 1000      B009C982 
 1001 130b 3444906E 		.ascii	"4D\220n\027\244;\004i\250 \015\023\244;=R\351`H\245"
 1001      17A43B04 
 1001      69A8200D 
 1001      13A43B3D 
 1001      52E96048 
 1002 1320 42A504A7 		.ascii	"B\245\004\247\333|\211\020 \007\220\215'\211\022\234"
 1002      DB7C8910 
 1002      2007908D 
 1002      2789129C 
 1003 1330 E39565A2 		.ascii	"\343\225e\242\204l\036\216\2129rR\016\313\340\253\000"
 1003      846C1E8E 
 1003      8A397252 
 1003      0ECBE0AB 
 1003      00
 1004 1341 32DC3038 		.ascii	"2\33408'B\370I@\216\306\313D|?\2662<.\031\220%ql2\204"
 1004      2742F849 
 1004      408EC6CB 
 1004      447C3FB6 
 1004      323C2E19 
 1005 135b 9C842E7C 		.ascii	"\234\204.|\321\3448xI\214\355\227\312\246\300\203\034"
 1005      D1E43878 
 1005      498CED97 
 1005      CAA6C083 
 1005      1C
 1006 136c 7172851C 		.ascii	"qr\205\034\0011\377$9>f|\"O\234(\306\344h89\001>\021"
ARM GAS  /tmp/ccv0K2b2.s 			page 79


 1006      0131FF24 
 1006      393E667C 
 1006      224F9C28 
 1006      C6E46838 
 1007 1384 27A10B4F 		.ascii	"'\241\013O\"TU\240\206IeER\016\311\271\211\320\2440"
 1007      225455A0 
 1007      86496545 
 1007      520EC9B9 
 1007      89D0A430 
 1008 1398 04526C5C 		.ascii	"\004Rl\\\257D\010Pp\360\370\360%<\020\023\"\204Yl\234"
 1008      AF440850 
 1008      70F0F8F0 
 1008      253C1013 
 1008      2284596C 
 1009 13ad 2F5A0526 		.ascii	"/Z\005&\355g\031QQy2X%\020Ub\017\316\361I1\320\026K"
 1009      ED671951 
 1009      51793258 
 1009      25105562 
 1009      0FCEF149 
 1010 13c5 41EE511C 		.ascii	"A\356Q\034a\220\025|\207\262\355\205\324\010Wbo\301"
 1010      6190157C 
 1010      87B2ED85 
 1010      D4085762 
 1010      6FC1
 1011 13d7 C3443C5E 		.ascii	"\303D<^\031\210(\2629\012\275\322[\257\241\231\311b"
 1011      198828B2 
 1011      390ABDD2 
 1011      5BAFA199 
 1011      C962
 1012 13e9 5246D9A1 		.ascii	"RF\331\2413\312(\302\361\011\365\263\301\352Ei\200\\"
 1012      33CA28C2 
 1012      F109F5B3 
 1012      C1EA4569 
 1012      805C
 1013 13fb 900743C6 		.ascii	"\220\007C\306\250\027\341|\020\032\026\022'\213\021"
 1013      A817E17C 
 1013      101A1612 
 1013      278B11
 1014 140a A0D30BDF 		.ascii	"\240\323\013\337$E\271*\201.\207j\227wh\227\267k\227"
 1014      2445B92A 
 1014      812E876A 
 1014      97776897 
 1014      B76B97
 1015 141d 43B4CB52 		.ascii	"C\264\313R\3452\037\213\021\270|,\310\334\224\2627\267"
 1015      E5321F8B 
 1015      11B87C2C 
 1015      C8DC94B2 
 1015      37B7
 1016 142f B33743D4 		.ascii	"\2637C\324\033_\350\327\240\360U!\244O(\234L\212\020"
 1016      1B5FE8D7 
 1016      A0F05521 
 1016      A44F289C 
 1016      4C8A10
 1017 1442 804911B4 		.ascii	"\200I\021\264\217E\304\"S\255\301\266\227\341\257\221"
 1017      8F45C422 
 1017      53ADC1B6 
 1017      97E1AF91 
ARM GAS  /tmp/ccv0K2b2.s 			page 80


 1018 1452 AB42C481 		.ascii	"\253B\304\201\371\221\362\341P\011\214\256\030\027\013"
 1018      F991F2E1 
 1018      50098CAE 
 1018      18170B
 1019 1461 57FA9315 		.ascii	"W\372\223\025\217A\274<\322c\345\216)]e\342X\344\\y"
 1019      8F41BC3C 
 1019      D263E58E 
 1019      295D65E2 
 1019      58E45C79 
 1020 1475 6C552C12 		.ascii	"lU,\022\222\177n\031\004\204\027\"\033)\177\260\274"
 1020      927F6E19 
 1020      04841722 
 1020      1B297FB0 
 1020      BC
 1021 1486 6C38DCCA 		.ascii	"l8\334\312\342h\210\347\212H^\244|\204<\371O\261\312"
 1021      E26888E7 
 1021      8A485EA4 
 1021      7C843CF9 
 1021      4FB1CA
 1022 1499 78644221 		.ascii	"xdB!VE\214\"U\342\023\304X.~\367\007x\323KQ\351a\320"
 1022      56458C22 
 1022      55E213C4 
 1022      582E7EF7 
 1022      0778D34B 
 1023 14b1 32373925 		.ascii	"279%)WDA'\\\251\224\336\021\222/\323\336>\010o\342U"
 1023      29574441 
 1023      275CA994 
 1023      DE11922F 
 1023      D3DE3E08 
 1024 14c8 722196FC 		.ascii	"r!\226\374\343\230\361bD~ V!\367Q\276\320\036\024*\017"
 1024      E398F162 
 1024      447E2056 
 1024      21F751BE 
 1024      D01E142A 
 1025 14dd 7E2DC5C3 		.ascii	"~-\305\303e\221p\022}0:R>J\204\032P,\253\252\024G\367"
 1025      65917012 
 1025      7D303A52 
 1025      3E4A841A 
 1025      502CABAA 
 1026 14f4 668DF840 		.ascii	"f\215\370@>\353\223\002\206\362}\225\225\371\314\355"
 1026      3EEB9302 
 1026      86F27D95 
 1026      95F9CCED 
 1027 1504 68E5E641 		.ascii	"h\345\346Ai\012a\015\332\216\256\024\305\204\020)\025"
 1027      690A610D 
 1027      DA8EAE14 
 1027      C5841029 
 1027      15
 1028 1515 A2B70AD1 		.ascii	"\242\267\012\321R\3207\2044\020\241\216\310\245\327"
 1028      52D03784 
 1028      3410A18E 
 1028      C8A5D7
 1029 1524 F9C84053 		.ascii	"\371\310@SH\311\013HJ\304\373%\\m\371$\\QH\244\242\220"
 1029      48C90B48 
 1029      4AC4FB25 
 1029      5C6DF924 
 1029      5C5148A4 
ARM GAS  /tmp/ccv0K2b2.s 			page 81


 1030 153a 948A2217 		.ascii	"\224\212\"\027\236VI\022\024d\237\204\304\256\232X!"
 1030      9E564912 
 1030      14649F84 
 1030      C4AE9A58 
 1030      21
 1031 154b C955E1CA 		.ascii	"\311U\341\312\020\262\215\244\026\342B\335\323\220\334"
 1031      10B28DA4 
 1031      16E242DD 
 1031      D390DC
 1032 155a 5B771F98 		.ascii	"[w\037\230(\343\362\207\316\250\212\317\201s\231X)\207"
 1032      28E3F287 
 1032      CEA88ACF 
 1032      81739958 
 1032      2987
 1033 156c E142F129 		.ascii	"\341B\361)z\203\256\374\350\213\260\224\007\247J\260"
 1033      7A83AEFC 
 1033      E88BB094 
 1033      07A74AB0 
 1034 157c 16928647 		.ascii	"\026\222\206G(\217\200$Gb\220\323\345Q1\234\254\222"
 1034      288F8024 
 1034      476290D3 
 1034      E551319C 
 1034      AC92
 1035 158e C428300A 		.ascii	"\304(0\012\305\307\216\205\022!D\312\205IaR\374\222"
 1035      C5C78E85 
 1035      122144CA 
 1035      85496152 
 1035      FC92
 1036 15a0 39C88260 		.ascii	"9\310\202`j\321\213*8\037.1\360,,\225A\225\020P\013"
 1036      6AD18B2A 
 1036      381F2E31 
 1036      F02C2C95 
 1036      41951050 
 1037 15b5 61222CCB 		.ascii	"a\",\313\242\024\203R\221CJui\237AR\274,,\207\007\251"
 1037      A2148352 
 1037      91434A75 
 1037      699F4152 
 1037      BC2C2C87 
 1038 15cb 0F6E1881 		.ascii	"\017n\030\201j\0171yK12\217T!O)\026c\310bP\037\025\243"
 1038      6A0F3179 
 1038      4B31328F 
 1038      54214F29 
 1038      1663C862 
 1039 15e3 8F385576 		.ascii	"\2178UvH\337\364O%\310X\212\321On\357C?A\025lU\222\276"
 1039      48DFF44F 
 1039      25C8588A 
 1039      D14F6EEF 
 1039      433F4115 
 1040 15fb B9E32A14 		.ascii	"\271\343*\024\000\017\205%x\203\243@\217=\264\210\276"
 1040      000F8525 
 1040      7883A340 
 1040      8F3DB488 
 1040      BE
 1041 160c 1EA34691 		.ascii	"\036\243F\221\376\213aWj_\304\343\352\333\377\005\323"
 1041      FE8B6157 
 1041      6A5FC4E3 
 1041      EADBFF05 
ARM GAS  /tmp/ccv0K2b2.s 			page 82


 1041      D3
 1042 161d 66F6C9   		.ascii	"f\366\311"
 1043              		.text
 1044              		.section	.gnu.lto_.symtab.1132f09afbc4ccff,"",%progbits
 1045 0000 5F746573 		.ascii	"_test_assert_sequence\000\000\002\000\000\000\000\000"
 1045      745F6173 
 1045      73657274 
 1045      5F736571 
 1045      75656E63 
 1046 001d 00000000 		.ascii	"\000\000\000\000\177\001\000\000test_wait_threads\000"
 1046      7F010000 
 1046      74657374 
 1046      5F776169 
 1046      745F7468 
 1047 0037 00020000 		.ascii	"\000\002\000\000\000\000\000\000\000\000\000\210\001"
 1047      00000000 
 1047      00000088 
 1047      01
 1048 0044 00006368 		.ascii	"\000\000chCondSignal\000\000\002\000\000\000\000\000"
 1048      436F6E64 
 1048      5369676E 
 1048      616C0000 
 1048      02000000 
 1049 005a 00000000 		.ascii	"\000\000\000\000\212\001\000\000chThdCreateStatic\000"
 1049      8A010000 
 1049      63685468 
 1049      64437265 
 1049      61746553 
 1050 0074 00020000 		.ascii	"\000\002\000\000\000\000\000\000\000\000\000\216\001"
 1050      00000000 
 1050      0000008E 
 1050      01
 1051 0081 00006368 		.ascii	"\000\000chMtxUnlock\000\000\002\000\000\000\000\000"
 1051      4D747855 
 1051      6E6C6F63 
 1051      6B000002 
 1051      00000000 
 1052 0096 00000000 		.ascii	"\000\000\000\000\234\001\000\000test_emit_token\000"
 1052      9C010000 
 1052      74657374 
 1052      5F656D69 
 1052      745F746F 
 1053 00ae 00020000 		.ascii	"\000\002\000\000\000\000\000\000\000\000\000\240\001"
 1053      00000000 
 1053      000000A0 
 1053      01
 1054 00bb 00006368 		.ascii	"\000\000chMtxLock\000\000\002\000\000\000\000\000\000"
 1054      4D74784C 
 1054      6F636B00 
 1054      00020000 
 1054      00000000 
 1055 00cf 000000A4 		.ascii	"\000\000\000\244\001\000\000chCondWait\000\000\002\000"
 1055      01000063 
 1055      68436F6E 
 1055      64576169 
 1055      74000002 
 1056 00e4 00000000 		.ascii	"\000\000\000\000\000\000\000\000\246\001\000\000chC"
ARM GAS  /tmp/ccv0K2b2.s 			page 83


 1056      00000000 
 1056      A6010000 
 1056      636843
 1057 00f3 6F6E6457 		.ascii	"ondWaitTimeout\000\000\002\000\000\000\000\000\000\000"
 1057      61697454 
 1057      696D656F 
 1057      75740000 
 1057      02000000 
 1058 010b 0000AA01 		.ascii	"\000\000\252\001\000\000chMtxObjectInit\000\000\002"
 1058      00006368 
 1058      4D74784F 
 1058      626A6563 
 1058      74496E69 
 1059 0123 00000000 		.ascii	"\000\000\000\000\000\000\000\000\000\265\001\000\000"
 1059      00000000 
 1059      00B50100 
 1059      00
 1060 0130 6368436F 		.ascii	"chCondObjectInit\000\000\002\000\000\000\000\000\000"
 1060      6E644F62 
 1060      6A656374 
 1060      496E6974 
 1060      00000200 
 1061 0149 000000B7 		.ascii	"\000\000\000\267\001\000\000chCondBroadcast\000\000"
 1061      01000063 
 1061      68436F6E 
 1061      6442726F 
 1061      61646361 
 1062 0161 02000000 		.ascii	"\002\000\000\000\000\000\000\000\000\000\271\001\000"
 1062      00000000 
 1062      0000B901 
 1062      00
 1063 016e 00636853 		.ascii	"\000chSchRescheduleS\000\000\002\000\000\000\000\000"
 1063      63685265 
 1063      73636865 
 1063      64756C65 
 1063      53000002 
 1064 0187 00000000 		.ascii	"\000\000\000\000\273\001\000\000chCondSignalI\000\000"
 1064      BB010000 
 1064      6368436F 
 1064      6E645369 
 1064      676E616C 
 1065 019e 02000000 		.ascii	"\002\000\000\000\000\000\000\000\000\000\275\001\000"
 1065      00000000 
 1065      0000BD01 
 1065      00
 1066 01ab 005F7465 		.ascii	"\000_test_assert\000\000\002\000\000\000\000\000\000"
 1066      73745F61 
 1066      73736572 
 1066      74000002 
 1066      00000000 
 1067 01c1 000000BF 		.ascii	"\000\000\000\277\001\000\000chMtxUnlockAll\000\000\002"
 1067      01000063 
 1067      684D7478 
 1067      556E6C6F 
 1067      636B416C 
 1068 01d9 00000000 		.ascii	"\000\000\000\000\000\000\000\000\000\304\001\000\000"
 1068      00000000 
ARM GAS  /tmp/ccv0K2b2.s 			page 84


 1068      00C40100 
 1068      00
 1069 01e6 63684D74 		.ascii	"chMtxUnlockS\000\000\002\000\000\000\000\000\000\000"
 1069      78556E6C 
 1069      6F636B53 
 1069      00000200 
 1069      00000000 
 1070 01fc 0000C601 		.ascii	"\000\000\306\001\000\000chMtxTryLock\000\000\002\000"
 1070      00006368 
 1070      4D747854 
 1070      72794C6F 
 1070      636B0000 
 1071 0212 00000000 		.ascii	"\000\000\000\000\000\000\000\000\310\001\000\000chT"
 1071      00000000 
 1071      C8010000 
 1071      636854
 1072 0221 6864536C 		.ascii	"hdSleep\000\000\002\000\000\000\000\000\000\000\000"
 1072      65657000 
 1072      00020000 
 1072      00000000 
 1072      0000
 1073 0233 00CC0100 		.ascii	"\000\314\001\000\000patternmtx\000\000\000\000\000\000"
 1073      00706174 
 1073      7465726E 
 1073      6D747800 
 1073      00000000 
 1074 0248 00000000 		.ascii	"\000\000\000\000\000\0005\002\000\000testmtx1\000\000"
 1074      00003502 
 1074      00007465 
 1074      73746D74 
 1074      78310000 
 1075 025c 00000000 		.ascii	"\000\000\000\000\000\000\000\000\000\000K\002\000\000"
 1075      00000000 
 1075      00004B02 
 1075      0000
 1076 026a 74657374 		.ascii	"testmtx4\000\000\000\000\000\000\000\000\000\000\000"
 1076      6D747834 
 1076      00000000 
 1076      00000000 
 1076      000000
 1077 027d 00570200 		.ascii	"\000W\002\000\000testmtx5\000\000\000\000\000\000\000"
 1077      00746573 
 1077      746D7478 
 1077      35000000 
 1077      00000000 
 1078 0291 00000000 		.ascii	"\000\000\000\000\000b\002\000\000testmtx6\000\000\000"
 1078      00620200 
 1078      00746573 
 1078      746D7478 
 1078      36000000 
 1079 02a5 00000000 		.ascii	"\000\000\000\000\000\000\000\000\000m\002\000\000te"
 1079      00000000 
 1079      006D0200 
 1079      007465
 1080 02b4 73746D74 		.ascii	"stmtx7\000\000\000\000\000\000\000\000\000\000\000\000"
 1080      78370000 
 1080      00000000 
ARM GAS  /tmp/ccv0K2b2.s 			page 85


 1080      00000000 
 1080      0000
 1081 02c6 78020000 		.ascii	"x\002\000\000testmtx8\000\000\000\000\000\000\000\000"
 1081      74657374 
 1081      6D747838 
 1081      00000000 
 1081      00000000 
 1082 02da 00000000 		.ascii	"\000\000\000\000\203\002\000\000ch\000\000\002\000\000"
 1082      83020000 
 1082      63680000 
 1082      020000
 1083 02e9 00000000 		.ascii	"\000\000\000\000\000\000\000\351\001\000\000wa\000\000"
 1083      000000E9 
 1083      01000077 
 1083      610000
 1084 02f8 02000000 		.ascii	"\002\000\000\000\000\000\000\000\000\000,\002\000\000"
 1084      00000000 
 1084      00002C02 
 1084      0000
 1085 0306 74687265 		.ascii	"threads\000\000\002\000\000\000\000\000\000\000\000"
 1085      61647300 
 1085      00020000 
 1085      00000000 
 1085      0000
 1086 0318 00310200 		.ascii	"\0001\002\000\000"
 1086      00
 1087              		.text
 1088              		.section	.gnu.lto_.opts,"",%progbits
 1089 0000 272D6D63 		.ascii	"'-mcpu=cortex-m3''-mno-thumb-interwork''-mthumb''-g"
 1089      70753D63 
 1089      6F727465 
 1089      782D6D33 
 1089      27272D6D 
 1090 0033 67646227 		.ascii	"gdb''-O2''-fomit-frame-pointer''-falign-functions=1"
 1090      272D4F32 
 1090      27272D66 
 1090      6F6D6974 
 1090      2D667261 
 1091 0066 3627272D 		.ascii	"6''-ffunction-sections''-fdata-sections''-fno-commo"
 1091      6666756E 
 1091      6374696F 
 1091      6E2D7365 
 1091      6374696F 
 1092 0099 6E27272D 		.ascii	"n''-flto'\000"
 1092      666C746F 
 1092      2700
 1093              		.text
 1094              		.cfi_sections	.debug_frame
 1095              		.section	.text.mtx8_execute,"ax",%progbits
 1096              		.align	2
 1097              		.p2align 4,,15
 1098              		.thumb
 1099              		.thumb_func
 1100              		.type	mtx8_execute, %function
 1101              	mtx8_execute:
 1102              	.LFB182:
 1103              		.file 1 "../../../test/rt/testmtx.c"
ARM GAS  /tmp/ccv0K2b2.s 			page 86


 1104              		.loc 1 597 0
 1105              		.cfi_startproc
 1106              		@ args = 0, pretend = 0, frame = 0
 1107              		@ frame_needed = 0, uses_anonymous_args = 0
 1108 0000 F0B5     		push	{r4, r5, r6, r7, lr}
 1109              	.LCFI0:
 1110              		.cfi_def_cfa_offset 20
 1111              		.cfi_offset 4, -20
 1112              		.cfi_offset 5, -16
 1113              		.cfi_offset 6, -12
 1114              		.cfi_offset 7, -8
 1115              		.cfi_offset 14, -4
 1116              	.LBB138:
 1117              	.LBB139:
 1118              	.LBB140:
 1119              	.LBB141:
 1120              		.file 2 "../../../os/rt/include/chthreads.h"
 1121              		.loc 2 276 0
 1122 0002 40F20003 		movw	r3, #:lower16:ch
 1123 0006 C0F20003 		movt	r3, #:upper16:ch
 1124              	.LBE141:
 1125              	.LBE140:
 1126              		.loc 2 287 0
 1127 000a 9869     		ldr	r0, [r3, #24]
 1128              	.LBE139:
 1129              	.LBE138:
 1130              		.loc 1 600 0
 1131 000c 40F20005 		movw	r5, #:lower16:wa
 1132              	.LBB143:
 1133              	.LBB142:
 1134              		.loc 2 287 0
 1135 0010 8668     		ldr	r6, [r0, #8]
 1136              	.LBE142:
 1137              	.LBE143:
 1138              		.loc 1 600 0
 1139 0012 40F20004 		movw	r4, #:lower16:.LC0
 1140              		.loc 1 597 0
 1141 0016 83B0     		sub	sp, sp, #12
 1142              	.LCFI1:
 1143              		.cfi_def_cfa_offset 32
 1144              		.loc 1 600 0
 1145 0018 C0F20005 		movt	r5, #:upper16:wa
 1146 001c C0F20004 		movt	r4, #:upper16:.LC0
 1147 0020 40F20003 		movw	r3, #:lower16:thread11
 1148 0024 721C     		adds	r2, r6, #1
 1149 0026 0094     		str	r4, [sp, #0]
 1150 0028 2868     		ldr	r0, [r5, #0]
 1151 002a 4FF4A471 		mov	r1, #328
 1152 002e C0F20003 		movt	r3, #:upper16:thread11
 1153 0032 FFF7FEFF 		bl	chThdCreateStatic
 1154              	.LVL0:
 1155 0036 40F20004 		movw	r4, #:lower16:threads
 1156 003a C0F20004 		movt	r4, #:upper16:threads
 1157              		.loc 1 601 0
 1158 003e 6F68     		ldr	r7, [r5, #4]
 1159              		.loc 1 600 0
 1160 0040 2060     		str	r0, [r4, #0]
ARM GAS  /tmp/ccv0K2b2.s 			page 87


 1161              		.loc 1 601 0
 1162 0042 40F20000 		movw	r0, #:lower16:.LC1
 1163 0046 C0F20000 		movt	r0, #:upper16:.LC1
 1164 004a 40F20003 		movw	r3, #:lower16:thread10
 1165 004e B21C     		adds	r2, r6, #2
 1166 0050 0090     		str	r0, [sp, #0]
 1167 0052 4FF4A471 		mov	r1, #328
 1168 0056 C0F20003 		movt	r3, #:upper16:thread10
 1169 005a 3846     		mov	r0, r7
 1170 005c FFF7FEFF 		bl	chThdCreateStatic
 1171              	.LVL1:
 1172              		.loc 1 602 0
 1173 0060 AD68     		ldr	r5, [r5, #8]
 1174              		.loc 1 601 0
 1175 0062 6060     		str	r0, [r4, #4]
 1176              		.loc 1 602 0
 1177 0064 40F20000 		movw	r0, #:lower16:.LC2
 1178 0068 C0F20000 		movt	r0, #:upper16:.LC2
 1179 006c 40F20003 		movw	r3, #:lower16:thread12
 1180 0070 4FF4A471 		mov	r1, #328
 1181 0074 F21C     		adds	r2, r6, #3
 1182 0076 C0F20003 		movt	r3, #:upper16:thread12
 1183 007a 0090     		str	r0, [sp, #0]
 1184 007c 2846     		mov	r0, r5
 1185 007e FFF7FEFF 		bl	chThdCreateStatic
 1186              	.LVL2:
 1187              		.loc 1 603 0
 1188 0082 40F20005 		movw	r5, #:lower16:.LANCHOR0
 1189 0086 C0F20005 		movt	r5, #:upper16:.LANCHOR0
 1190              		.loc 1 602 0
 1191 008a A060     		str	r0, [r4, #8]
 1192              		.loc 1 603 0
 1193 008c 2846     		mov	r0, r5
 1194 008e FFF7FEFF 		bl	chCondSignal
 1195              	.LVL3:
 1196              		.loc 1 604 0
 1197 0092 2846     		mov	r0, r5
 1198 0094 FFF7FEFF 		bl	chCondSignal
 1199              	.LVL4:
 1200              		.loc 1 605 0
 1201 0098 FFF7FEFF 		bl	test_wait_threads
 1202              	.LVL5:
 1203              		.loc 1 606 0
 1204 009c 40F20001 		movw	r1, #:lower16:.LC3
 1205 00a0 0120     		movs	r0, #1
 1206 00a2 C0F20001 		movt	r1, #:upper16:.LC3
 1207              		.loc 1 607 0
 1208 00a6 03B0     		add	sp, sp, #12
 1209 00a8 BDE8F040 		pop	{r4, r5, r6, r7, lr}
 1210              		.loc 1 606 0
 1211 00ac FFF7FEBF 		b	_test_assert_sequence
 1212              	.LVL6:
 1213              		.cfi_endproc
 1214              	.LFE182:
 1215              		.size	mtx8_execute, .-mtx8_execute
 1216              		.section	.text.thread12,"ax",%progbits
 1217              		.align	2
ARM GAS  /tmp/ccv0K2b2.s 			page 88


 1218              		.p2align 4,,15
 1219              		.thumb
 1220              		.thumb_func
 1221              		.type	thread12, %function
 1222              	thread12:
 1223              	.LFB181:
 1224              		.loc 1 589 0
 1225              		.cfi_startproc
 1226              		@ args = 0, pretend = 0, frame = 0
 1227              		@ frame_needed = 0, uses_anonymous_args = 0
 1228              	.LVL7:
 1229 0000 38B5     		push	{r3, r4, r5, lr}
 1230              	.LCFI2:
 1231              		.cfi_def_cfa_offset 16
 1232              		.cfi_offset 3, -16
 1233              		.cfi_offset 4, -12
 1234              		.cfi_offset 5, -8
 1235              		.cfi_offset 14, -4
 1236              		.loc 1 591 0
 1237 0002 40F20004 		movw	r4, #:lower16:.LANCHOR1
 1238 0006 C0F20004 		movt	r4, #:upper16:.LANCHOR1
 1239              		.loc 1 589 0
 1240 000a 0546     		mov	r5, r0
 1241              		.loc 1 591 0
 1242 000c 2046     		mov	r0, r4
 1243              	.LVL8:
 1244 000e FFF7FEFF 		bl	chMtxLock
 1245              	.LVL9:
 1246              		.loc 1 592 0
 1247 0012 2878     		ldrb	r0, [r5, #0]	@ zero_extendqisi2
 1248 0014 FFF7FEFF 		bl	test_emit_token
 1249              	.LVL10:
 1250              		.loc 1 593 0
 1251 0018 2046     		mov	r0, r4
 1252 001a FFF7FEFF 		bl	chMtxUnlock
 1253              	.LVL11:
 1254              		.loc 1 595 0
 1255 001e 0020     		movs	r0, #0
 1256 0020 38BD     		pop	{r3, r4, r5, pc}
 1257              		.cfi_endproc
 1258              	.LFE181:
 1259              		.size	thread12, .-thread12
 1260 0022 00BFAFF3 		.section	.text.thread1,"ax",%progbits
 1260      0080AFF3 
 1260      0080AFF3 
 1260      0080
 1261              		.align	2
 1262              		.p2align 4,,15
 1263              		.thumb
 1264              		.thumb_func
 1265              		.type	thread1, %function
 1266              	thread1:
 1267              	.LFB166:
 1268              		.loc 1 89 0
 1269              		.cfi_startproc
 1270              		@ args = 0, pretend = 0, frame = 0
 1271              		@ frame_needed = 0, uses_anonymous_args = 0
ARM GAS  /tmp/ccv0K2b2.s 			page 89


 1272              	.LVL12:
 1273 0000 38B5     		push	{r3, r4, r5, lr}
 1274              	.LCFI3:
 1275              		.cfi_def_cfa_offset 16
 1276              		.cfi_offset 3, -16
 1277              		.cfi_offset 4, -12
 1278              		.cfi_offset 5, -8
 1279              		.cfi_offset 14, -4
 1280              		.loc 1 91 0
 1281 0002 40F20004 		movw	r4, #:lower16:.LANCHOR2
 1282 0006 C0F20004 		movt	r4, #:upper16:.LANCHOR2
 1283              		.loc 1 89 0
 1284 000a 0546     		mov	r5, r0
 1285              		.loc 1 91 0
 1286 000c 2046     		mov	r0, r4
 1287              	.LVL13:
 1288 000e FFF7FEFF 		bl	chMtxLock
 1289              	.LVL14:
 1290              		.loc 1 92 0
 1291 0012 2878     		ldrb	r0, [r5, #0]	@ zero_extendqisi2
 1292 0014 FFF7FEFF 		bl	test_emit_token
 1293              	.LVL15:
 1294              		.loc 1 93 0
 1295 0018 2046     		mov	r0, r4
 1296 001a FFF7FEFF 		bl	chMtxUnlock
 1297              	.LVL16:
 1298              		.loc 1 95 0
 1299 001e 0020     		movs	r0, #0
 1300 0020 38BD     		pop	{r3, r4, r5, pc}
 1301              		.cfi_endproc
 1302              	.LFE166:
 1303              		.size	thread1, .-thread1
 1304 0022 00BFAFF3 		.section	.text.thread10,"ax",%progbits
 1304      0080AFF3 
 1304      0080AFF3 
 1304      0080
 1305              		.align	2
 1306              		.p2align 4,,15
 1307              		.thumb
 1308              		.thumb_func
 1309              		.type	thread10, %function
 1310              	thread10:
 1311              	.LFB175:
 1312              		.loc 1 486 0
 1313              		.cfi_startproc
 1314              		@ args = 0, pretend = 0, frame = 0
 1315              		@ frame_needed = 0, uses_anonymous_args = 0
 1316              	.LVL17:
 1317 0000 38B5     		push	{r3, r4, r5, lr}
 1318              	.LCFI4:
 1319              		.cfi_def_cfa_offset 16
 1320              		.cfi_offset 3, -16
 1321              		.cfi_offset 4, -12
 1322              		.cfi_offset 5, -8
 1323              		.cfi_offset 14, -4
 1324              		.loc 1 488 0
 1325 0002 40F20004 		movw	r4, #:lower16:.LANCHOR2
ARM GAS  /tmp/ccv0K2b2.s 			page 90


 1326 0006 C0F20004 		movt	r4, #:upper16:.LANCHOR2
 1327              		.loc 1 486 0
 1328 000a 0546     		mov	r5, r0
 1329              		.loc 1 488 0
 1330 000c 2046     		mov	r0, r4
 1331              	.LVL18:
 1332 000e FFF7FEFF 		bl	chMtxLock
 1333              	.LVL19:
 1334              		.loc 1 489 0
 1335 0012 40F20000 		movw	r0, #:lower16:.LANCHOR0
 1336 0016 C0F20000 		movt	r0, #:upper16:.LANCHOR0
 1337 001a FFF7FEFF 		bl	chCondWait
 1338              	.LVL20:
 1339              		.loc 1 490 0
 1340 001e 2878     		ldrb	r0, [r5, #0]	@ zero_extendqisi2
 1341 0020 FFF7FEFF 		bl	test_emit_token
 1342              	.LVL21:
 1343              		.loc 1 491 0
 1344 0024 2046     		mov	r0, r4
 1345 0026 FFF7FEFF 		bl	chMtxUnlock
 1346              	.LVL22:
 1347              		.loc 1 493 0
 1348 002a 0020     		movs	r0, #0
 1349 002c 38BD     		pop	{r3, r4, r5, pc}
 1350              		.cfi_endproc
 1351              	.LFE175:
 1352              		.size	thread10, .-thread10
 1353 002e 00BF     		.section	.text.thread11,"ax",%progbits
 1354              		.align	2
 1355              		.p2align 4,,15
 1356              		.thumb
 1357              		.thumb_func
 1358              		.type	thread11, %function
 1359              	thread11:
 1360              	.LFB180:
 1361              		.loc 1 574 0
 1362              		.cfi_startproc
 1363              		@ args = 0, pretend = 0, frame = 0
 1364              		@ frame_needed = 0, uses_anonymous_args = 0
 1365              	.LVL23:
 1366 0000 70B5     		push	{r4, r5, r6, lr}
 1367              	.LCFI5:
 1368              		.cfi_def_cfa_offset 16
 1369              		.cfi_offset 4, -16
 1370              		.cfi_offset 5, -12
 1371              		.cfi_offset 6, -8
 1372              		.cfi_offset 14, -4
 1373              		.loc 1 576 0
 1374 0002 40F20004 		movw	r4, #:lower16:.LANCHOR1
 1375 0006 C0F20004 		movt	r4, #:upper16:.LANCHOR1
 1376              		.loc 1 577 0
 1377 000a 40F20005 		movw	r5, #:lower16:.LANCHOR2
 1378              		.loc 1 574 0
 1379 000e 0646     		mov	r6, r0
 1380              		.loc 1 577 0
 1381 0010 C0F20005 		movt	r5, #:upper16:.LANCHOR2
 1382              		.loc 1 576 0
ARM GAS  /tmp/ccv0K2b2.s 			page 91


 1383 0014 2046     		mov	r0, r4
 1384              	.LVL24:
 1385 0016 FFF7FEFF 		bl	chMtxLock
 1386              	.LVL25:
 1387              		.loc 1 577 0
 1388 001a 2846     		mov	r0, r5
 1389 001c FFF7FEFF 		bl	chMtxLock
 1390              	.LVL26:
 1391              		.loc 1 579 0
 1392 0020 40F20000 		movw	r0, #:lower16:.LANCHOR0
 1393 0024 4FF6FF71 		movw	r1, #65535
 1394 0028 C0F20000 		movt	r0, #:upper16:.LANCHOR0
 1395 002c FFF7FEFF 		bl	chCondWaitTimeout
 1396              	.LVL27:
 1397              		.loc 1 583 0
 1398 0030 3078     		ldrb	r0, [r6, #0]	@ zero_extendqisi2
 1399 0032 FFF7FEFF 		bl	test_emit_token
 1400              	.LVL28:
 1401              		.loc 1 584 0
 1402 0036 2846     		mov	r0, r5
 1403 0038 FFF7FEFF 		bl	chMtxUnlock
 1404              	.LVL29:
 1405              		.loc 1 585 0
 1406 003c 2046     		mov	r0, r4
 1407 003e FFF7FEFF 		bl	chMtxUnlock
 1408              	.LVL30:
 1409              		.loc 1 587 0
 1410 0042 0020     		movs	r0, #0
 1411 0044 70BD     		pop	{r4, r5, r6, pc}
 1412              		.cfi_endproc
 1413              	.LFE180:
 1414              		.size	thread11, .-thread11
 1415 0046 00BFAFF3 		.section	.text.mtx8_setup,"ax",%progbits
 1415      0080AFF3 
 1415      0080
 1416              		.align	2
 1417              		.p2align 4,,15
 1418              		.thumb
 1419              		.thumb_func
 1420              		.type	mtx8_setup, %function
 1421              	mtx8_setup:
 1422              	.LFB179:
 1423              		.loc 1 567 0
 1424              		.cfi_startproc
 1425              		@ args = 0, pretend = 0, frame = 0
 1426              		@ frame_needed = 0, uses_anonymous_args = 0
 1427              		.loc 1 569 0
 1428 0000 40F20000 		movw	r0, #:lower16:.LANCHOR0
 1429              		.loc 1 567 0
 1430 0004 08B5     		push	{r3, lr}
 1431              	.LCFI6:
 1432              		.cfi_def_cfa_offset 8
 1433              		.cfi_offset 3, -8
 1434              		.cfi_offset 14, -4
 1435              		.loc 1 569 0
 1436 0006 C0F20000 		movt	r0, #:upper16:.LANCHOR0
 1437 000a FFF7FEFF 		bl	chCondObjectInit
ARM GAS  /tmp/ccv0K2b2.s 			page 92


 1438              	.LVL31:
 1439              		.loc 1 570 0
 1440 000e 40F20000 		movw	r0, #:lower16:.LANCHOR2
 1441 0012 C0F20000 		movt	r0, #:upper16:.LANCHOR2
 1442 0016 FFF7FEFF 		bl	chMtxObjectInit
 1443              	.LVL32:
 1444              		.loc 1 571 0
 1445 001a 40F20000 		movw	r0, #:lower16:.LANCHOR1
 1446 001e C0F20000 		movt	r0, #:upper16:.LANCHOR1
 1447              		.loc 1 572 0
 1448 0022 BDE80840 		pop	{r3, lr}
 1449              		.loc 1 571 0
 1450 0026 FFF7FEBF 		b	chMtxObjectInit
 1451              	.LVL33:
 1452              		.cfi_endproc
 1453              	.LFE179:
 1454              		.size	mtx8_setup, .-mtx8_setup
 1455 002a 00BFAFF3 		.section	.text.mtx7_setup,"ax",%progbits
 1455      0080
 1456              		.align	2
 1457              		.p2align 4,,15
 1458              		.thumb
 1459              		.thumb_func
 1460              		.type	mtx7_setup, %function
 1461              	mtx7_setup:
 1462              	.LFB177:
 1463              		.loc 1 532 0
 1464              		.cfi_startproc
 1465              		@ args = 0, pretend = 0, frame = 0
 1466              		@ frame_needed = 0, uses_anonymous_args = 0
 1467              		.loc 1 534 0
 1468 0000 40F20000 		movw	r0, #:lower16:.LANCHOR0
 1469              		.loc 1 532 0
 1470 0004 08B5     		push	{r3, lr}
 1471              	.LCFI7:
 1472              		.cfi_def_cfa_offset 8
 1473              		.cfi_offset 3, -8
 1474              		.cfi_offset 14, -4
 1475              		.loc 1 534 0
 1476 0006 C0F20000 		movt	r0, #:upper16:.LANCHOR0
 1477 000a FFF7FEFF 		bl	chCondObjectInit
 1478              	.LVL34:
 1479              		.loc 1 535 0
 1480 000e 40F20000 		movw	r0, #:lower16:.LANCHOR2
 1481 0012 C0F20000 		movt	r0, #:upper16:.LANCHOR2
 1482              		.loc 1 536 0
 1483 0016 BDE80840 		pop	{r3, lr}
 1484              		.loc 1 535 0
 1485 001a FFF7FEBF 		b	chMtxObjectInit
 1486              	.LVL35:
 1487              		.cfi_endproc
 1488              	.LFE177:
 1489              		.size	mtx7_setup, .-mtx7_setup
 1490 001e 00BF     		.section	.text.mtx6_setup,"ax",%progbits
 1491              		.align	2
 1492              		.p2align 4,,15
 1493              		.thumb
ARM GAS  /tmp/ccv0K2b2.s 			page 93


 1494              		.thumb_func
 1495              		.type	mtx6_setup, %function
 1496              	mtx6_setup:
 1497              	.LFB174:
 1498              		.loc 1 480 0
 1499              		.cfi_startproc
 1500              		@ args = 0, pretend = 0, frame = 0
 1501              		@ frame_needed = 0, uses_anonymous_args = 0
 1502              		.loc 1 482 0
 1503 0000 40F20000 		movw	r0, #:lower16:.LANCHOR0
 1504              		.loc 1 480 0
 1505 0004 08B5     		push	{r3, lr}
 1506              	.LCFI8:
 1507              		.cfi_def_cfa_offset 8
 1508              		.cfi_offset 3, -8
 1509              		.cfi_offset 14, -4
 1510              		.loc 1 482 0
 1511 0006 C0F20000 		movt	r0, #:upper16:.LANCHOR0
 1512 000a FFF7FEFF 		bl	chCondObjectInit
 1513              	.LVL36:
 1514              		.loc 1 483 0
 1515 000e 40F20000 		movw	r0, #:lower16:.LANCHOR2
 1516 0012 C0F20000 		movt	r0, #:upper16:.LANCHOR2
 1517              		.loc 1 484 0
 1518 0016 BDE80840 		pop	{r3, lr}
 1519              		.loc 1 483 0
 1520 001a FFF7FEBF 		b	chMtxObjectInit
 1521              	.LVL37:
 1522              		.cfi_endproc
 1523              	.LFE174:
 1524              		.size	mtx6_setup, .-mtx6_setup
 1525 001e 00BF     		.section	.text.mtx5_setup,"ax",%progbits
 1526              		.align	2
 1527              		.p2align 4,,15
 1528              		.thumb
 1529              		.thumb_func
 1530              		.type	mtx5_setup, %function
 1531              	mtx5_setup:
 1532              	.LFB172:
 1533              		.loc 1 429 0
 1534              		.cfi_startproc
 1535              		@ args = 0, pretend = 0, frame = 0
 1536              		@ frame_needed = 0, uses_anonymous_args = 0
 1537              		@ link register save eliminated.
 1538              		.loc 1 431 0
 1539 0000 40F20000 		movw	r0, #:lower16:.LANCHOR2
 1540 0004 C0F20000 		movt	r0, #:upper16:.LANCHOR2
 1541              		.loc 1 432 0
 1542              		.loc 1 431 0
 1543 0008 FFF7FEBF 		b	chMtxObjectInit
 1544              	.LVL38:
 1545              		.cfi_endproc
 1546              	.LFE172:
 1547              		.size	mtx5_setup, .-mtx5_setup
 1548 000c AFF30080 		.section	.text.mtx4_setup,"ax",%progbits
 1549              		.align	2
 1550              		.p2align 4,,15
ARM GAS  /tmp/ccv0K2b2.s 			page 94


 1551              		.thumb
 1552              		.thumb_func
 1553              		.type	mtx4_setup, %function
 1554              	mtx4_setup:
 1555              	.LFB168:
 1556              		.loc 1 341 0
 1557              		.cfi_startproc
 1558              		@ args = 0, pretend = 0, frame = 0
 1559              		@ frame_needed = 0, uses_anonymous_args = 0
 1560              		.loc 1 343 0
 1561 0000 40F20000 		movw	r0, #:lower16:.LANCHOR2
 1562              		.loc 1 341 0
 1563 0004 08B5     		push	{r3, lr}
 1564              	.LCFI9:
 1565              		.cfi_def_cfa_offset 8
 1566              		.cfi_offset 3, -8
 1567              		.cfi_offset 14, -4
 1568              		.loc 1 343 0
 1569 0006 C0F20000 		movt	r0, #:upper16:.LANCHOR2
 1570 000a FFF7FEFF 		bl	chMtxObjectInit
 1571              	.LVL39:
 1572              		.loc 1 344 0
 1573 000e 40F20000 		movw	r0, #:lower16:.LANCHOR1
 1574 0012 C0F20000 		movt	r0, #:upper16:.LANCHOR1
 1575              		.loc 1 345 0
 1576 0016 BDE80840 		pop	{r3, lr}
 1577              		.loc 1 344 0
 1578 001a FFF7FEBF 		b	chMtxObjectInit
 1579              	.LVL40:
 1580              		.cfi_endproc
 1581              	.LFE168:
 1582              		.size	mtx4_setup, .-mtx4_setup
 1583 001e 00BF     		.section	.text.mtx1_setup,"ax",%progbits
 1584              		.align	2
 1585              		.p2align 4,,15
 1586              		.thumb
 1587              		.thumb_func
 1588              		.type	mtx1_setup, %function
 1589              	mtx1_setup:
 1590              	.LFB165:
 1591              		.loc 1 84 0
 1592              		.cfi_startproc
 1593              		@ args = 0, pretend = 0, frame = 0
 1594              		@ frame_needed = 0, uses_anonymous_args = 0
 1595              		@ link register save eliminated.
 1596              		.loc 1 86 0
 1597 0000 40F20000 		movw	r0, #:lower16:.LANCHOR2
 1598 0004 C0F20000 		movt	r0, #:upper16:.LANCHOR2
 1599              		.loc 1 87 0
 1600              		.loc 1 86 0
 1601 0008 FFF7FEBF 		b	chMtxObjectInit
 1602              	.LVL41:
 1603              		.cfi_endproc
 1604              	.LFE165:
 1605              		.size	mtx1_setup, .-mtx1_setup
 1606 000c AFF30080 		.section	.text.mtx7_execute,"ax",%progbits
 1607              		.align	2
ARM GAS  /tmp/ccv0K2b2.s 			page 95


 1608              		.p2align 4,,15
 1609              		.thumb
 1610              		.thumb_func
 1611              		.type	mtx7_execute, %function
 1612              	mtx7_execute:
 1613              	.LFB178:
 1614              		.loc 1 538 0
 1615              		.cfi_startproc
 1616              		@ args = 0, pretend = 0, frame = 0
 1617              		@ frame_needed = 0, uses_anonymous_args = 0
 1618 0000 F0B5     		push	{r4, r5, r6, r7, lr}
 1619              	.LCFI10:
 1620              		.cfi_def_cfa_offset 20
 1621              		.cfi_offset 4, -20
 1622              		.cfi_offset 5, -16
 1623              		.cfi_offset 6, -12
 1624              		.cfi_offset 7, -8
 1625              		.cfi_offset 14, -4
 1626              	.LBB144:
 1627              	.LBB145:
 1628              	.LBB146:
 1629              	.LBB147:
 1630              		.loc 2 276 0
 1631 0002 40F20003 		movw	r3, #:lower16:ch
 1632 0006 C0F20003 		movt	r3, #:upper16:ch
 1633              	.LBE147:
 1634              	.LBE146:
 1635              		.loc 2 287 0
 1636 000a 9869     		ldr	r0, [r3, #24]
 1637              	.LBE145:
 1638              	.LBE144:
 1639              		.loc 1 541 0
 1640 000c 40F20006 		movw	r6, #:lower16:wa
 1641              	.LBB149:
 1642              	.LBB148:
 1643              		.loc 2 287 0
 1644 0010 8768     		ldr	r7, [r0, #8]
 1645              	.LBE148:
 1646              	.LBE149:
 1647              		.loc 1 541 0
 1648 0012 40F20005 		movw	r5, #:lower16:thread10
 1649 0016 40F20004 		movw	r4, #:lower16:.LC4
 1650              		.loc 1 538 0
 1651 001a 83B0     		sub	sp, sp, #12
 1652              	.LCFI11:
 1653              		.cfi_def_cfa_offset 32
 1654              		.loc 1 541 0
 1655 001c C0F20005 		movt	r5, #:upper16:thread10
 1656 0020 C0F20006 		movt	r6, #:upper16:wa
 1657 0024 C0F20004 		movt	r4, #:upper16:.LC4
 1658 0028 7A1C     		adds	r2, r7, #1
 1659 002a 2B46     		mov	r3, r5
 1660 002c 0094     		str	r4, [sp, #0]
 1661 002e 3068     		ldr	r0, [r6, #0]
 1662 0030 4FF4A471 		mov	r1, #328
 1663 0034 FFF7FEFF 		bl	chThdCreateStatic
 1664              	.LVL42:
ARM GAS  /tmp/ccv0K2b2.s 			page 96


 1665 0038 40F20004 		movw	r4, #:lower16:threads
 1666 003c C0F20004 		movt	r4, #:upper16:threads
 1667 0040 2060     		str	r0, [r4, #0]
 1668              		.loc 1 542 0
 1669 0042 40F20000 		movw	r0, #:lower16:.LC5
 1670 0046 C0F20000 		movt	r0, #:upper16:.LC5
 1671 004a BA1C     		adds	r2, r7, #2
 1672 004c 2B46     		mov	r3, r5
 1673 004e 0090     		str	r0, [sp, #0]
 1674 0050 4FF4A471 		mov	r1, #328
 1675 0054 7068     		ldr	r0, [r6, #4]
 1676 0056 FFF7FEFF 		bl	chThdCreateStatic
 1677              	.LVL43:
 1678 005a 6060     		str	r0, [r4, #4]
 1679              		.loc 1 543 0
 1680 005c 40F20000 		movw	r0, #:lower16:.LC1
 1681 0060 C0F20000 		movt	r0, #:upper16:.LC1
 1682 0064 FA1C     		adds	r2, r7, #3
 1683 0066 2B46     		mov	r3, r5
 1684 0068 0090     		str	r0, [sp, #0]
 1685 006a 4FF4A471 		mov	r1, #328
 1686 006e B068     		ldr	r0, [r6, #8]
 1687 0070 FFF7FEFF 		bl	chThdCreateStatic
 1688              	.LVL44:
 1689 0074 A060     		str	r0, [r4, #8]
 1690              		.loc 1 544 0
 1691 0076 40F20000 		movw	r0, #:lower16:.LC2
 1692 007a C0F20000 		movt	r0, #:upper16:.LC2
 1693 007e 3A1D     		adds	r2, r7, #4
 1694 0080 2B46     		mov	r3, r5
 1695 0082 0090     		str	r0, [sp, #0]
 1696 0084 4FF4A471 		mov	r1, #328
 1697 0088 F068     		ldr	r0, [r6, #12]
 1698 008a FFF7FEFF 		bl	chThdCreateStatic
 1699              	.LVL45:
 1700              		.loc 1 545 0
 1701 008e 3669     		ldr	r6, [r6, #16]
 1702              		.loc 1 544 0
 1703 0090 E060     		str	r0, [r4, #12]
 1704              		.loc 1 545 0
 1705 0092 40F20000 		movw	r0, #:lower16:.LC0
 1706 0096 C0F20000 		movt	r0, #:upper16:.LC0
 1707 009a 4FF4A471 		mov	r1, #328
 1708 009e 7A1D     		adds	r2, r7, #5
 1709 00a0 2B46     		mov	r3, r5
 1710 00a2 0090     		str	r0, [sp, #0]
 1711 00a4 3046     		mov	r0, r6
 1712 00a6 FFF7FEFF 		bl	chThdCreateStatic
 1713              	.LVL46:
 1714 00aa 2061     		str	r0, [r4, #16]
 1715              		.loc 1 546 0
 1716 00ac 40F20000 		movw	r0, #:lower16:.LANCHOR0
 1717 00b0 C0F20000 		movt	r0, #:upper16:.LANCHOR0
 1718 00b4 FFF7FEFF 		bl	chCondBroadcast
 1719              	.LVL47:
 1720              		.loc 1 547 0
 1721 00b8 FFF7FEFF 		bl	test_wait_threads
ARM GAS  /tmp/ccv0K2b2.s 			page 97


 1722              	.LVL48:
 1723              		.loc 1 548 0
 1724 00bc 40F20001 		movw	r1, #:lower16:.LC6
 1725 00c0 0120     		movs	r0, #1
 1726 00c2 C0F20001 		movt	r1, #:upper16:.LC6
 1727              		.loc 1 549 0
 1728 00c6 03B0     		add	sp, sp, #12
 1729 00c8 BDE8F040 		pop	{r4, r5, r6, r7, lr}
 1730              		.loc 1 548 0
 1731 00cc FFF7FEBF 		b	_test_assert_sequence
 1732              	.LVL49:
 1733              		.cfi_endproc
 1734              	.LFE178:
 1735              		.size	mtx7_execute, .-mtx7_execute
 1736              		.section	.text.mtx6_execute,"ax",%progbits
 1737              		.align	2
 1738              		.p2align 4,,15
 1739              		.thumb
 1740              		.thumb_func
 1741              		.type	mtx6_execute, %function
 1742              	mtx6_execute:
 1743              	.LFB176:
 1744              		.loc 1 495 0
 1745              		.cfi_startproc
 1746              		@ args = 0, pretend = 0, frame = 0
 1747              		@ frame_needed = 0, uses_anonymous_args = 0
 1748 0000 F0B5     		push	{r4, r5, r6, r7, lr}
 1749              	.LCFI12:
 1750              		.cfi_def_cfa_offset 20
 1751              		.cfi_offset 4, -20
 1752              		.cfi_offset 5, -16
 1753              		.cfi_offset 6, -12
 1754              		.cfi_offset 7, -8
 1755              		.cfi_offset 14, -4
 1756              	.LBB150:
 1757              	.LBB151:
 1758              	.LBB152:
 1759              	.LBB153:
 1760              		.loc 2 276 0
 1761 0002 40F20003 		movw	r3, #:lower16:ch
 1762 0006 C0F20003 		movt	r3, #:upper16:ch
 1763              	.LBE153:
 1764              	.LBE152:
 1765              		.loc 2 287 0
 1766 000a 9869     		ldr	r0, [r3, #24]
 1767              	.LBE151:
 1768              	.LBE150:
 1769              		.loc 1 498 0
 1770 000c 40F20006 		movw	r6, #:lower16:wa
 1771              	.LBB155:
 1772              	.LBB154:
 1773              		.loc 2 287 0
 1774 0010 8768     		ldr	r7, [r0, #8]
 1775              	.LBE154:
 1776              	.LBE155:
 1777              		.loc 1 498 0
 1778 0012 40F20005 		movw	r5, #:lower16:thread10
ARM GAS  /tmp/ccv0K2b2.s 			page 98


 1779 0016 40F20001 		movw	r1, #:lower16:.LC4
 1780              		.loc 1 495 0
 1781 001a 83B0     		sub	sp, sp, #12
 1782              	.LCFI13:
 1783              		.cfi_def_cfa_offset 32
 1784              		.loc 1 498 0
 1785 001c C0F20006 		movt	r6, #:upper16:wa
 1786 0020 C0F20005 		movt	r5, #:upper16:thread10
 1787 0024 C0F20001 		movt	r1, #:upper16:.LC4
 1788 0028 7A1C     		adds	r2, r7, #1
 1789 002a 2B46     		mov	r3, r5
 1790 002c 0091     		str	r1, [sp, #0]
 1791 002e 3068     		ldr	r0, [r6, #0]
 1792 0030 4FF4A471 		mov	r1, #328
 1793 0034 FFF7FEFF 		bl	chThdCreateStatic
 1794              	.LVL50:
 1795 0038 40F20004 		movw	r4, #:lower16:threads
 1796 003c C0F20004 		movt	r4, #:upper16:threads
 1797              		.loc 1 499 0
 1798 0040 7168     		ldr	r1, [r6, #4]
 1799              		.loc 1 498 0
 1800 0042 2060     		str	r0, [r4, #0]
 1801              		.loc 1 499 0
 1802 0044 40F20000 		movw	r0, #:lower16:.LC5
 1803 0048 C0F20000 		movt	r0, #:upper16:.LC5
 1804 004c BA1C     		adds	r2, r7, #2
 1805 004e 2B46     		mov	r3, r5
 1806 0050 0090     		str	r0, [sp, #0]
 1807 0052 0846     		mov	r0, r1
 1808 0054 4FF4A471 		mov	r1, #328
 1809 0058 FFF7FEFF 		bl	chThdCreateStatic
 1810              	.LVL51:
 1811              		.loc 1 500 0
 1812 005c B168     		ldr	r1, [r6, #8]
 1813              		.loc 1 499 0
 1814 005e 6060     		str	r0, [r4, #4]
 1815              		.loc 1 500 0
 1816 0060 40F20000 		movw	r0, #:lower16:.LC1
 1817 0064 C0F20000 		movt	r0, #:upper16:.LC1
 1818 0068 FA1C     		adds	r2, r7, #3
 1819 006a 2B46     		mov	r3, r5
 1820 006c 0090     		str	r0, [sp, #0]
 1821 006e 0846     		mov	r0, r1
 1822 0070 4FF4A471 		mov	r1, #328
 1823 0074 FFF7FEFF 		bl	chThdCreateStatic
 1824              	.LVL52:
 1825              		.loc 1 501 0
 1826 0078 F168     		ldr	r1, [r6, #12]
 1827              		.loc 1 500 0
 1828 007a A060     		str	r0, [r4, #8]
 1829              		.loc 1 501 0
 1830 007c 40F20000 		movw	r0, #:lower16:.LC2
 1831 0080 C0F20000 		movt	r0, #:upper16:.LC2
 1832 0084 3A1D     		adds	r2, r7, #4
 1833 0086 2B46     		mov	r3, r5
 1834 0088 0090     		str	r0, [sp, #0]
 1835 008a 0846     		mov	r0, r1
ARM GAS  /tmp/ccv0K2b2.s 			page 99


 1836 008c 4FF4A471 		mov	r1, #328
 1837 0090 FFF7FEFF 		bl	chThdCreateStatic
 1838              	.LVL53:
 1839              		.loc 1 502 0
 1840 0094 3369     		ldr	r3, [r6, #16]
 1841 0096 40F20002 		movw	r2, #:lower16:.LC0
 1842 009a C0F20002 		movt	r2, #:upper16:.LC0
 1843              		.loc 1 501 0
 1844 009e E060     		str	r0, [r4, #12]
 1845              		.loc 1 502 0
 1846 00a0 4FF4A471 		mov	r1, #328
 1847 00a4 0092     		str	r2, [sp, #0]
 1848 00a6 1846     		mov	r0, r3
 1849 00a8 7A1D     		adds	r2, r7, #5
 1850 00aa 2B46     		mov	r3, r5
 1851 00ac FFF7FEFF 		bl	chThdCreateStatic
 1852              	.LVL54:
 1853 00b0 2061     		str	r0, [r4, #16]
 1854              	.LVL55:
 1855              	.LBB156:
 1856              	.LBB157:
 1857              	.LBB158:
 1858              	.LBB159:
 1859              		.file 3 "../../../os/ext/CMSIS/include/core_cmFunc.h"
 1860              		.loc 3 546 0
 1861 00b2 2024     		movs	r4, #32
 1862              	@ 546 "../../../os/ext/CMSIS/include/core_cmFunc.h" 1
 1863 00b4 84F31188 		MSR basepri, r4
 1864              	@ 0 "" 2
 1865              		.thumb
 1866              	.LBE159:
 1867              	.LBE158:
 1868              	.LBE157:
 1869              	.LBE156:
 1870              		.loc 1 504 0
 1871 00b8 40F20004 		movw	r4, #:lower16:.LANCHOR0
 1872 00bc C0F20004 		movt	r4, #:upper16:.LANCHOR0
 1873 00c0 2046     		mov	r0, r4
 1874 00c2 FFF7FEFF 		bl	chCondSignalI
 1875              	.LVL56:
 1876              		.loc 1 505 0
 1877 00c6 2046     		mov	r0, r4
 1878 00c8 FFF7FEFF 		bl	chCondSignalI
 1879              	.LVL57:
 1880              		.loc 1 506 0
 1881 00cc 2046     		mov	r0, r4
 1882 00ce FFF7FEFF 		bl	chCondSignalI
 1883              	.LVL58:
 1884              		.loc 1 507 0
 1885 00d2 2046     		mov	r0, r4
 1886 00d4 FFF7FEFF 		bl	chCondSignalI
 1887              	.LVL59:
 1888              		.loc 1 508 0
 1889 00d8 2046     		mov	r0, r4
 1890 00da FFF7FEFF 		bl	chCondSignalI
 1891              	.LVL60:
 1892              		.loc 1 509 0
ARM GAS  /tmp/ccv0K2b2.s 			page 100


 1893 00de FFF7FEFF 		bl	chSchRescheduleS
 1894              	.LVL61:
 1895              	.LBB160:
 1896              	.LBB161:
 1897              	.LBB162:
 1898              	.LBB163:
 1899              	.LBB164:
 1900              		.loc 3 546 0
 1901 00e2 0021     		movs	r1, #0
 1902              	@ 546 "../../../os/ext/CMSIS/include/core_cmFunc.h" 1
 1903 00e4 81F31188 		MSR basepri, r1
 1904              	@ 0 "" 2
 1905              		.thumb
 1906              	.LBE164:
 1907              	.LBE163:
 1908              	.LBE162:
 1909              	.LBE161:
 1910              	.LBE160:
 1911              		.loc 1 511 0
 1912 00e8 FFF7FEFF 		bl	test_wait_threads
 1913              	.LVL62:
 1914              		.loc 1 512 0
 1915 00ec 40F20001 		movw	r1, #:lower16:.LC6
 1916 00f0 0120     		movs	r0, #1
 1917 00f2 C0F20001 		movt	r1, #:upper16:.LC6
 1918              		.loc 1 513 0
 1919 00f6 03B0     		add	sp, sp, #12
 1920 00f8 BDE8F040 		pop	{r4, r5, r6, r7, lr}
 1921              		.loc 1 512 0
 1922 00fc FFF7FEBF 		b	_test_assert_sequence
 1923              	.LVL63:
 1924              		.cfi_endproc
 1925              	.LFE176:
 1926              		.size	mtx6_execute, .-mtx6_execute
 1927              		.section	.text.mtx1_execute,"ax",%progbits
 1928              		.align	2
 1929              		.p2align 4,,15
 1930              		.thumb
 1931              		.thumb_func
 1932              		.type	mtx1_execute, %function
 1933              	mtx1_execute:
 1934              	.LFB167:
 1935              		.loc 1 97 0
 1936              		.cfi_startproc
 1937              		@ args = 0, pretend = 0, frame = 8
 1938              		@ frame_needed = 0, uses_anonymous_args = 0
 1939 0000 F0B5     		push	{r4, r5, r6, r7, lr}
 1940              	.LCFI14:
 1941              		.cfi_def_cfa_offset 20
 1942              		.cfi_offset 4, -20
 1943              		.cfi_offset 5, -16
 1944              		.cfi_offset 6, -12
 1945              		.cfi_offset 7, -8
 1946              		.cfi_offset 14, -4
 1947              	.LBB165:
 1948              	.LBB166:
 1949              	.LBB167:
ARM GAS  /tmp/ccv0K2b2.s 			page 101


 1950              	.LBB168:
 1951              		.loc 2 276 0
 1952 0002 2C4F     		ldr	r7, .L18
 1953              	.LBE168:
 1954              	.LBE167:
 1955              	.LBE166:
 1956              	.LBE165:
 1957              		.loc 1 101 0
 1958 0004 2C4E     		ldr	r6, .L18+4
 1959              	.LBB171:
 1960              	.LBB169:
 1961              		.loc 2 287 0
 1962 0006 BB69     		ldr	r3, [r7, #24]
 1963              	.LBE169:
 1964              	.LBE171:
 1965              		.loc 1 101 0
 1966 0008 2C4D     		ldr	r5, .L18+8
 1967              	.LBB172:
 1968              	.LBB170:
 1969              		.loc 2 287 0
 1970 000a 9C68     		ldr	r4, [r3, #8]
 1971              	.LBE170:
 1972              	.LBE172:
 1973              		.loc 1 97 0
 1974 000c 85B0     		sub	sp, sp, #20
 1975              	.LCFI15:
 1976              		.cfi_def_cfa_offset 40
 1977              		.loc 1 100 0
 1978 000e 2C48     		ldr	r0, .L18+12
 1979 0010 FFF7FEFF 		bl	chMtxLock
 1980              	.LVL64:
 1981              		.loc 1 101 0
 1982 0014 621C     		adds	r2, r4, #1
 1983 0016 3068     		ldr	r0, [r6, #0]
 1984 0018 4FF4A471 		mov	r1, #328
 1985 001c 294B     		ldr	r3, .L18+16
 1986 001e 0095     		str	r5, [sp, #0]
 1987 0020 FFF7FEFF 		bl	chThdCreateStatic
 1988              	.LVL65:
 1989 0024 284D     		ldr	r5, .L18+20
 1990              		.loc 1 102 0
 1991 0026 7168     		ldr	r1, [r6, #4]
 1992              		.loc 1 101 0
 1993 0028 2860     		str	r0, [r5, #0]
 1994              		.loc 1 102 0
 1995 002a 2848     		ldr	r0, .L18+24
 1996 002c 0391     		str	r1, [sp, #12]
 1997 002e A21C     		adds	r2, r4, #2
 1998 0030 4FF4A471 		mov	r1, #328
 1999 0034 234B     		ldr	r3, .L18+16
 2000 0036 0090     		str	r0, [sp, #0]
 2001 0038 0398     		ldr	r0, [sp, #12]
 2002 003a FFF7FEFF 		bl	chThdCreateStatic
 2003              	.LVL66:
 2004              		.loc 1 103 0
 2005 003e B268     		ldr	r2, [r6, #8]
 2006              		.loc 1 102 0
ARM GAS  /tmp/ccv0K2b2.s 			page 102


 2007 0040 6860     		str	r0, [r5, #4]
 2008              		.loc 1 103 0
 2009 0042 2348     		ldr	r0, .L18+28
 2010 0044 0392     		str	r2, [sp, #12]
 2011 0046 4FF4A471 		mov	r1, #328
 2012 004a E21C     		adds	r2, r4, #3
 2013 004c 1D4B     		ldr	r3, .L18+16
 2014 004e 0090     		str	r0, [sp, #0]
 2015 0050 0398     		ldr	r0, [sp, #12]
 2016 0052 FFF7FEFF 		bl	chThdCreateStatic
 2017              	.LVL67:
 2018              		.loc 1 104 0
 2019 0056 F368     		ldr	r3, [r6, #12]
 2020              		.loc 1 103 0
 2021 0058 A860     		str	r0, [r5, #8]
 2022              		.loc 1 104 0
 2023 005a 1E48     		ldr	r0, .L18+32
 2024 005c 0393     		str	r3, [sp, #12]
 2025 005e 221D     		adds	r2, r4, #4
 2026 0060 4FF4A471 		mov	r1, #328
 2027 0064 174B     		ldr	r3, .L18+16
 2028 0066 0090     		str	r0, [sp, #0]
 2029 0068 0398     		ldr	r0, [sp, #12]
 2030 006a FFF7FEFF 		bl	chThdCreateStatic
 2031              	.LVL68:
 2032              		.loc 1 105 0
 2033 006e 3669     		ldr	r6, [r6, #16]
 2034              		.loc 1 104 0
 2035 0070 E860     		str	r0, [r5, #12]
 2036              		.loc 1 105 0
 2037 0072 1948     		ldr	r0, .L18+36
 2038 0074 621D     		adds	r2, r4, #5
 2039 0076 4FF4A471 		mov	r1, #328
 2040 007a 124B     		ldr	r3, .L18+16
 2041 007c 0090     		str	r0, [sp, #0]
 2042 007e 3046     		mov	r0, r6
 2043 0080 FFF7FEFF 		bl	chThdCreateStatic
 2044              	.LVL69:
 2045 0084 2861     		str	r0, [r5, #16]
 2046              		.loc 1 106 0
 2047 0086 0E48     		ldr	r0, .L18+12
 2048 0088 FFF7FEFF 		bl	chMtxUnlock
 2049              	.LVL70:
 2050              		.loc 1 107 0
 2051 008c FFF7FEFF 		bl	test_wait_threads
 2052              	.LVL71:
 2053              	.LBB173:
 2054              	.LBB174:
 2055              		.loc 2 287 0
 2056 0090 B969     		ldr	r1, [r7, #24]
 2057              	.LBE174:
 2058              	.LBE173:
 2059              		.loc 1 108 0
 2060 0092 0120     		movs	r0, #1
 2061 0094 8A68     		ldr	r2, [r1, #8]
 2062 0096 A31A     		subs	r3, r4, r2
 2063 0098 5942     		rsbs	r1, r3, #0
ARM GAS  /tmp/ccv0K2b2.s 			page 103


 2064 009a 5941     		adcs	r1, r1, r3
 2065 009c FFF7FEFF 		bl	_test_assert
 2066              	.LVL72:
 2067 00a0 08B1     		cbz	r0, .L17
 2068              		.loc 1 110 0
 2069 00a2 05B0     		add	sp, sp, #20
 2070 00a4 F0BD     		pop	{r4, r5, r6, r7, pc}
 2071              	.L17:
 2072              		.loc 1 109 0
 2073 00a6 0D49     		ldr	r1, .L18+40
 2074 00a8 0220     		movs	r0, #2
 2075              		.loc 1 110 0
 2076 00aa 05B0     		add	sp, sp, #20
 2077 00ac BDE8F040 		pop	{r4, r5, r6, r7, lr}
 2078              		.loc 1 109 0
 2079 00b0 FFF7FEBF 		b	_test_assert_sequence
 2080              	.LVL73:
 2081              	.L19:
 2082              		.align	2
 2083              	.L18:
 2084 00b4 00000000 		.word	ch
 2085 00b8 00000000 		.word	wa
 2086 00bc 10000000 		.word	.LC4
 2087 00c0 00000000 		.word	.LANCHOR2
 2088 00c4 00000000 		.word	thread1
 2089 00c8 00000000 		.word	threads
 2090 00cc 14000000 		.word	.LC5
 2091 00d0 04000000 		.word	.LC1
 2092 00d4 08000000 		.word	.LC2
 2093 00d8 00000000 		.word	.LC0
 2094 00dc 18000000 		.word	.LC6
 2095              		.cfi_endproc
 2096              	.LFE167:
 2097              		.size	mtx1_execute, .-mtx1_execute
 2098              		.section	.text.mtx5_execute,"ax",%progbits
 2099              		.align	2
 2100              		.p2align 4,,15
 2101              		.thumb
 2102              		.thumb_func
 2103              		.type	mtx5_execute, %function
 2104              	mtx5_execute:
 2105              	.LFB173:
 2106              		.loc 1 434 0
 2107              		.cfi_startproc
 2108              		@ args = 0, pretend = 0, frame = 0
 2109              		@ frame_needed = 0, uses_anonymous_args = 0
 2110 0000 F8B5     		push	{r3, r4, r5, r6, r7, lr}
 2111              	.LCFI16:
 2112              		.cfi_def_cfa_offset 24
 2113              		.cfi_offset 3, -24
 2114              		.cfi_offset 4, -20
 2115              		.cfi_offset 5, -16
 2116              		.cfi_offset 6, -12
 2117              		.cfi_offset 7, -8
 2118              		.cfi_offset 14, -4
 2119              	.LBB175:
 2120              	.LBB176:
ARM GAS  /tmp/ccv0K2b2.s 			page 104


 2121              	.LBB177:
 2122              	.LBB178:
 2123              		.loc 2 276 0
 2124 0002 2E4D     		ldr	r5, .L25
 2125              	.LBE178:
 2126              	.LBE177:
 2127              	.LBE176:
 2128              	.LBE175:
 2129              		.loc 1 440 0
 2130 0004 2E4C     		ldr	r4, .L25+4
 2131              	.LBB181:
 2132              	.LBB179:
 2133              		.loc 2 287 0
 2134 0006 AB69     		ldr	r3, [r5, #24]
 2135              	.LBE179:
 2136              	.LBE181:
 2137              		.loc 1 440 0
 2138 0008 2046     		mov	r0, r4
 2139              	.LBB182:
 2140              	.LBB180:
 2141              		.loc 2 287 0
 2142 000a 9E68     		ldr	r6, [r3, #8]
 2143              	.LBE180:
 2144              	.LBE182:
 2145              		.loc 1 440 0
 2146 000c FFF7FEFF 		bl	chMtxTryLock
 2147              	.LVL74:
 2148              		.loc 1 441 0
 2149 0010 0146     		mov	r1, r0
 2150 0012 0120     		movs	r0, #1
 2151              	.LVL75:
 2152 0014 FFF7FEFF 		bl	_test_assert
 2153              	.LVL76:
 2154 0018 00B1     		cbz	r0, .L24
 2155              	.L20:
 2156 001a F8BD     		pop	{r3, r4, r5, r6, r7, pc}
 2157              	.L24:
 2158              		.loc 1 443 0
 2159 001c 2046     		mov	r0, r4
 2160 001e FFF7FEFF 		bl	chMtxTryLock
 2161              	.LVL77:
 2162              		.loc 1 444 0
 2163 0022 80F00101 		eor	r1, r0, #1
 2164 0026 C9B2     		uxtb	r1, r1
 2165 0028 0220     		movs	r0, #2
 2166              	.LVL78:
 2167 002a FFF7FEFF 		bl	_test_assert
 2168              	.LVL79:
 2169 002e 0746     		mov	r7, r0
 2170 0030 0028     		cmp	r0, #0
 2171 0032 F2D1     		bne	.L20
 2172              	.LVL80:
 2173              	.LBB183:
 2174              	.LBB184:
 2175              	.LBB185:
 2176              	.LBB186:
 2177              		.loc 3 546 0
ARM GAS  /tmp/ccv0K2b2.s 			page 105


 2178 0034 2020     		movs	r0, #32
 2179              	@ 546 "../../../os/ext/CMSIS/include/core_cmFunc.h" 1
 2180 0036 80F31188 		MSR basepri, r0
 2181              	@ 0 "" 2
 2182              		.thumb
 2183              	.LBE186:
 2184              	.LBE185:
 2185              	.LBE184:
 2186              	.LBE183:
 2187              		.loc 1 447 0
 2188 003a 2046     		mov	r0, r4
 2189 003c FFF7FEFF 		bl	chMtxUnlockS
 2190              	.LVL81:
 2191              	.LBB187:
 2192              	.LBB188:
 2193              	.LBB189:
 2194              	.LBB190:
 2195              	.LBB191:
 2196              		.loc 3 546 0
 2197              	@ 546 "../../../os/ext/CMSIS/include/core_cmFunc.h" 1
 2198 0040 87F31188 		MSR basepri, r7
 2199              	@ 0 "" 2
 2200              	.LVL82:
 2201              		.thumb
 2202              	.LBE191:
 2203              	.LBE190:
 2204              	.LBE189:
 2205              	.LBE188:
 2206              	.LBE187:
 2207              	.LBB192:
 2208              	.LBB193:
 2209              		.file 4 "../../../os/rt/include/chschd.h"
 2210              		.loc 4 467 0
 2211 0044 2268     		ldr	r2, [r4, #0]
 2212              	.LBE193:
 2213              	.LBE192:
 2214              		.loc 1 450 0
 2215 0046 0320     		movs	r0, #3
 2216 0048 B2EB040C 		subs	ip, r2, r4
 2217 004c DCF10003 		rsbs	r3, ip, #0
 2218 0050 53EB0C01 		adcs	r1, r3, ip
 2219 0054 FFF7FEFF 		bl	_test_assert
 2220              	.LVL83:
 2221 0058 0028     		cmp	r0, #0
 2222 005a DED1     		bne	.L20
 2223              		.loc 1 451 0
 2224 005c A168     		ldr	r1, [r4, #8]
 2225 005e 0420     		movs	r0, #4
 2226 0060 D1F10101 		rsbs	r1, r1, #1
 2227 0064 38BF     		it	cc
 2228 0066 0021     		movcc	r1, #0
 2229 0068 FFF7FEFF 		bl	_test_assert
 2230              	.LVL84:
 2231 006c 0028     		cmp	r0, #0
 2232 006e D4D1     		bne	.L20
 2233              	.LBB194:
 2234              	.LBB195:
ARM GAS  /tmp/ccv0K2b2.s 			page 106


 2235              		.loc 2 287 0
 2236 0070 AA69     		ldr	r2, [r5, #24]
 2237              	.LBE195:
 2238              	.LBE194:
 2239              		.loc 1 452 0
 2240 0072 0520     		movs	r0, #5
 2241 0074 9368     		ldr	r3, [r2, #8]
 2242 0076 B6EB030E 		subs	lr, r6, r3
 2243 007a DEF10001 		rsbs	r1, lr, #0
 2244 007e 51EB0E01 		adcs	r1, r1, lr
 2245 0082 FFF7FEFF 		bl	_test_assert
 2246              	.LVL85:
 2247 0086 0028     		cmp	r0, #0
 2248 0088 C7D1     		bne	.L20
 2249              		.loc 1 455 0
 2250 008a 2046     		mov	r0, r4
 2251 008c FFF7FEFF 		bl	chMtxLock
 2252              	.LVL86:
 2253              		.loc 1 456 0
 2254 0090 FFF7FEFF 		bl	chMtxUnlockAll
 2255              	.LVL87:
 2256              	.LBB196:
 2257              	.LBB197:
 2258              		.loc 4 467 0
 2259 0094 2268     		ldr	r2, [r4, #0]
 2260              	.LBE197:
 2261              	.LBE196:
 2262              		.loc 1 457 0
 2263 0096 0620     		movs	r0, #6
 2264 0098 131B     		subs	r3, r2, r4
 2265 009a 5942     		rsbs	r1, r3, #0
 2266 009c 5941     		adcs	r1, r1, r3
 2267 009e FFF7FEFF 		bl	_test_assert
 2268              	.LVL88:
 2269 00a2 0028     		cmp	r0, #0
 2270 00a4 B9D1     		bne	.L20
 2271              		.loc 1 458 0
 2272 00a6 A268     		ldr	r2, [r4, #8]
 2273 00a8 0720     		movs	r0, #7
 2274 00aa D2F10101 		rsbs	r1, r2, #1
 2275 00ae 38BF     		it	cc
 2276 00b0 0021     		movcc	r1, #0
 2277              		.loc 1 459 0
 2278 00b2 BDE8F840 		pop	{r3, r4, r5, r6, r7, lr}
 2279              		.loc 1 458 0
 2280 00b6 FFF7FEBF 		b	_test_assert
 2281              	.LVL89:
 2282              	.L26:
 2283 00ba 00BF     		.align	2
 2284              	.L25:
 2285 00bc 00000000 		.word	ch
 2286 00c0 00000000 		.word	.LANCHOR2
 2287              		.cfi_endproc
 2288              	.LFE173:
 2289              		.size	mtx5_execute, .-mtx5_execute
 2290 00c4 AFF30080 		.section	.text.mtx4_execute,"ax",%progbits
 2290      AFF30080 
ARM GAS  /tmp/ccv0K2b2.s 			page 107


 2290      AFF30080 
 2291              		.align	2
 2292              		.p2align 4,,15
 2293              		.thumb
 2294              		.thumb_func
 2295              		.type	mtx4_execute, %function
 2296              	mtx4_execute:
 2297              	.LFB171:
 2298              		.loc 1 365 0
 2299              		.cfi_startproc
 2300              		@ args = 0, pretend = 0, frame = 8
 2301              		@ frame_needed = 0, uses_anonymous_args = 0
 2302 0000 2DE9F046 		push	{r4, r5, r6, r7, r9, sl, lr}
 2303              	.LCFI17:
 2304              		.cfi_def_cfa_offset 28
 2305              		.cfi_offset 4, -28
 2306              		.cfi_offset 5, -24
 2307              		.cfi_offset 6, -20
 2308              		.cfi_offset 7, -16
 2309              		.cfi_offset 9, -12
 2310              		.cfi_offset 10, -8
 2311              		.cfi_offset 14, -4
 2312              	.LBB198:
 2313              	.LBB199:
 2314              	.LBB200:
 2315              	.LBB201:
 2316              		.loc 2 276 0
 2317 0004 8F4D     		ldr	r5, .L32
 2318              	.LBE201:
 2319              	.LBE200:
 2320              	.LBE199:
 2321              	.LBE198:
 2322              		.loc 1 371 0
 2323 0006 904E     		ldr	r6, .L32+4
 2324              	.LBB204:
 2325              	.LBB202:
 2326              		.loc 2 287 0
 2327 0008 AB69     		ldr	r3, [r5, #24]
 2328              	.LBE202:
 2329              	.LBE204:
 2330              		.loc 1 371 0
 2331 000a 3268     		ldr	r2, [r6, #0]
 2332              	.LBB205:
 2333              	.LBB203:
 2334              		.loc 2 287 0
 2335 000c 9C68     		ldr	r4, [r3, #8]
 2336              	.LBE203:
 2337              	.LBE205:
 2338              		.loc 1 365 0
 2339 000e 85B0     		sub	sp, sp, #20
 2340              	.LCFI18:
 2341              		.cfi_def_cfa_offset 48
 2342              		.loc 1 371 0
 2343 0010 8E48     		ldr	r0, .L32+8
 2344 0012 0392     		str	r2, [sp, #12]
 2345              		.loc 1 369 0
 2346 0014 04F10109 		add	r9, r4, #1
ARM GAS  /tmp/ccv0K2b2.s 			page 108


 2347              	.LVL90:
 2348              		.loc 1 371 0
 2349 0018 4FF4A471 		mov	r1, #328
 2350 001c 4A46     		mov	r2, r9
 2351 001e 8C4B     		ldr	r3, .L32+12
 2352 0020 0090     		str	r0, [sp, #0]
 2353 0022 0398     		ldr	r0, [sp, #12]
 2354 0024 FFF7FEFF 		bl	chThdCreateStatic
 2355              	.LVL91:
 2356 0028 8A4F     		ldr	r7, .L32+16
 2357              		.loc 1 372 0
 2358 002a 7668     		ldr	r6, [r6, #4]
 2359              		.loc 1 371 0
 2360 002c 3860     		str	r0, [r7, #0]
 2361              		.loc 1 372 0
 2362 002e 8A48     		ldr	r0, .L32+20
 2363              		.loc 1 370 0
 2364 0030 04F1020A 		add	sl, r4, #2
 2365              	.LVL92:
 2366              		.loc 1 372 0
 2367 0034 4FF4A471 		mov	r1, #328
 2368 0038 5246     		mov	r2, sl
 2369 003a 884B     		ldr	r3, .L32+24
 2370 003c 0090     		str	r0, [sp, #0]
 2371 003e 3046     		mov	r0, r6
 2372 0040 FFF7FEFF 		bl	chThdCreateStatic
 2373              	.LVL93:
 2374 0044 7860     		str	r0, [r7, #4]
 2375              		.loc 1 373 0
 2376 0046 8648     		ldr	r0, .L32+28
 2377 0048 FFF7FEFF 		bl	chMtxLock
 2378              	.LVL94:
 2379              	.LBB206:
 2380              	.LBB207:
 2381              		.loc 2 287 0
 2382 004c A969     		ldr	r1, [r5, #24]
 2383              	.LBE207:
 2384              	.LBE206:
 2385              		.loc 1 374 0
 2386 004e 0120     		movs	r0, #1
 2387 0050 8B68     		ldr	r3, [r1, #8]
 2388 0052 E21A     		subs	r2, r4, r3
 2389 0054 5142     		rsbs	r1, r2, #0
 2390 0056 5141     		adcs	r1, r1, r2
 2391 0058 FFF7FEFF 		bl	_test_assert
 2392              	.LVL95:
 2393 005c 10B1     		cbz	r0, .L31
 2394              	.L27:
 2395              		.loc 1 410 0
 2396 005e 05B0     		add	sp, sp, #20
 2397 0060 BDE8F086 		pop	{r4, r5, r6, r7, r9, sl, pc}
 2398              	.L31:
 2399              		.loc 1 375 0
 2400 0064 4FF47A70 		mov	r0, #1000
 2401 0068 FFF7FEFF 		bl	chThdSleep
 2402              	.LVL96:
 2403              	.LBB208:
ARM GAS  /tmp/ccv0K2b2.s 			page 109


 2404              	.LBB209:
 2405              		.loc 2 287 0
 2406 006c AB69     		ldr	r3, [r5, #24]
 2407              	.LBE209:
 2408              	.LBE208:
 2409              		.loc 1 376 0
 2410 006e 0220     		movs	r0, #2
 2411 0070 9A68     		ldr	r2, [r3, #8]
 2412 0072 B9EB0203 		subs	r3, r9, r2
 2413 0076 5942     		rsbs	r1, r3, #0
 2414 0078 5941     		adcs	r1, r1, r3
 2415 007a FFF7FEFF 		bl	_test_assert
 2416              	.LVL97:
 2417 007e 0028     		cmp	r0, #0
 2418 0080 EDD1     		bne	.L27
 2419              		.loc 1 377 0
 2420 0082 7848     		ldr	r0, .L32+32
 2421 0084 FFF7FEFF 		bl	chMtxLock
 2422              	.LVL98:
 2423              	.LBB210:
 2424              	.LBB211:
 2425              		.loc 2 287 0
 2426 0088 AA69     		ldr	r2, [r5, #24]
 2427              	.LBE211:
 2428              	.LBE210:
 2429              		.loc 1 378 0
 2430 008a 0320     		movs	r0, #3
 2431 008c 9368     		ldr	r3, [r2, #8]
 2432 008e B9EB030C 		subs	ip, r9, r3
 2433 0092 DCF10001 		rsbs	r1, ip, #0
 2434 0096 51EB0C01 		adcs	r1, r1, ip
 2435 009a FFF7FEFF 		bl	_test_assert
 2436              	.LVL99:
 2437 009e 0028     		cmp	r0, #0
 2438 00a0 DDD1     		bne	.L27
 2439              		.loc 1 379 0
 2440 00a2 4FF47A70 		mov	r0, #1000
 2441 00a6 FFF7FEFF 		bl	chThdSleep
 2442              	.LVL100:
 2443              	.LBB212:
 2444              	.LBB213:
 2445              		.loc 2 287 0
 2446 00aa AA69     		ldr	r2, [r5, #24]
 2447              	.LBE213:
 2448              	.LBE212:
 2449              		.loc 1 380 0
 2450 00ac 0420     		movs	r0, #4
 2451 00ae 9368     		ldr	r3, [r2, #8]
 2452 00b0 BAEB030E 		subs	lr, sl, r3
 2453 00b4 DEF10001 		rsbs	r1, lr, #0
 2454 00b8 51EB0E01 		adcs	r1, r1, lr
 2455 00bc FFF7FEFF 		bl	_test_assert
 2456              	.LVL101:
 2457 00c0 0028     		cmp	r0, #0
 2458 00c2 CCD1     		bne	.L27
 2459              		.loc 1 381 0
 2460 00c4 6748     		ldr	r0, .L32+32
ARM GAS  /tmp/ccv0K2b2.s 			page 110


 2461 00c6 FFF7FEFF 		bl	chMtxUnlock
 2462              	.LVL102:
 2463              	.LBB214:
 2464              	.LBB215:
 2465              		.loc 2 287 0
 2466 00ca AA69     		ldr	r2, [r5, #24]
 2467              	.LBE215:
 2468              	.LBE214:
 2469              		.loc 1 382 0
 2470 00cc 0520     		movs	r0, #5
 2471 00ce 9368     		ldr	r3, [r2, #8]
 2472 00d0 B9EB0302 		subs	r2, r9, r3
 2473 00d4 5142     		rsbs	r1, r2, #0
 2474 00d6 5141     		adcs	r1, r1, r2
 2475 00d8 FFF7FEFF 		bl	_test_assert
 2476              	.LVL103:
 2477 00dc 0028     		cmp	r0, #0
 2478 00de BED1     		bne	.L27
 2479              		.loc 1 383 0
 2480 00e0 4FF47A70 		mov	r0, #1000
 2481 00e4 FFF7FEFF 		bl	chThdSleep
 2482              	.LVL104:
 2483              	.LBB216:
 2484              	.LBB217:
 2485              		.loc 2 287 0
 2486 00e8 AB69     		ldr	r3, [r5, #24]
 2487              	.LBE217:
 2488              	.LBE216:
 2489              		.loc 1 384 0
 2490 00ea 0620     		movs	r0, #6
 2491 00ec 9A68     		ldr	r2, [r3, #8]
 2492 00ee B9EB0203 		subs	r3, r9, r2
 2493 00f2 5942     		rsbs	r1, r3, #0
 2494 00f4 5941     		adcs	r1, r1, r3
 2495 00f6 FFF7FEFF 		bl	_test_assert
 2496              	.LVL105:
 2497 00fa 0028     		cmp	r0, #0
 2498 00fc AFD1     		bne	.L27
 2499              		.loc 1 385 0
 2500 00fe FFF7FEFF 		bl	chMtxUnlockAll
 2501              	.LVL106:
 2502              	.LBB218:
 2503              	.LBB219:
 2504              		.loc 2 287 0
 2505 0102 AA69     		ldr	r2, [r5, #24]
 2506              	.LBE219:
 2507              	.LBE218:
 2508              		.loc 1 386 0
 2509 0104 0720     		movs	r0, #7
 2510 0106 9368     		ldr	r3, [r2, #8]
 2511 0108 B4EB030C 		subs	ip, r4, r3
 2512 010c DCF10001 		rsbs	r1, ip, #0
 2513 0110 51EB0C01 		adcs	r1, r1, ip
 2514 0114 FFF7FEFF 		bl	_test_assert
 2515              	.LVL107:
 2516 0118 0028     		cmp	r0, #0
 2517 011a A0D1     		bne	.L27
ARM GAS  /tmp/ccv0K2b2.s 			page 111


 2518              		.loc 1 387 0
 2519 011c FFF7FEFF 		bl	test_wait_threads
 2520              	.LVL108:
 2521              		.loc 1 390 0
 2522 0120 5148     		ldr	r0, .L32+36
 2523 0122 4FF4A471 		mov	r1, #328
 2524 0126 4A46     		mov	r2, r9
 2525 0128 494B     		ldr	r3, .L32+12
 2526 012a 0090     		str	r0, [sp, #0]
 2527 012c 0398     		ldr	r0, [sp, #12]
 2528 012e FFF7FEFF 		bl	chThdCreateStatic
 2529              	.LVL109:
 2530 0132 3860     		str	r0, [r7, #0]
 2531              		.loc 1 391 0
 2532 0134 4D48     		ldr	r0, .L32+40
 2533 0136 4FF4A471 		mov	r1, #328
 2534 013a 5246     		mov	r2, sl
 2535 013c 474B     		ldr	r3, .L32+24
 2536 013e 0090     		str	r0, [sp, #0]
 2537 0140 3046     		mov	r0, r6
 2538 0142 FFF7FEFF 		bl	chThdCreateStatic
 2539              	.LVL110:
 2540 0146 7860     		str	r0, [r7, #4]
 2541              		.loc 1 392 0
 2542 0148 4548     		ldr	r0, .L32+28
 2543 014a FFF7FEFF 		bl	chMtxLock
 2544              	.LVL111:
 2545              	.LBB220:
 2546              	.LBB221:
 2547              		.loc 2 287 0
 2548 014e AA69     		ldr	r2, [r5, #24]
 2549              	.LBE221:
 2550              	.LBE220:
 2551              		.loc 1 393 0
 2552 0150 0820     		movs	r0, #8
 2553 0152 9368     		ldr	r3, [r2, #8]
 2554 0154 B4EB030E 		subs	lr, r4, r3
 2555 0158 DEF10001 		rsbs	r1, lr, #0
 2556 015c 51EB0E01 		adcs	r1, r1, lr
 2557 0160 FFF7FEFF 		bl	_test_assert
 2558              	.LVL112:
 2559 0164 0028     		cmp	r0, #0
 2560 0166 7FF47AAF 		bne	.L27
 2561              		.loc 1 394 0
 2562 016a 4FF47A70 		mov	r0, #1000
 2563 016e FFF7FEFF 		bl	chThdSleep
 2564              	.LVL113:
 2565              	.LBB222:
 2566              	.LBB223:
 2567              		.loc 2 287 0
 2568 0172 AA69     		ldr	r2, [r5, #24]
 2569              	.LBE223:
 2570              	.LBE222:
 2571              		.loc 1 395 0
 2572 0174 0920     		movs	r0, #9
 2573 0176 9368     		ldr	r3, [r2, #8]
 2574 0178 B9EB0302 		subs	r2, r9, r3
ARM GAS  /tmp/ccv0K2b2.s 			page 112


 2575 017c 5142     		rsbs	r1, r2, #0
 2576 017e 5141     		adcs	r1, r1, r2
 2577 0180 FFF7FEFF 		bl	_test_assert
 2578              	.LVL114:
 2579 0184 0028     		cmp	r0, #0
 2580 0186 7FF46AAF 		bne	.L27
 2581              		.loc 1 396 0
 2582 018a 3648     		ldr	r0, .L32+32
 2583 018c FFF7FEFF 		bl	chMtxLock
 2584              	.LVL115:
 2585              	.LBB224:
 2586              	.LBB225:
 2587              		.loc 2 287 0
 2588 0190 AB69     		ldr	r3, [r5, #24]
 2589              	.LBE225:
 2590              	.LBE224:
 2591              		.loc 1 397 0
 2592 0192 0A20     		movs	r0, #10
 2593 0194 9A68     		ldr	r2, [r3, #8]
 2594 0196 B9EB0203 		subs	r3, r9, r2
 2595 019a 5942     		rsbs	r1, r3, #0
 2596 019c 5941     		adcs	r1, r1, r3
 2597 019e FFF7FEFF 		bl	_test_assert
 2598              	.LVL116:
 2599 01a2 0028     		cmp	r0, #0
 2600 01a4 7FF45BAF 		bne	.L27
 2601              		.loc 1 398 0
 2602 01a8 4FF47A70 		mov	r0, #1000
 2603 01ac FFF7FEFF 		bl	chThdSleep
 2604              	.LVL117:
 2605              	.LBB226:
 2606              	.LBB227:
 2607              		.loc 2 287 0
 2608 01b0 AE69     		ldr	r6, [r5, #24]
 2609              	.LBE227:
 2610              	.LBE226:
 2611              		.loc 1 399 0
 2612 01b2 0B20     		movs	r0, #11
 2613 01b4 B268     		ldr	r2, [r6, #8]
 2614 01b6 BAEB020C 		subs	ip, sl, r2
 2615 01ba DCF10003 		rsbs	r3, ip, #0
 2616 01be 53EB0C01 		adcs	r1, r3, ip
 2617 01c2 FFF7FEFF 		bl	_test_assert
 2618              	.LVL118:
 2619 01c6 0646     		mov	r6, r0
 2620 01c8 0028     		cmp	r0, #0
 2621 01ca 7FF448AF 		bne	.L27
 2622              	.LVL119:
 2623              	.LBB228:
 2624              	.LBB229:
 2625              	.LBB230:
 2626              	.LBB231:
 2627              		.loc 3 546 0
 2628 01ce 2020     		movs	r0, #32
 2629              	@ 546 "../../../os/ext/CMSIS/include/core_cmFunc.h" 1
 2630 01d0 80F31188 		MSR basepri, r0
 2631              	@ 0 "" 2
ARM GAS  /tmp/ccv0K2b2.s 			page 113


 2632              		.thumb
 2633              	.LBE231:
 2634              	.LBE230:
 2635              	.LBE229:
 2636              	.LBE228:
 2637              		.loc 1 401 0
 2638 01d4 2348     		ldr	r0, .L32+32
 2639 01d6 FFF7FEFF 		bl	chMtxUnlockS
 2640              	.LVL120:
 2641              		.loc 1 402 0
 2642 01da FFF7FEFF 		bl	chSchRescheduleS
 2643              	.LVL121:
 2644              	.LBB232:
 2645              	.LBB233:
 2646              	.LBB234:
 2647              	.LBB235:
 2648              	.LBB236:
 2649              		.loc 3 546 0
 2650              	@ 546 "../../../os/ext/CMSIS/include/core_cmFunc.h" 1
 2651 01de 86F31188 		MSR basepri, r6
 2652              	@ 0 "" 2
 2653              		.thumb
 2654              	.LBE236:
 2655              	.LBE235:
 2656              	.LBE234:
 2657              	.LBE233:
 2658              	.LBE232:
 2659              	.LBB237:
 2660              	.LBB238:
 2661              		.loc 2 287 0
 2662 01e2 A969     		ldr	r1, [r5, #24]
 2663              	.LBE238:
 2664              	.LBE237:
 2665              		.loc 1 404 0
 2666 01e4 0C20     		movs	r0, #12
 2667 01e6 8A68     		ldr	r2, [r1, #8]
 2668 01e8 B9EB020E 		subs	lr, r9, r2
 2669 01ec DEF10003 		rsbs	r3, lr, #0
 2670 01f0 53EB0E01 		adcs	r1, r3, lr
 2671 01f4 FFF7FEFF 		bl	_test_assert
 2672              	.LVL122:
 2673 01f8 0028     		cmp	r0, #0
 2674 01fa 7FF430AF 		bne	.L27
 2675              		.loc 1 405 0
 2676 01fe 4FF47A70 		mov	r0, #1000
 2677 0202 FFF7FEFF 		bl	chThdSleep
 2678              	.LVL123:
 2679              	.LBB239:
 2680              	.LBB240:
 2681              		.loc 2 287 0
 2682 0206 A969     		ldr	r1, [r5, #24]
 2683              	.LBE240:
 2684              	.LBE239:
 2685              		.loc 1 406 0
 2686 0208 0D20     		movs	r0, #13
 2687 020a 8A68     		ldr	r2, [r1, #8]
 2688 020c B9EB0203 		subs	r3, r9, r2
ARM GAS  /tmp/ccv0K2b2.s 			page 114


 2689 0210 5942     		rsbs	r1, r3, #0
 2690 0212 5941     		adcs	r1, r1, r3
 2691 0214 FFF7FEFF 		bl	_test_assert
 2692              	.LVL124:
 2693 0218 0028     		cmp	r0, #0
 2694 021a 7FF420AF 		bne	.L27
 2695              		.loc 1 407 0
 2696 021e FFF7FEFF 		bl	chMtxUnlockAll
 2697              	.LVL125:
 2698              	.LBB241:
 2699              	.LBB242:
 2700              		.loc 2 287 0
 2701 0222 AA69     		ldr	r2, [r5, #24]
 2702              	.LBE242:
 2703              	.LBE241:
 2704              		.loc 1 408 0
 2705 0224 0E20     		movs	r0, #14
 2706 0226 9368     		ldr	r3, [r2, #8]
 2707 0228 E21A     		subs	r2, r4, r3
 2708 022a 5142     		rsbs	r1, r2, #0
 2709 022c 5141     		adcs	r1, r1, r2
 2710 022e FFF7FEFF 		bl	_test_assert
 2711              	.LVL126:
 2712 0232 0028     		cmp	r0, #0
 2713 0234 7FF413AF 		bne	.L27
 2714              		.loc 1 410 0
 2715 0238 05B0     		add	sp, sp, #20
 2716 023a BDE8F046 		pop	{r4, r5, r6, r7, r9, sl, lr}
 2717              		.loc 1 409 0
 2718 023e FFF7FEBF 		b	test_wait_threads
 2719              	.LVL127:
 2720              	.L33:
 2721 0242 00BF     		.align	2
 2722              	.L32:
 2723 0244 00000000 		.word	ch
 2724 0248 00000000 		.word	wa
 2725 024c 08000000 		.word	.LC2
 2726 0250 00000000 		.word	thread4a
 2727 0254 00000000 		.word	threads
 2728 0258 00000000 		.word	.LC0
 2729 025c 00000000 		.word	thread4b
 2730 0260 00000000 		.word	.LANCHOR1
 2731 0264 00000000 		.word	.LANCHOR2
 2732 0268 14000000 		.word	.LC5
 2733 026c 04000000 		.word	.LC1
 2734              		.cfi_endproc
 2735              	.LFE171:
 2736              		.size	mtx4_execute, .-mtx4_execute
 2737              		.section	.text.thread4b,"ax",%progbits
 2738              		.align	2
 2739              		.p2align 4,,15
 2740              		.thumb
 2741              		.thumb_func
 2742              		.type	thread4b, %function
 2743              	thread4b:
 2744              	.LFB170:
 2745              		.loc 1 356 0
ARM GAS  /tmp/ccv0K2b2.s 			page 115


 2746              		.cfi_startproc
 2747              		@ args = 0, pretend = 0, frame = 0
 2748              		@ frame_needed = 0, uses_anonymous_args = 0
 2749              	.LVL128:
 2750 0000 10B5     		push	{r4, lr}
 2751              	.LCFI19:
 2752              		.cfi_def_cfa_offset 8
 2753              		.cfi_offset 4, -8
 2754              		.cfi_offset 14, -4
 2755              		.loc 1 360 0
 2756 0002 40F20004 		movw	r4, #:lower16:.LANCHOR2
 2757 0006 C0F20004 		movt	r4, #:upper16:.LANCHOR2
 2758              		.loc 1 359 0
 2759 000a 40F2DC50 		movw	r0, #1500
 2760              	.LVL129:
 2761 000e FFF7FEFF 		bl	chThdSleep
 2762              	.LVL130:
 2763              		.loc 1 360 0
 2764 0012 2046     		mov	r0, r4
 2765 0014 FFF7FEFF 		bl	chMtxLock
 2766              	.LVL131:
 2767              		.loc 1 361 0
 2768 0018 2046     		mov	r0, r4
 2769 001a FFF7FEFF 		bl	chMtxUnlock
 2770              	.LVL132:
 2771              		.loc 1 363 0
 2772 001e 0020     		movs	r0, #0
 2773 0020 10BD     		pop	{r4, pc}
 2774              		.cfi_endproc
 2775              	.LFE170:
 2776              		.size	thread4b, .-thread4b
 2777 0022 00BFAFF3 		.section	.text.thread4a,"ax",%progbits
 2777      0080AFF3 
 2777      0080AFF3 
 2777      0080
 2778              		.align	2
 2779              		.p2align 4,,15
 2780              		.thumb
 2781              		.thumb_func
 2782              		.type	thread4a, %function
 2783              	thread4a:
 2784              	.LFB169:
 2785              		.loc 1 347 0
 2786              		.cfi_startproc
 2787              		@ args = 0, pretend = 0, frame = 0
 2788              		@ frame_needed = 0, uses_anonymous_args = 0
 2789              	.LVL133:
 2790 0000 10B5     		push	{r4, lr}
 2791              	.LCFI20:
 2792              		.cfi_def_cfa_offset 8
 2793              		.cfi_offset 4, -8
 2794              		.cfi_offset 14, -4
 2795              		.loc 1 351 0
 2796 0002 40F20004 		movw	r4, #:lower16:.LANCHOR1
 2797 0006 C0F20004 		movt	r4, #:upper16:.LANCHOR1
 2798              		.loc 1 350 0
 2799 000a 4FF4FA70 		mov	r0, #500
ARM GAS  /tmp/ccv0K2b2.s 			page 116


 2800              	.LVL134:
 2801 000e FFF7FEFF 		bl	chThdSleep
 2802              	.LVL135:
 2803              		.loc 1 351 0
 2804 0012 2046     		mov	r0, r4
 2805 0014 FFF7FEFF 		bl	chMtxLock
 2806              	.LVL136:
 2807              		.loc 1 352 0
 2808 0018 2046     		mov	r0, r4
 2809 001a FFF7FEFF 		bl	chMtxUnlock
 2810              	.LVL137:
 2811              		.loc 1 354 0
 2812 001e 0020     		movs	r0, #0
 2813 0020 10BD     		pop	{r4, pc}
 2814              		.cfi_endproc
 2815              	.LFE169:
 2816              		.size	thread4a, .-thread4a
 2817              		.global	patternmtx
 2818              		.global	testmtx8
 2819              		.global	testmtx7
 2820              		.global	testmtx6
 2821              		.global	testmtx5
 2822              		.global	testmtx4
 2823              		.global	testmtx1
 2824 0022 00BFAFF3 		.section	.rodata.testmtx5,"a",%progbits
 2824      0080AFF3 
 2824      0080AFF3 
 2824      0080
 2825              		.align	2
 2826              		.type	testmtx5, %object
 2827              		.size	testmtx5, 16
 2828              	testmtx5:
 2829 0000 64000000 		.word	.LC10
 2830 0004 00000000 		.word	mtx5_setup
 2831 0008 00000000 		.word	0
 2832 000c 00000000 		.word	mtx5_execute
 2833              		.section	.rodata.testmtx6,"a",%progbits
 2834              		.align	2
 2835              		.type	testmtx6, %object
 2836              		.size	testmtx6, 16
 2837              	testmtx6:
 2838 0000 4C000000 		.word	.LC9
 2839 0004 00000000 		.word	mtx6_setup
 2840 0008 00000000 		.word	0
 2841 000c 00000000 		.word	mtx6_execute
 2842              		.section	.rodata.testmtx7,"a",%progbits
 2843              		.align	2
 2844              		.type	testmtx7, %object
 2845              		.size	testmtx7, 16
 2846              	testmtx7:
 2847 0000 34000000 		.word	.LC8
 2848 0004 00000000 		.word	mtx7_setup
 2849 0008 00000000 		.word	0
 2850 000c 00000000 		.word	mtx7_execute
 2851              		.section	.rodata.testmtx8,"a",%progbits
 2852              		.align	2
 2853              		.type	testmtx8, %object
ARM GAS  /tmp/ccv0K2b2.s 			page 117


 2854              		.size	testmtx8, 16
 2855              	testmtx8:
 2856 0000 20000000 		.word	.LC7
 2857 0004 00000000 		.word	mtx8_setup
 2858 0008 00000000 		.word	0
 2859 000c 00000000 		.word	mtx8_execute
 2860              		.section	.data.m1,"aw",%progbits
 2861              		.align	2
 2862              		.set	.LANCHOR2,. + 0
 2863              		.type	m1, %object
 2864              		.size	m1, 16
 2865              	m1:
 2866 0000 00000000 		.word	m1
 2867 0004 00000000 		.word	m1
 2868 0008 00000000 		.word	0
 2869 000c 00000000 		.word	0
 2870              		.section	.data.m2,"aw",%progbits
 2871              		.align	2
 2872              		.set	.LANCHOR1,. + 0
 2873              		.type	m2, %object
 2874              		.size	m2, 16
 2875              	m2:
 2876 0000 00000000 		.word	m2
 2877 0004 00000000 		.word	m2
 2878 0008 00000000 		.word	0
 2879 000c 00000000 		.word	0
 2880              		.section	.rodata.str1.4,"aMS",%progbits,1
 2881              		.align	2
 2882              	.LC0:
 2883 0000 4100     		.ascii	"A\000"
 2884 0002 0000     		.space	2
 2885              	.LC1:
 2886 0004 4300     		.ascii	"C\000"
 2887 0006 0000     		.space	2
 2888              	.LC2:
 2889 0008 4200     		.ascii	"B\000"
 2890 000a 0000     		.space	2
 2891              	.LC3:
 2892 000c 41424300 		.ascii	"ABC\000"
 2893              	.LC4:
 2894 0010 4500     		.ascii	"E\000"
 2895 0012 0000     		.space	2
 2896              	.LC5:
 2897 0014 4400     		.ascii	"D\000"
 2898 0016 0000     		.space	2
 2899              	.LC6:
 2900 0018 41424344 		.ascii	"ABCDE\000"
 2900      4500
 2901 001e 0000     		.space	2
 2902              	.LC7:
 2903 0020 436F6E64 		.ascii	"CondVar, boost test\000"
 2903      5661722C 
 2903      20626F6F 
 2903      73742074 
 2903      65737400 
 2904              	.LC8:
 2905 0034 436F6E64 		.ascii	"CondVar, broadcast test\000"
ARM GAS  /tmp/ccv0K2b2.s 			page 118


 2905      5661722C 
 2905      2062726F 
 2905      61646361 
 2905      73742074 
 2906              	.LC9:
 2907 004c 436F6E64 		.ascii	"CondVar, signal test\000"
 2907      5661722C 
 2907      20736967 
 2907      6E616C20 
 2907      74657374 
 2908 0061 000000   		.space	3
 2909              	.LC10:
 2910 0064 4D757465 		.ascii	"Mutexes, status\000"
 2910      7865732C 
 2910      20737461 
 2910      74757300 
 2911              	.LC11:
 2912 0074 4D757465 		.ascii	"Mutexes, priority return\000"
 2912      7865732C 
 2912      20707269 
 2912      6F726974 
 2912      79207265 
 2913 008d 000000   		.space	3
 2914              	.LC12:
 2915 0090 4D757465 		.ascii	"Mutexes, priority enqueuing test\000"
 2915      7865732C 
 2915      20707269 
 2915      6F726974 
 2915      7920656E 
 2916 00b1 000000   		.section	.rodata.patternmtx,"a",%progbits
 2917              		.align	2
 2918              		.type	patternmtx, %object
 2919              		.size	patternmtx, 28
 2920              	patternmtx:
 2921 0000 00000000 		.word	testmtx1
 2922 0004 00000000 		.word	testmtx4
 2923 0008 00000000 		.word	testmtx5
 2924 000c 00000000 		.word	testmtx6
 2925 0010 00000000 		.word	testmtx7
 2926 0014 00000000 		.word	testmtx8
 2927 0018 00000000 		.word	0
 2928              		.section	.data.c1,"aw",%progbits
 2929              		.align	2
 2930              		.set	.LANCHOR0,. + 0
 2931              		.type	c1, %object
 2932              		.size	c1, 8
 2933              	c1:
 2934 0000 00000000 		.word	c1
 2935 0004 00000000 		.word	c1
 2936              		.section	.rodata.testmtx1,"a",%progbits
 2937              		.align	2
 2938              		.type	testmtx1, %object
 2939              		.size	testmtx1, 16
 2940              	testmtx1:
 2941 0000 90000000 		.word	.LC12
 2942 0004 00000000 		.word	mtx1_setup
 2943 0008 00000000 		.word	0
ARM GAS  /tmp/ccv0K2b2.s 			page 119


 2944 000c 00000000 		.word	mtx1_execute
 2945              		.section	.rodata.testmtx4,"a",%progbits
 2946              		.align	2
 2947              		.type	testmtx4, %object
 2948              		.size	testmtx4, 16
 2949              	testmtx4:
 2950 0000 74000000 		.word	.LC11
 2951 0004 00000000 		.word	mtx4_setup
 2952 0008 00000000 		.word	0
 2953 000c 00000000 		.word	mtx4_execute
 2954              		.text
 2955              	.Letext0:
 2956              		.file 5 "/opt/ARM/gcc-arm-none-eabi-4_7-2013q3/bin/../lib/gcc/arm-none-eabi/4.7.4/include/stddef.h
 2957              		.file 6 "/opt/ARM/gcc-arm-none-eabi-4_7-2013q3/bin/../lib/gcc/arm-none-eabi/4.7.4/../../../../arm-
 2958              		.file 7 "../../../os/rt/ports/ARMCMx/compilers/GCC/chtypes.h"
 2959              		.file 8 "../../../os/rt/ports/ARMCMx/chcore.h"
 2960              		.file 9 "../../../os/rt/ports/ARMCMx/chcore_v7m.h"
 2961              		.file 10 "../../../os/rt/include/chmtx.h"
 2962              		.file 11 "../../../os/rt/include/chcond.h"
 2963              		.file 12 "../../../test/rt/test.h"
 2964              		.file 13 "../../../os/rt/include/chsys.h"
 2965              		.file 14 "../../../os/ext/CMSIS/include/core_cm3.h"
 2966              		.section	.debug_info,"",%progbits
 2967              	.Ldebug_info0:
 2968 0000 2F1B0000 		.4byte	0x1b2f
 2969 0004 0200     		.2byte	0x2
 2970 0006 00000000 		.4byte	.Ldebug_abbrev0
 2971 000a 04       		.byte	0x4
 2972 000b 01       		.uleb128 0x1
 2973 000c 25010000 		.4byte	.LASF142
 2974 0010 01       		.byte	0x1
 2975 0011 5D020000 		.4byte	.LASF143
 2976 0015 85050000 		.4byte	.LASF144
 2977 0019 A8000000 		.4byte	.Ldebug_ranges0+0xa8
 2978 001d 00000000 		.4byte	0
 2979 0021 00000000 		.4byte	0
 2980 0025 00000000 		.4byte	.Ldebug_line0
 2981 0029 02       		.uleb128 0x2
 2982 002a 8A010000 		.4byte	.LASF41
 2983 002e 44       		.byte	0x44
 2984 002f 04       		.byte	0x4
 2985 0030 79       		.byte	0x79
 2986 0031 32010000 		.4byte	0x132
 2987 0035 03       		.uleb128 0x3
 2988 0036 72040000 		.4byte	.LASF0
 2989 003a 04       		.byte	0x4
 2990 003b 7A       		.byte	0x7a
 2991 003c F3020000 		.4byte	0x2f3
 2992 0040 02       		.byte	0x2
 2993 0041 23       		.byte	0x23
 2994 0042 00       		.uleb128 0
 2995 0043 03       		.uleb128 0x3
 2996 0044 DE030000 		.4byte	.LASF1
 2997 0048 04       		.byte	0x4
 2998 0049 7C       		.byte	0x7c
 2999 004a F3020000 		.4byte	0x2f3
 3000 004e 02       		.byte	0x2
ARM GAS  /tmp/ccv0K2b2.s 			page 120


 3001 004f 23       		.byte	0x23
 3002 0050 04       		.uleb128 0x4
 3003 0051 03       		.uleb128 0x3
 3004 0052 B8000000 		.4byte	.LASF2
 3005 0056 04       		.byte	0x4
 3006 0057 7E       		.byte	0x7e
 3007 0058 E0010000 		.4byte	0x1e0
 3008 005c 02       		.byte	0x2
 3009 005d 23       		.byte	0x23
 3010 005e 08       		.uleb128 0x8
 3011 005f 03       		.uleb128 0x3
 3012 0060 BE060000 		.4byte	.LASF3
 3013 0064 04       		.byte	0x4
 3014 0065 7F       		.byte	0x7f
 3015 0066 20020000 		.4byte	0x220
 3016 006a 02       		.byte	0x2
 3017 006b 23       		.byte	0x23
 3018 006c 0C       		.uleb128 0xc
 3019 006d 03       		.uleb128 0x3
 3020 006e B3010000 		.4byte	.LASF4
 3021 0072 04       		.byte	0x4
 3022 0073 81       		.byte	0x81
 3023 0074 F3020000 		.4byte	0x2f3
 3024 0078 02       		.byte	0x2
 3025 0079 23       		.byte	0x23
 3026 007a 10       		.uleb128 0x10
 3027 007b 03       		.uleb128 0x3
 3028 007c 27030000 		.4byte	.LASF5
 3029 0080 04       		.byte	0x4
 3030 0081 82       		.byte	0x82
 3031 0082 F3020000 		.4byte	0x2f3
 3032 0086 02       		.byte	0x2
 3033 0087 23       		.byte	0x23
 3034 0088 14       		.uleb128 0x14
 3035 0089 03       		.uleb128 0x3
 3036 008a 6F060000 		.4byte	.LASF6
 3037 008e 04       		.byte	0x4
 3038 008f 89       		.byte	0x89
 3039 0090 C3030000 		.4byte	0x3c3
 3040 0094 02       		.byte	0x2
 3041 0095 23       		.byte	0x23
 3042 0096 18       		.uleb128 0x18
 3043 0097 03       		.uleb128 0x3
 3044 0098 EC000000 		.4byte	.LASF7
 3045 009c 04       		.byte	0x4
 3046 009d 94       		.byte	0x94
 3047 009e CA010000 		.4byte	0x1ca
 3048 00a2 02       		.byte	0x2
 3049 00a3 23       		.byte	0x23
 3050 00a4 1C       		.uleb128 0x1c
 3051 00a5 03       		.uleb128 0x3
 3052 00a6 79040000 		.4byte	.LASF8
 3053 00aa 04       		.byte	0x4
 3054 00ab 98       		.byte	0x98
 3055 00ac BF010000 		.4byte	0x1bf
 3056 00b0 02       		.byte	0x2
 3057 00b1 23       		.byte	0x23
ARM GAS  /tmp/ccv0K2b2.s 			page 121


 3058 00b2 1D       		.uleb128 0x1d
 3059 00b3 03       		.uleb128 0x3
 3060 00b4 3A060000 		.4byte	.LASF9
 3061 00b8 04       		.byte	0x4
 3062 00b9 9D       		.byte	0x9d
 3063 00ba D5010000 		.4byte	0x1d5
 3064 00be 02       		.byte	0x2
 3065 00bf 23       		.byte	0x23
 3066 00c0 1E       		.uleb128 0x1e
 3067 00c1 04       		.uleb128 0x4
 3068 00c2 705F7500 		.ascii	"p_u\000"
 3069 00c6 04       		.byte	0x4
 3070 00c7 CF       		.byte	0xcf
 3071 00c8 8E030000 		.4byte	0x38e
 3072 00cc 02       		.byte	0x2
 3073 00cd 23       		.byte	0x23
 3074 00ce 20       		.uleb128 0x20
 3075 00cf 03       		.uleb128 0x3
 3076 00d0 CC020000 		.4byte	.LASF10
 3077 00d4 04       		.byte	0x4
 3078 00d5 D4       		.byte	0xd4
 3079 00d6 1B030000 		.4byte	0x31b
 3080 00da 02       		.byte	0x2
 3081 00db 23       		.byte	0x23
 3082 00dc 24       		.uleb128 0x24
 3083 00dd 03       		.uleb128 0x3
 3084 00de 31020000 		.4byte	.LASF11
 3085 00e2 04       		.byte	0x4
 3086 00e3 DA       		.byte	0xda
 3087 00e4 F9020000 		.4byte	0x2f9
 3088 00e8 02       		.byte	0x2
 3089 00e9 23       		.byte	0x23
 3090 00ea 28       		.uleb128 0x28
 3091 00eb 03       		.uleb128 0x3
 3092 00ec B0060000 		.4byte	.LASF12
 3093 00f0 04       		.byte	0x4
 3094 00f1 DE       		.byte	0xde
 3095 00f2 EB010000 		.4byte	0x1eb
 3096 00f6 02       		.byte	0x2
 3097 00f7 23       		.byte	0x23
 3098 00f8 30       		.uleb128 0x30
 3099 00f9 03       		.uleb128 0x3
 3100 00fa AD040000 		.4byte	.LASF13
 3101 00fe 04       		.byte	0x4
 3102 00ff E4       		.byte	0xe4
 3103 0100 F6010000 		.4byte	0x1f6
 3104 0104 02       		.byte	0x2
 3105 0105 23       		.byte	0x23
 3106 0106 34       		.uleb128 0x34
 3107 0107 03       		.uleb128 0x3
 3108 0108 48040000 		.4byte	.LASF14
 3109 010c 04       		.byte	0x4
 3110 010d EB       		.byte	0xeb
 3111 010e 0C040000 		.4byte	0x40c
 3112 0112 02       		.byte	0x2
 3113 0113 23       		.byte	0x23
 3114 0114 38       		.uleb128 0x38
ARM GAS  /tmp/ccv0K2b2.s 			page 122


 3115 0115 03       		.uleb128 0x3
 3116 0116 4D050000 		.4byte	.LASF15
 3117 011a 04       		.byte	0x4
 3118 011b EF       		.byte	0xef
 3119 011c E0010000 		.4byte	0x1e0
 3120 0120 02       		.byte	0x2
 3121 0121 23       		.byte	0x23
 3122 0122 3C       		.uleb128 0x3c
 3123 0123 03       		.uleb128 0x3
 3124 0124 F4000000 		.4byte	.LASF16
 3125 0128 04       		.byte	0x4
 3126 0129 F5       		.byte	0xf5
 3127 012a 1E020000 		.4byte	0x21e
 3128 012e 02       		.byte	0x2
 3129 012f 23       		.byte	0x23
 3130 0130 40       		.uleb128 0x40
 3131 0131 00       		.byte	0
 3132 0132 05       		.uleb128 0x5
 3133 0133 04       		.byte	0x4
 3134 0134 05       		.byte	0x5
 3135 0135 696E7400 		.ascii	"int\000"
 3136 0139 06       		.uleb128 0x6
 3137 013a 15000000 		.4byte	.LASF19
 3138 013e 05       		.byte	0x5
 3139 013f D5       		.byte	0xd5
 3140 0140 44010000 		.4byte	0x144
 3141 0144 07       		.uleb128 0x7
 3142 0145 04       		.byte	0x4
 3143 0146 07       		.byte	0x7
 3144 0147 1C020000 		.4byte	.LASF17
 3145 014b 07       		.uleb128 0x7
 3146 014c 01       		.byte	0x1
 3147 014d 06       		.byte	0x6
 3148 014e CB000000 		.4byte	.LASF18
 3149 0152 06       		.uleb128 0x6
 3150 0153 55060000 		.4byte	.LASF20
 3151 0157 06       		.byte	0x6
 3152 0158 2A       		.byte	0x2a
 3153 0159 5D010000 		.4byte	0x15d
 3154 015d 07       		.uleb128 0x7
 3155 015e 01       		.byte	0x1
 3156 015f 08       		.byte	0x8
 3157 0160 27040000 		.4byte	.LASF21
 3158 0164 07       		.uleb128 0x7
 3159 0165 02       		.byte	0x2
 3160 0166 05       		.byte	0x5
 3161 0167 52040000 		.4byte	.LASF22
 3162 016b 06       		.uleb128 0x6
 3163 016c AA010000 		.4byte	.LASF23
 3164 0170 06       		.byte	0x6
 3165 0171 36       		.byte	0x36
 3166 0172 76010000 		.4byte	0x176
 3167 0176 07       		.uleb128 0x7
 3168 0177 02       		.byte	0x2
 3169 0178 07       		.byte	0x7
 3170 0179 4A020000 		.4byte	.LASF24
 3171 017d 06       		.uleb128 0x6
ARM GAS  /tmp/ccv0K2b2.s 			page 123


 3172 017e 1F040000 		.4byte	.LASF25
 3173 0182 06       		.byte	0x6
 3174 0183 4F       		.byte	0x4f
 3175 0184 88010000 		.4byte	0x188
 3176 0188 07       		.uleb128 0x7
 3177 0189 04       		.byte	0x4
 3178 018a 05       		.byte	0x5
 3179 018b 78010000 		.4byte	.LASF26
 3180 018f 06       		.uleb128 0x6
 3181 0190 C3040000 		.4byte	.LASF27
 3182 0194 06       		.byte	0x6
 3183 0195 50       		.byte	0x50
 3184 0196 9A010000 		.4byte	0x19a
 3185 019a 07       		.uleb128 0x7
 3186 019b 04       		.byte	0x4
 3187 019c 07       		.byte	0x7
 3188 019d 0A050000 		.4byte	.LASF28
 3189 01a1 07       		.uleb128 0x7
 3190 01a2 08       		.byte	0x8
 3191 01a3 05       		.byte	0x5
 3192 01a4 9C010000 		.4byte	.LASF29
 3193 01a8 07       		.uleb128 0x7
 3194 01a9 08       		.byte	0x8
 3195 01aa 07       		.byte	0x7
 3196 01ab 5D000000 		.4byte	.LASF30
 3197 01af 08       		.uleb128 0x8
 3198 01b0 7D010000 		.4byte	0x17d
 3199 01b4 06       		.uleb128 0x6
 3200 01b5 E6050000 		.4byte	.LASF31
 3201 01b9 07       		.byte	0x7
 3202 01ba 46       		.byte	0x46
 3203 01bb 8F010000 		.4byte	0x18f
 3204 01bf 06       		.uleb128 0x6
 3205 01c0 99020000 		.4byte	.LASF32
 3206 01c4 07       		.byte	0x7
 3207 01c5 49       		.byte	0x49
 3208 01c6 52010000 		.4byte	0x152
 3209 01ca 06       		.uleb128 0x6
 3210 01cb 81010000 		.4byte	.LASF33
 3211 01cf 07       		.byte	0x7
 3212 01d0 4A       		.byte	0x4a
 3213 01d1 52010000 		.4byte	0x152
 3214 01d5 06       		.uleb128 0x6
 3215 01d6 C6030000 		.4byte	.LASF34
 3216 01da 07       		.byte	0x7
 3217 01db 4B       		.byte	0x4b
 3218 01dc 52010000 		.4byte	0x152
 3219 01e0 06       		.uleb128 0x6
 3220 01e1 ED030000 		.4byte	.LASF35
 3221 01e5 07       		.byte	0x7
 3222 01e6 4D       		.byte	0x4d
 3223 01e7 8F010000 		.4byte	0x18f
 3224 01eb 06       		.uleb128 0x6
 3225 01ec 78020000 		.4byte	.LASF36
 3226 01f0 07       		.byte	0x7
 3227 01f1 4E       		.byte	0x4e
 3228 01f2 7D010000 		.4byte	0x17d
ARM GAS  /tmp/ccv0K2b2.s 			page 124


 3229 01f6 06       		.uleb128 0x6
 3230 01f7 A1020000 		.4byte	.LASF37
 3231 01fb 07       		.byte	0x7
 3232 01fc 50       		.byte	0x50
 3233 01fd 8F010000 		.4byte	0x18f
 3234 0201 07       		.uleb128 0x7
 3235 0202 04       		.byte	0x4
 3236 0203 07       		.byte	0x7
 3237 0204 D6020000 		.4byte	.LASF38
 3238 0208 06       		.uleb128 0x6
 3239 0209 43050000 		.4byte	.LASF39
 3240 020d 08       		.byte	0x8
 3241 020e 89       		.byte	0x89
 3242 020f 6B010000 		.4byte	0x16b
 3243 0213 06       		.uleb128 0x6
 3244 0214 E2010000 		.4byte	.LASF40
 3245 0218 08       		.byte	0x8
 3246 0219 8F       		.byte	0x8f
 3247 021a 1E020000 		.4byte	0x21e
 3248 021e 09       		.uleb128 0x9
 3249 021f 04       		.byte	0x4
 3250 0220 02       		.uleb128 0x2
 3251 0221 DE050000 		.4byte	.LASF42
 3252 0225 04       		.byte	0x4
 3253 0226 08       		.byte	0x8
 3254 0227 B3       		.byte	0xb3
 3255 0228 3B020000 		.4byte	0x23b
 3256 022c 04       		.uleb128 0x4
 3257 022d 72313300 		.ascii	"r13\000"
 3258 0231 08       		.byte	0x8
 3259 0232 B4       		.byte	0xb4
 3260 0233 C8020000 		.4byte	0x2c8
 3261 0237 02       		.byte	0x2
 3262 0238 23       		.byte	0x23
 3263 0239 00       		.uleb128 0
 3264 023a 00       		.byte	0
 3265 023b 02       		.uleb128 0x2
 3266 023c 23000000 		.4byte	.LASF43
 3267 0240 24       		.byte	0x24
 3268 0241 09       		.byte	0x9
 3269 0242 F5       		.byte	0xf5
 3270 0243 C8020000 		.4byte	0x2c8
 3271 0247 0A       		.uleb128 0xa
 3272 0248 723400   		.ascii	"r4\000"
 3273 024b 09       		.byte	0x9
 3274 024c 0801     		.2byte	0x108
 3275 024e 13020000 		.4byte	0x213
 3276 0252 02       		.byte	0x2
 3277 0253 23       		.byte	0x23
 3278 0254 00       		.uleb128 0
 3279 0255 0A       		.uleb128 0xa
 3280 0256 723500   		.ascii	"r5\000"
 3281 0259 09       		.byte	0x9
 3282 025a 0901     		.2byte	0x109
 3283 025c 13020000 		.4byte	0x213
 3284 0260 02       		.byte	0x2
 3285 0261 23       		.byte	0x23
ARM GAS  /tmp/ccv0K2b2.s 			page 125


 3286 0262 04       		.uleb128 0x4
 3287 0263 0A       		.uleb128 0xa
 3288 0264 723600   		.ascii	"r6\000"
 3289 0267 09       		.byte	0x9
 3290 0268 0A01     		.2byte	0x10a
 3291 026a 13020000 		.4byte	0x213
 3292 026e 02       		.byte	0x2
 3293 026f 23       		.byte	0x23
 3294 0270 08       		.uleb128 0x8
 3295 0271 0A       		.uleb128 0xa
 3296 0272 723700   		.ascii	"r7\000"
 3297 0275 09       		.byte	0x9
 3298 0276 0B01     		.2byte	0x10b
 3299 0278 13020000 		.4byte	0x213
 3300 027c 02       		.byte	0x2
 3301 027d 23       		.byte	0x23
 3302 027e 0C       		.uleb128 0xc
 3303 027f 0A       		.uleb128 0xa
 3304 0280 723800   		.ascii	"r8\000"
 3305 0283 09       		.byte	0x9
 3306 0284 0C01     		.2byte	0x10c
 3307 0286 13020000 		.4byte	0x213
 3308 028a 02       		.byte	0x2
 3309 028b 23       		.byte	0x23
 3310 028c 10       		.uleb128 0x10
 3311 028d 0A       		.uleb128 0xa
 3312 028e 723900   		.ascii	"r9\000"
 3313 0291 09       		.byte	0x9
 3314 0292 0D01     		.2byte	0x10d
 3315 0294 13020000 		.4byte	0x213
 3316 0298 02       		.byte	0x2
 3317 0299 23       		.byte	0x23
 3318 029a 14       		.uleb128 0x14
 3319 029b 0A       		.uleb128 0xa
 3320 029c 72313000 		.ascii	"r10\000"
 3321 02a0 09       		.byte	0x9
 3322 02a1 0E01     		.2byte	0x10e
 3323 02a3 13020000 		.4byte	0x213
 3324 02a7 02       		.byte	0x2
 3325 02a8 23       		.byte	0x23
 3326 02a9 18       		.uleb128 0x18
 3327 02aa 0A       		.uleb128 0xa
 3328 02ab 72313100 		.ascii	"r11\000"
 3329 02af 09       		.byte	0x9
 3330 02b0 0F01     		.2byte	0x10f
 3331 02b2 13020000 		.4byte	0x213
 3332 02b6 02       		.byte	0x2
 3333 02b7 23       		.byte	0x23
 3334 02b8 1C       		.uleb128 0x1c
 3335 02b9 0A       		.uleb128 0xa
 3336 02ba 6C7200   		.ascii	"lr\000"
 3337 02bd 09       		.byte	0x9
 3338 02be 1001     		.2byte	0x110
 3339 02c0 13020000 		.4byte	0x213
 3340 02c4 02       		.byte	0x2
 3341 02c5 23       		.byte	0x23
 3342 02c6 20       		.uleb128 0x20
ARM GAS  /tmp/ccv0K2b2.s 			page 126


 3343 02c7 00       		.byte	0
 3344 02c8 0B       		.uleb128 0xb
 3345 02c9 04       		.byte	0x4
 3346 02ca 3B020000 		.4byte	0x23b
 3347 02ce 0C       		.uleb128 0xc
 3348 02cf 08       		.byte	0x8
 3349 02d0 04       		.byte	0x4
 3350 02d1 53       		.byte	0x53
 3351 02d2 F3020000 		.4byte	0x2f3
 3352 02d6 03       		.uleb128 0x3
 3353 02d7 72040000 		.4byte	.LASF0
 3354 02db 04       		.byte	0x4
 3355 02dc 54       		.byte	0x54
 3356 02dd F3020000 		.4byte	0x2f3
 3357 02e1 02       		.byte	0x2
 3358 02e2 23       		.byte	0x23
 3359 02e3 00       		.uleb128 0
 3360 02e4 03       		.uleb128 0x3
 3361 02e5 DE030000 		.4byte	.LASF1
 3362 02e9 04       		.byte	0x4
 3363 02ea 55       		.byte	0x55
 3364 02eb F3020000 		.4byte	0x2f3
 3365 02ef 02       		.byte	0x2
 3366 02f0 23       		.byte	0x23
 3367 02f1 04       		.uleb128 0x4
 3368 02f2 00       		.byte	0
 3369 02f3 0B       		.uleb128 0xb
 3370 02f4 04       		.byte	0x4
 3371 02f5 29000000 		.4byte	0x29
 3372 02f9 06       		.uleb128 0x6
 3373 02fa 2A060000 		.4byte	.LASF44
 3374 02fe 04       		.byte	0x4
 3375 02ff 56       		.byte	0x56
 3376 0300 CE020000 		.4byte	0x2ce
 3377 0304 0C       		.uleb128 0xc
 3378 0305 04       		.byte	0x4
 3379 0306 04       		.byte	0x4
 3380 0307 5B       		.byte	0x5b
 3381 0308 1B030000 		.4byte	0x31b
 3382 030c 03       		.uleb128 0x3
 3383 030d 72040000 		.4byte	.LASF0
 3384 0311 04       		.byte	0x4
 3385 0312 5C       		.byte	0x5c
 3386 0313 F3020000 		.4byte	0x2f3
 3387 0317 02       		.byte	0x2
 3388 0318 23       		.byte	0x23
 3389 0319 00       		.uleb128 0
 3390 031a 00       		.byte	0
 3391 031b 06       		.uleb128 0x6
 3392 031c 95060000 		.4byte	.LASF45
 3393 0320 04       		.byte	0x4
 3394 0321 5D       		.byte	0x5d
 3395 0322 04030000 		.4byte	0x304
 3396 0326 0C       		.uleb128 0xc
 3397 0327 1C       		.byte	0x1c
 3398 0328 04       		.byte	0x4
 3399 0329 64       		.byte	0x64
ARM GAS  /tmp/ccv0K2b2.s 			page 127


 3400 032a 83030000 		.4byte	0x383
 3401 032e 03       		.uleb128 0x3
 3402 032f CC040000 		.4byte	.LASF46
 3403 0333 04       		.byte	0x4
 3404 0334 65       		.byte	0x65
 3405 0335 F9020000 		.4byte	0x2f9
 3406 0339 02       		.byte	0x2
 3407 033a 23       		.byte	0x23
 3408 033b 00       		.uleb128 0
 3409 033c 03       		.uleb128 0x3
 3410 033d 64040000 		.4byte	.LASF47
 3411 0341 04       		.byte	0x4
 3412 0342 66       		.byte	0x66
 3413 0343 E0010000 		.4byte	0x1e0
 3414 0347 02       		.byte	0x2
 3415 0348 23       		.byte	0x23
 3416 0349 08       		.uleb128 0x8
 3417 034a 03       		.uleb128 0x3
 3418 034b 37030000 		.4byte	.LASF48
 3419 034f 04       		.byte	0x4
 3420 0350 68       		.byte	0x68
 3421 0351 20020000 		.4byte	0x220
 3422 0355 02       		.byte	0x2
 3423 0356 23       		.byte	0x23
 3424 0357 0C       		.uleb128 0xc
 3425 0358 03       		.uleb128 0x3
 3426 0359 DA010000 		.4byte	.LASF49
 3427 035d 04       		.byte	0x4
 3428 035e 6B       		.byte	0x6b
 3429 035f F3020000 		.4byte	0x2f3
 3430 0363 02       		.byte	0x2
 3431 0364 23       		.byte	0x23
 3432 0365 10       		.uleb128 0x10
 3433 0366 03       		.uleb128 0x3
 3434 0367 82030000 		.4byte	.LASF50
 3435 036b 04       		.byte	0x4
 3436 036c 6C       		.byte	0x6c
 3437 036d F3020000 		.4byte	0x2f3
 3438 0371 02       		.byte	0x2
 3439 0372 23       		.byte	0x23
 3440 0373 14       		.uleb128 0x14
 3441 0374 03       		.uleb128 0x3
 3442 0375 1C050000 		.4byte	.LASF51
 3443 0379 04       		.byte	0x4
 3444 037a 6F       		.byte	0x6f
 3445 037b F3020000 		.4byte	0x2f3
 3446 037f 02       		.byte	0x2
 3447 0380 23       		.byte	0x23
 3448 0381 18       		.uleb128 0x18
 3449 0382 00       		.byte	0
 3450 0383 06       		.uleb128 0x6
 3451 0384 08000000 		.4byte	.LASF52
 3452 0388 04       		.byte	0x4
 3453 0389 71       		.byte	0x71
 3454 038a 26030000 		.4byte	0x326
 3455 038e 0D       		.uleb128 0xd
 3456 038f 04       		.byte	0x4
ARM GAS  /tmp/ccv0K2b2.s 			page 128


 3457 0390 04       		.byte	0x4
 3458 0391 B1       		.byte	0xb1
 3459 0392 C3030000 		.4byte	0x3c3
 3460 0396 0E       		.uleb128 0xe
 3461 0397 1C000000 		.4byte	.LASF53
 3462 039b 04       		.byte	0x4
 3463 039c B8       		.byte	0xb8
 3464 039d EB010000 		.4byte	0x1eb
 3465 03a1 0E       		.uleb128 0xe
 3466 03a2 74000000 		.4byte	.LASF54
 3467 03a6 04       		.byte	0x4
 3468 03a7 BF       		.byte	0xbf
 3469 03a8 EB010000 		.4byte	0x1eb
 3470 03ac 0E       		.uleb128 0xe
 3471 03ad 68060000 		.4byte	.LASF55
 3472 03b1 04       		.byte	0x4
 3473 03b2 C6       		.byte	0xc6
 3474 03b3 1E020000 		.4byte	0x21e
 3475 03b7 0E       		.uleb128 0xe
 3476 03b8 6B040000 		.4byte	.LASF56
 3477 03bc 04       		.byte	0x4
 3478 03bd CD       		.byte	0xcd
 3479 03be F6010000 		.4byte	0x1f6
 3480 03c2 00       		.byte	0
 3481 03c3 0B       		.uleb128 0xb
 3482 03c4 04       		.byte	0x4
 3483 03c5 C9030000 		.4byte	0x3c9
 3484 03c9 0F       		.uleb128 0xf
 3485 03ca CE030000 		.4byte	0x3ce
 3486 03ce 07       		.uleb128 0x7
 3487 03cf 01       		.byte	0x1
 3488 03d0 08       		.byte	0x8
 3489 03d1 26050000 		.4byte	.LASF57
 3490 03d5 02       		.uleb128 0x2
 3491 03d6 F5030000 		.4byte	.LASF58
 3492 03da 10       		.byte	0x10
 3493 03db 0A       		.byte	0xa
 3494 03dc 3A       		.byte	0x3a
 3495 03dd 0C040000 		.4byte	0x40c
 3496 03e1 03       		.uleb128 0x3
 3497 03e2 35040000 		.4byte	.LASF59
 3498 03e6 0A       		.byte	0xa
 3499 03e7 3B       		.byte	0x3b
 3500 03e8 F9020000 		.4byte	0x2f9
 3501 03ec 02       		.byte	0x2
 3502 03ed 23       		.byte	0x23
 3503 03ee 00       		.uleb128 0
 3504 03ef 03       		.uleb128 0x3
 3505 03f0 B6060000 		.4byte	.LASF60
 3506 03f4 0A       		.byte	0xa
 3507 03f5 3D       		.byte	0x3d
 3508 03f6 F3020000 		.4byte	0x2f3
 3509 03fa 02       		.byte	0x2
 3510 03fb 23       		.byte	0x23
 3511 03fc 08       		.uleb128 0x8
 3512 03fd 03       		.uleb128 0x3
 3513 03fe 3C050000 		.4byte	.LASF61
ARM GAS  /tmp/ccv0K2b2.s 			page 129


 3514 0402 0A       		.byte	0xa
 3515 0403 3F       		.byte	0x3f
 3516 0404 60050000 		.4byte	0x560
 3517 0408 02       		.byte	0x2
 3518 0409 23       		.byte	0x23
 3519 040a 0C       		.uleb128 0xc
 3520 040b 00       		.byte	0
 3521 040c 0B       		.uleb128 0xb
 3522 040d 04       		.byte	0x4
 3523 040e D5030000 		.4byte	0x3d5
 3524 0412 10       		.uleb128 0x10
 3525 0413 58050000 		.4byte	.LASF62
 3526 0417 04       		.byte	0x4
 3527 0418 0301     		.2byte	0x103
 3528 041a 1E040000 		.4byte	0x41e
 3529 041e 0B       		.uleb128 0xb
 3530 041f 04       		.byte	0x4
 3531 0420 24040000 		.4byte	0x424
 3532 0424 11       		.uleb128 0x11
 3533 0425 01       		.byte	0x1
 3534 0426 30040000 		.4byte	0x430
 3535 042a 12       		.uleb128 0x12
 3536 042b 1E020000 		.4byte	0x21e
 3537 042f 00       		.byte	0
 3538 0430 10       		.uleb128 0x10
 3539 0431 CE030000 		.4byte	.LASF63
 3540 0435 04       		.byte	0x4
 3541 0436 0801     		.2byte	0x108
 3542 0438 3C040000 		.4byte	0x43c
 3543 043c 13       		.uleb128 0x13
 3544 043d F9050000 		.4byte	.LASF64
 3545 0441 14       		.byte	0x14
 3546 0442 04       		.byte	0x4
 3547 0443 0F01     		.2byte	0x10f
 3548 0445 95040000 		.4byte	0x495
 3549 0449 14       		.uleb128 0x14
 3550 044a 29020000 		.4byte	.LASF65
 3551 044e 04       		.byte	0x4
 3552 044f 1001     		.2byte	0x110
 3553 0451 95040000 		.4byte	0x495
 3554 0455 02       		.byte	0x2
 3555 0456 23       		.byte	0x23
 3556 0457 00       		.uleb128 0
 3557 0458 14       		.uleb128 0x14
 3558 0459 EB010000 		.4byte	.LASF66
 3559 045d 04       		.byte	0x4
 3560 045e 1101     		.2byte	0x111
 3561 0460 95040000 		.4byte	0x495
 3562 0464 02       		.byte	0x2
 3563 0465 23       		.byte	0x23
 3564 0466 04       		.uleb128 0x4
 3565 0467 14       		.uleb128 0x14
 3566 0468 D4040000 		.4byte	.LASF67
 3567 046c 04       		.byte	0x4
 3568 046d 1201     		.2byte	0x112
 3569 046f 08020000 		.4byte	0x208
 3570 0473 02       		.byte	0x2
ARM GAS  /tmp/ccv0K2b2.s 			page 130


 3571 0474 23       		.byte	0x23
 3572 0475 08       		.uleb128 0x8
 3573 0476 14       		.uleb128 0x14
 3574 0477 C4060000 		.4byte	.LASF68
 3575 047b 04       		.byte	0x4
 3576 047c 1301     		.2byte	0x113
 3577 047e 12040000 		.4byte	0x412
 3578 0482 02       		.byte	0x2
 3579 0483 23       		.byte	0x23
 3580 0484 0C       		.uleb128 0xc
 3581 0485 14       		.uleb128 0x14
 3582 0486 07060000 		.4byte	.LASF69
 3583 048a 04       		.byte	0x4
 3584 048b 1501     		.2byte	0x115
 3585 048d 1E020000 		.4byte	0x21e
 3586 0491 02       		.byte	0x2
 3587 0492 23       		.byte	0x23
 3588 0493 10       		.uleb128 0x10
 3589 0494 00       		.byte	0
 3590 0495 0B       		.uleb128 0xb
 3591 0496 04       		.byte	0x4
 3592 0497 30040000 		.4byte	0x430
 3593 049b 15       		.uleb128 0x15
 3594 049c 0C       		.byte	0xc
 3595 049d 04       		.byte	0x4
 3596 049e 1F01     		.2byte	0x11f
 3597 04a0 E1040000 		.4byte	0x4e1
 3598 04a4 14       		.uleb128 0x14
 3599 04a5 29020000 		.4byte	.LASF65
 3600 04a9 04       		.byte	0x4
 3601 04aa 2001     		.2byte	0x120
 3602 04ac 95040000 		.4byte	0x495
 3603 04b0 02       		.byte	0x2
 3604 04b1 23       		.byte	0x23
 3605 04b2 00       		.uleb128 0
 3606 04b3 14       		.uleb128 0x14
 3607 04b4 EB010000 		.4byte	.LASF66
 3608 04b8 04       		.byte	0x4
 3609 04b9 2201     		.2byte	0x122
 3610 04bb 95040000 		.4byte	0x495
 3611 04bf 02       		.byte	0x2
 3612 04c0 23       		.byte	0x23
 3613 04c1 04       		.uleb128 0x4
 3614 04c2 14       		.uleb128 0x14
 3615 04c3 D4040000 		.4byte	.LASF67
 3616 04c7 04       		.byte	0x4
 3617 04c8 2401     		.2byte	0x124
 3618 04ca 08020000 		.4byte	0x208
 3619 04ce 02       		.byte	0x2
 3620 04cf 23       		.byte	0x23
 3621 04d0 08       		.uleb128 0x8
 3622 04d1 14       		.uleb128 0x14
 3623 04d2 FF020000 		.4byte	.LASF70
 3624 04d6 04       		.byte	0x4
 3625 04d7 2C01     		.2byte	0x12c
 3626 04d9 08020000 		.4byte	0x208
 3627 04dd 02       		.byte	0x2
ARM GAS  /tmp/ccv0K2b2.s 			page 131


 3628 04de 23       		.byte	0x23
 3629 04df 0A       		.uleb128 0xa
 3630 04e0 00       		.byte	0
 3631 04e1 10       		.uleb128 0x10
 3632 04e2 88000000 		.4byte	.LASF71
 3633 04e6 04       		.byte	0x4
 3634 04e7 2F01     		.2byte	0x12f
 3635 04e9 9B040000 		.4byte	0x49b
 3636 04ed 13       		.uleb128 0x13
 3637 04ee 6E010000 		.4byte	.LASF72
 3638 04f2 2C       		.byte	0x2c
 3639 04f3 04       		.byte	0x4
 3640 04f4 3601     		.2byte	0x136
 3641 04f6 28050000 		.4byte	0x528
 3642 04fa 14       		.uleb128 0x14
 3643 04fb 41060000 		.4byte	.LASF73
 3644 04ff 04       		.byte	0x4
 3645 0500 3A01     		.2byte	0x13a
 3646 0502 83030000 		.4byte	0x383
 3647 0506 02       		.byte	0x2
 3648 0507 23       		.byte	0x23
 3649 0508 00       		.uleb128 0
 3650 0509 14       		.uleb128 0x14
 3651 050a 2F000000 		.4byte	.LASF74
 3652 050e 04       		.byte	0x4
 3653 050f 3E01     		.2byte	0x13e
 3654 0511 E1040000 		.4byte	0x4e1
 3655 0515 02       		.byte	0x2
 3656 0516 23       		.byte	0x23
 3657 0517 1C       		.uleb128 0x1c
 3658 0518 14       		.uleb128 0x14
 3659 0519 0E060000 		.4byte	.LASF75
 3660 051d 04       		.byte	0x4
 3661 051e 4301     		.2byte	0x143
 3662 0520 B4010000 		.4byte	0x1b4
 3663 0524 02       		.byte	0x2
 3664 0525 23       		.byte	0x23
 3665 0526 28       		.uleb128 0x28
 3666 0527 00       		.byte	0
 3667 0528 10       		.uleb128 0x10
 3668 0529 7E020000 		.4byte	.LASF76
 3669 052d 04       		.byte	0x4
 3670 052e 6501     		.2byte	0x165
 3671 0530 ED040000 		.4byte	0x4ed
 3672 0534 06       		.uleb128 0x6
 3673 0535 00000000 		.4byte	.LASF77
 3674 0539 02       		.byte	0x2
 3675 053a 68       		.byte	0x68
 3676 053b 3F050000 		.4byte	0x53f
 3677 053f 0B       		.uleb128 0xb
 3678 0540 04       		.byte	0x4
 3679 0541 45050000 		.4byte	0x545
 3680 0545 16       		.uleb128 0x16
 3681 0546 01       		.byte	0x1
 3682 0547 EB010000 		.4byte	0x1eb
 3683 054b 55050000 		.4byte	0x555
 3684 054f 12       		.uleb128 0x12
ARM GAS  /tmp/ccv0K2b2.s 			page 132


 3685 0550 1E020000 		.4byte	0x21e
 3686 0554 00       		.byte	0
 3687 0555 06       		.uleb128 0x6
 3688 0556 F3010000 		.4byte	.LASF78
 3689 055a 0A       		.byte	0xa
 3690 055b 35       		.byte	0x35
 3691 055c D5030000 		.4byte	0x3d5
 3692 0560 0B       		.uleb128 0xb
 3693 0561 04       		.byte	0x4
 3694 0562 55050000 		.4byte	0x555
 3695 0566 02       		.uleb128 0x2
 3696 0567 DF020000 		.4byte	.LASF79
 3697 056b 08       		.byte	0x8
 3698 056c 0B       		.byte	0xb
 3699 056d 3C       		.byte	0x3c
 3700 056e 81050000 		.4byte	0x581
 3701 0572 03       		.uleb128 0x3
 3702 0573 98040000 		.4byte	.LASF80
 3703 0577 0B       		.byte	0xb
 3704 0578 3D       		.byte	0x3d
 3705 0579 F9020000 		.4byte	0x2f9
 3706 057d 02       		.byte	0x2
 3707 057e 23       		.byte	0x23
 3708 057f 00       		.uleb128 0
 3709 0580 00       		.byte	0
 3710 0581 06       		.uleb128 0x6
 3711 0582 D7000000 		.4byte	.LASF81
 3712 0586 0B       		.byte	0xb
 3713 0587 3F       		.byte	0x3f
 3714 0588 66050000 		.4byte	0x566
 3715 058c 02       		.uleb128 0x2
 3716 058d 21060000 		.4byte	.LASF82
 3717 0591 10       		.byte	0x10
 3718 0592 0C       		.byte	0xc
 3719 0593 3B       		.byte	0x3b
 3720 0594 D1050000 		.4byte	0x5d1
 3721 0598 03       		.uleb128 0x3
 3722 0599 45020000 		.4byte	.LASF83
 3723 059d 0C       		.byte	0xc
 3724 059e 3C       		.byte	0x3c
 3725 059f C3030000 		.4byte	0x3c3
 3726 05a3 02       		.byte	0x2
 3727 05a4 23       		.byte	0x23
 3728 05a5 00       		.uleb128 0
 3729 05a6 03       		.uleb128 0x3
 3730 05a7 C0030000 		.4byte	.LASF84
 3731 05ab 0C       		.byte	0xc
 3732 05ac 3D       		.byte	0x3d
 3733 05ad D3050000 		.4byte	0x5d3
 3734 05b1 02       		.byte	0x2
 3735 05b2 23       		.byte	0x23
 3736 05b3 04       		.uleb128 0x4
 3737 05b4 03       		.uleb128 0x3
 3738 05b5 3C020000 		.4byte	.LASF85
 3739 05b9 0C       		.byte	0xc
 3740 05ba 3E       		.byte	0x3e
 3741 05bb D3050000 		.4byte	0x5d3
ARM GAS  /tmp/ccv0K2b2.s 			page 133


 3742 05bf 02       		.byte	0x2
 3743 05c0 23       		.byte	0x23
 3744 05c1 08       		.uleb128 0x8
 3745 05c2 03       		.uleb128 0x3
 3746 05c3 E5030000 		.4byte	.LASF86
 3747 05c7 0C       		.byte	0xc
 3748 05c8 3F       		.byte	0x3f
 3749 05c9 D3050000 		.4byte	0x5d3
 3750 05cd 02       		.byte	0x2
 3751 05ce 23       		.byte	0x23
 3752 05cf 0C       		.uleb128 0xc
 3753 05d0 00       		.byte	0
 3754 05d1 17       		.uleb128 0x17
 3755 05d2 01       		.byte	0x1
 3756 05d3 0B       		.uleb128 0xb
 3757 05d4 04       		.byte	0x4
 3758 05d5 D1050000 		.4byte	0x5d1
 3759 05d9 18       		.uleb128 0x18
 3760 05da 61050000 		.4byte	.LASF92
 3761 05de 03       		.byte	0x3
 3762 05df 2002     		.2byte	0x220
 3763 05e1 01       		.byte	0x1
 3764 05e2 03       		.byte	0x3
 3765 05e3 F4050000 		.4byte	0x5f4
 3766 05e7 19       		.uleb128 0x19
 3767 05e8 FB010000 		.4byte	.LASF94
 3768 05ec 03       		.byte	0x3
 3769 05ed 2002     		.2byte	0x220
 3770 05ef 8F010000 		.4byte	0x18f
 3771 05f3 00       		.byte	0
 3772 05f4 1A       		.uleb128 0x1a
 3773 05f5 41000000 		.4byte	.LASF87
 3774 05f9 09       		.byte	0x9
 3775 05fa BC01     		.2byte	0x1bc
 3776 05fc 01       		.byte	0x1
 3777 05fd 03       		.byte	0x3
 3778 05fe 1A       		.uleb128 0x1a
 3779 05ff 19010000 		.4byte	.LASF88
 3780 0603 09       		.byte	0x9
 3781 0604 CA01     		.2byte	0x1ca
 3782 0606 01       		.byte	0x1
 3783 0607 03       		.byte	0x3
 3784 0608 1B       		.uleb128 0x1b
 3785 0609 47060000 		.4byte	.LASF89
 3786 060d 02       		.byte	0x2
 3787 060e 1201     		.2byte	0x112
 3788 0610 01       		.byte	0x1
 3789 0611 F3020000 		.4byte	0x2f3
 3790 0615 03       		.byte	0x3
 3791 0616 1B       		.uleb128 0x1b
 3792 0617 3D030000 		.4byte	.LASF90
 3793 061b 02       		.byte	0x2
 3794 061c 1D01     		.2byte	0x11d
 3795 061e 01       		.byte	0x1
 3796 061f E0010000 		.4byte	0x1e0
 3797 0623 03       		.byte	0x3
 3798 0624 1A       		.uleb128 0x1a
ARM GAS  /tmp/ccv0K2b2.s 			page 134


 3799 0625 81040000 		.4byte	.LASF91
 3800 0629 0D       		.byte	0xd
 3801 062a 2A01     		.2byte	0x12a
 3802 062c 01       		.byte	0x1
 3803 062d 03       		.byte	0x3
 3804 062e 18       		.uleb128 0x18
 3805 062f A4060000 		.4byte	.LASF93
 3806 0633 0D       		.byte	0xd
 3807 0634 3601     		.2byte	0x136
 3808 0636 01       		.byte	0x1
 3809 0637 03       		.byte	0x3
 3810 0638 4B060000 		.4byte	0x64b
 3811 063c 1C       		.uleb128 0x1c
 3812 063d 0E020000 		.4byte	.LASF145
 3813 0641 5B060000 		.4byte	0x65b
 3814 0645 01       		.byte	0x1
 3815 0646 A4060000 		.4byte	.LASF93
 3816 064a 00       		.byte	0
 3817 064b 1D       		.uleb128 0x1d
 3818 064c CE030000 		.4byte	0x3ce
 3819 0650 5B060000 		.4byte	0x65b
 3820 0654 1E       		.uleb128 0x1e
 3821 0655 01020000 		.4byte	0x201
 3822 0659 0B       		.byte	0xb
 3823 065a 00       		.byte	0
 3824 065b 0F       		.uleb128 0xf
 3825 065c 4B060000 		.4byte	0x64b
 3826 0660 1F       		.uleb128 0x1f
 3827 0661 BB010000 		.4byte	.LASF146
 3828 0665 04       		.byte	0x4
 3829 0666 D101     		.2byte	0x1d1
 3830 0668 01       		.byte	0x1
 3831 0669 7F060000 		.4byte	0x67f
 3832 066d 03       		.byte	0x3
 3833 066e 7F060000 		.4byte	0x67f
 3834 0672 20       		.uleb128 0x20
 3835 0673 74717000 		.ascii	"tqp\000"
 3836 0677 04       		.byte	0x4
 3837 0678 D101     		.2byte	0x1d1
 3838 067a 86060000 		.4byte	0x686
 3839 067e 00       		.byte	0
 3840 067f 07       		.uleb128 0x7
 3841 0680 01       		.byte	0x1
 3842 0681 02       		.byte	0x2
 3843 0682 19040000 		.4byte	.LASF95
 3844 0686 0B       		.uleb128 0xb
 3845 0687 04       		.byte	0x4
 3846 0688 F9020000 		.4byte	0x2f9
 3847 068c 21       		.uleb128 0x21
 3848 068d FC000000 		.4byte	.LASF100
 3849 0691 01       		.byte	0x1
 3850 0692 5502     		.2byte	0x255
 3851 0694 01       		.byte	0x1
 3852 0695 00000000 		.4byte	.LFB182
 3853 0699 B0000000 		.4byte	.LFE182
 3854 069d 00000000 		.4byte	.LLST0
 3855 06a1 01       		.byte	0x1
ARM GAS  /tmp/ccv0K2b2.s 			page 135


 3856 06a2 BE070000 		.4byte	0x7be
 3857 06a6 22       		.uleb128 0x22
 3858 06a7 7D030000 		.4byte	.LASF108
 3859 06ab 01       		.byte	0x1
 3860 06ac 5702     		.2byte	0x257
 3861 06ae E0010000 		.4byte	0x1e0
 3862 06b2 01       		.byte	0x1
 3863 06b3 56       		.byte	0x56
 3864 06b4 23       		.uleb128 0x23
 3865 06b5 16060000 		.4byte	0x616
 3866 06b9 02000000 		.4byte	.LBB138
 3867 06bd 00000000 		.4byte	.Ldebug_ranges0+0
 3868 06c1 01       		.byte	0x1
 3869 06c2 5702     		.2byte	0x257
 3870 06c4 D9060000 		.4byte	0x6d9
 3871 06c8 24       		.uleb128 0x24
 3872 06c9 08060000 		.4byte	0x608
 3873 06cd 02000000 		.4byte	.LBB140
 3874 06d1 0A000000 		.4byte	.LBE140
 3875 06d5 02       		.byte	0x2
 3876 06d6 1F01     		.2byte	0x11f
 3877 06d8 00       		.byte	0
 3878 06d9 25       		.uleb128 0x25
 3879 06da 36000000 		.4byte	.LVL0
 3880 06de 90190000 		.4byte	0x1990
 3881 06e2 0B070000 		.4byte	0x70b
 3882 06e6 26       		.uleb128 0x26
 3883 06e7 01       		.byte	0x1
 3884 06e8 53       		.byte	0x53
 3885 06e9 05       		.byte	0x5
 3886 06ea 03       		.byte	0x3
 3887 06eb 00000000 		.4byte	thread11
 3888 06ef 26       		.uleb128 0x26
 3889 06f0 01       		.byte	0x1
 3890 06f1 52       		.byte	0x52
 3891 06f2 02       		.byte	0x2
 3892 06f3 76       		.byte	0x76
 3893 06f4 01       		.sleb128 1
 3894 06f5 26       		.uleb128 0x26
 3895 06f6 01       		.byte	0x1
 3896 06f7 51       		.byte	0x51
 3897 06f8 03       		.byte	0x3
 3898 06f9 0A       		.byte	0xa
 3899 06fa 4801     		.2byte	0x148
 3900 06fc 26       		.uleb128 0x26
 3901 06fd 01       		.byte	0x1
 3902 06fe 50       		.byte	0x50
 3903 06ff 03       		.byte	0x3
 3904 0700 75       		.byte	0x75
 3905 0701 00       		.sleb128 0
 3906 0702 06       		.byte	0x6
 3907 0703 26       		.uleb128 0x26
 3908 0704 02       		.byte	0x2
 3909 0705 7D       		.byte	0x7d
 3910 0706 00       		.sleb128 0
 3911 0707 02       		.byte	0x2
 3912 0708 74       		.byte	0x74
ARM GAS  /tmp/ccv0K2b2.s 			page 136


 3913 0709 00       		.sleb128 0
 3914 070a 00       		.byte	0
 3915 070b 25       		.uleb128 0x25
 3916 070c 60000000 		.4byte	.LVL1
 3917 0710 90190000 		.4byte	0x1990
 3918 0714 3F070000 		.4byte	0x73f
 3919 0718 26       		.uleb128 0x26
 3920 0719 01       		.byte	0x1
 3921 071a 53       		.byte	0x53
 3922 071b 05       		.byte	0x5
 3923 071c 03       		.byte	0x3
 3924 071d 00000000 		.4byte	thread10
 3925 0721 26       		.uleb128 0x26
 3926 0722 01       		.byte	0x1
 3927 0723 52       		.byte	0x52
 3928 0724 02       		.byte	0x2
 3929 0725 76       		.byte	0x76
 3930 0726 02       		.sleb128 2
 3931 0727 26       		.uleb128 0x26
 3932 0728 01       		.byte	0x1
 3933 0729 51       		.byte	0x51
 3934 072a 03       		.byte	0x3
 3935 072b 0A       		.byte	0xa
 3936 072c 4801     		.2byte	0x148
 3937 072e 26       		.uleb128 0x26
 3938 072f 01       		.byte	0x1
 3939 0730 50       		.byte	0x50
 3940 0731 02       		.byte	0x2
 3941 0732 77       		.byte	0x77
 3942 0733 00       		.sleb128 0
 3943 0734 26       		.uleb128 0x26
 3944 0735 02       		.byte	0x2
 3945 0736 7D       		.byte	0x7d
 3946 0737 00       		.sleb128 0
 3947 0738 05       		.byte	0x5
 3948 0739 03       		.byte	0x3
 3949 073a 04000000 		.4byte	.LC1
 3950 073e 00       		.byte	0
 3951 073f 25       		.uleb128 0x25
 3952 0740 82000000 		.4byte	.LVL2
 3953 0744 90190000 		.4byte	0x1990
 3954 0748 73070000 		.4byte	0x773
 3955 074c 26       		.uleb128 0x26
 3956 074d 01       		.byte	0x1
 3957 074e 53       		.byte	0x53
 3958 074f 05       		.byte	0x5
 3959 0750 03       		.byte	0x3
 3960 0751 00000000 		.4byte	thread12
 3961 0755 26       		.uleb128 0x26
 3962 0756 01       		.byte	0x1
 3963 0757 52       		.byte	0x52
 3964 0758 02       		.byte	0x2
 3965 0759 76       		.byte	0x76
 3966 075a 03       		.sleb128 3
 3967 075b 26       		.uleb128 0x26
 3968 075c 01       		.byte	0x1
 3969 075d 51       		.byte	0x51
ARM GAS  /tmp/ccv0K2b2.s 			page 137


 3970 075e 03       		.byte	0x3
 3971 075f 0A       		.byte	0xa
 3972 0760 4801     		.2byte	0x148
 3973 0762 26       		.uleb128 0x26
 3974 0763 01       		.byte	0x1
 3975 0764 50       		.byte	0x50
 3976 0765 02       		.byte	0x2
 3977 0766 75       		.byte	0x75
 3978 0767 00       		.sleb128 0
 3979 0768 26       		.uleb128 0x26
 3980 0769 02       		.byte	0x2
 3981 076a 7D       		.byte	0x7d
 3982 076b 00       		.sleb128 0
 3983 076c 05       		.byte	0x5
 3984 076d 03       		.byte	0x3
 3985 076e 08000000 		.4byte	.LC2
 3986 0772 00       		.byte	0
 3987 0773 25       		.uleb128 0x25
 3988 0774 92000000 		.4byte	.LVL3
 3989 0778 BC190000 		.4byte	0x19bc
 3990 077c 87070000 		.4byte	0x787
 3991 0780 26       		.uleb128 0x26
 3992 0781 01       		.byte	0x1
 3993 0782 50       		.byte	0x50
 3994 0783 02       		.byte	0x2
 3995 0784 75       		.byte	0x75
 3996 0785 00       		.sleb128 0
 3997 0786 00       		.byte	0
 3998 0787 25       		.uleb128 0x25
 3999 0788 98000000 		.4byte	.LVL4
 4000 078c BC190000 		.4byte	0x19bc
 4001 0790 9B070000 		.4byte	0x79b
 4002 0794 26       		.uleb128 0x26
 4003 0795 01       		.byte	0x1
 4004 0796 50       		.byte	0x50
 4005 0797 02       		.byte	0x2
 4006 0798 75       		.byte	0x75
 4007 0799 00       		.sleb128 0
 4008 079a 00       		.byte	0
 4009 079b 27       		.uleb128 0x27
 4010 079c 9C000000 		.4byte	.LVL5
 4011 07a0 D6190000 		.4byte	0x19d6
 4012 07a4 28       		.uleb128 0x28
 4013 07a5 B0000000 		.4byte	.LVL6
 4014 07a9 01       		.byte	0x1
 4015 07aa E0190000 		.4byte	0x19e0
 4016 07ae 26       		.uleb128 0x26
 4017 07af 01       		.byte	0x1
 4018 07b0 51       		.byte	0x51
 4019 07b1 05       		.byte	0x5
 4020 07b2 03       		.byte	0x3
 4021 07b3 0C000000 		.4byte	.LC3
 4022 07b7 26       		.uleb128 0x26
 4023 07b8 01       		.byte	0x1
 4024 07b9 50       		.byte	0x50
 4025 07ba 01       		.byte	0x1
 4026 07bb 31       		.byte	0x31
ARM GAS  /tmp/ccv0K2b2.s 			page 138


 4027 07bc 00       		.byte	0
 4028 07bd 00       		.byte	0
 4029 07be 29       		.uleb128 0x29
 4030 07bf B7030000 		.4byte	.LASF96
 4031 07c3 01       		.byte	0x1
 4032 07c4 4D02     		.2byte	0x24d
 4033 07c6 01       		.byte	0x1
 4034 07c7 EB010000 		.4byte	0x1eb
 4035 07cb 00000000 		.4byte	.LFB181
 4036 07cf 22000000 		.4byte	.LFE181
 4037 07d3 2C000000 		.4byte	.LLST1
 4038 07d7 01       		.byte	0x1
 4039 07d8 18080000 		.4byte	0x818
 4040 07dc 2A       		.uleb128 0x2a
 4041 07dd 7000     		.ascii	"p\000"
 4042 07df 01       		.byte	0x1
 4043 07e0 4D02     		.2byte	0x24d
 4044 07e2 1E020000 		.4byte	0x21e
 4045 07e6 4C000000 		.4byte	.LLST2
 4046 07ea 25       		.uleb128 0x25
 4047 07eb 12000000 		.4byte	.LVL9
 4048 07ef 031A0000 		.4byte	0x1a03
 4049 07f3 FE070000 		.4byte	0x7fe
 4050 07f7 26       		.uleb128 0x26
 4051 07f8 01       		.byte	0x1
 4052 07f9 50       		.byte	0x50
 4053 07fa 02       		.byte	0x2
 4054 07fb 74       		.byte	0x74
 4055 07fc 00       		.sleb128 0
 4056 07fd 00       		.byte	0
 4057 07fe 27       		.uleb128 0x27
 4058 07ff 18000000 		.4byte	.LVL10
 4059 0803 171A0000 		.4byte	0x1a17
 4060 0807 2B       		.uleb128 0x2b
 4061 0808 1E000000 		.4byte	.LVL11
 4062 080c 2B1A0000 		.4byte	0x1a2b
 4063 0810 26       		.uleb128 0x26
 4064 0811 01       		.byte	0x1
 4065 0812 50       		.byte	0x50
 4066 0813 02       		.byte	0x2
 4067 0814 74       		.byte	0x74
 4068 0815 00       		.sleb128 0
 4069 0816 00       		.byte	0
 4070 0817 00       		.byte	0
 4071 0818 2C       		.uleb128 0x2c
 4072 0819 2F030000 		.4byte	.LASF97
 4073 081d 01       		.byte	0x1
 4074 081e 59       		.byte	0x59
 4075 081f 01       		.byte	0x1
 4076 0820 EB010000 		.4byte	0x1eb
 4077 0824 00000000 		.4byte	.LFB166
 4078 0828 22000000 		.4byte	.LFE166
 4079 082c 6A000000 		.4byte	.LLST3
 4080 0830 01       		.byte	0x1
 4081 0831 70080000 		.4byte	0x870
 4082 0835 2D       		.uleb128 0x2d
 4083 0836 7000     		.ascii	"p\000"
ARM GAS  /tmp/ccv0K2b2.s 			page 139


 4084 0838 01       		.byte	0x1
 4085 0839 59       		.byte	0x59
 4086 083a 1E020000 		.4byte	0x21e
 4087 083e 8A000000 		.4byte	.LLST4
 4088 0842 25       		.uleb128 0x25
 4089 0843 12000000 		.4byte	.LVL14
 4090 0847 031A0000 		.4byte	0x1a03
 4091 084b 56080000 		.4byte	0x856
 4092 084f 26       		.uleb128 0x26
 4093 0850 01       		.byte	0x1
 4094 0851 50       		.byte	0x50
 4095 0852 02       		.byte	0x2
 4096 0853 74       		.byte	0x74
 4097 0854 00       		.sleb128 0
 4098 0855 00       		.byte	0
 4099 0856 27       		.uleb128 0x27
 4100 0857 18000000 		.4byte	.LVL15
 4101 085b 171A0000 		.4byte	0x1a17
 4102 085f 2B       		.uleb128 0x2b
 4103 0860 1E000000 		.4byte	.LVL16
 4104 0864 2B1A0000 		.4byte	0x1a2b
 4105 0868 26       		.uleb128 0x26
 4106 0869 01       		.byte	0x1
 4107 086a 50       		.byte	0x50
 4108 086b 02       		.byte	0x2
 4109 086c 74       		.byte	0x74
 4110 086d 00       		.sleb128 0
 4111 086e 00       		.byte	0
 4112 086f 00       		.byte	0
 4113 0870 29       		.uleb128 0x29
 4114 0871 A5030000 		.4byte	.LASF98
 4115 0875 01       		.byte	0x1
 4116 0876 E601     		.2byte	0x1e6
 4117 0878 01       		.byte	0x1
 4118 0879 EB010000 		.4byte	0x1eb
 4119 087d 00000000 		.4byte	.LFB175
 4120 0881 2E000000 		.4byte	.LFE175
 4121 0885 A8000000 		.4byte	.LLST5
 4122 0889 01       		.byte	0x1
 4123 088a E1080000 		.4byte	0x8e1
 4124 088e 2A       		.uleb128 0x2a
 4125 088f 7000     		.ascii	"p\000"
 4126 0891 01       		.byte	0x1
 4127 0892 E601     		.2byte	0x1e6
 4128 0894 1E020000 		.4byte	0x21e
 4129 0898 C8000000 		.4byte	.LLST6
 4130 089c 25       		.uleb128 0x25
 4131 089d 12000000 		.4byte	.LVL19
 4132 08a1 031A0000 		.4byte	0x1a03
 4133 08a5 B0080000 		.4byte	0x8b0
 4134 08a9 26       		.uleb128 0x26
 4135 08aa 01       		.byte	0x1
 4136 08ab 50       		.byte	0x50
 4137 08ac 02       		.byte	0x2
 4138 08ad 74       		.byte	0x74
 4139 08ae 00       		.sleb128 0
 4140 08af 00       		.byte	0
ARM GAS  /tmp/ccv0K2b2.s 			page 140


 4141 08b0 25       		.uleb128 0x25
 4142 08b1 1E000000 		.4byte	.LVL20
 4143 08b5 3F1A0000 		.4byte	0x1a3f
 4144 08b9 C7080000 		.4byte	0x8c7
 4145 08bd 26       		.uleb128 0x26
 4146 08be 01       		.byte	0x1
 4147 08bf 50       		.byte	0x50
 4148 08c0 05       		.byte	0x5
 4149 08c1 03       		.byte	0x3
 4150 08c2 00000000 		.4byte	.LANCHOR0
 4151 08c6 00       		.byte	0
 4152 08c7 27       		.uleb128 0x27
 4153 08c8 24000000 		.4byte	.LVL21
 4154 08cc 171A0000 		.4byte	0x1a17
 4155 08d0 2B       		.uleb128 0x2b
 4156 08d1 2A000000 		.4byte	.LVL22
 4157 08d5 2B1A0000 		.4byte	0x1a2b
 4158 08d9 26       		.uleb128 0x26
 4159 08da 01       		.byte	0x1
 4160 08db 50       		.byte	0x50
 4161 08dc 02       		.byte	0x2
 4162 08dd 74       		.byte	0x74
 4163 08de 00       		.sleb128 0
 4164 08df 00       		.byte	0
 4165 08e0 00       		.byte	0
 4166 08e1 29       		.uleb128 0x29
 4167 08e2 AE030000 		.4byte	.LASF99
 4168 08e6 01       		.byte	0x1
 4169 08e7 3E02     		.2byte	0x23e
 4170 08e9 01       		.byte	0x1
 4171 08ea EB010000 		.4byte	0x1eb
 4172 08ee 00000000 		.4byte	.LFB180
 4173 08f2 46000000 		.4byte	.LFE180
 4174 08f6 E6000000 		.4byte	.LLST7
 4175 08fa 01       		.byte	0x1
 4176 08fb 80090000 		.4byte	0x980
 4177 08ff 2A       		.uleb128 0x2a
 4178 0900 7000     		.ascii	"p\000"
 4179 0902 01       		.byte	0x1
 4180 0903 3E02     		.2byte	0x23e
 4181 0905 1E020000 		.4byte	0x21e
 4182 0909 06010000 		.4byte	.LLST8
 4183 090d 25       		.uleb128 0x25
 4184 090e 1A000000 		.4byte	.LVL25
 4185 0912 031A0000 		.4byte	0x1a03
 4186 0916 21090000 		.4byte	0x921
 4187 091a 26       		.uleb128 0x26
 4188 091b 01       		.byte	0x1
 4189 091c 50       		.byte	0x50
 4190 091d 02       		.byte	0x2
 4191 091e 74       		.byte	0x74
 4192 091f 00       		.sleb128 0
 4193 0920 00       		.byte	0
 4194 0921 25       		.uleb128 0x25
 4195 0922 20000000 		.4byte	.LVL26
 4196 0926 031A0000 		.4byte	0x1a03
 4197 092a 35090000 		.4byte	0x935
ARM GAS  /tmp/ccv0K2b2.s 			page 141


 4198 092e 26       		.uleb128 0x26
 4199 092f 01       		.byte	0x1
 4200 0930 50       		.byte	0x50
 4201 0931 02       		.byte	0x2
 4202 0932 75       		.byte	0x75
 4203 0933 00       		.sleb128 0
 4204 0934 00       		.byte	0
 4205 0935 25       		.uleb128 0x25
 4206 0936 30000000 		.4byte	.LVL27
 4207 093a 571A0000 		.4byte	0x1a57
 4208 093e 52090000 		.4byte	0x952
 4209 0942 26       		.uleb128 0x26
 4210 0943 01       		.byte	0x1
 4211 0944 51       		.byte	0x51
 4212 0945 02       		.byte	0x2
 4213 0946 09       		.byte	0x9
 4214 0947 FF       		.byte	0xff
 4215 0948 26       		.uleb128 0x26
 4216 0949 01       		.byte	0x1
 4217 094a 50       		.byte	0x50
 4218 094b 05       		.byte	0x5
 4219 094c 03       		.byte	0x3
 4220 094d 00000000 		.4byte	.LANCHOR0
 4221 0951 00       		.byte	0
 4222 0952 27       		.uleb128 0x27
 4223 0953 36000000 		.4byte	.LVL28
 4224 0957 171A0000 		.4byte	0x1a17
 4225 095b 25       		.uleb128 0x25
 4226 095c 3C000000 		.4byte	.LVL29
 4227 0960 2B1A0000 		.4byte	0x1a2b
 4228 0964 6F090000 		.4byte	0x96f
 4229 0968 26       		.uleb128 0x26
 4230 0969 01       		.byte	0x1
 4231 096a 50       		.byte	0x50
 4232 096b 02       		.byte	0x2
 4233 096c 75       		.byte	0x75
 4234 096d 00       		.sleb128 0
 4235 096e 00       		.byte	0
 4236 096f 2B       		.uleb128 0x2b
 4237 0970 42000000 		.4byte	.LVL30
 4238 0974 2B1A0000 		.4byte	0x1a2b
 4239 0978 26       		.uleb128 0x26
 4240 0979 01       		.byte	0x1
 4241 097a 50       		.byte	0x50
 4242 097b 02       		.byte	0x2
 4243 097c 74       		.byte	0x74
 4244 097d 00       		.sleb128 0
 4245 097e 00       		.byte	0
 4246 097f 00       		.byte	0
 4247 0980 21       		.uleb128 0x21
 4248 0981 5D060000 		.4byte	.LASF101
 4249 0985 01       		.byte	0x1
 4250 0986 3702     		.2byte	0x237
 4251 0988 01       		.byte	0x1
 4252 0989 00000000 		.4byte	.LFB179
 4253 098d 2A000000 		.4byte	.LFE179
 4254 0991 24010000 		.4byte	.LLST9
ARM GAS  /tmp/ccv0K2b2.s 			page 142


 4255 0995 01       		.byte	0x1
 4256 0996 DD090000 		.4byte	0x9dd
 4257 099a 25       		.uleb128 0x25
 4258 099b 0E000000 		.4byte	.LVL31
 4259 099f 741A0000 		.4byte	0x1a74
 4260 09a3 B1090000 		.4byte	0x9b1
 4261 09a7 26       		.uleb128 0x26
 4262 09a8 01       		.byte	0x1
 4263 09a9 50       		.byte	0x50
 4264 09aa 05       		.byte	0x5
 4265 09ab 03       		.byte	0x3
 4266 09ac 00000000 		.4byte	.LANCHOR0
 4267 09b0 00       		.byte	0
 4268 09b1 25       		.uleb128 0x25
 4269 09b2 1A000000 		.4byte	.LVL32
 4270 09b6 881A0000 		.4byte	0x1a88
 4271 09ba C8090000 		.4byte	0x9c8
 4272 09be 26       		.uleb128 0x26
 4273 09bf 01       		.byte	0x1
 4274 09c0 50       		.byte	0x50
 4275 09c1 05       		.byte	0x5
 4276 09c2 03       		.byte	0x3
 4277 09c3 00000000 		.4byte	.LANCHOR2
 4278 09c7 00       		.byte	0
 4279 09c8 28       		.uleb128 0x28
 4280 09c9 2A000000 		.4byte	.LVL33
 4281 09cd 01       		.byte	0x1
 4282 09ce 881A0000 		.4byte	0x1a88
 4283 09d2 26       		.uleb128 0x26
 4284 09d3 01       		.byte	0x1
 4285 09d4 50       		.byte	0x50
 4286 09d5 05       		.byte	0x5
 4287 09d6 03       		.byte	0x3
 4288 09d7 00000000 		.4byte	.LANCHOR1
 4289 09db 00       		.byte	0
 4290 09dc 00       		.byte	0
 4291 09dd 21       		.uleb128 0x21
 4292 09de 7D000000 		.4byte	.LASF102
 4293 09e2 01       		.byte	0x1
 4294 09e3 1402     		.2byte	0x214
 4295 09e5 01       		.byte	0x1
 4296 09e6 00000000 		.4byte	.LFB177
 4297 09ea 1E000000 		.4byte	.LFE177
 4298 09ee 44010000 		.4byte	.LLST10
 4299 09f2 01       		.byte	0x1
 4300 09f3 230A0000 		.4byte	0xa23
 4301 09f7 25       		.uleb128 0x25
 4302 09f8 0E000000 		.4byte	.LVL34
 4303 09fc 741A0000 		.4byte	0x1a74
 4304 0a00 0E0A0000 		.4byte	0xa0e
 4305 0a04 26       		.uleb128 0x26
 4306 0a05 01       		.byte	0x1
 4307 0a06 50       		.byte	0x50
 4308 0a07 05       		.byte	0x5
 4309 0a08 03       		.byte	0x3
 4310 0a09 00000000 		.4byte	.LANCHOR0
 4311 0a0d 00       		.byte	0
ARM GAS  /tmp/ccv0K2b2.s 			page 143


 4312 0a0e 28       		.uleb128 0x28
 4313 0a0f 1E000000 		.4byte	.LVL35
 4314 0a13 01       		.byte	0x1
 4315 0a14 881A0000 		.4byte	0x1a88
 4316 0a18 26       		.uleb128 0x26
 4317 0a19 01       		.byte	0x1
 4318 0a1a 50       		.byte	0x50
 4319 0a1b 05       		.byte	0x5
 4320 0a1c 03       		.byte	0x3
 4321 0a1d 00000000 		.4byte	.LANCHOR2
 4322 0a21 00       		.byte	0
 4323 0a22 00       		.byte	0
 4324 0a23 21       		.uleb128 0x21
 4325 0a24 9A030000 		.4byte	.LASF103
 4326 0a28 01       		.byte	0x1
 4327 0a29 E001     		.2byte	0x1e0
 4328 0a2b 01       		.byte	0x1
 4329 0a2c 00000000 		.4byte	.LFB174
 4330 0a30 1E000000 		.4byte	.LFE174
 4331 0a34 64010000 		.4byte	.LLST11
 4332 0a38 01       		.byte	0x1
 4333 0a39 690A0000 		.4byte	0xa69
 4334 0a3d 25       		.uleb128 0x25
 4335 0a3e 0E000000 		.4byte	.LVL36
 4336 0a42 741A0000 		.4byte	0x1a74
 4337 0a46 540A0000 		.4byte	0xa54
 4338 0a4a 26       		.uleb128 0x26
 4339 0a4b 01       		.byte	0x1
 4340 0a4c 50       		.byte	0x50
 4341 0a4d 05       		.byte	0x5
 4342 0a4e 03       		.byte	0x3
 4343 0a4f 00000000 		.4byte	.LANCHOR0
 4344 0a53 00       		.byte	0
 4345 0a54 28       		.uleb128 0x28
 4346 0a55 1E000000 		.4byte	.LVL37
 4347 0a59 01       		.byte	0x1
 4348 0a5a 881A0000 		.4byte	0x1a88
 4349 0a5e 26       		.uleb128 0x26
 4350 0a5f 01       		.byte	0x1
 4351 0a60 50       		.byte	0x50
 4352 0a61 05       		.byte	0x5
 4353 0a62 03       		.byte	0x3
 4354 0a63 00000000 		.4byte	.LANCHOR2
 4355 0a67 00       		.byte	0
 4356 0a68 00       		.byte	0
 4357 0a69 2E       		.uleb128 0x2e
 4358 0a6a 36000000 		.4byte	.LASF104
 4359 0a6e 01       		.byte	0x1
 4360 0a6f AD01     		.2byte	0x1ad
 4361 0a71 01       		.byte	0x1
 4362 0a72 00000000 		.4byte	.LFB172
 4363 0a76 0C000000 		.4byte	.LFE172
 4364 0a7a 02       		.byte	0x2
 4365 0a7b 7D       		.byte	0x7d
 4366 0a7c 00       		.sleb128 0
 4367 0a7d 01       		.byte	0x1
 4368 0a7e 970A0000 		.4byte	0xa97
ARM GAS  /tmp/ccv0K2b2.s 			page 144


 4369 0a82 28       		.uleb128 0x28
 4370 0a83 0C000000 		.4byte	.LVL38
 4371 0a87 01       		.byte	0x1
 4372 0a88 881A0000 		.4byte	0x1a88
 4373 0a8c 26       		.uleb128 0x26
 4374 0a8d 01       		.byte	0x1
 4375 0a8e 50       		.byte	0x50
 4376 0a8f 05       		.byte	0x5
 4377 0a90 03       		.byte	0x3
 4378 0a91 00000000 		.4byte	.LANCHOR2
 4379 0a95 00       		.byte	0
 4380 0a96 00       		.byte	0
 4381 0a97 21       		.uleb128 0x21
 4382 0a98 4F030000 		.4byte	.LASF105
 4383 0a9c 01       		.byte	0x1
 4384 0a9d 5501     		.2byte	0x155
 4385 0a9f 01       		.byte	0x1
 4386 0aa0 00000000 		.4byte	.LFB168
 4387 0aa4 1E000000 		.4byte	.LFE168
 4388 0aa8 84010000 		.4byte	.LLST12
 4389 0aac 01       		.byte	0x1
 4390 0aad DD0A0000 		.4byte	0xadd
 4391 0ab1 25       		.uleb128 0x25
 4392 0ab2 0E000000 		.4byte	.LVL39
 4393 0ab6 881A0000 		.4byte	0x1a88
 4394 0aba C80A0000 		.4byte	0xac8
 4395 0abe 26       		.uleb128 0x26
 4396 0abf 01       		.byte	0x1
 4397 0ac0 50       		.byte	0x50
 4398 0ac1 05       		.byte	0x5
 4399 0ac2 03       		.byte	0x3
 4400 0ac3 00000000 		.4byte	.LANCHOR2
 4401 0ac7 00       		.byte	0
 4402 0ac8 28       		.uleb128 0x28
 4403 0ac9 1E000000 		.4byte	.LVL40
 4404 0acd 01       		.byte	0x1
 4405 0ace 881A0000 		.4byte	0x1a88
 4406 0ad2 26       		.uleb128 0x26
 4407 0ad3 01       		.byte	0x1
 4408 0ad4 50       		.byte	0x50
 4409 0ad5 05       		.byte	0x5
 4410 0ad6 03       		.byte	0x3
 4411 0ad7 00000000 		.4byte	.LANCHOR1
 4412 0adb 00       		.byte	0
 4413 0adc 00       		.byte	0
 4414 0add 2F       		.uleb128 0x2f
 4415 0ade 91010000 		.4byte	.LASF106
 4416 0ae2 01       		.byte	0x1
 4417 0ae3 54       		.byte	0x54
 4418 0ae4 01       		.byte	0x1
 4419 0ae5 00000000 		.4byte	.LFB165
 4420 0ae9 0C000000 		.4byte	.LFE165
 4421 0aed 02       		.byte	0x2
 4422 0aee 7D       		.byte	0x7d
 4423 0aef 00       		.sleb128 0
 4424 0af0 01       		.byte	0x1
 4425 0af1 0A0B0000 		.4byte	0xb0a
ARM GAS  /tmp/ccv0K2b2.s 			page 145


 4426 0af5 28       		.uleb128 0x28
 4427 0af6 0C000000 		.4byte	.LVL41
 4428 0afa 01       		.byte	0x1
 4429 0afb 881A0000 		.4byte	0x1a88
 4430 0aff 26       		.uleb128 0x26
 4431 0b00 01       		.byte	0x1
 4432 0b01 50       		.byte	0x50
 4433 0b02 05       		.byte	0x5
 4434 0b03 03       		.byte	0x3
 4435 0b04 00000000 		.4byte	.LANCHOR2
 4436 0b08 00       		.byte	0
 4437 0b09 00       		.byte	0
 4438 0b0a 21       		.uleb128 0x21
 4439 0b0b 6F050000 		.4byte	.LASF107
 4440 0b0f 01       		.byte	0x1
 4441 0b10 1A02     		.2byte	0x21a
 4442 0b12 01       		.byte	0x1
 4443 0b13 00000000 		.4byte	.LFB178
 4444 0b17 D0000000 		.4byte	.LFE178
 4445 0b1b A4010000 		.4byte	.LLST13
 4446 0b1f 01       		.byte	0x1
 4447 0b20 870C0000 		.4byte	0xc87
 4448 0b24 22       		.uleb128 0x22
 4449 0b25 7D030000 		.4byte	.LASF108
 4450 0b29 01       		.byte	0x1
 4451 0b2a 1C02     		.2byte	0x21c
 4452 0b2c E0010000 		.4byte	0x1e0
 4453 0b30 01       		.byte	0x1
 4454 0b31 57       		.byte	0x57
 4455 0b32 23       		.uleb128 0x23
 4456 0b33 16060000 		.4byte	0x616
 4457 0b37 02000000 		.4byte	.LBB144
 4458 0b3b 18000000 		.4byte	.Ldebug_ranges0+0x18
 4459 0b3f 01       		.byte	0x1
 4460 0b40 1C02     		.2byte	0x21c
 4461 0b42 570B0000 		.4byte	0xb57
 4462 0b46 24       		.uleb128 0x24
 4463 0b47 08060000 		.4byte	0x608
 4464 0b4b 02000000 		.4byte	.LBB146
 4465 0b4f 0A000000 		.4byte	.LBE146
 4466 0b53 02       		.byte	0x2
 4467 0b54 1F01     		.2byte	0x11f
 4468 0b56 00       		.byte	0
 4469 0b57 25       		.uleb128 0x25
 4470 0b58 38000000 		.4byte	.LVL42
 4471 0b5c 90190000 		.4byte	0x1990
 4472 0b60 860B0000 		.4byte	0xb86
 4473 0b64 26       		.uleb128 0x26
 4474 0b65 01       		.byte	0x1
 4475 0b66 53       		.byte	0x53
 4476 0b67 02       		.byte	0x2
 4477 0b68 75       		.byte	0x75
 4478 0b69 00       		.sleb128 0
 4479 0b6a 26       		.uleb128 0x26
 4480 0b6b 01       		.byte	0x1
 4481 0b6c 52       		.byte	0x52
 4482 0b6d 02       		.byte	0x2
ARM GAS  /tmp/ccv0K2b2.s 			page 146


 4483 0b6e 77       		.byte	0x77
 4484 0b6f 01       		.sleb128 1
 4485 0b70 26       		.uleb128 0x26
 4486 0b71 01       		.byte	0x1
 4487 0b72 51       		.byte	0x51
 4488 0b73 03       		.byte	0x3
 4489 0b74 0A       		.byte	0xa
 4490 0b75 4801     		.2byte	0x148
 4491 0b77 26       		.uleb128 0x26
 4492 0b78 01       		.byte	0x1
 4493 0b79 50       		.byte	0x50
 4494 0b7a 03       		.byte	0x3
 4495 0b7b 76       		.byte	0x76
 4496 0b7c 00       		.sleb128 0
 4497 0b7d 06       		.byte	0x6
 4498 0b7e 26       		.uleb128 0x26
 4499 0b7f 02       		.byte	0x2
 4500 0b80 7D       		.byte	0x7d
 4501 0b81 00       		.sleb128 0
 4502 0b82 02       		.byte	0x2
 4503 0b83 74       		.byte	0x74
 4504 0b84 00       		.sleb128 0
 4505 0b85 00       		.byte	0
 4506 0b86 25       		.uleb128 0x25
 4507 0b87 5A000000 		.4byte	.LVL43
 4508 0b8b 90190000 		.4byte	0x1990
 4509 0b8f B80B0000 		.4byte	0xbb8
 4510 0b93 26       		.uleb128 0x26
 4511 0b94 01       		.byte	0x1
 4512 0b95 53       		.byte	0x53
 4513 0b96 02       		.byte	0x2
 4514 0b97 75       		.byte	0x75
 4515 0b98 00       		.sleb128 0
 4516 0b99 26       		.uleb128 0x26
 4517 0b9a 01       		.byte	0x1
 4518 0b9b 52       		.byte	0x52
 4519 0b9c 02       		.byte	0x2
 4520 0b9d 77       		.byte	0x77
 4521 0b9e 02       		.sleb128 2
 4522 0b9f 26       		.uleb128 0x26
 4523 0ba0 01       		.byte	0x1
 4524 0ba1 51       		.byte	0x51
 4525 0ba2 03       		.byte	0x3
 4526 0ba3 0A       		.byte	0xa
 4527 0ba4 4801     		.2byte	0x148
 4528 0ba6 26       		.uleb128 0x26
 4529 0ba7 01       		.byte	0x1
 4530 0ba8 50       		.byte	0x50
 4531 0ba9 03       		.byte	0x3
 4532 0baa 76       		.byte	0x76
 4533 0bab 04       		.sleb128 4
 4534 0bac 06       		.byte	0x6
 4535 0bad 26       		.uleb128 0x26
 4536 0bae 02       		.byte	0x2
 4537 0baf 7D       		.byte	0x7d
 4538 0bb0 00       		.sleb128 0
 4539 0bb1 05       		.byte	0x5
ARM GAS  /tmp/ccv0K2b2.s 			page 147


 4540 0bb2 03       		.byte	0x3
 4541 0bb3 14000000 		.4byte	.LC5
 4542 0bb7 00       		.byte	0
 4543 0bb8 25       		.uleb128 0x25
 4544 0bb9 74000000 		.4byte	.LVL44
 4545 0bbd 90190000 		.4byte	0x1990
 4546 0bc1 EA0B0000 		.4byte	0xbea
 4547 0bc5 26       		.uleb128 0x26
 4548 0bc6 01       		.byte	0x1
 4549 0bc7 53       		.byte	0x53
 4550 0bc8 02       		.byte	0x2
 4551 0bc9 75       		.byte	0x75
 4552 0bca 00       		.sleb128 0
 4553 0bcb 26       		.uleb128 0x26
 4554 0bcc 01       		.byte	0x1
 4555 0bcd 52       		.byte	0x52
 4556 0bce 02       		.byte	0x2
 4557 0bcf 77       		.byte	0x77
 4558 0bd0 03       		.sleb128 3
 4559 0bd1 26       		.uleb128 0x26
 4560 0bd2 01       		.byte	0x1
 4561 0bd3 51       		.byte	0x51
 4562 0bd4 03       		.byte	0x3
 4563 0bd5 0A       		.byte	0xa
 4564 0bd6 4801     		.2byte	0x148
 4565 0bd8 26       		.uleb128 0x26
 4566 0bd9 01       		.byte	0x1
 4567 0bda 50       		.byte	0x50
 4568 0bdb 03       		.byte	0x3
 4569 0bdc 76       		.byte	0x76
 4570 0bdd 08       		.sleb128 8
 4571 0bde 06       		.byte	0x6
 4572 0bdf 26       		.uleb128 0x26
 4573 0be0 02       		.byte	0x2
 4574 0be1 7D       		.byte	0x7d
 4575 0be2 00       		.sleb128 0
 4576 0be3 05       		.byte	0x5
 4577 0be4 03       		.byte	0x3
 4578 0be5 04000000 		.4byte	.LC1
 4579 0be9 00       		.byte	0
 4580 0bea 25       		.uleb128 0x25
 4581 0beb 8E000000 		.4byte	.LVL45
 4582 0bef 90190000 		.4byte	0x1990
 4583 0bf3 1C0C0000 		.4byte	0xc1c
 4584 0bf7 26       		.uleb128 0x26
 4585 0bf8 01       		.byte	0x1
 4586 0bf9 53       		.byte	0x53
 4587 0bfa 02       		.byte	0x2
 4588 0bfb 75       		.byte	0x75
 4589 0bfc 00       		.sleb128 0
 4590 0bfd 26       		.uleb128 0x26
 4591 0bfe 01       		.byte	0x1
 4592 0bff 52       		.byte	0x52
 4593 0c00 02       		.byte	0x2
 4594 0c01 77       		.byte	0x77
 4595 0c02 04       		.sleb128 4
 4596 0c03 26       		.uleb128 0x26
ARM GAS  /tmp/ccv0K2b2.s 			page 148


 4597 0c04 01       		.byte	0x1
 4598 0c05 51       		.byte	0x51
 4599 0c06 03       		.byte	0x3
 4600 0c07 0A       		.byte	0xa
 4601 0c08 4801     		.2byte	0x148
 4602 0c0a 26       		.uleb128 0x26
 4603 0c0b 01       		.byte	0x1
 4604 0c0c 50       		.byte	0x50
 4605 0c0d 03       		.byte	0x3
 4606 0c0e 76       		.byte	0x76
 4607 0c0f 0C       		.sleb128 12
 4608 0c10 06       		.byte	0x6
 4609 0c11 26       		.uleb128 0x26
 4610 0c12 02       		.byte	0x2
 4611 0c13 7D       		.byte	0x7d
 4612 0c14 00       		.sleb128 0
 4613 0c15 05       		.byte	0x5
 4614 0c16 03       		.byte	0x3
 4615 0c17 08000000 		.4byte	.LC2
 4616 0c1b 00       		.byte	0
 4617 0c1c 25       		.uleb128 0x25
 4618 0c1d AA000000 		.4byte	.LVL46
 4619 0c21 90190000 		.4byte	0x1990
 4620 0c25 4D0C0000 		.4byte	0xc4d
 4621 0c29 26       		.uleb128 0x26
 4622 0c2a 01       		.byte	0x1
 4623 0c2b 53       		.byte	0x53
 4624 0c2c 02       		.byte	0x2
 4625 0c2d 75       		.byte	0x75
 4626 0c2e 00       		.sleb128 0
 4627 0c2f 26       		.uleb128 0x26
 4628 0c30 01       		.byte	0x1
 4629 0c31 52       		.byte	0x52
 4630 0c32 02       		.byte	0x2
 4631 0c33 77       		.byte	0x77
 4632 0c34 05       		.sleb128 5
 4633 0c35 26       		.uleb128 0x26
 4634 0c36 01       		.byte	0x1
 4635 0c37 51       		.byte	0x51
 4636 0c38 03       		.byte	0x3
 4637 0c39 0A       		.byte	0xa
 4638 0c3a 4801     		.2byte	0x148
 4639 0c3c 26       		.uleb128 0x26
 4640 0c3d 01       		.byte	0x1
 4641 0c3e 50       		.byte	0x50
 4642 0c3f 02       		.byte	0x2
 4643 0c40 76       		.byte	0x76
 4644 0c41 00       		.sleb128 0
 4645 0c42 26       		.uleb128 0x26
 4646 0c43 02       		.byte	0x2
 4647 0c44 7D       		.byte	0x7d
 4648 0c45 00       		.sleb128 0
 4649 0c46 05       		.byte	0x5
 4650 0c47 03       		.byte	0x3
 4651 0c48 00000000 		.4byte	.LC0
 4652 0c4c 00       		.byte	0
 4653 0c4d 25       		.uleb128 0x25
ARM GAS  /tmp/ccv0K2b2.s 			page 149


 4654 0c4e B8000000 		.4byte	.LVL47
 4655 0c52 9C1A0000 		.4byte	0x1a9c
 4656 0c56 640C0000 		.4byte	0xc64
 4657 0c5a 26       		.uleb128 0x26
 4658 0c5b 01       		.byte	0x1
 4659 0c5c 50       		.byte	0x50
 4660 0c5d 05       		.byte	0x5
 4661 0c5e 03       		.byte	0x3
 4662 0c5f 00000000 		.4byte	.LANCHOR0
 4663 0c63 00       		.byte	0
 4664 0c64 27       		.uleb128 0x27
 4665 0c65 BC000000 		.4byte	.LVL48
 4666 0c69 D6190000 		.4byte	0x19d6
 4667 0c6d 28       		.uleb128 0x28
 4668 0c6e D0000000 		.4byte	.LVL49
 4669 0c72 01       		.byte	0x1
 4670 0c73 E0190000 		.4byte	0x19e0
 4671 0c77 26       		.uleb128 0x26
 4672 0c78 01       		.byte	0x1
 4673 0c79 51       		.byte	0x51
 4674 0c7a 05       		.byte	0x5
 4675 0c7b 03       		.byte	0x3
 4676 0c7c 18000000 		.4byte	.LC6
 4677 0c80 26       		.uleb128 0x26
 4678 0c81 01       		.byte	0x1
 4679 0c82 50       		.byte	0x50
 4680 0c83 01       		.byte	0x1
 4681 0c84 31       		.byte	0x31
 4682 0c85 00       		.byte	0
 4683 0c86 00       		.byte	0
 4684 0c87 21       		.uleb128 0x21
 4685 0c88 F2020000 		.4byte	.LASF109
 4686 0c8c 01       		.byte	0x1
 4687 0c8d EF01     		.2byte	0x1ef
 4688 0c8f 01       		.byte	0x1
 4689 0c90 00000000 		.4byte	.LFB176
 4690 0c94 00010000 		.4byte	.LFE176
 4691 0c98 D0010000 		.4byte	.LLST14
 4692 0c9c 01       		.byte	0x1
 4693 0c9d E70E0000 		.4byte	0xee7
 4694 0ca1 22       		.uleb128 0x22
 4695 0ca2 7D030000 		.4byte	.LASF108
 4696 0ca6 01       		.byte	0x1
 4697 0ca7 F101     		.2byte	0x1f1
 4698 0ca9 E0010000 		.4byte	0x1e0
 4699 0cad 01       		.byte	0x1
 4700 0cae 57       		.byte	0x57
 4701 0caf 23       		.uleb128 0x23
 4702 0cb0 16060000 		.4byte	0x616
 4703 0cb4 02000000 		.4byte	.LBB150
 4704 0cb8 30000000 		.4byte	.Ldebug_ranges0+0x30
 4705 0cbc 01       		.byte	0x1
 4706 0cbd F101     		.2byte	0x1f1
 4707 0cbf D40C0000 		.4byte	0xcd4
 4708 0cc3 24       		.uleb128 0x24
 4709 0cc4 08060000 		.4byte	0x608
 4710 0cc8 02000000 		.4byte	.LBB152
ARM GAS  /tmp/ccv0K2b2.s 			page 150


 4711 0ccc 0A000000 		.4byte	.LBE152
 4712 0cd0 02       		.byte	0x2
 4713 0cd1 1F01     		.2byte	0x11f
 4714 0cd3 00       		.byte	0
 4715 0cd4 30       		.uleb128 0x30
 4716 0cd5 24060000 		.4byte	0x624
 4717 0cd9 B2000000 		.4byte	.LBB156
 4718 0cdd B8000000 		.4byte	.LBE156
 4719 0ce1 01       		.byte	0x1
 4720 0ce2 F701     		.2byte	0x1f7
 4721 0ce4 110D0000 		.4byte	0xd11
 4722 0ce8 31       		.uleb128 0x31
 4723 0ce9 F4050000 		.4byte	0x5f4
 4724 0ced B2000000 		.4byte	.LBB157
 4725 0cf1 B8000000 		.4byte	.LBE157
 4726 0cf5 0D       		.byte	0xd
 4727 0cf6 2C01     		.2byte	0x12c
 4728 0cf8 31       		.uleb128 0x31
 4729 0cf9 D9050000 		.4byte	0x5d9
 4730 0cfd B2000000 		.4byte	.LBB158
 4731 0d01 B8000000 		.4byte	.LBE158
 4732 0d05 09       		.byte	0x9
 4733 0d06 BF01     		.2byte	0x1bf
 4734 0d08 32       		.uleb128 0x32
 4735 0d09 E7050000 		.4byte	0x5e7
 4736 0d0d 20       		.byte	0x20
 4737 0d0e 00       		.byte	0
 4738 0d0f 00       		.byte	0
 4739 0d10 00       		.byte	0
 4740 0d11 30       		.uleb128 0x30
 4741 0d12 2E060000 		.4byte	0x62e
 4742 0d16 E2000000 		.4byte	.LBB160
 4743 0d1a E8000000 		.4byte	.LBE160
 4744 0d1e 01       		.byte	0x1
 4745 0d1f FE01     		.2byte	0x1fe
 4746 0d21 5D0D0000 		.4byte	0xd5d
 4747 0d25 33       		.uleb128 0x33
 4748 0d26 E2000000 		.4byte	.LBB161
 4749 0d2a E8000000 		.4byte	.LBE161
 4750 0d2e 34       		.uleb128 0x34
 4751 0d2f 3C060000 		.4byte	0x63c
 4752 0d33 31       		.uleb128 0x31
 4753 0d34 FE050000 		.4byte	0x5fe
 4754 0d38 E2000000 		.4byte	.LBB162
 4755 0d3c E8000000 		.4byte	.LBE162
 4756 0d40 0D       		.byte	0xd
 4757 0d41 4201     		.2byte	0x142
 4758 0d43 31       		.uleb128 0x31
 4759 0d44 D9050000 		.4byte	0x5d9
 4760 0d48 E2000000 		.4byte	.LBB163
 4761 0d4c E8000000 		.4byte	.LBE163
 4762 0d50 09       		.byte	0x9
 4763 0d51 CD01     		.2byte	0x1cd
 4764 0d53 32       		.uleb128 0x32
 4765 0d54 E7050000 		.4byte	0x5e7
 4766 0d58 00       		.byte	0
 4767 0d59 00       		.byte	0
ARM GAS  /tmp/ccv0K2b2.s 			page 151


 4768 0d5a 00       		.byte	0
 4769 0d5b 00       		.byte	0
 4770 0d5c 00       		.byte	0
 4771 0d5d 25       		.uleb128 0x25
 4772 0d5e 38000000 		.4byte	.LVL50
 4773 0d62 90190000 		.4byte	0x1990
 4774 0d66 8F0D0000 		.4byte	0xd8f
 4775 0d6a 26       		.uleb128 0x26
 4776 0d6b 01       		.byte	0x1
 4777 0d6c 53       		.byte	0x53
 4778 0d6d 02       		.byte	0x2
 4779 0d6e 75       		.byte	0x75
 4780 0d6f 00       		.sleb128 0
 4781 0d70 26       		.uleb128 0x26
 4782 0d71 01       		.byte	0x1
 4783 0d72 52       		.byte	0x52
 4784 0d73 02       		.byte	0x2
 4785 0d74 77       		.byte	0x77
 4786 0d75 01       		.sleb128 1
 4787 0d76 26       		.uleb128 0x26
 4788 0d77 01       		.byte	0x1
 4789 0d78 51       		.byte	0x51
 4790 0d79 03       		.byte	0x3
 4791 0d7a 0A       		.byte	0xa
 4792 0d7b 4801     		.2byte	0x148
 4793 0d7d 26       		.uleb128 0x26
 4794 0d7e 01       		.byte	0x1
 4795 0d7f 50       		.byte	0x50
 4796 0d80 03       		.byte	0x3
 4797 0d81 76       		.byte	0x76
 4798 0d82 00       		.sleb128 0
 4799 0d83 06       		.byte	0x6
 4800 0d84 26       		.uleb128 0x26
 4801 0d85 02       		.byte	0x2
 4802 0d86 7D       		.byte	0x7d
 4803 0d87 00       		.sleb128 0
 4804 0d88 05       		.byte	0x5
 4805 0d89 03       		.byte	0x3
 4806 0d8a 10000000 		.4byte	.LC4
 4807 0d8e 00       		.byte	0
 4808 0d8f 25       		.uleb128 0x25
 4809 0d90 5C000000 		.4byte	.LVL51
 4810 0d94 90190000 		.4byte	0x1990
 4811 0d98 C10D0000 		.4byte	0xdc1
 4812 0d9c 26       		.uleb128 0x26
 4813 0d9d 01       		.byte	0x1
 4814 0d9e 53       		.byte	0x53
 4815 0d9f 02       		.byte	0x2
 4816 0da0 75       		.byte	0x75
 4817 0da1 00       		.sleb128 0
 4818 0da2 26       		.uleb128 0x26
 4819 0da3 01       		.byte	0x1
 4820 0da4 52       		.byte	0x52
 4821 0da5 02       		.byte	0x2
 4822 0da6 77       		.byte	0x77
 4823 0da7 02       		.sleb128 2
 4824 0da8 26       		.uleb128 0x26
ARM GAS  /tmp/ccv0K2b2.s 			page 152


 4825 0da9 01       		.byte	0x1
 4826 0daa 51       		.byte	0x51
 4827 0dab 03       		.byte	0x3
 4828 0dac 0A       		.byte	0xa
 4829 0dad 4801     		.2byte	0x148
 4830 0daf 26       		.uleb128 0x26
 4831 0db0 01       		.byte	0x1
 4832 0db1 50       		.byte	0x50
 4833 0db2 03       		.byte	0x3
 4834 0db3 76       		.byte	0x76
 4835 0db4 04       		.sleb128 4
 4836 0db5 06       		.byte	0x6
 4837 0db6 26       		.uleb128 0x26
 4838 0db7 02       		.byte	0x2
 4839 0db8 7D       		.byte	0x7d
 4840 0db9 00       		.sleb128 0
 4841 0dba 05       		.byte	0x5
 4842 0dbb 03       		.byte	0x3
 4843 0dbc 14000000 		.4byte	.LC5
 4844 0dc0 00       		.byte	0
 4845 0dc1 25       		.uleb128 0x25
 4846 0dc2 78000000 		.4byte	.LVL52
 4847 0dc6 90190000 		.4byte	0x1990
 4848 0dca F30D0000 		.4byte	0xdf3
 4849 0dce 26       		.uleb128 0x26
 4850 0dcf 01       		.byte	0x1
 4851 0dd0 53       		.byte	0x53
 4852 0dd1 02       		.byte	0x2
 4853 0dd2 75       		.byte	0x75
 4854 0dd3 00       		.sleb128 0
 4855 0dd4 26       		.uleb128 0x26
 4856 0dd5 01       		.byte	0x1
 4857 0dd6 52       		.byte	0x52
 4858 0dd7 02       		.byte	0x2
 4859 0dd8 77       		.byte	0x77
 4860 0dd9 03       		.sleb128 3
 4861 0dda 26       		.uleb128 0x26
 4862 0ddb 01       		.byte	0x1
 4863 0ddc 51       		.byte	0x51
 4864 0ddd 03       		.byte	0x3
 4865 0dde 0A       		.byte	0xa
 4866 0ddf 4801     		.2byte	0x148
 4867 0de1 26       		.uleb128 0x26
 4868 0de2 01       		.byte	0x1
 4869 0de3 50       		.byte	0x50
 4870 0de4 03       		.byte	0x3
 4871 0de5 76       		.byte	0x76
 4872 0de6 08       		.sleb128 8
 4873 0de7 06       		.byte	0x6
 4874 0de8 26       		.uleb128 0x26
 4875 0de9 02       		.byte	0x2
 4876 0dea 7D       		.byte	0x7d
 4877 0deb 00       		.sleb128 0
 4878 0dec 05       		.byte	0x5
 4879 0ded 03       		.byte	0x3
 4880 0dee 04000000 		.4byte	.LC1
 4881 0df2 00       		.byte	0
ARM GAS  /tmp/ccv0K2b2.s 			page 153


 4882 0df3 25       		.uleb128 0x25
 4883 0df4 94000000 		.4byte	.LVL53
 4884 0df8 90190000 		.4byte	0x1990
 4885 0dfc 250E0000 		.4byte	0xe25
 4886 0e00 26       		.uleb128 0x26
 4887 0e01 01       		.byte	0x1
 4888 0e02 53       		.byte	0x53
 4889 0e03 02       		.byte	0x2
 4890 0e04 75       		.byte	0x75
 4891 0e05 00       		.sleb128 0
 4892 0e06 26       		.uleb128 0x26
 4893 0e07 01       		.byte	0x1
 4894 0e08 52       		.byte	0x52
 4895 0e09 02       		.byte	0x2
 4896 0e0a 77       		.byte	0x77
 4897 0e0b 04       		.sleb128 4
 4898 0e0c 26       		.uleb128 0x26
 4899 0e0d 01       		.byte	0x1
 4900 0e0e 51       		.byte	0x51
 4901 0e0f 03       		.byte	0x3
 4902 0e10 0A       		.byte	0xa
 4903 0e11 4801     		.2byte	0x148
 4904 0e13 26       		.uleb128 0x26
 4905 0e14 01       		.byte	0x1
 4906 0e15 50       		.byte	0x50
 4907 0e16 03       		.byte	0x3
 4908 0e17 76       		.byte	0x76
 4909 0e18 0C       		.sleb128 12
 4910 0e19 06       		.byte	0x6
 4911 0e1a 26       		.uleb128 0x26
 4912 0e1b 02       		.byte	0x2
 4913 0e1c 7D       		.byte	0x7d
 4914 0e1d 00       		.sleb128 0
 4915 0e1e 05       		.byte	0x5
 4916 0e1f 03       		.byte	0x3
 4917 0e20 08000000 		.4byte	.LC2
 4918 0e24 00       		.byte	0
 4919 0e25 25       		.uleb128 0x25
 4920 0e26 B0000000 		.4byte	.LVL54
 4921 0e2a 90190000 		.4byte	0x1990
 4922 0e2e 570E0000 		.4byte	0xe57
 4923 0e32 26       		.uleb128 0x26
 4924 0e33 01       		.byte	0x1
 4925 0e34 53       		.byte	0x53
 4926 0e35 02       		.byte	0x2
 4927 0e36 75       		.byte	0x75
 4928 0e37 00       		.sleb128 0
 4929 0e38 26       		.uleb128 0x26
 4930 0e39 01       		.byte	0x1
 4931 0e3a 52       		.byte	0x52
 4932 0e3b 02       		.byte	0x2
 4933 0e3c 77       		.byte	0x77
 4934 0e3d 05       		.sleb128 5
 4935 0e3e 26       		.uleb128 0x26
 4936 0e3f 01       		.byte	0x1
 4937 0e40 51       		.byte	0x51
 4938 0e41 03       		.byte	0x3
ARM GAS  /tmp/ccv0K2b2.s 			page 154


 4939 0e42 0A       		.byte	0xa
 4940 0e43 4801     		.2byte	0x148
 4941 0e45 26       		.uleb128 0x26
 4942 0e46 01       		.byte	0x1
 4943 0e47 50       		.byte	0x50
 4944 0e48 03       		.byte	0x3
 4945 0e49 76       		.byte	0x76
 4946 0e4a 10       		.sleb128 16
 4947 0e4b 06       		.byte	0x6
 4948 0e4c 26       		.uleb128 0x26
 4949 0e4d 02       		.byte	0x2
 4950 0e4e 7D       		.byte	0x7d
 4951 0e4f 00       		.sleb128 0
 4952 0e50 05       		.byte	0x5
 4953 0e51 03       		.byte	0x3
 4954 0e52 00000000 		.4byte	.LC0
 4955 0e56 00       		.byte	0
 4956 0e57 25       		.uleb128 0x25
 4957 0e58 C6000000 		.4byte	.LVL56
 4958 0e5c B01A0000 		.4byte	0x1ab0
 4959 0e60 6B0E0000 		.4byte	0xe6b
 4960 0e64 26       		.uleb128 0x26
 4961 0e65 01       		.byte	0x1
 4962 0e66 50       		.byte	0x50
 4963 0e67 02       		.byte	0x2
 4964 0e68 74       		.byte	0x74
 4965 0e69 00       		.sleb128 0
 4966 0e6a 00       		.byte	0
 4967 0e6b 25       		.uleb128 0x25
 4968 0e6c CC000000 		.4byte	.LVL57
 4969 0e70 B01A0000 		.4byte	0x1ab0
 4970 0e74 7F0E0000 		.4byte	0xe7f
 4971 0e78 26       		.uleb128 0x26
 4972 0e79 01       		.byte	0x1
 4973 0e7a 50       		.byte	0x50
 4974 0e7b 02       		.byte	0x2
 4975 0e7c 74       		.byte	0x74
 4976 0e7d 00       		.sleb128 0
 4977 0e7e 00       		.byte	0
 4978 0e7f 25       		.uleb128 0x25
 4979 0e80 D2000000 		.4byte	.LVL58
 4980 0e84 B01A0000 		.4byte	0x1ab0
 4981 0e88 930E0000 		.4byte	0xe93
 4982 0e8c 26       		.uleb128 0x26
 4983 0e8d 01       		.byte	0x1
 4984 0e8e 50       		.byte	0x50
 4985 0e8f 02       		.byte	0x2
 4986 0e90 74       		.byte	0x74
 4987 0e91 00       		.sleb128 0
 4988 0e92 00       		.byte	0
 4989 0e93 25       		.uleb128 0x25
 4990 0e94 D8000000 		.4byte	.LVL59
 4991 0e98 B01A0000 		.4byte	0x1ab0
 4992 0e9c A70E0000 		.4byte	0xea7
 4993 0ea0 26       		.uleb128 0x26
 4994 0ea1 01       		.byte	0x1
 4995 0ea2 50       		.byte	0x50
ARM GAS  /tmp/ccv0K2b2.s 			page 155


 4996 0ea3 02       		.byte	0x2
 4997 0ea4 74       		.byte	0x74
 4998 0ea5 00       		.sleb128 0
 4999 0ea6 00       		.byte	0
 5000 0ea7 25       		.uleb128 0x25
 5001 0ea8 DE000000 		.4byte	.LVL60
 5002 0eac B01A0000 		.4byte	0x1ab0
 5003 0eb0 BB0E0000 		.4byte	0xebb
 5004 0eb4 26       		.uleb128 0x26
 5005 0eb5 01       		.byte	0x1
 5006 0eb6 50       		.byte	0x50
 5007 0eb7 02       		.byte	0x2
 5008 0eb8 74       		.byte	0x74
 5009 0eb9 00       		.sleb128 0
 5010 0eba 00       		.byte	0
 5011 0ebb 27       		.uleb128 0x27
 5012 0ebc E2000000 		.4byte	.LVL61
 5013 0ec0 C41A0000 		.4byte	0x1ac4
 5014 0ec4 27       		.uleb128 0x27
 5015 0ec5 EC000000 		.4byte	.LVL62
 5016 0ec9 D6190000 		.4byte	0x19d6
 5017 0ecd 28       		.uleb128 0x28
 5018 0ece 00010000 		.4byte	.LVL63
 5019 0ed2 01       		.byte	0x1
 5020 0ed3 E0190000 		.4byte	0x19e0
 5021 0ed7 26       		.uleb128 0x26
 5022 0ed8 01       		.byte	0x1
 5023 0ed9 51       		.byte	0x51
 5024 0eda 05       		.byte	0x5
 5025 0edb 03       		.byte	0x3
 5026 0edc 18000000 		.4byte	.LC6
 5027 0ee0 26       		.uleb128 0x26
 5028 0ee1 01       		.byte	0x1
 5029 0ee2 50       		.byte	0x50
 5030 0ee3 01       		.byte	0x1
 5031 0ee4 31       		.byte	0x31
 5032 0ee5 00       		.byte	0
 5033 0ee6 00       		.byte	0
 5034 0ee7 35       		.uleb128 0x35
 5035 0ee8 AB000000 		.4byte	.LASF110
 5036 0eec 01       		.byte	0x1
 5037 0eed 61       		.byte	0x61
 5038 0eee 01       		.byte	0x1
 5039 0eef 00000000 		.4byte	.LFB167
 5040 0ef3 E0000000 		.4byte	.LFE167
 5041 0ef7 FC010000 		.4byte	.LLST15
 5042 0efb 01       		.byte	0x1
 5043 0efc A9100000 		.4byte	0x10a9
 5044 0f00 36       		.uleb128 0x36
 5045 0f01 7D030000 		.4byte	.LASF108
 5046 0f05 01       		.byte	0x1
 5047 0f06 63       		.byte	0x63
 5048 0f07 E0010000 		.4byte	0x1e0
 5049 0f0b 01       		.byte	0x1
 5050 0f0c 54       		.byte	0x54
 5051 0f0d 37       		.uleb128 0x37
 5052 0f0e 16060000 		.4byte	0x616
ARM GAS  /tmp/ccv0K2b2.s 			page 156


 5053 0f12 02000000 		.4byte	.LBB165
 5054 0f16 48000000 		.4byte	.Ldebug_ranges0+0x48
 5055 0f1a 01       		.byte	0x1
 5056 0f1b 63       		.byte	0x63
 5057 0f1c 310F0000 		.4byte	0xf31
 5058 0f20 24       		.uleb128 0x24
 5059 0f21 08060000 		.4byte	0x608
 5060 0f25 02000000 		.4byte	.LBB167
 5061 0f29 04000000 		.4byte	.LBE167
 5062 0f2d 02       		.byte	0x2
 5063 0f2e 1F01     		.2byte	0x11f
 5064 0f30 00       		.byte	0
 5065 0f31 38       		.uleb128 0x38
 5066 0f32 16060000 		.4byte	0x616
 5067 0f36 90000000 		.4byte	.LBB173
 5068 0f3a 92000000 		.4byte	.LBE173
 5069 0f3e 01       		.byte	0x1
 5070 0f3f 6C       		.byte	0x6c
 5071 0f40 25       		.uleb128 0x25
 5072 0f41 14000000 		.4byte	.LVL64
 5073 0f45 031A0000 		.4byte	0x1a03
 5074 0f49 570F0000 		.4byte	0xf57
 5075 0f4d 26       		.uleb128 0x26
 5076 0f4e 01       		.byte	0x1
 5077 0f4f 50       		.byte	0x50
 5078 0f50 05       		.byte	0x5
 5079 0f51 03       		.byte	0x3
 5080 0f52 00000000 		.4byte	.LANCHOR2
 5081 0f56 00       		.byte	0
 5082 0f57 25       		.uleb128 0x25
 5083 0f58 24000000 		.4byte	.LVL65
 5084 0f5c 90190000 		.4byte	0x1990
 5085 0f60 890F0000 		.4byte	0xf89
 5086 0f64 26       		.uleb128 0x26
 5087 0f65 01       		.byte	0x1
 5088 0f66 53       		.byte	0x53
 5089 0f67 05       		.byte	0x5
 5090 0f68 03       		.byte	0x3
 5091 0f69 00000000 		.4byte	thread1
 5092 0f6d 26       		.uleb128 0x26
 5093 0f6e 01       		.byte	0x1
 5094 0f6f 52       		.byte	0x52
 5095 0f70 02       		.byte	0x2
 5096 0f71 74       		.byte	0x74
 5097 0f72 01       		.sleb128 1
 5098 0f73 26       		.uleb128 0x26
 5099 0f74 01       		.byte	0x1
 5100 0f75 51       		.byte	0x51
 5101 0f76 03       		.byte	0x3
 5102 0f77 0A       		.byte	0xa
 5103 0f78 4801     		.2byte	0x148
 5104 0f7a 26       		.uleb128 0x26
 5105 0f7b 01       		.byte	0x1
 5106 0f7c 50       		.byte	0x50
 5107 0f7d 03       		.byte	0x3
 5108 0f7e 76       		.byte	0x76
 5109 0f7f 00       		.sleb128 0
ARM GAS  /tmp/ccv0K2b2.s 			page 157


 5110 0f80 06       		.byte	0x6
 5111 0f81 26       		.uleb128 0x26
 5112 0f82 02       		.byte	0x2
 5113 0f83 7D       		.byte	0x7d
 5114 0f84 00       		.sleb128 0
 5115 0f85 02       		.byte	0x2
 5116 0f86 75       		.byte	0x75
 5117 0f87 00       		.sleb128 0
 5118 0f88 00       		.byte	0
 5119 0f89 25       		.uleb128 0x25
 5120 0f8a 3E000000 		.4byte	.LVL66
 5121 0f8e 90190000 		.4byte	0x1990
 5122 0f92 BE0F0000 		.4byte	0xfbe
 5123 0f96 26       		.uleb128 0x26
 5124 0f97 01       		.byte	0x1
 5125 0f98 53       		.byte	0x53
 5126 0f99 05       		.byte	0x5
 5127 0f9a 03       		.byte	0x3
 5128 0f9b 00000000 		.4byte	thread1
 5129 0f9f 26       		.uleb128 0x26
 5130 0fa0 01       		.byte	0x1
 5131 0fa1 52       		.byte	0x52
 5132 0fa2 02       		.byte	0x2
 5133 0fa3 74       		.byte	0x74
 5134 0fa4 02       		.sleb128 2
 5135 0fa5 26       		.uleb128 0x26
 5136 0fa6 01       		.byte	0x1
 5137 0fa7 51       		.byte	0x51
 5138 0fa8 03       		.byte	0x3
 5139 0fa9 0A       		.byte	0xa
 5140 0faa 4801     		.2byte	0x148
 5141 0fac 26       		.uleb128 0x26
 5142 0fad 01       		.byte	0x1
 5143 0fae 50       		.byte	0x50
 5144 0faf 03       		.byte	0x3
 5145 0fb0 76       		.byte	0x76
 5146 0fb1 04       		.sleb128 4
 5147 0fb2 06       		.byte	0x6
 5148 0fb3 26       		.uleb128 0x26
 5149 0fb4 02       		.byte	0x2
 5150 0fb5 7D       		.byte	0x7d
 5151 0fb6 00       		.sleb128 0
 5152 0fb7 05       		.byte	0x5
 5153 0fb8 03       		.byte	0x3
 5154 0fb9 14000000 		.4byte	.LC5
 5155 0fbd 00       		.byte	0
 5156 0fbe 25       		.uleb128 0x25
 5157 0fbf 56000000 		.4byte	.LVL67
 5158 0fc3 90190000 		.4byte	0x1990
 5159 0fc7 F30F0000 		.4byte	0xff3
 5160 0fcb 26       		.uleb128 0x26
 5161 0fcc 01       		.byte	0x1
 5162 0fcd 53       		.byte	0x53
 5163 0fce 05       		.byte	0x5
 5164 0fcf 03       		.byte	0x3
 5165 0fd0 00000000 		.4byte	thread1
 5166 0fd4 26       		.uleb128 0x26
ARM GAS  /tmp/ccv0K2b2.s 			page 158


 5167 0fd5 01       		.byte	0x1
 5168 0fd6 52       		.byte	0x52
 5169 0fd7 02       		.byte	0x2
 5170 0fd8 74       		.byte	0x74
 5171 0fd9 03       		.sleb128 3
 5172 0fda 26       		.uleb128 0x26
 5173 0fdb 01       		.byte	0x1
 5174 0fdc 51       		.byte	0x51
 5175 0fdd 03       		.byte	0x3
 5176 0fde 0A       		.byte	0xa
 5177 0fdf 4801     		.2byte	0x148
 5178 0fe1 26       		.uleb128 0x26
 5179 0fe2 01       		.byte	0x1
 5180 0fe3 50       		.byte	0x50
 5181 0fe4 03       		.byte	0x3
 5182 0fe5 91       		.byte	0x91
 5183 0fe6 64       		.sleb128 -28
 5184 0fe7 06       		.byte	0x6
 5185 0fe8 26       		.uleb128 0x26
 5186 0fe9 02       		.byte	0x2
 5187 0fea 7D       		.byte	0x7d
 5188 0feb 00       		.sleb128 0
 5189 0fec 05       		.byte	0x5
 5190 0fed 03       		.byte	0x3
 5191 0fee 04000000 		.4byte	.LC1
 5192 0ff2 00       		.byte	0
 5193 0ff3 25       		.uleb128 0x25
 5194 0ff4 6E000000 		.4byte	.LVL68
 5195 0ff8 90190000 		.4byte	0x1990
 5196 0ffc 28100000 		.4byte	0x1028
 5197 1000 26       		.uleb128 0x26
 5198 1001 01       		.byte	0x1
 5199 1002 53       		.byte	0x53
 5200 1003 05       		.byte	0x5
 5201 1004 03       		.byte	0x3
 5202 1005 00000000 		.4byte	thread1
 5203 1009 26       		.uleb128 0x26
 5204 100a 01       		.byte	0x1
 5205 100b 52       		.byte	0x52
 5206 100c 02       		.byte	0x2
 5207 100d 74       		.byte	0x74
 5208 100e 04       		.sleb128 4
 5209 100f 26       		.uleb128 0x26
 5210 1010 01       		.byte	0x1
 5211 1011 51       		.byte	0x51
 5212 1012 03       		.byte	0x3
 5213 1013 0A       		.byte	0xa
 5214 1014 4801     		.2byte	0x148
 5215 1016 26       		.uleb128 0x26
 5216 1017 01       		.byte	0x1
 5217 1018 50       		.byte	0x50
 5218 1019 03       		.byte	0x3
 5219 101a 91       		.byte	0x91
 5220 101b 64       		.sleb128 -28
 5221 101c 06       		.byte	0x6
 5222 101d 26       		.uleb128 0x26
 5223 101e 02       		.byte	0x2
ARM GAS  /tmp/ccv0K2b2.s 			page 159


 5224 101f 7D       		.byte	0x7d
 5225 1020 00       		.sleb128 0
 5226 1021 05       		.byte	0x5
 5227 1022 03       		.byte	0x3
 5228 1023 08000000 		.4byte	.LC2
 5229 1027 00       		.byte	0
 5230 1028 25       		.uleb128 0x25
 5231 1029 84000000 		.4byte	.LVL69
 5232 102d 90190000 		.4byte	0x1990
 5233 1031 5C100000 		.4byte	0x105c
 5234 1035 26       		.uleb128 0x26
 5235 1036 01       		.byte	0x1
 5236 1037 53       		.byte	0x53
 5237 1038 05       		.byte	0x5
 5238 1039 03       		.byte	0x3
 5239 103a 00000000 		.4byte	thread1
 5240 103e 26       		.uleb128 0x26
 5241 103f 01       		.byte	0x1
 5242 1040 52       		.byte	0x52
 5243 1041 02       		.byte	0x2
 5244 1042 74       		.byte	0x74
 5245 1043 05       		.sleb128 5
 5246 1044 26       		.uleb128 0x26
 5247 1045 01       		.byte	0x1
 5248 1046 51       		.byte	0x51
 5249 1047 03       		.byte	0x3
 5250 1048 0A       		.byte	0xa
 5251 1049 4801     		.2byte	0x148
 5252 104b 26       		.uleb128 0x26
 5253 104c 01       		.byte	0x1
 5254 104d 50       		.byte	0x50
 5255 104e 02       		.byte	0x2
 5256 104f 76       		.byte	0x76
 5257 1050 00       		.sleb128 0
 5258 1051 26       		.uleb128 0x26
 5259 1052 02       		.byte	0x2
 5260 1053 7D       		.byte	0x7d
 5261 1054 00       		.sleb128 0
 5262 1055 05       		.byte	0x5
 5263 1056 03       		.byte	0x3
 5264 1057 00000000 		.4byte	.LC0
 5265 105b 00       		.byte	0
 5266 105c 25       		.uleb128 0x25
 5267 105d 8C000000 		.4byte	.LVL70
 5268 1061 2B1A0000 		.4byte	0x1a2b
 5269 1065 73100000 		.4byte	0x1073
 5270 1069 26       		.uleb128 0x26
 5271 106a 01       		.byte	0x1
 5272 106b 50       		.byte	0x50
 5273 106c 05       		.byte	0x5
 5274 106d 03       		.byte	0x3
 5275 106e 00000000 		.4byte	.LANCHOR2
 5276 1072 00       		.byte	0
 5277 1073 27       		.uleb128 0x27
 5278 1074 90000000 		.4byte	.LVL71
 5279 1078 D6190000 		.4byte	0x19d6
 5280 107c 25       		.uleb128 0x25
ARM GAS  /tmp/ccv0K2b2.s 			page 160


 5281 107d A0000000 		.4byte	.LVL72
 5282 1081 CF1A0000 		.4byte	0x1acf
 5283 1085 8F100000 		.4byte	0x108f
 5284 1089 26       		.uleb128 0x26
 5285 108a 01       		.byte	0x1
 5286 108b 50       		.byte	0x50
 5287 108c 01       		.byte	0x1
 5288 108d 31       		.byte	0x31
 5289 108e 00       		.byte	0
 5290 108f 28       		.uleb128 0x28
 5291 1090 B4000000 		.4byte	.LVL73
 5292 1094 01       		.byte	0x1
 5293 1095 E0190000 		.4byte	0x19e0
 5294 1099 26       		.uleb128 0x26
 5295 109a 01       		.byte	0x1
 5296 109b 51       		.byte	0x51
 5297 109c 05       		.byte	0x5
 5298 109d 03       		.byte	0x3
 5299 109e 18000000 		.4byte	.LC6
 5300 10a2 26       		.uleb128 0x26
 5301 10a3 01       		.byte	0x1
 5302 10a4 50       		.byte	0x50
 5303 10a5 01       		.byte	0x1
 5304 10a6 32       		.byte	0x32
 5305 10a7 00       		.byte	0
 5306 10a8 00       		.byte	0
 5307 10a9 21       		.uleb128 0x21
 5308 10aa A0040000 		.4byte	.LASF111
 5309 10ae 01       		.byte	0x1
 5310 10af B201     		.2byte	0x1b2
 5311 10b1 01       		.byte	0x1
 5312 10b2 00000000 		.4byte	.LFB173
 5313 10b6 C4000000 		.4byte	.LFE173
 5314 10ba 28020000 		.4byte	.LLST16
 5315 10be 01       		.byte	0x1
 5316 10bf BB120000 		.4byte	0x12bb
 5317 10c3 39       		.uleb128 0x39
 5318 10c4 6200     		.ascii	"b\000"
 5319 10c6 01       		.byte	0x1
 5320 10c7 B501     		.2byte	0x1b5
 5321 10c9 7F060000 		.4byte	0x67f
 5322 10cd 48020000 		.4byte	.LLST17
 5323 10d1 22       		.uleb128 0x22
 5324 10d2 7D030000 		.4byte	.LASF108
 5325 10d6 01       		.byte	0x1
 5326 10d7 B601     		.2byte	0x1b6
 5327 10d9 E0010000 		.4byte	0x1e0
 5328 10dd 01       		.byte	0x1
 5329 10de 56       		.byte	0x56
 5330 10df 23       		.uleb128 0x23
 5331 10e0 16060000 		.4byte	0x616
 5332 10e4 02000000 		.4byte	.LBB175
 5333 10e8 68000000 		.4byte	.Ldebug_ranges0+0x68
 5334 10ec 01       		.byte	0x1
 5335 10ed B601     		.2byte	0x1b6
 5336 10ef 04110000 		.4byte	0x1104
 5337 10f3 24       		.uleb128 0x24
ARM GAS  /tmp/ccv0K2b2.s 			page 161


 5338 10f4 08060000 		.4byte	0x608
 5339 10f8 02000000 		.4byte	.LBB177
 5340 10fc 04000000 		.4byte	.LBE177
 5341 1100 02       		.byte	0x2
 5342 1101 1F01     		.2byte	0x11f
 5343 1103 00       		.byte	0
 5344 1104 30       		.uleb128 0x30
 5345 1105 24060000 		.4byte	0x624
 5346 1109 34000000 		.4byte	.LBB183
 5347 110d 3A000000 		.4byte	.LBE183
 5348 1111 01       		.byte	0x1
 5349 1112 BE01     		.2byte	0x1be
 5350 1114 41110000 		.4byte	0x1141
 5351 1118 31       		.uleb128 0x31
 5352 1119 F4050000 		.4byte	0x5f4
 5353 111d 34000000 		.4byte	.LBB184
 5354 1121 3A000000 		.4byte	.LBE184
 5355 1125 0D       		.byte	0xd
 5356 1126 2C01     		.2byte	0x12c
 5357 1128 31       		.uleb128 0x31
 5358 1129 D9050000 		.4byte	0x5d9
 5359 112d 34000000 		.4byte	.LBB185
 5360 1131 3A000000 		.4byte	.LBE185
 5361 1135 09       		.byte	0x9
 5362 1136 BF01     		.2byte	0x1bf
 5363 1138 32       		.uleb128 0x32
 5364 1139 E7050000 		.4byte	0x5e7
 5365 113d 20       		.byte	0x20
 5366 113e 00       		.byte	0
 5367 113f 00       		.byte	0
 5368 1140 00       		.byte	0
 5369 1141 30       		.uleb128 0x30
 5370 1142 2E060000 		.4byte	0x62e
 5371 1146 40000000 		.4byte	.LBB187
 5372 114a 44000000 		.4byte	.LBE187
 5373 114e 01       		.byte	0x1
 5374 114f C001     		.2byte	0x1c0
 5375 1151 8D110000 		.4byte	0x118d
 5376 1155 33       		.uleb128 0x33
 5377 1156 40000000 		.4byte	.LBB188
 5378 115a 44000000 		.4byte	.LBE188
 5379 115e 34       		.uleb128 0x34
 5380 115f 3C060000 		.4byte	0x63c
 5381 1163 31       		.uleb128 0x31
 5382 1164 FE050000 		.4byte	0x5fe
 5383 1168 40000000 		.4byte	.LBB189
 5384 116c 44000000 		.4byte	.LBE189
 5385 1170 0D       		.byte	0xd
 5386 1171 4201     		.2byte	0x142
 5387 1173 31       		.uleb128 0x31
 5388 1174 D9050000 		.4byte	0x5d9
 5389 1178 40000000 		.4byte	.LBB190
 5390 117c 44000000 		.4byte	.LBE190
 5391 1180 09       		.byte	0x9
 5392 1181 CD01     		.2byte	0x1cd
 5393 1183 32       		.uleb128 0x32
 5394 1184 E7050000 		.4byte	0x5e7
ARM GAS  /tmp/ccv0K2b2.s 			page 162


 5395 1188 00       		.byte	0
 5396 1189 00       		.byte	0
 5397 118a 00       		.byte	0
 5398 118b 00       		.byte	0
 5399 118c 00       		.byte	0
 5400 118d 30       		.uleb128 0x30
 5401 118e 60060000 		.4byte	0x660
 5402 1192 44000000 		.4byte	.LBB192
 5403 1196 46000000 		.4byte	.LBE192
 5404 119a 01       		.byte	0x1
 5405 119b C201     		.2byte	0x1c2
 5406 119d AE110000 		.4byte	0x11ae
 5407 11a1 3A       		.uleb128 0x3a
 5408 11a2 72060000 		.4byte	0x672
 5409 11a6 06       		.byte	0x6
 5410 11a7 03       		.byte	0x3
 5411 11a8 00000000 		.4byte	m1
 5412 11ac 9F       		.byte	0x9f
 5413 11ad 00       		.byte	0
 5414 11ae 24       		.uleb128 0x24
 5415 11af 16060000 		.4byte	0x616
 5416 11b3 70000000 		.4byte	.LBB194
 5417 11b7 72000000 		.4byte	.LBE194
 5418 11bb 01       		.byte	0x1
 5419 11bc C401     		.2byte	0x1c4
 5420 11be 30       		.uleb128 0x30
 5421 11bf 60060000 		.4byte	0x660
 5422 11c3 94000000 		.4byte	.LBB196
 5423 11c7 96000000 		.4byte	.LBE196
 5424 11cb 01       		.byte	0x1
 5425 11cc C901     		.2byte	0x1c9
 5426 11ce DF110000 		.4byte	0x11df
 5427 11d2 3A       		.uleb128 0x3a
 5428 11d3 72060000 		.4byte	0x672
 5429 11d7 06       		.byte	0x6
 5430 11d8 03       		.byte	0x3
 5431 11d9 00000000 		.4byte	m1
 5432 11dd 9F       		.byte	0x9f
 5433 11de 00       		.byte	0
 5434 11df 25       		.uleb128 0x25
 5435 11e0 10000000 		.4byte	.LVL74
 5436 11e4 EC1A0000 		.4byte	0x1aec
 5437 11e8 F3110000 		.4byte	0x11f3
 5438 11ec 26       		.uleb128 0x26
 5439 11ed 01       		.byte	0x1
 5440 11ee 50       		.byte	0x50
 5441 11ef 02       		.byte	0x2
 5442 11f0 74       		.byte	0x74
 5443 11f1 00       		.sleb128 0
 5444 11f2 00       		.byte	0
 5445 11f3 25       		.uleb128 0x25
 5446 11f4 18000000 		.4byte	.LVL76
 5447 11f8 CF1A0000 		.4byte	0x1acf
 5448 11fc 06120000 		.4byte	0x1206
 5449 1200 26       		.uleb128 0x26
 5450 1201 01       		.byte	0x1
 5451 1202 50       		.byte	0x50
ARM GAS  /tmp/ccv0K2b2.s 			page 163


 5452 1203 01       		.byte	0x1
 5453 1204 31       		.byte	0x31
 5454 1205 00       		.byte	0
 5455 1206 25       		.uleb128 0x25
 5456 1207 22000000 		.4byte	.LVL77
 5457 120b EC1A0000 		.4byte	0x1aec
 5458 120f 1A120000 		.4byte	0x121a
 5459 1213 26       		.uleb128 0x26
 5460 1214 01       		.byte	0x1
 5461 1215 50       		.byte	0x50
 5462 1216 02       		.byte	0x2
 5463 1217 74       		.byte	0x74
 5464 1218 00       		.sleb128 0
 5465 1219 00       		.byte	0
 5466 121a 25       		.uleb128 0x25
 5467 121b 2E000000 		.4byte	.LVL79
 5468 121f CF1A0000 		.4byte	0x1acf
 5469 1223 2D120000 		.4byte	0x122d
 5470 1227 26       		.uleb128 0x26
 5471 1228 01       		.byte	0x1
 5472 1229 50       		.byte	0x50
 5473 122a 01       		.byte	0x1
 5474 122b 32       		.byte	0x32
 5475 122c 00       		.byte	0
 5476 122d 25       		.uleb128 0x25
 5477 122e 40000000 		.4byte	.LVL81
 5478 1232 041B0000 		.4byte	0x1b04
 5479 1236 41120000 		.4byte	0x1241
 5480 123a 26       		.uleb128 0x26
 5481 123b 01       		.byte	0x1
 5482 123c 50       		.byte	0x50
 5483 123d 02       		.byte	0x2
 5484 123e 74       		.byte	0x74
 5485 123f 00       		.sleb128 0
 5486 1240 00       		.byte	0
 5487 1241 25       		.uleb128 0x25
 5488 1242 58000000 		.4byte	.LVL83
 5489 1246 CF1A0000 		.4byte	0x1acf
 5490 124a 54120000 		.4byte	0x1254
 5491 124e 26       		.uleb128 0x26
 5492 124f 01       		.byte	0x1
 5493 1250 50       		.byte	0x50
 5494 1251 01       		.byte	0x1
 5495 1252 33       		.byte	0x33
 5496 1253 00       		.byte	0
 5497 1254 25       		.uleb128 0x25
 5498 1255 6C000000 		.4byte	.LVL84
 5499 1259 CF1A0000 		.4byte	0x1acf
 5500 125d 67120000 		.4byte	0x1267
 5501 1261 26       		.uleb128 0x26
 5502 1262 01       		.byte	0x1
 5503 1263 50       		.byte	0x50
 5504 1264 01       		.byte	0x1
 5505 1265 34       		.byte	0x34
 5506 1266 00       		.byte	0
 5507 1267 25       		.uleb128 0x25
 5508 1268 86000000 		.4byte	.LVL85
ARM GAS  /tmp/ccv0K2b2.s 			page 164


 5509 126c CF1A0000 		.4byte	0x1acf
 5510 1270 7A120000 		.4byte	0x127a
 5511 1274 26       		.uleb128 0x26
 5512 1275 01       		.byte	0x1
 5513 1276 50       		.byte	0x50
 5514 1277 01       		.byte	0x1
 5515 1278 35       		.byte	0x35
 5516 1279 00       		.byte	0
 5517 127a 25       		.uleb128 0x25
 5518 127b 90000000 		.4byte	.LVL86
 5519 127f 031A0000 		.4byte	0x1a03
 5520 1283 8E120000 		.4byte	0x128e
 5521 1287 26       		.uleb128 0x26
 5522 1288 01       		.byte	0x1
 5523 1289 50       		.byte	0x50
 5524 128a 02       		.byte	0x2
 5525 128b 74       		.byte	0x74
 5526 128c 00       		.sleb128 0
 5527 128d 00       		.byte	0
 5528 128e 27       		.uleb128 0x27
 5529 128f 94000000 		.4byte	.LVL87
 5530 1293 181B0000 		.4byte	0x1b18
 5531 1297 25       		.uleb128 0x25
 5532 1298 A2000000 		.4byte	.LVL88
 5533 129c CF1A0000 		.4byte	0x1acf
 5534 12a0 AA120000 		.4byte	0x12aa
 5535 12a4 26       		.uleb128 0x26
 5536 12a5 01       		.byte	0x1
 5537 12a6 50       		.byte	0x50
 5538 12a7 01       		.byte	0x1
 5539 12a8 36       		.byte	0x36
 5540 12a9 00       		.byte	0
 5541 12aa 28       		.uleb128 0x28
 5542 12ab BA000000 		.4byte	.LVL89
 5543 12af 01       		.byte	0x1
 5544 12b0 CF1A0000 		.4byte	0x1acf
 5545 12b4 26       		.uleb128 0x26
 5546 12b5 01       		.byte	0x1
 5547 12b6 50       		.byte	0x50
 5548 12b7 01       		.byte	0x1
 5549 12b8 37       		.byte	0x37
 5550 12b9 00       		.byte	0
 5551 12ba 00       		.byte	0
 5552 12bb 21       		.uleb128 0x21
 5553 12bc 70030000 		.4byte	.LASF112
 5554 12c0 01       		.byte	0x1
 5555 12c1 6D01     		.2byte	0x16d
 5556 12c3 01       		.byte	0x1
 5557 12c4 00000000 		.4byte	.LFB171
 5558 12c8 70020000 		.4byte	.LFE171
 5559 12cc 71020000 		.4byte	.LLST18
 5560 12d0 01       		.byte	0x1
 5561 12d1 9C170000 		.4byte	0x179c
 5562 12d5 3B       		.uleb128 0x3b
 5563 12d6 7000     		.ascii	"p\000"
 5564 12d8 01       		.byte	0x1
 5565 12d9 6E01     		.2byte	0x16e
ARM GAS  /tmp/ccv0K2b2.s 			page 165


 5566 12db E0010000 		.4byte	0x1e0
 5567 12df 01       		.byte	0x1
 5568 12e0 54       		.byte	0x54
 5569 12e1 3B       		.uleb128 0x3b
 5570 12e2 703100   		.ascii	"p1\000"
 5571 12e5 01       		.byte	0x1
 5572 12e6 6E01     		.2byte	0x16e
 5573 12e8 E0010000 		.4byte	0x1e0
 5574 12ec 01       		.byte	0x1
 5575 12ed 59       		.byte	0x59
 5576 12ee 3B       		.uleb128 0x3b
 5577 12ef 703200   		.ascii	"p2\000"
 5578 12f2 01       		.byte	0x1
 5579 12f3 6E01     		.2byte	0x16e
 5580 12f5 E0010000 		.4byte	0x1e0
 5581 12f9 01       		.byte	0x1
 5582 12fa 5A       		.byte	0x5a
 5583 12fb 23       		.uleb128 0x23
 5584 12fc 16060000 		.4byte	0x616
 5585 1300 04000000 		.4byte	.LBB198
 5586 1304 88000000 		.4byte	.Ldebug_ranges0+0x88
 5587 1308 01       		.byte	0x1
 5588 1309 7001     		.2byte	0x170
 5589 130b 20130000 		.4byte	0x1320
 5590 130f 24       		.uleb128 0x24
 5591 1310 08060000 		.4byte	0x608
 5592 1314 04000000 		.4byte	.LBB200
 5593 1318 06000000 		.4byte	.LBE200
 5594 131c 02       		.byte	0x2
 5595 131d 1F01     		.2byte	0x11f
 5596 131f 00       		.byte	0
 5597 1320 24       		.uleb128 0x24
 5598 1321 16060000 		.4byte	0x616
 5599 1325 4C000000 		.4byte	.LBB206
 5600 1329 4E000000 		.4byte	.LBE206
 5601 132d 01       		.byte	0x1
 5602 132e 7601     		.2byte	0x176
 5603 1330 24       		.uleb128 0x24
 5604 1331 16060000 		.4byte	0x616
 5605 1335 6C000000 		.4byte	.LBB208
 5606 1339 6E000000 		.4byte	.LBE208
 5607 133d 01       		.byte	0x1
 5608 133e 7801     		.2byte	0x178
 5609 1340 24       		.uleb128 0x24
 5610 1341 16060000 		.4byte	0x616
 5611 1345 88000000 		.4byte	.LBB210
 5612 1349 8A000000 		.4byte	.LBE210
 5613 134d 01       		.byte	0x1
 5614 134e 7A01     		.2byte	0x17a
 5615 1350 24       		.uleb128 0x24
 5616 1351 16060000 		.4byte	0x616
 5617 1355 AA000000 		.4byte	.LBB212
 5618 1359 AC000000 		.4byte	.LBE212
 5619 135d 01       		.byte	0x1
 5620 135e 7C01     		.2byte	0x17c
 5621 1360 24       		.uleb128 0x24
 5622 1361 16060000 		.4byte	0x616
ARM GAS  /tmp/ccv0K2b2.s 			page 166


 5623 1365 CA000000 		.4byte	.LBB214
 5624 1369 CC000000 		.4byte	.LBE214
 5625 136d 01       		.byte	0x1
 5626 136e 7E01     		.2byte	0x17e
 5627 1370 24       		.uleb128 0x24
 5628 1371 16060000 		.4byte	0x616
 5629 1375 E8000000 		.4byte	.LBB216
 5630 1379 EA000000 		.4byte	.LBE216
 5631 137d 01       		.byte	0x1
 5632 137e 8001     		.2byte	0x180
 5633 1380 24       		.uleb128 0x24
 5634 1381 16060000 		.4byte	0x616
 5635 1385 02010000 		.4byte	.LBB218
 5636 1389 04010000 		.4byte	.LBE218
 5637 138d 01       		.byte	0x1
 5638 138e 8201     		.2byte	0x182
 5639 1390 24       		.uleb128 0x24
 5640 1391 16060000 		.4byte	0x616
 5641 1395 4E010000 		.4byte	.LBB220
 5642 1399 50010000 		.4byte	.LBE220
 5643 139d 01       		.byte	0x1
 5644 139e 8901     		.2byte	0x189
 5645 13a0 24       		.uleb128 0x24
 5646 13a1 16060000 		.4byte	0x616
 5647 13a5 72010000 		.4byte	.LBB222
 5648 13a9 74010000 		.4byte	.LBE222
 5649 13ad 01       		.byte	0x1
 5650 13ae 8B01     		.2byte	0x18b
 5651 13b0 24       		.uleb128 0x24
 5652 13b1 16060000 		.4byte	0x616
 5653 13b5 90010000 		.4byte	.LBB224
 5654 13b9 92010000 		.4byte	.LBE224
 5655 13bd 01       		.byte	0x1
 5656 13be 8D01     		.2byte	0x18d
 5657 13c0 24       		.uleb128 0x24
 5658 13c1 16060000 		.4byte	0x616
 5659 13c5 B0010000 		.4byte	.LBB226
 5660 13c9 B2010000 		.4byte	.LBE226
 5661 13cd 01       		.byte	0x1
 5662 13ce 8F01     		.2byte	0x18f
 5663 13d0 30       		.uleb128 0x30
 5664 13d1 24060000 		.4byte	0x624
 5665 13d5 CE010000 		.4byte	.LBB228
 5666 13d9 D4010000 		.4byte	.LBE228
 5667 13dd 01       		.byte	0x1
 5668 13de 9001     		.2byte	0x190
 5669 13e0 0D140000 		.4byte	0x140d
 5670 13e4 31       		.uleb128 0x31
 5671 13e5 F4050000 		.4byte	0x5f4
 5672 13e9 CE010000 		.4byte	.LBB229
 5673 13ed D4010000 		.4byte	.LBE229
 5674 13f1 0D       		.byte	0xd
 5675 13f2 2C01     		.2byte	0x12c
 5676 13f4 31       		.uleb128 0x31
 5677 13f5 D9050000 		.4byte	0x5d9
 5678 13f9 CE010000 		.4byte	.LBB230
 5679 13fd D4010000 		.4byte	.LBE230
ARM GAS  /tmp/ccv0K2b2.s 			page 167


 5680 1401 09       		.byte	0x9
 5681 1402 BF01     		.2byte	0x1bf
 5682 1404 32       		.uleb128 0x32
 5683 1405 E7050000 		.4byte	0x5e7
 5684 1409 20       		.byte	0x20
 5685 140a 00       		.byte	0
 5686 140b 00       		.byte	0
 5687 140c 00       		.byte	0
 5688 140d 30       		.uleb128 0x30
 5689 140e 2E060000 		.4byte	0x62e
 5690 1412 DE010000 		.4byte	.LBB232
 5691 1416 E2010000 		.4byte	.LBE232
 5692 141a 01       		.byte	0x1
 5693 141b 9301     		.2byte	0x193
 5694 141d 59140000 		.4byte	0x1459
 5695 1421 33       		.uleb128 0x33
 5696 1422 DE010000 		.4byte	.LBB233
 5697 1426 E2010000 		.4byte	.LBE233
 5698 142a 34       		.uleb128 0x34
 5699 142b 3C060000 		.4byte	0x63c
 5700 142f 31       		.uleb128 0x31
 5701 1430 FE050000 		.4byte	0x5fe
 5702 1434 DE010000 		.4byte	.LBB234
 5703 1438 E2010000 		.4byte	.LBE234
 5704 143c 0D       		.byte	0xd
 5705 143d 4201     		.2byte	0x142
 5706 143f 31       		.uleb128 0x31
 5707 1440 D9050000 		.4byte	0x5d9
 5708 1444 DE010000 		.4byte	.LBB235
 5709 1448 E2010000 		.4byte	.LBE235
 5710 144c 09       		.byte	0x9
 5711 144d CD01     		.2byte	0x1cd
 5712 144f 32       		.uleb128 0x32
 5713 1450 E7050000 		.4byte	0x5e7
 5714 1454 00       		.byte	0
 5715 1455 00       		.byte	0
 5716 1456 00       		.byte	0
 5717 1457 00       		.byte	0
 5718 1458 00       		.byte	0
 5719 1459 24       		.uleb128 0x24
 5720 145a 16060000 		.4byte	0x616
 5721 145e E2010000 		.4byte	.LBB237
 5722 1462 E4010000 		.4byte	.LBE237
 5723 1466 01       		.byte	0x1
 5724 1467 9401     		.2byte	0x194
 5725 1469 24       		.uleb128 0x24
 5726 146a 16060000 		.4byte	0x616
 5727 146e 06020000 		.4byte	.LBB239
 5728 1472 08020000 		.4byte	.LBE239
 5729 1476 01       		.byte	0x1
 5730 1477 9601     		.2byte	0x196
 5731 1479 24       		.uleb128 0x24
 5732 147a 16060000 		.4byte	0x616
 5733 147e 22020000 		.4byte	.LBB241
 5734 1482 24020000 		.4byte	.LBE241
 5735 1486 01       		.byte	0x1
 5736 1487 9801     		.2byte	0x198
ARM GAS  /tmp/ccv0K2b2.s 			page 168


 5737 1489 25       		.uleb128 0x25
 5738 148a 28000000 		.4byte	.LVL91
 5739 148e 90190000 		.4byte	0x1990
 5740 1492 BE140000 		.4byte	0x14be
 5741 1496 26       		.uleb128 0x26
 5742 1497 01       		.byte	0x1
 5743 1498 53       		.byte	0x53
 5744 1499 05       		.byte	0x5
 5745 149a 03       		.byte	0x3
 5746 149b 00000000 		.4byte	thread4a
 5747 149f 26       		.uleb128 0x26
 5748 14a0 01       		.byte	0x1
 5749 14a1 52       		.byte	0x52
 5750 14a2 02       		.byte	0x2
 5751 14a3 79       		.byte	0x79
 5752 14a4 00       		.sleb128 0
 5753 14a5 26       		.uleb128 0x26
 5754 14a6 01       		.byte	0x1
 5755 14a7 51       		.byte	0x51
 5756 14a8 03       		.byte	0x3
 5757 14a9 0A       		.byte	0xa
 5758 14aa 4801     		.2byte	0x148
 5759 14ac 26       		.uleb128 0x26
 5760 14ad 01       		.byte	0x1
 5761 14ae 50       		.byte	0x50
 5762 14af 03       		.byte	0x3
 5763 14b0 76       		.byte	0x76
 5764 14b1 00       		.sleb128 0
 5765 14b2 06       		.byte	0x6
 5766 14b3 26       		.uleb128 0x26
 5767 14b4 02       		.byte	0x2
 5768 14b5 7D       		.byte	0x7d
 5769 14b6 00       		.sleb128 0
 5770 14b7 05       		.byte	0x5
 5771 14b8 03       		.byte	0x3
 5772 14b9 08000000 		.4byte	.LC2
 5773 14bd 00       		.byte	0
 5774 14be 25       		.uleb128 0x25
 5775 14bf 44000000 		.4byte	.LVL93
 5776 14c3 90190000 		.4byte	0x1990
 5777 14c7 F2140000 		.4byte	0x14f2
 5778 14cb 26       		.uleb128 0x26
 5779 14cc 01       		.byte	0x1
 5780 14cd 53       		.byte	0x53
 5781 14ce 05       		.byte	0x5
 5782 14cf 03       		.byte	0x3
 5783 14d0 00000000 		.4byte	thread4b
 5784 14d4 26       		.uleb128 0x26
 5785 14d5 01       		.byte	0x1
 5786 14d6 52       		.byte	0x52
 5787 14d7 02       		.byte	0x2
 5788 14d8 7A       		.byte	0x7a
 5789 14d9 00       		.sleb128 0
 5790 14da 26       		.uleb128 0x26
 5791 14db 01       		.byte	0x1
 5792 14dc 51       		.byte	0x51
 5793 14dd 03       		.byte	0x3
ARM GAS  /tmp/ccv0K2b2.s 			page 169


 5794 14de 0A       		.byte	0xa
 5795 14df 4801     		.2byte	0x148
 5796 14e1 26       		.uleb128 0x26
 5797 14e2 01       		.byte	0x1
 5798 14e3 50       		.byte	0x50
 5799 14e4 02       		.byte	0x2
 5800 14e5 76       		.byte	0x76
 5801 14e6 00       		.sleb128 0
 5802 14e7 26       		.uleb128 0x26
 5803 14e8 02       		.byte	0x2
 5804 14e9 7D       		.byte	0x7d
 5805 14ea 00       		.sleb128 0
 5806 14eb 05       		.byte	0x5
 5807 14ec 03       		.byte	0x3
 5808 14ed 00000000 		.4byte	.LC0
 5809 14f1 00       		.byte	0
 5810 14f2 25       		.uleb128 0x25
 5811 14f3 4C000000 		.4byte	.LVL94
 5812 14f7 031A0000 		.4byte	0x1a03
 5813 14fb 09150000 		.4byte	0x1509
 5814 14ff 26       		.uleb128 0x26
 5815 1500 01       		.byte	0x1
 5816 1501 50       		.byte	0x50
 5817 1502 05       		.byte	0x5
 5818 1503 03       		.byte	0x3
 5819 1504 00000000 		.4byte	.LANCHOR1
 5820 1508 00       		.byte	0
 5821 1509 25       		.uleb128 0x25
 5822 150a 5C000000 		.4byte	.LVL95
 5823 150e CF1A0000 		.4byte	0x1acf
 5824 1512 1C150000 		.4byte	0x151c
 5825 1516 26       		.uleb128 0x26
 5826 1517 01       		.byte	0x1
 5827 1518 50       		.byte	0x50
 5828 1519 01       		.byte	0x1
 5829 151a 31       		.byte	0x31
 5830 151b 00       		.byte	0
 5831 151c 25       		.uleb128 0x25
 5832 151d 6C000000 		.4byte	.LVL96
 5833 1521 221B0000 		.4byte	0x1b22
 5834 1525 31150000 		.4byte	0x1531
 5835 1529 26       		.uleb128 0x26
 5836 152a 01       		.byte	0x1
 5837 152b 50       		.byte	0x50
 5838 152c 03       		.byte	0x3
 5839 152d 0A       		.byte	0xa
 5840 152e E803     		.2byte	0x3e8
 5841 1530 00       		.byte	0
 5842 1531 25       		.uleb128 0x25
 5843 1532 7E000000 		.4byte	.LVL97
 5844 1536 CF1A0000 		.4byte	0x1acf
 5845 153a 44150000 		.4byte	0x1544
 5846 153e 26       		.uleb128 0x26
 5847 153f 01       		.byte	0x1
 5848 1540 50       		.byte	0x50
 5849 1541 01       		.byte	0x1
 5850 1542 32       		.byte	0x32
ARM GAS  /tmp/ccv0K2b2.s 			page 170


 5851 1543 00       		.byte	0
 5852 1544 25       		.uleb128 0x25
 5853 1545 88000000 		.4byte	.LVL98
 5854 1549 031A0000 		.4byte	0x1a03
 5855 154d 5B150000 		.4byte	0x155b
 5856 1551 26       		.uleb128 0x26
 5857 1552 01       		.byte	0x1
 5858 1553 50       		.byte	0x50
 5859 1554 05       		.byte	0x5
 5860 1555 03       		.byte	0x3
 5861 1556 00000000 		.4byte	.LANCHOR2
 5862 155a 00       		.byte	0
 5863 155b 25       		.uleb128 0x25
 5864 155c 9E000000 		.4byte	.LVL99
 5865 1560 CF1A0000 		.4byte	0x1acf
 5866 1564 6E150000 		.4byte	0x156e
 5867 1568 26       		.uleb128 0x26
 5868 1569 01       		.byte	0x1
 5869 156a 50       		.byte	0x50
 5870 156b 01       		.byte	0x1
 5871 156c 33       		.byte	0x33
 5872 156d 00       		.byte	0
 5873 156e 25       		.uleb128 0x25
 5874 156f AA000000 		.4byte	.LVL100
 5875 1573 221B0000 		.4byte	0x1b22
 5876 1577 83150000 		.4byte	0x1583
 5877 157b 26       		.uleb128 0x26
 5878 157c 01       		.byte	0x1
 5879 157d 50       		.byte	0x50
 5880 157e 03       		.byte	0x3
 5881 157f 0A       		.byte	0xa
 5882 1580 E803     		.2byte	0x3e8
 5883 1582 00       		.byte	0
 5884 1583 25       		.uleb128 0x25
 5885 1584 C0000000 		.4byte	.LVL101
 5886 1588 CF1A0000 		.4byte	0x1acf
 5887 158c 96150000 		.4byte	0x1596
 5888 1590 26       		.uleb128 0x26
 5889 1591 01       		.byte	0x1
 5890 1592 50       		.byte	0x50
 5891 1593 01       		.byte	0x1
 5892 1594 34       		.byte	0x34
 5893 1595 00       		.byte	0
 5894 1596 25       		.uleb128 0x25
 5895 1597 CA000000 		.4byte	.LVL102
 5896 159b 2B1A0000 		.4byte	0x1a2b
 5897 159f AD150000 		.4byte	0x15ad
 5898 15a3 26       		.uleb128 0x26
 5899 15a4 01       		.byte	0x1
 5900 15a5 50       		.byte	0x50
 5901 15a6 05       		.byte	0x5
 5902 15a7 03       		.byte	0x3
 5903 15a8 00000000 		.4byte	.LANCHOR2
 5904 15ac 00       		.byte	0
 5905 15ad 25       		.uleb128 0x25
 5906 15ae DC000000 		.4byte	.LVL103
 5907 15b2 CF1A0000 		.4byte	0x1acf
ARM GAS  /tmp/ccv0K2b2.s 			page 171


 5908 15b6 C0150000 		.4byte	0x15c0
 5909 15ba 26       		.uleb128 0x26
 5910 15bb 01       		.byte	0x1
 5911 15bc 50       		.byte	0x50
 5912 15bd 01       		.byte	0x1
 5913 15be 35       		.byte	0x35
 5914 15bf 00       		.byte	0
 5915 15c0 25       		.uleb128 0x25
 5916 15c1 E8000000 		.4byte	.LVL104
 5917 15c5 221B0000 		.4byte	0x1b22
 5918 15c9 D5150000 		.4byte	0x15d5
 5919 15cd 26       		.uleb128 0x26
 5920 15ce 01       		.byte	0x1
 5921 15cf 50       		.byte	0x50
 5922 15d0 03       		.byte	0x3
 5923 15d1 0A       		.byte	0xa
 5924 15d2 E803     		.2byte	0x3e8
 5925 15d4 00       		.byte	0
 5926 15d5 25       		.uleb128 0x25
 5927 15d6 FA000000 		.4byte	.LVL105
 5928 15da CF1A0000 		.4byte	0x1acf
 5929 15de E8150000 		.4byte	0x15e8
 5930 15e2 26       		.uleb128 0x26
 5931 15e3 01       		.byte	0x1
 5932 15e4 50       		.byte	0x50
 5933 15e5 01       		.byte	0x1
 5934 15e6 36       		.byte	0x36
 5935 15e7 00       		.byte	0
 5936 15e8 27       		.uleb128 0x27
 5937 15e9 02010000 		.4byte	.LVL106
 5938 15ed 181B0000 		.4byte	0x1b18
 5939 15f1 25       		.uleb128 0x25
 5940 15f2 18010000 		.4byte	.LVL107
 5941 15f6 CF1A0000 		.4byte	0x1acf
 5942 15fa 04160000 		.4byte	0x1604
 5943 15fe 26       		.uleb128 0x26
 5944 15ff 01       		.byte	0x1
 5945 1600 50       		.byte	0x50
 5946 1601 01       		.byte	0x1
 5947 1602 37       		.byte	0x37
 5948 1603 00       		.byte	0
 5949 1604 27       		.uleb128 0x27
 5950 1605 20010000 		.4byte	.LVL108
 5951 1609 D6190000 		.4byte	0x19d6
 5952 160d 25       		.uleb128 0x25
 5953 160e 32010000 		.4byte	.LVL109
 5954 1612 90190000 		.4byte	0x1990
 5955 1616 42160000 		.4byte	0x1642
 5956 161a 26       		.uleb128 0x26
 5957 161b 01       		.byte	0x1
 5958 161c 53       		.byte	0x53
 5959 161d 05       		.byte	0x5
 5960 161e 03       		.byte	0x3
 5961 161f 00000000 		.4byte	thread4a
 5962 1623 26       		.uleb128 0x26
 5963 1624 01       		.byte	0x1
 5964 1625 52       		.byte	0x52
ARM GAS  /tmp/ccv0K2b2.s 			page 172


 5965 1626 02       		.byte	0x2
 5966 1627 79       		.byte	0x79
 5967 1628 00       		.sleb128 0
 5968 1629 26       		.uleb128 0x26
 5969 162a 01       		.byte	0x1
 5970 162b 51       		.byte	0x51
 5971 162c 03       		.byte	0x3
 5972 162d 0A       		.byte	0xa
 5973 162e 4801     		.2byte	0x148
 5974 1630 26       		.uleb128 0x26
 5975 1631 01       		.byte	0x1
 5976 1632 50       		.byte	0x50
 5977 1633 03       		.byte	0x3
 5978 1634 91       		.byte	0x91
 5979 1635 5C       		.sleb128 -36
 5980 1636 06       		.byte	0x6
 5981 1637 26       		.uleb128 0x26
 5982 1638 02       		.byte	0x2
 5983 1639 7D       		.byte	0x7d
 5984 163a 00       		.sleb128 0
 5985 163b 05       		.byte	0x5
 5986 163c 03       		.byte	0x3
 5987 163d 14000000 		.4byte	.LC5
 5988 1641 00       		.byte	0
 5989 1642 25       		.uleb128 0x25
 5990 1643 46010000 		.4byte	.LVL110
 5991 1647 90190000 		.4byte	0x1990
 5992 164b 76160000 		.4byte	0x1676
 5993 164f 26       		.uleb128 0x26
 5994 1650 01       		.byte	0x1
 5995 1651 53       		.byte	0x53
 5996 1652 05       		.byte	0x5
 5997 1653 03       		.byte	0x3
 5998 1654 00000000 		.4byte	thread4b
 5999 1658 26       		.uleb128 0x26
 6000 1659 01       		.byte	0x1
 6001 165a 52       		.byte	0x52
 6002 165b 02       		.byte	0x2
 6003 165c 7A       		.byte	0x7a
 6004 165d 00       		.sleb128 0
 6005 165e 26       		.uleb128 0x26
 6006 165f 01       		.byte	0x1
 6007 1660 51       		.byte	0x51
 6008 1661 03       		.byte	0x3
 6009 1662 0A       		.byte	0xa
 6010 1663 4801     		.2byte	0x148
 6011 1665 26       		.uleb128 0x26
 6012 1666 01       		.byte	0x1
 6013 1667 50       		.byte	0x50
 6014 1668 02       		.byte	0x2
 6015 1669 76       		.byte	0x76
 6016 166a 00       		.sleb128 0
 6017 166b 26       		.uleb128 0x26
 6018 166c 02       		.byte	0x2
 6019 166d 7D       		.byte	0x7d
 6020 166e 00       		.sleb128 0
 6021 166f 05       		.byte	0x5
ARM GAS  /tmp/ccv0K2b2.s 			page 173


 6022 1670 03       		.byte	0x3
 6023 1671 04000000 		.4byte	.LC1
 6024 1675 00       		.byte	0
 6025 1676 25       		.uleb128 0x25
 6026 1677 4E010000 		.4byte	.LVL111
 6027 167b 031A0000 		.4byte	0x1a03
 6028 167f 8D160000 		.4byte	0x168d
 6029 1683 26       		.uleb128 0x26
 6030 1684 01       		.byte	0x1
 6031 1685 50       		.byte	0x50
 6032 1686 05       		.byte	0x5
 6033 1687 03       		.byte	0x3
 6034 1688 00000000 		.4byte	.LANCHOR1
 6035 168c 00       		.byte	0
 6036 168d 25       		.uleb128 0x25
 6037 168e 64010000 		.4byte	.LVL112
 6038 1692 CF1A0000 		.4byte	0x1acf
 6039 1696 A0160000 		.4byte	0x16a0
 6040 169a 26       		.uleb128 0x26
 6041 169b 01       		.byte	0x1
 6042 169c 50       		.byte	0x50
 6043 169d 01       		.byte	0x1
 6044 169e 38       		.byte	0x38
 6045 169f 00       		.byte	0
 6046 16a0 25       		.uleb128 0x25
 6047 16a1 72010000 		.4byte	.LVL113
 6048 16a5 221B0000 		.4byte	0x1b22
 6049 16a9 B5160000 		.4byte	0x16b5
 6050 16ad 26       		.uleb128 0x26
 6051 16ae 01       		.byte	0x1
 6052 16af 50       		.byte	0x50
 6053 16b0 03       		.byte	0x3
 6054 16b1 0A       		.byte	0xa
 6055 16b2 E803     		.2byte	0x3e8
 6056 16b4 00       		.byte	0
 6057 16b5 25       		.uleb128 0x25
 6058 16b6 84010000 		.4byte	.LVL114
 6059 16ba CF1A0000 		.4byte	0x1acf
 6060 16be C8160000 		.4byte	0x16c8
 6061 16c2 26       		.uleb128 0x26
 6062 16c3 01       		.byte	0x1
 6063 16c4 50       		.byte	0x50
 6064 16c5 01       		.byte	0x1
 6065 16c6 39       		.byte	0x39
 6066 16c7 00       		.byte	0
 6067 16c8 25       		.uleb128 0x25
 6068 16c9 90010000 		.4byte	.LVL115
 6069 16cd 031A0000 		.4byte	0x1a03
 6070 16d1 DF160000 		.4byte	0x16df
 6071 16d5 26       		.uleb128 0x26
 6072 16d6 01       		.byte	0x1
 6073 16d7 50       		.byte	0x50
 6074 16d8 05       		.byte	0x5
 6075 16d9 03       		.byte	0x3
 6076 16da 00000000 		.4byte	.LANCHOR2
 6077 16de 00       		.byte	0
 6078 16df 25       		.uleb128 0x25
ARM GAS  /tmp/ccv0K2b2.s 			page 174


 6079 16e0 A2010000 		.4byte	.LVL116
 6080 16e4 CF1A0000 		.4byte	0x1acf
 6081 16e8 F2160000 		.4byte	0x16f2
 6082 16ec 26       		.uleb128 0x26
 6083 16ed 01       		.byte	0x1
 6084 16ee 50       		.byte	0x50
 6085 16ef 01       		.byte	0x1
 6086 16f0 3A       		.byte	0x3a
 6087 16f1 00       		.byte	0
 6088 16f2 25       		.uleb128 0x25
 6089 16f3 B0010000 		.4byte	.LVL117
 6090 16f7 221B0000 		.4byte	0x1b22
 6091 16fb 07170000 		.4byte	0x1707
 6092 16ff 26       		.uleb128 0x26
 6093 1700 01       		.byte	0x1
 6094 1701 50       		.byte	0x50
 6095 1702 03       		.byte	0x3
 6096 1703 0A       		.byte	0xa
 6097 1704 E803     		.2byte	0x3e8
 6098 1706 00       		.byte	0
 6099 1707 25       		.uleb128 0x25
 6100 1708 C6010000 		.4byte	.LVL118
 6101 170c CF1A0000 		.4byte	0x1acf
 6102 1710 1A170000 		.4byte	0x171a
 6103 1714 26       		.uleb128 0x26
 6104 1715 01       		.byte	0x1
 6105 1716 50       		.byte	0x50
 6106 1717 01       		.byte	0x1
 6107 1718 3B       		.byte	0x3b
 6108 1719 00       		.byte	0
 6109 171a 25       		.uleb128 0x25
 6110 171b DA010000 		.4byte	.LVL120
 6111 171f 041B0000 		.4byte	0x1b04
 6112 1723 31170000 		.4byte	0x1731
 6113 1727 26       		.uleb128 0x26
 6114 1728 01       		.byte	0x1
 6115 1729 50       		.byte	0x50
 6116 172a 05       		.byte	0x5
 6117 172b 03       		.byte	0x3
 6118 172c 00000000 		.4byte	.LANCHOR2
 6119 1730 00       		.byte	0
 6120 1731 27       		.uleb128 0x27
 6121 1732 DE010000 		.4byte	.LVL121
 6122 1736 C41A0000 		.4byte	0x1ac4
 6123 173a 25       		.uleb128 0x25
 6124 173b F8010000 		.4byte	.LVL122
 6125 173f CF1A0000 		.4byte	0x1acf
 6126 1743 4D170000 		.4byte	0x174d
 6127 1747 26       		.uleb128 0x26
 6128 1748 01       		.byte	0x1
 6129 1749 50       		.byte	0x50
 6130 174a 01       		.byte	0x1
 6131 174b 3C       		.byte	0x3c
 6132 174c 00       		.byte	0
 6133 174d 25       		.uleb128 0x25
 6134 174e 06020000 		.4byte	.LVL123
 6135 1752 221B0000 		.4byte	0x1b22
ARM GAS  /tmp/ccv0K2b2.s 			page 175


 6136 1756 62170000 		.4byte	0x1762
 6137 175a 26       		.uleb128 0x26
 6138 175b 01       		.byte	0x1
 6139 175c 50       		.byte	0x50
 6140 175d 03       		.byte	0x3
 6141 175e 0A       		.byte	0xa
 6142 175f E803     		.2byte	0x3e8
 6143 1761 00       		.byte	0
 6144 1762 25       		.uleb128 0x25
 6145 1763 18020000 		.4byte	.LVL124
 6146 1767 CF1A0000 		.4byte	0x1acf
 6147 176b 75170000 		.4byte	0x1775
 6148 176f 26       		.uleb128 0x26
 6149 1770 01       		.byte	0x1
 6150 1771 50       		.byte	0x50
 6151 1772 01       		.byte	0x1
 6152 1773 3D       		.byte	0x3d
 6153 1774 00       		.byte	0
 6154 1775 27       		.uleb128 0x27
 6155 1776 22020000 		.4byte	.LVL125
 6156 177a 181B0000 		.4byte	0x1b18
 6157 177e 25       		.uleb128 0x25
 6158 177f 32020000 		.4byte	.LVL126
 6159 1783 CF1A0000 		.4byte	0x1acf
 6160 1787 91170000 		.4byte	0x1791
 6161 178b 26       		.uleb128 0x26
 6162 178c 01       		.byte	0x1
 6163 178d 50       		.byte	0x50
 6164 178e 01       		.byte	0x1
 6165 178f 3E       		.byte	0x3e
 6166 1790 00       		.byte	0
 6167 1791 3C       		.uleb128 0x3c
 6168 1792 42020000 		.4byte	.LVL127
 6169 1796 01       		.byte	0x1
 6170 1797 D6190000 		.4byte	0x19d6
 6171 179b 00       		.byte	0
 6172 179c 29       		.uleb128 0x29
 6173 179d 54000000 		.4byte	.LASF113
 6174 17a1 01       		.byte	0x1
 6175 17a2 6401     		.2byte	0x164
 6176 17a4 01       		.byte	0x1
 6177 17a5 EB010000 		.4byte	0x1eb
 6178 17a9 00000000 		.4byte	.LFB170
 6179 17ad 22000000 		.4byte	.LFE170
 6180 17b1 9D020000 		.4byte	.LLST19
 6181 17b5 01       		.byte	0x1
 6182 17b6 02180000 		.4byte	0x1802
 6183 17ba 2A       		.uleb128 0x2a
 6184 17bb 7000     		.ascii	"p\000"
 6185 17bd 01       		.byte	0x1
 6186 17be 6401     		.2byte	0x164
 6187 17c0 1E020000 		.4byte	0x21e
 6188 17c4 BD020000 		.4byte	.LLST20
 6189 17c8 25       		.uleb128 0x25
 6190 17c9 12000000 		.4byte	.LVL130
 6191 17cd 221B0000 		.4byte	0x1b22
 6192 17d1 DD170000 		.4byte	0x17dd
ARM GAS  /tmp/ccv0K2b2.s 			page 176


 6193 17d5 26       		.uleb128 0x26
 6194 17d6 01       		.byte	0x1
 6195 17d7 50       		.byte	0x50
 6196 17d8 03       		.byte	0x3
 6197 17d9 0A       		.byte	0xa
 6198 17da DC05     		.2byte	0x5dc
 6199 17dc 00       		.byte	0
 6200 17dd 25       		.uleb128 0x25
 6201 17de 18000000 		.4byte	.LVL131
 6202 17e2 031A0000 		.4byte	0x1a03
 6203 17e6 F1170000 		.4byte	0x17f1
 6204 17ea 26       		.uleb128 0x26
 6205 17eb 01       		.byte	0x1
 6206 17ec 50       		.byte	0x50
 6207 17ed 02       		.byte	0x2
 6208 17ee 74       		.byte	0x74
 6209 17ef 00       		.sleb128 0
 6210 17f0 00       		.byte	0
 6211 17f1 2B       		.uleb128 0x2b
 6212 17f2 1E000000 		.4byte	.LVL132
 6213 17f6 2B1A0000 		.4byte	0x1a2b
 6214 17fa 26       		.uleb128 0x26
 6215 17fb 01       		.byte	0x1
 6216 17fc 50       		.byte	0x50
 6217 17fd 02       		.byte	0x2
 6218 17fe 74       		.byte	0x74
 6219 17ff 00       		.sleb128 0
 6220 1800 00       		.byte	0
 6221 1801 00       		.byte	0
 6222 1802 29       		.uleb128 0x29
 6223 1803 4B000000 		.4byte	.LASF114
 6224 1807 01       		.byte	0x1
 6225 1808 5B01     		.2byte	0x15b
 6226 180a 01       		.byte	0x1
 6227 180b EB010000 		.4byte	0x1eb
 6228 180f 00000000 		.4byte	.LFB169
 6229 1813 22000000 		.4byte	.LFE169
 6230 1817 DE020000 		.4byte	.LLST21
 6231 181b 01       		.byte	0x1
 6232 181c 68180000 		.4byte	0x1868
 6233 1820 2A       		.uleb128 0x2a
 6234 1821 7000     		.ascii	"p\000"
 6235 1823 01       		.byte	0x1
 6236 1824 5B01     		.2byte	0x15b
 6237 1826 1E020000 		.4byte	0x21e
 6238 182a FE020000 		.4byte	.LLST22
 6239 182e 25       		.uleb128 0x25
 6240 182f 12000000 		.4byte	.LVL135
 6241 1833 221B0000 		.4byte	0x1b22
 6242 1837 43180000 		.4byte	0x1843
 6243 183b 26       		.uleb128 0x26
 6244 183c 01       		.byte	0x1
 6245 183d 50       		.byte	0x50
 6246 183e 03       		.byte	0x3
 6247 183f 0A       		.byte	0xa
 6248 1840 F401     		.2byte	0x1f4
 6249 1842 00       		.byte	0
ARM GAS  /tmp/ccv0K2b2.s 			page 177


 6250 1843 25       		.uleb128 0x25
 6251 1844 18000000 		.4byte	.LVL136
 6252 1848 031A0000 		.4byte	0x1a03
 6253 184c 57180000 		.4byte	0x1857
 6254 1850 26       		.uleb128 0x26
 6255 1851 01       		.byte	0x1
 6256 1852 50       		.byte	0x50
 6257 1853 02       		.byte	0x2
 6258 1854 74       		.byte	0x74
 6259 1855 00       		.sleb128 0
 6260 1856 00       		.byte	0
 6261 1857 2B       		.uleb128 0x2b
 6262 1858 1E000000 		.4byte	.LVL137
 6263 185c 2B1A0000 		.4byte	0x1a2b
 6264 1860 26       		.uleb128 0x26
 6265 1861 01       		.byte	0x1
 6266 1862 50       		.byte	0x50
 6267 1863 02       		.byte	0x2
 6268 1864 74       		.byte	0x74
 6269 1865 00       		.sleb128 0
 6270 1866 00       		.byte	0
 6271 1867 00       		.byte	0
 6272 1868 3D       		.uleb128 0x3d
 6273 1869 6D3100   		.ascii	"m1\000"
 6274 186c 01       		.byte	0x1
 6275 186d 44       		.byte	0x44
 6276 186e 55050000 		.4byte	0x555
 6277 1872 05       		.byte	0x5
 6278 1873 03       		.byte	0x3
 6279 1874 00000000 		.4byte	m1
 6280 1878 3D       		.uleb128 0x3d
 6281 1879 6D3200   		.ascii	"m2\000"
 6282 187c 01       		.byte	0x1
 6283 187d 45       		.byte	0x45
 6284 187e 55050000 		.4byte	0x555
 6285 1882 05       		.byte	0x5
 6286 1883 03       		.byte	0x3
 6287 1884 00000000 		.4byte	m2
 6288 1888 3D       		.uleb128 0x3d
 6289 1889 633100   		.ascii	"c1\000"
 6290 188c 01       		.byte	0x1
 6291 188d 47       		.byte	0x47
 6292 188e 81050000 		.4byte	0x581
 6293 1892 05       		.byte	0x5
 6294 1893 03       		.byte	0x3
 6295 1894 00000000 		.4byte	c1
 6296 1898 3E       		.uleb128 0x3e
 6297 1899 9E000000 		.4byte	.LASF115
 6298 189d 0E       		.byte	0xe
 6299 189e 1606     		.2byte	0x616
 6300 18a0 AF010000 		.4byte	0x1af
 6301 18a4 01       		.byte	0x1
 6302 18a5 01       		.byte	0x1
 6303 18a6 3F       		.uleb128 0x3f
 6304 18a7 636800   		.ascii	"ch\000"
 6305 18aa 04       		.byte	0x4
 6306 18ab 8901     		.2byte	0x189
ARM GAS  /tmp/ccv0K2b2.s 			page 178


 6307 18ad 28050000 		.4byte	0x528
 6308 18b1 01       		.byte	0x1
 6309 18b2 01       		.byte	0x1
 6310 18b3 1D       		.uleb128 0x1d
 6311 18b4 F3020000 		.4byte	0x2f3
 6312 18b8 C3180000 		.4byte	0x18c3
 6313 18bc 1E       		.uleb128 0x1e
 6314 18bd 01020000 		.4byte	0x201
 6315 18c1 04       		.byte	0x4
 6316 18c2 00       		.byte	0
 6317 18c3 40       		.uleb128 0x40
 6318 18c4 5C040000 		.4byte	.LASF116
 6319 18c8 0C       		.byte	0xc
 6320 18c9 A5       		.byte	0xa5
 6321 18ca B3180000 		.4byte	0x18b3
 6322 18ce 01       		.byte	0x1
 6323 18cf 01       		.byte	0x1
 6324 18d0 1D       		.uleb128 0x1d
 6325 18d1 1E020000 		.4byte	0x21e
 6326 18d5 DB180000 		.4byte	0x18db
 6327 18d9 41       		.uleb128 0x41
 6328 18da 00       		.byte	0
 6329 18db 42       		.uleb128 0x42
 6330 18dc 776100   		.ascii	"wa\000"
 6331 18df 0C       		.byte	0xc
 6332 18e0 A7       		.byte	0xa7
 6333 18e1 E7180000 		.4byte	0x18e7
 6334 18e5 01       		.byte	0x1
 6335 18e6 01       		.byte	0x1
 6336 18e7 0F       		.uleb128 0xf
 6337 18e8 D0180000 		.4byte	0x18d0
 6338 18ec 43       		.uleb128 0x43
 6339 18ed 7C050000 		.4byte	.LASF117
 6340 18f1 01       		.byte	0x1
 6341 18f2 70       		.byte	0x70
 6342 18f3 FE180000 		.4byte	0x18fe
 6343 18f7 01       		.byte	0x1
 6344 18f8 05       		.byte	0x5
 6345 18f9 03       		.byte	0x3
 6346 18fa 00000000 		.4byte	testmtx1
 6347 18fe 0F       		.uleb128 0xf
 6348 18ff 8C050000 		.4byte	0x58c
 6349 1903 44       		.uleb128 0x44
 6350 1904 DD040000 		.4byte	.LASF118
 6351 1908 01       		.byte	0x1
 6352 1909 9C01     		.2byte	0x19c
 6353 190b FE180000 		.4byte	0x18fe
 6354 190f 01       		.byte	0x1
 6355 1910 05       		.byte	0x5
 6356 1911 03       		.byte	0x3
 6357 1912 00000000 		.4byte	testmtx4
 6358 1916 44       		.uleb128 0x44
 6359 1917 E6040000 		.4byte	.LASF119
 6360 191b 01       		.byte	0x1
 6361 191c CD01     		.2byte	0x1cd
 6362 191e FE180000 		.4byte	0x18fe
 6363 1922 01       		.byte	0x1
ARM GAS  /tmp/ccv0K2b2.s 			page 179


 6364 1923 05       		.byte	0x5
 6365 1924 03       		.byte	0x3
 6366 1925 00000000 		.4byte	testmtx5
 6367 1929 44       		.uleb128 0x44
 6368 192a EF040000 		.4byte	.LASF120
 6369 192e 01       		.byte	0x1
 6370 192f 0302     		.2byte	0x203
 6371 1931 FE180000 		.4byte	0x18fe
 6372 1935 01       		.byte	0x1
 6373 1936 05       		.byte	0x5
 6374 1937 03       		.byte	0x3
 6375 1938 00000000 		.4byte	testmtx6
 6376 193c 44       		.uleb128 0x44
 6377 193d F8040000 		.4byte	.LASF121
 6378 1941 01       		.byte	0x1
 6379 1942 2702     		.2byte	0x227
 6380 1944 FE180000 		.4byte	0x18fe
 6381 1948 01       		.byte	0x1
 6382 1949 05       		.byte	0x5
 6383 194a 03       		.byte	0x3
 6384 194b 00000000 		.4byte	testmtx7
 6385 194f 44       		.uleb128 0x44
 6386 1950 01050000 		.4byte	.LASF122
 6387 1954 01       		.byte	0x1
 6388 1955 6102     		.2byte	0x261
 6389 1957 FE180000 		.4byte	0x18fe
 6390 195b 01       		.byte	0x1
 6391 195c 05       		.byte	0x5
 6392 195d 03       		.byte	0x3
 6393 195e 00000000 		.4byte	testmtx8
 6394 1962 1D       		.uleb128 0x1d
 6395 1963 72190000 		.4byte	0x1972
 6396 1967 72190000 		.4byte	0x1972
 6397 196b 1E       		.uleb128 0x1e
 6398 196c 01020000 		.4byte	0x201
 6399 1970 06       		.byte	0x6
 6400 1971 00       		.byte	0
 6401 1972 0B       		.uleb128 0xb
 6402 1973 04       		.byte	0x4
 6403 1974 FE180000 		.4byte	0x18fe
 6404 1978 44       		.uleb128 0x44
 6405 1979 3D040000 		.4byte	.LASF123
 6406 197d 01       		.byte	0x1
 6407 197e 6D02     		.2byte	0x26d
 6408 1980 8B190000 		.4byte	0x198b
 6409 1984 01       		.byte	0x1
 6410 1985 05       		.byte	0x5
 6411 1986 03       		.byte	0x3
 6412 1987 00000000 		.4byte	patternmtx
 6413 198b 0F       		.uleb128 0xf
 6414 198c 62190000 		.4byte	0x1962
 6415 1990 45       		.uleb128 0x45
 6416 1991 01       		.byte	0x1
 6417 1992 BA020000 		.4byte	.LASF124
 6418 1996 02       		.byte	0x2
 6419 1997 F0       		.byte	0xf0
 6420 1998 01       		.byte	0x1
ARM GAS  /tmp/ccv0K2b2.s 			page 180


 6421 1999 F3020000 		.4byte	0x2f3
 6422 199d 01       		.byte	0x1
 6423 199e BC190000 		.4byte	0x19bc
 6424 19a2 12       		.uleb128 0x12
 6425 19a3 1E020000 		.4byte	0x21e
 6426 19a7 12       		.uleb128 0x12
 6427 19a8 39010000 		.4byte	0x139
 6428 19ac 12       		.uleb128 0x12
 6429 19ad E0010000 		.4byte	0x1e0
 6430 19b1 12       		.uleb128 0x12
 6431 19b2 34050000 		.4byte	0x534
 6432 19b6 12       		.uleb128 0x12
 6433 19b7 1E020000 		.4byte	0x21e
 6434 19bb 00       		.byte	0
 6435 19bc 46       		.uleb128 0x46
 6436 19bd 01       		.byte	0x1
 6437 19be 01020000 		.4byte	.LASF126
 6438 19c2 0B       		.byte	0xb
 6439 19c3 5F       		.byte	0x5f
 6440 19c4 01       		.byte	0x1
 6441 19c5 01       		.byte	0x1
 6442 19c6 D0190000 		.4byte	0x19d0
 6443 19ca 12       		.uleb128 0x12
 6444 19cb D0190000 		.4byte	0x19d0
 6445 19cf 00       		.byte	0
 6446 19d0 0B       		.uleb128 0xb
 6447 19d1 04       		.byte	0x4
 6448 19d2 81050000 		.4byte	0x581
 6449 19d6 47       		.uleb128 0x47
 6450 19d7 01       		.byte	0x1
 6451 19d8 15030000 		.4byte	.LASF136
 6452 19dc 0C       		.byte	0xc
 6453 19dd 5C       		.byte	0x5c
 6454 19de 01       		.byte	0x1
 6455 19df 01       		.byte	0x1
 6456 19e0 45       		.uleb128 0x45
 6457 19e1 01       		.byte	0x1
 6458 19e2 5A030000 		.4byte	.LASF125
 6459 19e6 0C       		.byte	0xc
 6460 19e7 59       		.byte	0x59
 6461 19e8 01       		.byte	0x1
 6462 19e9 7F060000 		.4byte	0x67f
 6463 19ed 01       		.byte	0x1
 6464 19ee FD190000 		.4byte	0x19fd
 6465 19f2 12       		.uleb128 0x12
 6466 19f3 44010000 		.4byte	0x144
 6467 19f7 12       		.uleb128 0x12
 6468 19f8 FD190000 		.4byte	0x19fd
 6469 19fc 00       		.byte	0
 6470 19fd 0B       		.uleb128 0xb
 6471 19fe 04       		.byte	0x4
 6472 19ff CE030000 		.4byte	0x3ce
 6473 1a03 46       		.uleb128 0x46
 6474 1a04 01       		.byte	0x1
 6475 1a05 0B030000 		.4byte	.LASF127
 6476 1a09 0A       		.byte	0xa
 6477 1a0a 69       		.byte	0x69
ARM GAS  /tmp/ccv0K2b2.s 			page 181


 6478 1a0b 01       		.byte	0x1
 6479 1a0c 01       		.byte	0x1
 6480 1a0d 171A0000 		.4byte	0x1a17
 6481 1a11 12       		.uleb128 0x12
 6482 1a12 60050000 		.4byte	0x560
 6483 1a16 00       		.byte	0
 6484 1a17 46       		.uleb128 0x46
 6485 1a18 01       		.byte	0x1
 6486 1a19 09010000 		.4byte	.LASF128
 6487 1a1d 0C       		.byte	0xc
 6488 1a1e 56       		.byte	0x56
 6489 1a1f 01       		.byte	0x1
 6490 1a20 01       		.byte	0x1
 6491 1a21 2B1A0000 		.4byte	0x1a2b
 6492 1a25 12       		.uleb128 0x12
 6493 1a26 CE030000 		.4byte	0x3ce
 6494 1a2a 00       		.byte	0
 6495 1a2b 46       		.uleb128 0x46
 6496 1a2c 01       		.byte	0x1
 6497 1a2d BF000000 		.4byte	.LASF129
 6498 1a31 0A       		.byte	0xa
 6499 1a32 6D       		.byte	0x6d
 6500 1a33 01       		.byte	0x1
 6501 1a34 01       		.byte	0x1
 6502 1a35 3F1A0000 		.4byte	0x1a3f
 6503 1a39 12       		.uleb128 0x12
 6504 1a3a 60050000 		.4byte	0x560
 6505 1a3e 00       		.byte	0
 6506 1a3f 45       		.uleb128 0x45
 6507 1a40 01       		.byte	0x1
 6508 1a41 EE050000 		.4byte	.LASF130
 6509 1a45 0B       		.byte	0xb
 6510 1a46 63       		.byte	0x63
 6511 1a47 01       		.byte	0x1
 6512 1a48 EB010000 		.4byte	0x1eb
 6513 1a4c 01       		.byte	0x1
 6514 1a4d 571A0000 		.4byte	0x1a57
 6515 1a51 12       		.uleb128 0x12
 6516 1a52 D0190000 		.4byte	0x19d0
 6517 1a56 00       		.byte	0
 6518 1a57 45       		.uleb128 0x45
 6519 1a58 01       		.byte	0x1
 6520 1a59 76060000 		.4byte	.LASF131
 6521 1a5d 0B       		.byte	0xb
 6522 1a5e 66       		.byte	0x66
 6523 1a5f 01       		.byte	0x1
 6524 1a60 EB010000 		.4byte	0x1eb
 6525 1a64 01       		.byte	0x1
 6526 1a65 741A0000 		.4byte	0x1a74
 6527 1a69 12       		.uleb128 0x12
 6528 1a6a D0190000 		.4byte	0x19d0
 6529 1a6e 12       		.uleb128 0x12
 6530 1a6f 08020000 		.4byte	0x208
 6531 1a73 00       		.byte	0
 6532 1a74 46       		.uleb128 0x46
 6533 1a75 01       		.byte	0x1
 6534 1a76 2B050000 		.4byte	.LASF132
ARM GAS  /tmp/ccv0K2b2.s 			page 182


 6535 1a7a 0B       		.byte	0xb
 6536 1a7b 5E       		.byte	0x5e
 6537 1a7c 01       		.byte	0x1
 6538 1a7d 01       		.byte	0x1
 6539 1a7e 881A0000 		.4byte	0x1a88
 6540 1a82 12       		.uleb128 0x12
 6541 1a83 D0190000 		.4byte	0x19d0
 6542 1a87 00       		.byte	0
 6543 1a88 46       		.uleb128 0x46
 6544 1a89 01       		.byte	0x1
 6545 1a8a FB030000 		.4byte	.LASF133
 6546 1a8e 0A       		.byte	0xa
 6547 1a8f 68       		.byte	0x68
 6548 1a90 01       		.byte	0x1
 6549 1a91 01       		.byte	0x1
 6550 1a92 9C1A0000 		.4byte	0x1a9c
 6551 1a96 12       		.uleb128 0x12
 6552 1a97 60050000 		.4byte	0x560
 6553 1a9b 00       		.byte	0
 6554 1a9c 46       		.uleb128 0x46
 6555 1a9d 01       		.byte	0x1
 6556 1a9e 8A030000 		.4byte	.LASF134
 6557 1aa2 0B       		.byte	0xb
 6558 1aa3 61       		.byte	0x61
 6559 1aa4 01       		.byte	0x1
 6560 1aa5 01       		.byte	0x1
 6561 1aa6 B01A0000 		.4byte	0x1ab0
 6562 1aaa 12       		.uleb128 0x12
 6563 1aab D0190000 		.4byte	0x19d0
 6564 1aaf 00       		.byte	0
 6565 1ab0 46       		.uleb128 0x46
 6566 1ab1 01       		.byte	0x1
 6567 1ab2 0B040000 		.4byte	.LASF135
 6568 1ab6 0B       		.byte	0xb
 6569 1ab7 60       		.byte	0x60
 6570 1ab8 01       		.byte	0x1
 6571 1ab9 01       		.byte	0x1
 6572 1aba C41A0000 		.4byte	0x1ac4
 6573 1abe 12       		.uleb128 0x12
 6574 1abf D0190000 		.4byte	0x19d0
 6575 1ac3 00       		.byte	0
 6576 1ac4 48       		.uleb128 0x48
 6577 1ac5 01       		.byte	0x1
 6578 1ac6 C9010000 		.4byte	.LASF137
 6579 1aca 04       		.byte	0x4
 6580 1acb 9701     		.2byte	0x197
 6581 1acd 01       		.byte	0x1
 6582 1ace 01       		.byte	0x1
 6583 1acf 45       		.uleb128 0x45
 6584 1ad0 01       		.byte	0x1
 6585 1ad1 88060000 		.4byte	.LASF138
 6586 1ad5 0C       		.byte	0xc
 6587 1ad6 58       		.byte	0x58
 6588 1ad7 01       		.byte	0x1
 6589 1ad8 7F060000 		.4byte	0x67f
 6590 1adc 01       		.byte	0x1
 6591 1add EC1A0000 		.4byte	0x1aec
ARM GAS  /tmp/ccv0K2b2.s 			page 183


 6592 1ae1 12       		.uleb128 0x12
 6593 1ae2 44010000 		.4byte	0x144
 6594 1ae6 12       		.uleb128 0x12
 6595 1ae7 7F060000 		.4byte	0x67f
 6596 1aeb 00       		.byte	0
 6597 1aec 45       		.uleb128 0x45
 6598 1aed 01       		.byte	0x1
 6599 1aee AD020000 		.4byte	.LASF139
 6600 1af2 0A       		.byte	0xa
 6601 1af3 6B       		.byte	0x6b
 6602 1af4 01       		.byte	0x1
 6603 1af5 7F060000 		.4byte	0x67f
 6604 1af9 01       		.byte	0x1
 6605 1afa 041B0000 		.4byte	0x1b04
 6606 1afe 12       		.uleb128 0x12
 6607 1aff 60050000 		.4byte	0x560
 6608 1b03 00       		.byte	0
 6609 1b04 46       		.uleb128 0x46
 6610 1b05 01       		.byte	0x1
 6611 1b06 8B040000 		.4byte	.LASF140
 6612 1b0a 0A       		.byte	0xa
 6613 1b0b 6E       		.byte	0x6e
 6614 1b0c 01       		.byte	0x1
 6615 1b0d 01       		.byte	0x1
 6616 1b0e 181B0000 		.4byte	0x1b18
 6617 1b12 12       		.uleb128 0x12
 6618 1b13 60050000 		.4byte	0x560
 6619 1b17 00       		.byte	0
 6620 1b18 47       		.uleb128 0x47
 6621 1b19 01       		.byte	0x1
 6622 1b1a 8A020000 		.4byte	.LASF141
 6623 1b1e 0A       		.byte	0xa
 6624 1b1f 6F       		.byte	0x6f
 6625 1b20 01       		.byte	0x1
 6626 1b21 01       		.byte	0x1
 6627 1b22 49       		.uleb128 0x49
 6628 1b23 01       		.byte	0x1
 6629 1b24 B8040000 		.4byte	.LASF147
 6630 1b28 02       		.byte	0x2
 6631 1b29 FD       		.byte	0xfd
 6632 1b2a 01       		.byte	0x1
 6633 1b2b 01       		.byte	0x1
 6634 1b2c 12       		.uleb128 0x12
 6635 1b2d 08020000 		.4byte	0x208
 6636 1b31 00       		.byte	0
 6637 1b32 00       		.byte	0
 6638              		.section	.debug_abbrev,"",%progbits
 6639              	.Ldebug_abbrev0:
 6640 0000 01       		.uleb128 0x1
 6641 0001 11       		.uleb128 0x11
 6642 0002 01       		.byte	0x1
 6643 0003 25       		.uleb128 0x25
 6644 0004 0E       		.uleb128 0xe
 6645 0005 13       		.uleb128 0x13
 6646 0006 0B       		.uleb128 0xb
 6647 0007 03       		.uleb128 0x3
 6648 0008 0E       		.uleb128 0xe
ARM GAS  /tmp/ccv0K2b2.s 			page 184


 6649 0009 1B       		.uleb128 0x1b
 6650 000a 0E       		.uleb128 0xe
 6651 000b 55       		.uleb128 0x55
 6652 000c 06       		.uleb128 0x6
 6653 000d 11       		.uleb128 0x11
 6654 000e 01       		.uleb128 0x1
 6655 000f 52       		.uleb128 0x52
 6656 0010 01       		.uleb128 0x1
 6657 0011 10       		.uleb128 0x10
 6658 0012 06       		.uleb128 0x6
 6659 0013 00       		.byte	0
 6660 0014 00       		.byte	0
 6661 0015 02       		.uleb128 0x2
 6662 0016 13       		.uleb128 0x13
 6663 0017 01       		.byte	0x1
 6664 0018 03       		.uleb128 0x3
 6665 0019 0E       		.uleb128 0xe
 6666 001a 0B       		.uleb128 0xb
 6667 001b 0B       		.uleb128 0xb
 6668 001c 3A       		.uleb128 0x3a
 6669 001d 0B       		.uleb128 0xb
 6670 001e 3B       		.uleb128 0x3b
 6671 001f 0B       		.uleb128 0xb
 6672 0020 01       		.uleb128 0x1
 6673 0021 13       		.uleb128 0x13
 6674 0022 00       		.byte	0
 6675 0023 00       		.byte	0
 6676 0024 03       		.uleb128 0x3
 6677 0025 0D       		.uleb128 0xd
 6678 0026 00       		.byte	0
 6679 0027 03       		.uleb128 0x3
 6680 0028 0E       		.uleb128 0xe
 6681 0029 3A       		.uleb128 0x3a
 6682 002a 0B       		.uleb128 0xb
 6683 002b 3B       		.uleb128 0x3b
 6684 002c 0B       		.uleb128 0xb
 6685 002d 49       		.uleb128 0x49
 6686 002e 13       		.uleb128 0x13
 6687 002f 38       		.uleb128 0x38
 6688 0030 0A       		.uleb128 0xa
 6689 0031 00       		.byte	0
 6690 0032 00       		.byte	0
 6691 0033 04       		.uleb128 0x4
 6692 0034 0D       		.uleb128 0xd
 6693 0035 00       		.byte	0
 6694 0036 03       		.uleb128 0x3
 6695 0037 08       		.uleb128 0x8
 6696 0038 3A       		.uleb128 0x3a
 6697 0039 0B       		.uleb128 0xb
 6698 003a 3B       		.uleb128 0x3b
 6699 003b 0B       		.uleb128 0xb
 6700 003c 49       		.uleb128 0x49
 6701 003d 13       		.uleb128 0x13
 6702 003e 38       		.uleb128 0x38
 6703 003f 0A       		.uleb128 0xa
 6704 0040 00       		.byte	0
 6705 0041 00       		.byte	0
ARM GAS  /tmp/ccv0K2b2.s 			page 185


 6706 0042 05       		.uleb128 0x5
 6707 0043 24       		.uleb128 0x24
 6708 0044 00       		.byte	0
 6709 0045 0B       		.uleb128 0xb
 6710 0046 0B       		.uleb128 0xb
 6711 0047 3E       		.uleb128 0x3e
 6712 0048 0B       		.uleb128 0xb
 6713 0049 03       		.uleb128 0x3
 6714 004a 08       		.uleb128 0x8
 6715 004b 00       		.byte	0
 6716 004c 00       		.byte	0
 6717 004d 06       		.uleb128 0x6
 6718 004e 16       		.uleb128 0x16
 6719 004f 00       		.byte	0
 6720 0050 03       		.uleb128 0x3
 6721 0051 0E       		.uleb128 0xe
 6722 0052 3A       		.uleb128 0x3a
 6723 0053 0B       		.uleb128 0xb
 6724 0054 3B       		.uleb128 0x3b
 6725 0055 0B       		.uleb128 0xb
 6726 0056 49       		.uleb128 0x49
 6727 0057 13       		.uleb128 0x13
 6728 0058 00       		.byte	0
 6729 0059 00       		.byte	0
 6730 005a 07       		.uleb128 0x7
 6731 005b 24       		.uleb128 0x24
 6732 005c 00       		.byte	0
 6733 005d 0B       		.uleb128 0xb
 6734 005e 0B       		.uleb128 0xb
 6735 005f 3E       		.uleb128 0x3e
 6736 0060 0B       		.uleb128 0xb
 6737 0061 03       		.uleb128 0x3
 6738 0062 0E       		.uleb128 0xe
 6739 0063 00       		.byte	0
 6740 0064 00       		.byte	0
 6741 0065 08       		.uleb128 0x8
 6742 0066 35       		.uleb128 0x35
 6743 0067 00       		.byte	0
 6744 0068 49       		.uleb128 0x49
 6745 0069 13       		.uleb128 0x13
 6746 006a 00       		.byte	0
 6747 006b 00       		.byte	0
 6748 006c 09       		.uleb128 0x9
 6749 006d 0F       		.uleb128 0xf
 6750 006e 00       		.byte	0
 6751 006f 0B       		.uleb128 0xb
 6752 0070 0B       		.uleb128 0xb
 6753 0071 00       		.byte	0
 6754 0072 00       		.byte	0
 6755 0073 0A       		.uleb128 0xa
 6756 0074 0D       		.uleb128 0xd
 6757 0075 00       		.byte	0
 6758 0076 03       		.uleb128 0x3
 6759 0077 08       		.uleb128 0x8
 6760 0078 3A       		.uleb128 0x3a
 6761 0079 0B       		.uleb128 0xb
 6762 007a 3B       		.uleb128 0x3b
ARM GAS  /tmp/ccv0K2b2.s 			page 186


 6763 007b 05       		.uleb128 0x5
 6764 007c 49       		.uleb128 0x49
 6765 007d 13       		.uleb128 0x13
 6766 007e 38       		.uleb128 0x38
 6767 007f 0A       		.uleb128 0xa
 6768 0080 00       		.byte	0
 6769 0081 00       		.byte	0
 6770 0082 0B       		.uleb128 0xb
 6771 0083 0F       		.uleb128 0xf
 6772 0084 00       		.byte	0
 6773 0085 0B       		.uleb128 0xb
 6774 0086 0B       		.uleb128 0xb
 6775 0087 49       		.uleb128 0x49
 6776 0088 13       		.uleb128 0x13
 6777 0089 00       		.byte	0
 6778 008a 00       		.byte	0
 6779 008b 0C       		.uleb128 0xc
 6780 008c 13       		.uleb128 0x13
 6781 008d 01       		.byte	0x1
 6782 008e 0B       		.uleb128 0xb
 6783 008f 0B       		.uleb128 0xb
 6784 0090 3A       		.uleb128 0x3a
 6785 0091 0B       		.uleb128 0xb
 6786 0092 3B       		.uleb128 0x3b
 6787 0093 0B       		.uleb128 0xb
 6788 0094 01       		.uleb128 0x1
 6789 0095 13       		.uleb128 0x13
 6790 0096 00       		.byte	0
 6791 0097 00       		.byte	0
 6792 0098 0D       		.uleb128 0xd
 6793 0099 17       		.uleb128 0x17
 6794 009a 01       		.byte	0x1
 6795 009b 0B       		.uleb128 0xb
 6796 009c 0B       		.uleb128 0xb
 6797 009d 3A       		.uleb128 0x3a
 6798 009e 0B       		.uleb128 0xb
 6799 009f 3B       		.uleb128 0x3b
 6800 00a0 0B       		.uleb128 0xb
 6801 00a1 01       		.uleb128 0x1
 6802 00a2 13       		.uleb128 0x13
 6803 00a3 00       		.byte	0
 6804 00a4 00       		.byte	0
 6805 00a5 0E       		.uleb128 0xe
 6806 00a6 0D       		.uleb128 0xd
 6807 00a7 00       		.byte	0
 6808 00a8 03       		.uleb128 0x3
 6809 00a9 0E       		.uleb128 0xe
 6810 00aa 3A       		.uleb128 0x3a
 6811 00ab 0B       		.uleb128 0xb
 6812 00ac 3B       		.uleb128 0x3b
 6813 00ad 0B       		.uleb128 0xb
 6814 00ae 49       		.uleb128 0x49
 6815 00af 13       		.uleb128 0x13
 6816 00b0 00       		.byte	0
 6817 00b1 00       		.byte	0
 6818 00b2 0F       		.uleb128 0xf
 6819 00b3 26       		.uleb128 0x26
ARM GAS  /tmp/ccv0K2b2.s 			page 187


 6820 00b4 00       		.byte	0
 6821 00b5 49       		.uleb128 0x49
 6822 00b6 13       		.uleb128 0x13
 6823 00b7 00       		.byte	0
 6824 00b8 00       		.byte	0
 6825 00b9 10       		.uleb128 0x10
 6826 00ba 16       		.uleb128 0x16
 6827 00bb 00       		.byte	0
 6828 00bc 03       		.uleb128 0x3
 6829 00bd 0E       		.uleb128 0xe
 6830 00be 3A       		.uleb128 0x3a
 6831 00bf 0B       		.uleb128 0xb
 6832 00c0 3B       		.uleb128 0x3b
 6833 00c1 05       		.uleb128 0x5
 6834 00c2 49       		.uleb128 0x49
 6835 00c3 13       		.uleb128 0x13
 6836 00c4 00       		.byte	0
 6837 00c5 00       		.byte	0
 6838 00c6 11       		.uleb128 0x11
 6839 00c7 15       		.uleb128 0x15
 6840 00c8 01       		.byte	0x1
 6841 00c9 27       		.uleb128 0x27
 6842 00ca 0C       		.uleb128 0xc
 6843 00cb 01       		.uleb128 0x1
 6844 00cc 13       		.uleb128 0x13
 6845 00cd 00       		.byte	0
 6846 00ce 00       		.byte	0
 6847 00cf 12       		.uleb128 0x12
 6848 00d0 05       		.uleb128 0x5
 6849 00d1 00       		.byte	0
 6850 00d2 49       		.uleb128 0x49
 6851 00d3 13       		.uleb128 0x13
 6852 00d4 00       		.byte	0
 6853 00d5 00       		.byte	0
 6854 00d6 13       		.uleb128 0x13
 6855 00d7 13       		.uleb128 0x13
 6856 00d8 01       		.byte	0x1
 6857 00d9 03       		.uleb128 0x3
 6858 00da 0E       		.uleb128 0xe
 6859 00db 0B       		.uleb128 0xb
 6860 00dc 0B       		.uleb128 0xb
 6861 00dd 3A       		.uleb128 0x3a
 6862 00de 0B       		.uleb128 0xb
 6863 00df 3B       		.uleb128 0x3b
 6864 00e0 05       		.uleb128 0x5
 6865 00e1 01       		.uleb128 0x1
 6866 00e2 13       		.uleb128 0x13
 6867 00e3 00       		.byte	0
 6868 00e4 00       		.byte	0
 6869 00e5 14       		.uleb128 0x14
 6870 00e6 0D       		.uleb128 0xd
 6871 00e7 00       		.byte	0
 6872 00e8 03       		.uleb128 0x3
 6873 00e9 0E       		.uleb128 0xe
 6874 00ea 3A       		.uleb128 0x3a
 6875 00eb 0B       		.uleb128 0xb
 6876 00ec 3B       		.uleb128 0x3b
ARM GAS  /tmp/ccv0K2b2.s 			page 188


 6877 00ed 05       		.uleb128 0x5
 6878 00ee 49       		.uleb128 0x49
 6879 00ef 13       		.uleb128 0x13
 6880 00f0 38       		.uleb128 0x38
 6881 00f1 0A       		.uleb128 0xa
 6882 00f2 00       		.byte	0
 6883 00f3 00       		.byte	0
 6884 00f4 15       		.uleb128 0x15
 6885 00f5 13       		.uleb128 0x13
 6886 00f6 01       		.byte	0x1
 6887 00f7 0B       		.uleb128 0xb
 6888 00f8 0B       		.uleb128 0xb
 6889 00f9 3A       		.uleb128 0x3a
 6890 00fa 0B       		.uleb128 0xb
 6891 00fb 3B       		.uleb128 0x3b
 6892 00fc 05       		.uleb128 0x5
 6893 00fd 01       		.uleb128 0x1
 6894 00fe 13       		.uleb128 0x13
 6895 00ff 00       		.byte	0
 6896 0100 00       		.byte	0
 6897 0101 16       		.uleb128 0x16
 6898 0102 15       		.uleb128 0x15
 6899 0103 01       		.byte	0x1
 6900 0104 27       		.uleb128 0x27
 6901 0105 0C       		.uleb128 0xc
 6902 0106 49       		.uleb128 0x49
 6903 0107 13       		.uleb128 0x13
 6904 0108 01       		.uleb128 0x1
 6905 0109 13       		.uleb128 0x13
 6906 010a 00       		.byte	0
 6907 010b 00       		.byte	0
 6908 010c 17       		.uleb128 0x17
 6909 010d 15       		.uleb128 0x15
 6910 010e 00       		.byte	0
 6911 010f 27       		.uleb128 0x27
 6912 0110 0C       		.uleb128 0xc
 6913 0111 00       		.byte	0
 6914 0112 00       		.byte	0
 6915 0113 18       		.uleb128 0x18
 6916 0114 2E       		.uleb128 0x2e
 6917 0115 01       		.byte	0x1
 6918 0116 03       		.uleb128 0x3
 6919 0117 0E       		.uleb128 0xe
 6920 0118 3A       		.uleb128 0x3a
 6921 0119 0B       		.uleb128 0xb
 6922 011a 3B       		.uleb128 0x3b
 6923 011b 05       		.uleb128 0x5
 6924 011c 27       		.uleb128 0x27
 6925 011d 0C       		.uleb128 0xc
 6926 011e 20       		.uleb128 0x20
 6927 011f 0B       		.uleb128 0xb
 6928 0120 01       		.uleb128 0x1
 6929 0121 13       		.uleb128 0x13
 6930 0122 00       		.byte	0
 6931 0123 00       		.byte	0
 6932 0124 19       		.uleb128 0x19
 6933 0125 05       		.uleb128 0x5
ARM GAS  /tmp/ccv0K2b2.s 			page 189


 6934 0126 00       		.byte	0
 6935 0127 03       		.uleb128 0x3
 6936 0128 0E       		.uleb128 0xe
 6937 0129 3A       		.uleb128 0x3a
 6938 012a 0B       		.uleb128 0xb
 6939 012b 3B       		.uleb128 0x3b
 6940 012c 05       		.uleb128 0x5
 6941 012d 49       		.uleb128 0x49
 6942 012e 13       		.uleb128 0x13
 6943 012f 00       		.byte	0
 6944 0130 00       		.byte	0
 6945 0131 1A       		.uleb128 0x1a
 6946 0132 2E       		.uleb128 0x2e
 6947 0133 00       		.byte	0
 6948 0134 03       		.uleb128 0x3
 6949 0135 0E       		.uleb128 0xe
 6950 0136 3A       		.uleb128 0x3a
 6951 0137 0B       		.uleb128 0xb
 6952 0138 3B       		.uleb128 0x3b
 6953 0139 05       		.uleb128 0x5
 6954 013a 27       		.uleb128 0x27
 6955 013b 0C       		.uleb128 0xc
 6956 013c 20       		.uleb128 0x20
 6957 013d 0B       		.uleb128 0xb
 6958 013e 00       		.byte	0
 6959 013f 00       		.byte	0
 6960 0140 1B       		.uleb128 0x1b
 6961 0141 2E       		.uleb128 0x2e
 6962 0142 00       		.byte	0
 6963 0143 03       		.uleb128 0x3
 6964 0144 0E       		.uleb128 0xe
 6965 0145 3A       		.uleb128 0x3a
 6966 0146 0B       		.uleb128 0xb
 6967 0147 3B       		.uleb128 0x3b
 6968 0148 05       		.uleb128 0x5
 6969 0149 27       		.uleb128 0x27
 6970 014a 0C       		.uleb128 0xc
 6971 014b 49       		.uleb128 0x49
 6972 014c 13       		.uleb128 0x13
 6973 014d 20       		.uleb128 0x20
 6974 014e 0B       		.uleb128 0xb
 6975 014f 00       		.byte	0
 6976 0150 00       		.byte	0
 6977 0151 1C       		.uleb128 0x1c
 6978 0152 34       		.uleb128 0x34
 6979 0153 00       		.byte	0
 6980 0154 03       		.uleb128 0x3
 6981 0155 0E       		.uleb128 0xe
 6982 0156 49       		.uleb128 0x49
 6983 0157 13       		.uleb128 0x13
 6984 0158 34       		.uleb128 0x34
 6985 0159 0C       		.uleb128 0xc
 6986 015a 1C       		.uleb128 0x1c
 6987 015b 0E       		.uleb128 0xe
 6988 015c 00       		.byte	0
 6989 015d 00       		.byte	0
 6990 015e 1D       		.uleb128 0x1d
ARM GAS  /tmp/ccv0K2b2.s 			page 190


 6991 015f 01       		.uleb128 0x1
 6992 0160 01       		.byte	0x1
 6993 0161 49       		.uleb128 0x49
 6994 0162 13       		.uleb128 0x13
 6995 0163 01       		.uleb128 0x1
 6996 0164 13       		.uleb128 0x13
 6997 0165 00       		.byte	0
 6998 0166 00       		.byte	0
 6999 0167 1E       		.uleb128 0x1e
 7000 0168 21       		.uleb128 0x21
 7001 0169 00       		.byte	0
 7002 016a 49       		.uleb128 0x49
 7003 016b 13       		.uleb128 0x13
 7004 016c 2F       		.uleb128 0x2f
 7005 016d 0B       		.uleb128 0xb
 7006 016e 00       		.byte	0
 7007 016f 00       		.byte	0
 7008 0170 1F       		.uleb128 0x1f
 7009 0171 2E       		.uleb128 0x2e
 7010 0172 01       		.byte	0x1
 7011 0173 03       		.uleb128 0x3
 7012 0174 0E       		.uleb128 0xe
 7013 0175 3A       		.uleb128 0x3a
 7014 0176 0B       		.uleb128 0xb
 7015 0177 3B       		.uleb128 0x3b
 7016 0178 05       		.uleb128 0x5
 7017 0179 27       		.uleb128 0x27
 7018 017a 0C       		.uleb128 0xc
 7019 017b 49       		.uleb128 0x49
 7020 017c 13       		.uleb128 0x13
 7021 017d 20       		.uleb128 0x20
 7022 017e 0B       		.uleb128 0xb
 7023 017f 01       		.uleb128 0x1
 7024 0180 13       		.uleb128 0x13
 7025 0181 00       		.byte	0
 7026 0182 00       		.byte	0
 7027 0183 20       		.uleb128 0x20
 7028 0184 05       		.uleb128 0x5
 7029 0185 00       		.byte	0
 7030 0186 03       		.uleb128 0x3
 7031 0187 08       		.uleb128 0x8
 7032 0188 3A       		.uleb128 0x3a
 7033 0189 0B       		.uleb128 0xb
 7034 018a 3B       		.uleb128 0x3b
 7035 018b 05       		.uleb128 0x5
 7036 018c 49       		.uleb128 0x49
 7037 018d 13       		.uleb128 0x13
 7038 018e 00       		.byte	0
 7039 018f 00       		.byte	0
 7040 0190 21       		.uleb128 0x21
 7041 0191 2E       		.uleb128 0x2e
 7042 0192 01       		.byte	0x1
 7043 0193 03       		.uleb128 0x3
 7044 0194 0E       		.uleb128 0xe
 7045 0195 3A       		.uleb128 0x3a
 7046 0196 0B       		.uleb128 0xb
 7047 0197 3B       		.uleb128 0x3b
ARM GAS  /tmp/ccv0K2b2.s 			page 191


 7048 0198 05       		.uleb128 0x5
 7049 0199 27       		.uleb128 0x27
 7050 019a 0C       		.uleb128 0xc
 7051 019b 11       		.uleb128 0x11
 7052 019c 01       		.uleb128 0x1
 7053 019d 12       		.uleb128 0x12
 7054 019e 01       		.uleb128 0x1
 7055 019f 40       		.uleb128 0x40
 7056 01a0 06       		.uleb128 0x6
 7057 01a1 9742     		.uleb128 0x2117
 7058 01a3 0C       		.uleb128 0xc
 7059 01a4 01       		.uleb128 0x1
 7060 01a5 13       		.uleb128 0x13
 7061 01a6 00       		.byte	0
 7062 01a7 00       		.byte	0
 7063 01a8 22       		.uleb128 0x22
 7064 01a9 34       		.uleb128 0x34
 7065 01aa 00       		.byte	0
 7066 01ab 03       		.uleb128 0x3
 7067 01ac 0E       		.uleb128 0xe
 7068 01ad 3A       		.uleb128 0x3a
 7069 01ae 0B       		.uleb128 0xb
 7070 01af 3B       		.uleb128 0x3b
 7071 01b0 05       		.uleb128 0x5
 7072 01b1 49       		.uleb128 0x49
 7073 01b2 13       		.uleb128 0x13
 7074 01b3 02       		.uleb128 0x2
 7075 01b4 0A       		.uleb128 0xa
 7076 01b5 00       		.byte	0
 7077 01b6 00       		.byte	0
 7078 01b7 23       		.uleb128 0x23
 7079 01b8 1D       		.uleb128 0x1d
 7080 01b9 01       		.byte	0x1
 7081 01ba 31       		.uleb128 0x31
 7082 01bb 13       		.uleb128 0x13
 7083 01bc 52       		.uleb128 0x52
 7084 01bd 01       		.uleb128 0x1
 7085 01be 55       		.uleb128 0x55
 7086 01bf 06       		.uleb128 0x6
 7087 01c0 58       		.uleb128 0x58
 7088 01c1 0B       		.uleb128 0xb
 7089 01c2 59       		.uleb128 0x59
 7090 01c3 05       		.uleb128 0x5
 7091 01c4 01       		.uleb128 0x1
 7092 01c5 13       		.uleb128 0x13
 7093 01c6 00       		.byte	0
 7094 01c7 00       		.byte	0
 7095 01c8 24       		.uleb128 0x24
 7096 01c9 1D       		.uleb128 0x1d
 7097 01ca 00       		.byte	0
 7098 01cb 31       		.uleb128 0x31
 7099 01cc 13       		.uleb128 0x13
 7100 01cd 11       		.uleb128 0x11
 7101 01ce 01       		.uleb128 0x1
 7102 01cf 12       		.uleb128 0x12
 7103 01d0 01       		.uleb128 0x1
 7104 01d1 58       		.uleb128 0x58
ARM GAS  /tmp/ccv0K2b2.s 			page 192


 7105 01d2 0B       		.uleb128 0xb
 7106 01d3 59       		.uleb128 0x59
 7107 01d4 05       		.uleb128 0x5
 7108 01d5 00       		.byte	0
 7109 01d6 00       		.byte	0
 7110 01d7 25       		.uleb128 0x25
 7111 01d8 898201   		.uleb128 0x4109
 7112 01db 01       		.byte	0x1
 7113 01dc 11       		.uleb128 0x11
 7114 01dd 01       		.uleb128 0x1
 7115 01de 31       		.uleb128 0x31
 7116 01df 13       		.uleb128 0x13
 7117 01e0 01       		.uleb128 0x1
 7118 01e1 13       		.uleb128 0x13
 7119 01e2 00       		.byte	0
 7120 01e3 00       		.byte	0
 7121 01e4 26       		.uleb128 0x26
 7122 01e5 8A8201   		.uleb128 0x410a
 7123 01e8 00       		.byte	0
 7124 01e9 02       		.uleb128 0x2
 7125 01ea 0A       		.uleb128 0xa
 7126 01eb 9142     		.uleb128 0x2111
 7127 01ed 0A       		.uleb128 0xa
 7128 01ee 00       		.byte	0
 7129 01ef 00       		.byte	0
 7130 01f0 27       		.uleb128 0x27
 7131 01f1 898201   		.uleb128 0x4109
 7132 01f4 00       		.byte	0
 7133 01f5 11       		.uleb128 0x11
 7134 01f6 01       		.uleb128 0x1
 7135 01f7 31       		.uleb128 0x31
 7136 01f8 13       		.uleb128 0x13
 7137 01f9 00       		.byte	0
 7138 01fa 00       		.byte	0
 7139 01fb 28       		.uleb128 0x28
 7140 01fc 898201   		.uleb128 0x4109
 7141 01ff 01       		.byte	0x1
 7142 0200 11       		.uleb128 0x11
 7143 0201 01       		.uleb128 0x1
 7144 0202 9542     		.uleb128 0x2115
 7145 0204 0C       		.uleb128 0xc
 7146 0205 31       		.uleb128 0x31
 7147 0206 13       		.uleb128 0x13
 7148 0207 00       		.byte	0
 7149 0208 00       		.byte	0
 7150 0209 29       		.uleb128 0x29
 7151 020a 2E       		.uleb128 0x2e
 7152 020b 01       		.byte	0x1
 7153 020c 03       		.uleb128 0x3
 7154 020d 0E       		.uleb128 0xe
 7155 020e 3A       		.uleb128 0x3a
 7156 020f 0B       		.uleb128 0xb
 7157 0210 3B       		.uleb128 0x3b
 7158 0211 05       		.uleb128 0x5
 7159 0212 27       		.uleb128 0x27
 7160 0213 0C       		.uleb128 0xc
 7161 0214 49       		.uleb128 0x49
ARM GAS  /tmp/ccv0K2b2.s 			page 193


 7162 0215 13       		.uleb128 0x13
 7163 0216 11       		.uleb128 0x11
 7164 0217 01       		.uleb128 0x1
 7165 0218 12       		.uleb128 0x12
 7166 0219 01       		.uleb128 0x1
 7167 021a 40       		.uleb128 0x40
 7168 021b 06       		.uleb128 0x6
 7169 021c 9742     		.uleb128 0x2117
 7170 021e 0C       		.uleb128 0xc
 7171 021f 01       		.uleb128 0x1
 7172 0220 13       		.uleb128 0x13
 7173 0221 00       		.byte	0
 7174 0222 00       		.byte	0
 7175 0223 2A       		.uleb128 0x2a
 7176 0224 05       		.uleb128 0x5
 7177 0225 00       		.byte	0
 7178 0226 03       		.uleb128 0x3
 7179 0227 08       		.uleb128 0x8
 7180 0228 3A       		.uleb128 0x3a
 7181 0229 0B       		.uleb128 0xb
 7182 022a 3B       		.uleb128 0x3b
 7183 022b 05       		.uleb128 0x5
 7184 022c 49       		.uleb128 0x49
 7185 022d 13       		.uleb128 0x13
 7186 022e 02       		.uleb128 0x2
 7187 022f 06       		.uleb128 0x6
 7188 0230 00       		.byte	0
 7189 0231 00       		.byte	0
 7190 0232 2B       		.uleb128 0x2b
 7191 0233 898201   		.uleb128 0x4109
 7192 0236 01       		.byte	0x1
 7193 0237 11       		.uleb128 0x11
 7194 0238 01       		.uleb128 0x1
 7195 0239 31       		.uleb128 0x31
 7196 023a 13       		.uleb128 0x13
 7197 023b 00       		.byte	0
 7198 023c 00       		.byte	0
 7199 023d 2C       		.uleb128 0x2c
 7200 023e 2E       		.uleb128 0x2e
 7201 023f 01       		.byte	0x1
 7202 0240 03       		.uleb128 0x3
 7203 0241 0E       		.uleb128 0xe
 7204 0242 3A       		.uleb128 0x3a
 7205 0243 0B       		.uleb128 0xb
 7206 0244 3B       		.uleb128 0x3b
 7207 0245 0B       		.uleb128 0xb
 7208 0246 27       		.uleb128 0x27
 7209 0247 0C       		.uleb128 0xc
 7210 0248 49       		.uleb128 0x49
 7211 0249 13       		.uleb128 0x13
 7212 024a 11       		.uleb128 0x11
 7213 024b 01       		.uleb128 0x1
 7214 024c 12       		.uleb128 0x12
 7215 024d 01       		.uleb128 0x1
 7216 024e 40       		.uleb128 0x40
 7217 024f 06       		.uleb128 0x6
 7218 0250 9742     		.uleb128 0x2117
ARM GAS  /tmp/ccv0K2b2.s 			page 194


 7219 0252 0C       		.uleb128 0xc
 7220 0253 01       		.uleb128 0x1
 7221 0254 13       		.uleb128 0x13
 7222 0255 00       		.byte	0
 7223 0256 00       		.byte	0
 7224 0257 2D       		.uleb128 0x2d
 7225 0258 05       		.uleb128 0x5
 7226 0259 00       		.byte	0
 7227 025a 03       		.uleb128 0x3
 7228 025b 08       		.uleb128 0x8
 7229 025c 3A       		.uleb128 0x3a
 7230 025d 0B       		.uleb128 0xb
 7231 025e 3B       		.uleb128 0x3b
 7232 025f 0B       		.uleb128 0xb
 7233 0260 49       		.uleb128 0x49
 7234 0261 13       		.uleb128 0x13
 7235 0262 02       		.uleb128 0x2
 7236 0263 06       		.uleb128 0x6
 7237 0264 00       		.byte	0
 7238 0265 00       		.byte	0
 7239 0266 2E       		.uleb128 0x2e
 7240 0267 2E       		.uleb128 0x2e
 7241 0268 01       		.byte	0x1
 7242 0269 03       		.uleb128 0x3
 7243 026a 0E       		.uleb128 0xe
 7244 026b 3A       		.uleb128 0x3a
 7245 026c 0B       		.uleb128 0xb
 7246 026d 3B       		.uleb128 0x3b
 7247 026e 05       		.uleb128 0x5
 7248 026f 27       		.uleb128 0x27
 7249 0270 0C       		.uleb128 0xc
 7250 0271 11       		.uleb128 0x11
 7251 0272 01       		.uleb128 0x1
 7252 0273 12       		.uleb128 0x12
 7253 0274 01       		.uleb128 0x1
 7254 0275 40       		.uleb128 0x40
 7255 0276 0A       		.uleb128 0xa
 7256 0277 9742     		.uleb128 0x2117
 7257 0279 0C       		.uleb128 0xc
 7258 027a 01       		.uleb128 0x1
 7259 027b 13       		.uleb128 0x13
 7260 027c 00       		.byte	0
 7261 027d 00       		.byte	0
 7262 027e 2F       		.uleb128 0x2f
 7263 027f 2E       		.uleb128 0x2e
 7264 0280 01       		.byte	0x1
 7265 0281 03       		.uleb128 0x3
 7266 0282 0E       		.uleb128 0xe
 7267 0283 3A       		.uleb128 0x3a
 7268 0284 0B       		.uleb128 0xb
 7269 0285 3B       		.uleb128 0x3b
 7270 0286 0B       		.uleb128 0xb
 7271 0287 27       		.uleb128 0x27
 7272 0288 0C       		.uleb128 0xc
 7273 0289 11       		.uleb128 0x11
 7274 028a 01       		.uleb128 0x1
 7275 028b 12       		.uleb128 0x12
ARM GAS  /tmp/ccv0K2b2.s 			page 195


 7276 028c 01       		.uleb128 0x1
 7277 028d 40       		.uleb128 0x40
 7278 028e 0A       		.uleb128 0xa
 7279 028f 9742     		.uleb128 0x2117
 7280 0291 0C       		.uleb128 0xc
 7281 0292 01       		.uleb128 0x1
 7282 0293 13       		.uleb128 0x13
 7283 0294 00       		.byte	0
 7284 0295 00       		.byte	0
 7285 0296 30       		.uleb128 0x30
 7286 0297 1D       		.uleb128 0x1d
 7287 0298 01       		.byte	0x1
 7288 0299 31       		.uleb128 0x31
 7289 029a 13       		.uleb128 0x13
 7290 029b 11       		.uleb128 0x11
 7291 029c 01       		.uleb128 0x1
 7292 029d 12       		.uleb128 0x12
 7293 029e 01       		.uleb128 0x1
 7294 029f 58       		.uleb128 0x58
 7295 02a0 0B       		.uleb128 0xb
 7296 02a1 59       		.uleb128 0x59
 7297 02a2 05       		.uleb128 0x5
 7298 02a3 01       		.uleb128 0x1
 7299 02a4 13       		.uleb128 0x13
 7300 02a5 00       		.byte	0
 7301 02a6 00       		.byte	0
 7302 02a7 31       		.uleb128 0x31
 7303 02a8 1D       		.uleb128 0x1d
 7304 02a9 01       		.byte	0x1
 7305 02aa 31       		.uleb128 0x31
 7306 02ab 13       		.uleb128 0x13
 7307 02ac 11       		.uleb128 0x11
 7308 02ad 01       		.uleb128 0x1
 7309 02ae 12       		.uleb128 0x12
 7310 02af 01       		.uleb128 0x1
 7311 02b0 58       		.uleb128 0x58
 7312 02b1 0B       		.uleb128 0xb
 7313 02b2 59       		.uleb128 0x59
 7314 02b3 05       		.uleb128 0x5
 7315 02b4 00       		.byte	0
 7316 02b5 00       		.byte	0
 7317 02b6 32       		.uleb128 0x32
 7318 02b7 05       		.uleb128 0x5
 7319 02b8 00       		.byte	0
 7320 02b9 31       		.uleb128 0x31
 7321 02ba 13       		.uleb128 0x13
 7322 02bb 1C       		.uleb128 0x1c
 7323 02bc 0B       		.uleb128 0xb
 7324 02bd 00       		.byte	0
 7325 02be 00       		.byte	0
 7326 02bf 33       		.uleb128 0x33
 7327 02c0 0B       		.uleb128 0xb
 7328 02c1 01       		.byte	0x1
 7329 02c2 11       		.uleb128 0x11
 7330 02c3 01       		.uleb128 0x1
 7331 02c4 12       		.uleb128 0x12
 7332 02c5 01       		.uleb128 0x1
ARM GAS  /tmp/ccv0K2b2.s 			page 196


 7333 02c6 00       		.byte	0
 7334 02c7 00       		.byte	0
 7335 02c8 34       		.uleb128 0x34
 7336 02c9 34       		.uleb128 0x34
 7337 02ca 00       		.byte	0
 7338 02cb 31       		.uleb128 0x31
 7339 02cc 13       		.uleb128 0x13
 7340 02cd 00       		.byte	0
 7341 02ce 00       		.byte	0
 7342 02cf 35       		.uleb128 0x35
 7343 02d0 2E       		.uleb128 0x2e
 7344 02d1 01       		.byte	0x1
 7345 02d2 03       		.uleb128 0x3
 7346 02d3 0E       		.uleb128 0xe
 7347 02d4 3A       		.uleb128 0x3a
 7348 02d5 0B       		.uleb128 0xb
 7349 02d6 3B       		.uleb128 0x3b
 7350 02d7 0B       		.uleb128 0xb
 7351 02d8 27       		.uleb128 0x27
 7352 02d9 0C       		.uleb128 0xc
 7353 02da 11       		.uleb128 0x11
 7354 02db 01       		.uleb128 0x1
 7355 02dc 12       		.uleb128 0x12
 7356 02dd 01       		.uleb128 0x1
 7357 02de 40       		.uleb128 0x40
 7358 02df 06       		.uleb128 0x6
 7359 02e0 9742     		.uleb128 0x2117
 7360 02e2 0C       		.uleb128 0xc
 7361 02e3 01       		.uleb128 0x1
 7362 02e4 13       		.uleb128 0x13
 7363 02e5 00       		.byte	0
 7364 02e6 00       		.byte	0
 7365 02e7 36       		.uleb128 0x36
 7366 02e8 34       		.uleb128 0x34
 7367 02e9 00       		.byte	0
 7368 02ea 03       		.uleb128 0x3
 7369 02eb 0E       		.uleb128 0xe
 7370 02ec 3A       		.uleb128 0x3a
 7371 02ed 0B       		.uleb128 0xb
 7372 02ee 3B       		.uleb128 0x3b
 7373 02ef 0B       		.uleb128 0xb
 7374 02f0 49       		.uleb128 0x49
 7375 02f1 13       		.uleb128 0x13
 7376 02f2 02       		.uleb128 0x2
 7377 02f3 0A       		.uleb128 0xa
 7378 02f4 00       		.byte	0
 7379 02f5 00       		.byte	0
 7380 02f6 37       		.uleb128 0x37
 7381 02f7 1D       		.uleb128 0x1d
 7382 02f8 01       		.byte	0x1
 7383 02f9 31       		.uleb128 0x31
 7384 02fa 13       		.uleb128 0x13
 7385 02fb 52       		.uleb128 0x52
 7386 02fc 01       		.uleb128 0x1
 7387 02fd 55       		.uleb128 0x55
 7388 02fe 06       		.uleb128 0x6
 7389 02ff 58       		.uleb128 0x58
ARM GAS  /tmp/ccv0K2b2.s 			page 197


 7390 0300 0B       		.uleb128 0xb
 7391 0301 59       		.uleb128 0x59
 7392 0302 0B       		.uleb128 0xb
 7393 0303 01       		.uleb128 0x1
 7394 0304 13       		.uleb128 0x13
 7395 0305 00       		.byte	0
 7396 0306 00       		.byte	0
 7397 0307 38       		.uleb128 0x38
 7398 0308 1D       		.uleb128 0x1d
 7399 0309 00       		.byte	0
 7400 030a 31       		.uleb128 0x31
 7401 030b 13       		.uleb128 0x13
 7402 030c 11       		.uleb128 0x11
 7403 030d 01       		.uleb128 0x1
 7404 030e 12       		.uleb128 0x12
 7405 030f 01       		.uleb128 0x1
 7406 0310 58       		.uleb128 0x58
 7407 0311 0B       		.uleb128 0xb
 7408 0312 59       		.uleb128 0x59
 7409 0313 0B       		.uleb128 0xb
 7410 0314 00       		.byte	0
 7411 0315 00       		.byte	0
 7412 0316 39       		.uleb128 0x39
 7413 0317 34       		.uleb128 0x34
 7414 0318 00       		.byte	0
 7415 0319 03       		.uleb128 0x3
 7416 031a 08       		.uleb128 0x8
 7417 031b 3A       		.uleb128 0x3a
 7418 031c 0B       		.uleb128 0xb
 7419 031d 3B       		.uleb128 0x3b
 7420 031e 05       		.uleb128 0x5
 7421 031f 49       		.uleb128 0x49
 7422 0320 13       		.uleb128 0x13
 7423 0321 02       		.uleb128 0x2
 7424 0322 06       		.uleb128 0x6
 7425 0323 00       		.byte	0
 7426 0324 00       		.byte	0
 7427 0325 3A       		.uleb128 0x3a
 7428 0326 05       		.uleb128 0x5
 7429 0327 00       		.byte	0
 7430 0328 31       		.uleb128 0x31
 7431 0329 13       		.uleb128 0x13
 7432 032a 02       		.uleb128 0x2
 7433 032b 0A       		.uleb128 0xa
 7434 032c 00       		.byte	0
 7435 032d 00       		.byte	0
 7436 032e 3B       		.uleb128 0x3b
 7437 032f 34       		.uleb128 0x34
 7438 0330 00       		.byte	0
 7439 0331 03       		.uleb128 0x3
 7440 0332 08       		.uleb128 0x8
 7441 0333 3A       		.uleb128 0x3a
 7442 0334 0B       		.uleb128 0xb
 7443 0335 3B       		.uleb128 0x3b
 7444 0336 05       		.uleb128 0x5
 7445 0337 49       		.uleb128 0x49
 7446 0338 13       		.uleb128 0x13
ARM GAS  /tmp/ccv0K2b2.s 			page 198


 7447 0339 02       		.uleb128 0x2
 7448 033a 0A       		.uleb128 0xa
 7449 033b 00       		.byte	0
 7450 033c 00       		.byte	0
 7451 033d 3C       		.uleb128 0x3c
 7452 033e 898201   		.uleb128 0x4109
 7453 0341 00       		.byte	0
 7454 0342 11       		.uleb128 0x11
 7455 0343 01       		.uleb128 0x1
 7456 0344 9542     		.uleb128 0x2115
 7457 0346 0C       		.uleb128 0xc
 7458 0347 31       		.uleb128 0x31
 7459 0348 13       		.uleb128 0x13
 7460 0349 00       		.byte	0
 7461 034a 00       		.byte	0
 7462 034b 3D       		.uleb128 0x3d
 7463 034c 34       		.uleb128 0x34
 7464 034d 00       		.byte	0
 7465 034e 03       		.uleb128 0x3
 7466 034f 08       		.uleb128 0x8
 7467 0350 3A       		.uleb128 0x3a
 7468 0351 0B       		.uleb128 0xb
 7469 0352 3B       		.uleb128 0x3b
 7470 0353 0B       		.uleb128 0xb
 7471 0354 49       		.uleb128 0x49
 7472 0355 13       		.uleb128 0x13
 7473 0356 02       		.uleb128 0x2
 7474 0357 0A       		.uleb128 0xa
 7475 0358 00       		.byte	0
 7476 0359 00       		.byte	0
 7477 035a 3E       		.uleb128 0x3e
 7478 035b 34       		.uleb128 0x34
 7479 035c 00       		.byte	0
 7480 035d 03       		.uleb128 0x3
 7481 035e 0E       		.uleb128 0xe
 7482 035f 3A       		.uleb128 0x3a
 7483 0360 0B       		.uleb128 0xb
 7484 0361 3B       		.uleb128 0x3b
 7485 0362 05       		.uleb128 0x5
 7486 0363 49       		.uleb128 0x49
 7487 0364 13       		.uleb128 0x13
 7488 0365 3F       		.uleb128 0x3f
 7489 0366 0C       		.uleb128 0xc
 7490 0367 3C       		.uleb128 0x3c
 7491 0368 0C       		.uleb128 0xc
 7492 0369 00       		.byte	0
 7493 036a 00       		.byte	0
 7494 036b 3F       		.uleb128 0x3f
 7495 036c 34       		.uleb128 0x34
 7496 036d 00       		.byte	0
 7497 036e 03       		.uleb128 0x3
 7498 036f 08       		.uleb128 0x8
 7499 0370 3A       		.uleb128 0x3a
 7500 0371 0B       		.uleb128 0xb
 7501 0372 3B       		.uleb128 0x3b
 7502 0373 05       		.uleb128 0x5
 7503 0374 49       		.uleb128 0x49
ARM GAS  /tmp/ccv0K2b2.s 			page 199


 7504 0375 13       		.uleb128 0x13
 7505 0376 3F       		.uleb128 0x3f
 7506 0377 0C       		.uleb128 0xc
 7507 0378 3C       		.uleb128 0x3c
 7508 0379 0C       		.uleb128 0xc
 7509 037a 00       		.byte	0
 7510 037b 00       		.byte	0
 7511 037c 40       		.uleb128 0x40
 7512 037d 34       		.uleb128 0x34
 7513 037e 00       		.byte	0
 7514 037f 03       		.uleb128 0x3
 7515 0380 0E       		.uleb128 0xe
 7516 0381 3A       		.uleb128 0x3a
 7517 0382 0B       		.uleb128 0xb
 7518 0383 3B       		.uleb128 0x3b
 7519 0384 0B       		.uleb128 0xb
 7520 0385 49       		.uleb128 0x49
 7521 0386 13       		.uleb128 0x13
 7522 0387 3F       		.uleb128 0x3f
 7523 0388 0C       		.uleb128 0xc
 7524 0389 3C       		.uleb128 0x3c
 7525 038a 0C       		.uleb128 0xc
 7526 038b 00       		.byte	0
 7527 038c 00       		.byte	0
 7528 038d 41       		.uleb128 0x41
 7529 038e 21       		.uleb128 0x21
 7530 038f 00       		.byte	0
 7531 0390 00       		.byte	0
 7532 0391 00       		.byte	0
 7533 0392 42       		.uleb128 0x42
 7534 0393 34       		.uleb128 0x34
 7535 0394 00       		.byte	0
 7536 0395 03       		.uleb128 0x3
 7537 0396 08       		.uleb128 0x8
 7538 0397 3A       		.uleb128 0x3a
 7539 0398 0B       		.uleb128 0xb
 7540 0399 3B       		.uleb128 0x3b
 7541 039a 0B       		.uleb128 0xb
 7542 039b 49       		.uleb128 0x49
 7543 039c 13       		.uleb128 0x13
 7544 039d 3F       		.uleb128 0x3f
 7545 039e 0C       		.uleb128 0xc
 7546 039f 3C       		.uleb128 0x3c
 7547 03a0 0C       		.uleb128 0xc
 7548 03a1 00       		.byte	0
 7549 03a2 00       		.byte	0
 7550 03a3 43       		.uleb128 0x43
 7551 03a4 34       		.uleb128 0x34
 7552 03a5 00       		.byte	0
 7553 03a6 03       		.uleb128 0x3
 7554 03a7 0E       		.uleb128 0xe
 7555 03a8 3A       		.uleb128 0x3a
 7556 03a9 0B       		.uleb128 0xb
 7557 03aa 3B       		.uleb128 0x3b
 7558 03ab 0B       		.uleb128 0xb
 7559 03ac 49       		.uleb128 0x49
 7560 03ad 13       		.uleb128 0x13
ARM GAS  /tmp/ccv0K2b2.s 			page 200


 7561 03ae 3F       		.uleb128 0x3f
 7562 03af 0C       		.uleb128 0xc
 7563 03b0 02       		.uleb128 0x2
 7564 03b1 0A       		.uleb128 0xa
 7565 03b2 00       		.byte	0
 7566 03b3 00       		.byte	0
 7567 03b4 44       		.uleb128 0x44
 7568 03b5 34       		.uleb128 0x34
 7569 03b6 00       		.byte	0
 7570 03b7 03       		.uleb128 0x3
 7571 03b8 0E       		.uleb128 0xe
 7572 03b9 3A       		.uleb128 0x3a
 7573 03ba 0B       		.uleb128 0xb
 7574 03bb 3B       		.uleb128 0x3b
 7575 03bc 05       		.uleb128 0x5
 7576 03bd 49       		.uleb128 0x49
 7577 03be 13       		.uleb128 0x13
 7578 03bf 3F       		.uleb128 0x3f
 7579 03c0 0C       		.uleb128 0xc
 7580 03c1 02       		.uleb128 0x2
 7581 03c2 0A       		.uleb128 0xa
 7582 03c3 00       		.byte	0
 7583 03c4 00       		.byte	0
 7584 03c5 45       		.uleb128 0x45
 7585 03c6 2E       		.uleb128 0x2e
 7586 03c7 01       		.byte	0x1
 7587 03c8 3F       		.uleb128 0x3f
 7588 03c9 0C       		.uleb128 0xc
 7589 03ca 03       		.uleb128 0x3
 7590 03cb 0E       		.uleb128 0xe
 7591 03cc 3A       		.uleb128 0x3a
 7592 03cd 0B       		.uleb128 0xb
 7593 03ce 3B       		.uleb128 0x3b
 7594 03cf 0B       		.uleb128 0xb
 7595 03d0 27       		.uleb128 0x27
 7596 03d1 0C       		.uleb128 0xc
 7597 03d2 49       		.uleb128 0x49
 7598 03d3 13       		.uleb128 0x13
 7599 03d4 3C       		.uleb128 0x3c
 7600 03d5 0C       		.uleb128 0xc
 7601 03d6 01       		.uleb128 0x1
 7602 03d7 13       		.uleb128 0x13
 7603 03d8 00       		.byte	0
 7604 03d9 00       		.byte	0
 7605 03da 46       		.uleb128 0x46
 7606 03db 2E       		.uleb128 0x2e
 7607 03dc 01       		.byte	0x1
 7608 03dd 3F       		.uleb128 0x3f
 7609 03de 0C       		.uleb128 0xc
 7610 03df 03       		.uleb128 0x3
 7611 03e0 0E       		.uleb128 0xe
 7612 03e1 3A       		.uleb128 0x3a
 7613 03e2 0B       		.uleb128 0xb
 7614 03e3 3B       		.uleb128 0x3b
 7615 03e4 0B       		.uleb128 0xb
 7616 03e5 27       		.uleb128 0x27
 7617 03e6 0C       		.uleb128 0xc
ARM GAS  /tmp/ccv0K2b2.s 			page 201


 7618 03e7 3C       		.uleb128 0x3c
 7619 03e8 0C       		.uleb128 0xc
 7620 03e9 01       		.uleb128 0x1
 7621 03ea 13       		.uleb128 0x13
 7622 03eb 00       		.byte	0
 7623 03ec 00       		.byte	0
 7624 03ed 47       		.uleb128 0x47
 7625 03ee 2E       		.uleb128 0x2e
 7626 03ef 00       		.byte	0
 7627 03f0 3F       		.uleb128 0x3f
 7628 03f1 0C       		.uleb128 0xc
 7629 03f2 03       		.uleb128 0x3
 7630 03f3 0E       		.uleb128 0xe
 7631 03f4 3A       		.uleb128 0x3a
 7632 03f5 0B       		.uleb128 0xb
 7633 03f6 3B       		.uleb128 0x3b
 7634 03f7 0B       		.uleb128 0xb
 7635 03f8 27       		.uleb128 0x27
 7636 03f9 0C       		.uleb128 0xc
 7637 03fa 3C       		.uleb128 0x3c
 7638 03fb 0C       		.uleb128 0xc
 7639 03fc 00       		.byte	0
 7640 03fd 00       		.byte	0
 7641 03fe 48       		.uleb128 0x48
 7642 03ff 2E       		.uleb128 0x2e
 7643 0400 00       		.byte	0
 7644 0401 3F       		.uleb128 0x3f
 7645 0402 0C       		.uleb128 0xc
 7646 0403 03       		.uleb128 0x3
 7647 0404 0E       		.uleb128 0xe
 7648 0405 3A       		.uleb128 0x3a
 7649 0406 0B       		.uleb128 0xb
 7650 0407 3B       		.uleb128 0x3b
 7651 0408 05       		.uleb128 0x5
 7652 0409 27       		.uleb128 0x27
 7653 040a 0C       		.uleb128 0xc
 7654 040b 3C       		.uleb128 0x3c
 7655 040c 0C       		.uleb128 0xc
 7656 040d 00       		.byte	0
 7657 040e 00       		.byte	0
 7658 040f 49       		.uleb128 0x49
 7659 0410 2E       		.uleb128 0x2e
 7660 0411 01       		.byte	0x1
 7661 0412 3F       		.uleb128 0x3f
 7662 0413 0C       		.uleb128 0xc
 7663 0414 03       		.uleb128 0x3
 7664 0415 0E       		.uleb128 0xe
 7665 0416 3A       		.uleb128 0x3a
 7666 0417 0B       		.uleb128 0xb
 7667 0418 3B       		.uleb128 0x3b
 7668 0419 0B       		.uleb128 0xb
 7669 041a 27       		.uleb128 0x27
 7670 041b 0C       		.uleb128 0xc
 7671 041c 3C       		.uleb128 0x3c
 7672 041d 0C       		.uleb128 0xc
 7673 041e 00       		.byte	0
 7674 041f 00       		.byte	0
ARM GAS  /tmp/ccv0K2b2.s 			page 202


 7675 0420 00       		.byte	0
 7676              		.section	.debug_loc,"",%progbits
 7677              	.Ldebug_loc0:
 7678              	.LLST0:
 7679 0000 00000000 		.4byte	.LFB182
 7680 0004 02000000 		.4byte	.LCFI0
 7681 0008 0200     		.2byte	0x2
 7682 000a 7D       		.byte	0x7d
 7683 000b 00       		.sleb128 0
 7684 000c 02000000 		.4byte	.LCFI0
 7685 0010 18000000 		.4byte	.LCFI1
 7686 0014 0200     		.2byte	0x2
 7687 0016 7D       		.byte	0x7d
 7688 0017 14       		.sleb128 20
 7689 0018 18000000 		.4byte	.LCFI1
 7690 001c B0000000 		.4byte	.LFE182
 7691 0020 0200     		.2byte	0x2
 7692 0022 7D       		.byte	0x7d
 7693 0023 20       		.sleb128 32
 7694 0024 00000000 		.4byte	0
 7695 0028 00000000 		.4byte	0
 7696              	.LLST1:
 7697 002c 00000000 		.4byte	.LFB181
 7698 0030 02000000 		.4byte	.LCFI2
 7699 0034 0200     		.2byte	0x2
 7700 0036 7D       		.byte	0x7d
 7701 0037 00       		.sleb128 0
 7702 0038 02000000 		.4byte	.LCFI2
 7703 003c 22000000 		.4byte	.LFE181
 7704 0040 0200     		.2byte	0x2
 7705 0042 7D       		.byte	0x7d
 7706 0043 10       		.sleb128 16
 7707 0044 00000000 		.4byte	0
 7708 0048 00000000 		.4byte	0
 7709              	.LLST2:
 7710 004c 00000000 		.4byte	.LVL7
 7711 0050 0E000000 		.4byte	.LVL8
 7712 0054 0100     		.2byte	0x1
 7713 0056 50       		.byte	0x50
 7714 0057 0E000000 		.4byte	.LVL8
 7715 005b 22000000 		.4byte	.LFE181
 7716 005f 0100     		.2byte	0x1
 7717 0061 55       		.byte	0x55
 7718 0062 00000000 		.4byte	0
 7719 0066 00000000 		.4byte	0
 7720              	.LLST3:
 7721 006a 00000000 		.4byte	.LFB166
 7722 006e 02000000 		.4byte	.LCFI3
 7723 0072 0200     		.2byte	0x2
 7724 0074 7D       		.byte	0x7d
 7725 0075 00       		.sleb128 0
 7726 0076 02000000 		.4byte	.LCFI3
 7727 007a 22000000 		.4byte	.LFE166
 7728 007e 0200     		.2byte	0x2
 7729 0080 7D       		.byte	0x7d
 7730 0081 10       		.sleb128 16
 7731 0082 00000000 		.4byte	0
ARM GAS  /tmp/ccv0K2b2.s 			page 203


 7732 0086 00000000 		.4byte	0
 7733              	.LLST4:
 7734 008a 00000000 		.4byte	.LVL12
 7735 008e 0E000000 		.4byte	.LVL13
 7736 0092 0100     		.2byte	0x1
 7737 0094 50       		.byte	0x50
 7738 0095 0E000000 		.4byte	.LVL13
 7739 0099 22000000 		.4byte	.LFE166
 7740 009d 0100     		.2byte	0x1
 7741 009f 55       		.byte	0x55
 7742 00a0 00000000 		.4byte	0
 7743 00a4 00000000 		.4byte	0
 7744              	.LLST5:
 7745 00a8 00000000 		.4byte	.LFB175
 7746 00ac 02000000 		.4byte	.LCFI4
 7747 00b0 0200     		.2byte	0x2
 7748 00b2 7D       		.byte	0x7d
 7749 00b3 00       		.sleb128 0
 7750 00b4 02000000 		.4byte	.LCFI4
 7751 00b8 2E000000 		.4byte	.LFE175
 7752 00bc 0200     		.2byte	0x2
 7753 00be 7D       		.byte	0x7d
 7754 00bf 10       		.sleb128 16
 7755 00c0 00000000 		.4byte	0
 7756 00c4 00000000 		.4byte	0
 7757              	.LLST6:
 7758 00c8 00000000 		.4byte	.LVL17
 7759 00cc 0E000000 		.4byte	.LVL18
 7760 00d0 0100     		.2byte	0x1
 7761 00d2 50       		.byte	0x50
 7762 00d3 0E000000 		.4byte	.LVL18
 7763 00d7 2E000000 		.4byte	.LFE175
 7764 00db 0100     		.2byte	0x1
 7765 00dd 55       		.byte	0x55
 7766 00de 00000000 		.4byte	0
 7767 00e2 00000000 		.4byte	0
 7768              	.LLST7:
 7769 00e6 00000000 		.4byte	.LFB180
 7770 00ea 02000000 		.4byte	.LCFI5
 7771 00ee 0200     		.2byte	0x2
 7772 00f0 7D       		.byte	0x7d
 7773 00f1 00       		.sleb128 0
 7774 00f2 02000000 		.4byte	.LCFI5
 7775 00f6 46000000 		.4byte	.LFE180
 7776 00fa 0200     		.2byte	0x2
 7777 00fc 7D       		.byte	0x7d
 7778 00fd 10       		.sleb128 16
 7779 00fe 00000000 		.4byte	0
 7780 0102 00000000 		.4byte	0
 7781              	.LLST8:
 7782 0106 00000000 		.4byte	.LVL23
 7783 010a 16000000 		.4byte	.LVL24
 7784 010e 0100     		.2byte	0x1
 7785 0110 50       		.byte	0x50
 7786 0111 16000000 		.4byte	.LVL24
 7787 0115 46000000 		.4byte	.LFE180
 7788 0119 0100     		.2byte	0x1
ARM GAS  /tmp/ccv0K2b2.s 			page 204


 7789 011b 56       		.byte	0x56
 7790 011c 00000000 		.4byte	0
 7791 0120 00000000 		.4byte	0
 7792              	.LLST9:
 7793 0124 00000000 		.4byte	.LFB179
 7794 0128 06000000 		.4byte	.LCFI6
 7795 012c 0200     		.2byte	0x2
 7796 012e 7D       		.byte	0x7d
 7797 012f 00       		.sleb128 0
 7798 0130 06000000 		.4byte	.LCFI6
 7799 0134 2A000000 		.4byte	.LFE179
 7800 0138 0200     		.2byte	0x2
 7801 013a 7D       		.byte	0x7d
 7802 013b 08       		.sleb128 8
 7803 013c 00000000 		.4byte	0
 7804 0140 00000000 		.4byte	0
 7805              	.LLST10:
 7806 0144 00000000 		.4byte	.LFB177
 7807 0148 06000000 		.4byte	.LCFI7
 7808 014c 0200     		.2byte	0x2
 7809 014e 7D       		.byte	0x7d
 7810 014f 00       		.sleb128 0
 7811 0150 06000000 		.4byte	.LCFI7
 7812 0154 1E000000 		.4byte	.LFE177
 7813 0158 0200     		.2byte	0x2
 7814 015a 7D       		.byte	0x7d
 7815 015b 08       		.sleb128 8
 7816 015c 00000000 		.4byte	0
 7817 0160 00000000 		.4byte	0
 7818              	.LLST11:
 7819 0164 00000000 		.4byte	.LFB174
 7820 0168 06000000 		.4byte	.LCFI8
 7821 016c 0200     		.2byte	0x2
 7822 016e 7D       		.byte	0x7d
 7823 016f 00       		.sleb128 0
 7824 0170 06000000 		.4byte	.LCFI8
 7825 0174 1E000000 		.4byte	.LFE174
 7826 0178 0200     		.2byte	0x2
 7827 017a 7D       		.byte	0x7d
 7828 017b 08       		.sleb128 8
 7829 017c 00000000 		.4byte	0
 7830 0180 00000000 		.4byte	0
 7831              	.LLST12:
 7832 0184 00000000 		.4byte	.LFB168
 7833 0188 06000000 		.4byte	.LCFI9
 7834 018c 0200     		.2byte	0x2
 7835 018e 7D       		.byte	0x7d
 7836 018f 00       		.sleb128 0
 7837 0190 06000000 		.4byte	.LCFI9
 7838 0194 1E000000 		.4byte	.LFE168
 7839 0198 0200     		.2byte	0x2
 7840 019a 7D       		.byte	0x7d
 7841 019b 08       		.sleb128 8
 7842 019c 00000000 		.4byte	0
 7843 01a0 00000000 		.4byte	0
 7844              	.LLST13:
 7845 01a4 00000000 		.4byte	.LFB178
ARM GAS  /tmp/ccv0K2b2.s 			page 205


 7846 01a8 02000000 		.4byte	.LCFI10
 7847 01ac 0200     		.2byte	0x2
 7848 01ae 7D       		.byte	0x7d
 7849 01af 00       		.sleb128 0
 7850 01b0 02000000 		.4byte	.LCFI10
 7851 01b4 1C000000 		.4byte	.LCFI11
 7852 01b8 0200     		.2byte	0x2
 7853 01ba 7D       		.byte	0x7d
 7854 01bb 14       		.sleb128 20
 7855 01bc 1C000000 		.4byte	.LCFI11
 7856 01c0 D0000000 		.4byte	.LFE178
 7857 01c4 0200     		.2byte	0x2
 7858 01c6 7D       		.byte	0x7d
 7859 01c7 20       		.sleb128 32
 7860 01c8 00000000 		.4byte	0
 7861 01cc 00000000 		.4byte	0
 7862              	.LLST14:
 7863 01d0 00000000 		.4byte	.LFB176
 7864 01d4 02000000 		.4byte	.LCFI12
 7865 01d8 0200     		.2byte	0x2
 7866 01da 7D       		.byte	0x7d
 7867 01db 00       		.sleb128 0
 7868 01dc 02000000 		.4byte	.LCFI12
 7869 01e0 1C000000 		.4byte	.LCFI13
 7870 01e4 0200     		.2byte	0x2
 7871 01e6 7D       		.byte	0x7d
 7872 01e7 14       		.sleb128 20
 7873 01e8 1C000000 		.4byte	.LCFI13
 7874 01ec 00010000 		.4byte	.LFE176
 7875 01f0 0200     		.2byte	0x2
 7876 01f2 7D       		.byte	0x7d
 7877 01f3 20       		.sleb128 32
 7878 01f4 00000000 		.4byte	0
 7879 01f8 00000000 		.4byte	0
 7880              	.LLST15:
 7881 01fc 00000000 		.4byte	.LFB167
 7882 0200 02000000 		.4byte	.LCFI14
 7883 0204 0200     		.2byte	0x2
 7884 0206 7D       		.byte	0x7d
 7885 0207 00       		.sleb128 0
 7886 0208 02000000 		.4byte	.LCFI14
 7887 020c 0E000000 		.4byte	.LCFI15
 7888 0210 0200     		.2byte	0x2
 7889 0212 7D       		.byte	0x7d
 7890 0213 14       		.sleb128 20
 7891 0214 0E000000 		.4byte	.LCFI15
 7892 0218 E0000000 		.4byte	.LFE167
 7893 021c 0200     		.2byte	0x2
 7894 021e 7D       		.byte	0x7d
 7895 021f 28       		.sleb128 40
 7896 0220 00000000 		.4byte	0
 7897 0224 00000000 		.4byte	0
 7898              	.LLST16:
 7899 0228 00000000 		.4byte	.LFB173
 7900 022c 02000000 		.4byte	.LCFI16
 7901 0230 0200     		.2byte	0x2
 7902 0232 7D       		.byte	0x7d
ARM GAS  /tmp/ccv0K2b2.s 			page 206


 7903 0233 00       		.sleb128 0
 7904 0234 02000000 		.4byte	.LCFI16
 7905 0238 C4000000 		.4byte	.LFE173
 7906 023c 0200     		.2byte	0x2
 7907 023e 7D       		.byte	0x7d
 7908 023f 18       		.sleb128 24
 7909 0240 00000000 		.4byte	0
 7910 0244 00000000 		.4byte	0
 7911              	.LLST17:
 7912 0248 10000000 		.4byte	.LVL74
 7913 024c 14000000 		.4byte	.LVL75
 7914 0250 0100     		.2byte	0x1
 7915 0252 50       		.byte	0x50
 7916 0253 14000000 		.4byte	.LVL75
 7917 0257 17000000 		.4byte	.LVL76-1
 7918 025b 0100     		.2byte	0x1
 7919 025d 51       		.byte	0x51
 7920 025e 22000000 		.4byte	.LVL77
 7921 0262 2A000000 		.4byte	.LVL78
 7922 0266 0100     		.2byte	0x1
 7923 0268 50       		.byte	0x50
 7924 0269 00000000 		.4byte	0
 7925 026d 00000000 		.4byte	0
 7926              	.LLST18:
 7927 0271 00000000 		.4byte	.LFB171
 7928 0275 04000000 		.4byte	.LCFI17
 7929 0279 0200     		.2byte	0x2
 7930 027b 7D       		.byte	0x7d
 7931 027c 00       		.sleb128 0
 7932 027d 04000000 		.4byte	.LCFI17
 7933 0281 10000000 		.4byte	.LCFI18
 7934 0285 0200     		.2byte	0x2
 7935 0287 7D       		.byte	0x7d
 7936 0288 1C       		.sleb128 28
 7937 0289 10000000 		.4byte	.LCFI18
 7938 028d 70020000 		.4byte	.LFE171
 7939 0291 0200     		.2byte	0x2
 7940 0293 7D       		.byte	0x7d
 7941 0294 30       		.sleb128 48
 7942 0295 00000000 		.4byte	0
 7943 0299 00000000 		.4byte	0
 7944              	.LLST19:
 7945 029d 00000000 		.4byte	.LFB170
 7946 02a1 02000000 		.4byte	.LCFI19
 7947 02a5 0200     		.2byte	0x2
 7948 02a7 7D       		.byte	0x7d
 7949 02a8 00       		.sleb128 0
 7950 02a9 02000000 		.4byte	.LCFI19
 7951 02ad 22000000 		.4byte	.LFE170
 7952 02b1 0200     		.2byte	0x2
 7953 02b3 7D       		.byte	0x7d
 7954 02b4 08       		.sleb128 8
 7955 02b5 00000000 		.4byte	0
 7956 02b9 00000000 		.4byte	0
 7957              	.LLST20:
 7958 02bd 00000000 		.4byte	.LVL128
 7959 02c1 0E000000 		.4byte	.LVL129
ARM GAS  /tmp/ccv0K2b2.s 			page 207


 7960 02c5 0100     		.2byte	0x1
 7961 02c7 50       		.byte	0x50
 7962 02c8 0E000000 		.4byte	.LVL129
 7963 02cc 22000000 		.4byte	.LFE170
 7964 02d0 0400     		.2byte	0x4
 7965 02d2 F3       		.byte	0xf3
 7966 02d3 01       		.uleb128 0x1
 7967 02d4 50       		.byte	0x50
 7968 02d5 9F       		.byte	0x9f
 7969 02d6 00000000 		.4byte	0
 7970 02da 00000000 		.4byte	0
 7971              	.LLST21:
 7972 02de 00000000 		.4byte	.LFB169
 7973 02e2 02000000 		.4byte	.LCFI20
 7974 02e6 0200     		.2byte	0x2
 7975 02e8 7D       		.byte	0x7d
 7976 02e9 00       		.sleb128 0
 7977 02ea 02000000 		.4byte	.LCFI20
 7978 02ee 22000000 		.4byte	.LFE169
 7979 02f2 0200     		.2byte	0x2
 7980 02f4 7D       		.byte	0x7d
 7981 02f5 08       		.sleb128 8
 7982 02f6 00000000 		.4byte	0
 7983 02fa 00000000 		.4byte	0
 7984              	.LLST22:
 7985 02fe 00000000 		.4byte	.LVL133
 7986 0302 0E000000 		.4byte	.LVL134
 7987 0306 0100     		.2byte	0x1
 7988 0308 50       		.byte	0x50
 7989 0309 0E000000 		.4byte	.LVL134
 7990 030d 22000000 		.4byte	.LFE169
 7991 0311 0400     		.2byte	0x4
 7992 0313 F3       		.byte	0xf3
 7993 0314 01       		.uleb128 0x1
 7994 0315 50       		.byte	0x50
 7995 0316 9F       		.byte	0x9f
 7996 0317 00000000 		.4byte	0
 7997 031b 00000000 		.4byte	0
 7998              		.section	.debug_aranges,"",%progbits
 7999 0000 A4000000 		.4byte	0xa4
 8000 0004 0200     		.2byte	0x2
 8001 0006 00000000 		.4byte	.Ldebug_info0
 8002 000a 04       		.byte	0x4
 8003 000b 00       		.byte	0
 8004 000c 0000     		.2byte	0
 8005 000e 0000     		.2byte	0
 8006 0010 00000000 		.4byte	.LFB182
 8007 0014 B0000000 		.4byte	.LFE182-.LFB182
 8008 0018 00000000 		.4byte	.LFB181
 8009 001c 22000000 		.4byte	.LFE181-.LFB181
 8010 0020 00000000 		.4byte	.LFB166
 8011 0024 22000000 		.4byte	.LFE166-.LFB166
 8012 0028 00000000 		.4byte	.LFB175
 8013 002c 2E000000 		.4byte	.LFE175-.LFB175
 8014 0030 00000000 		.4byte	.LFB180
 8015 0034 46000000 		.4byte	.LFE180-.LFB180
 8016 0038 00000000 		.4byte	.LFB179
ARM GAS  /tmp/ccv0K2b2.s 			page 208


 8017 003c 2A000000 		.4byte	.LFE179-.LFB179
 8018 0040 00000000 		.4byte	.LFB177
 8019 0044 1E000000 		.4byte	.LFE177-.LFB177
 8020 0048 00000000 		.4byte	.LFB174
 8021 004c 1E000000 		.4byte	.LFE174-.LFB174
 8022 0050 00000000 		.4byte	.LFB172
 8023 0054 0C000000 		.4byte	.LFE172-.LFB172
 8024 0058 00000000 		.4byte	.LFB168
 8025 005c 1E000000 		.4byte	.LFE168-.LFB168
 8026 0060 00000000 		.4byte	.LFB165
 8027 0064 0C000000 		.4byte	.LFE165-.LFB165
 8028 0068 00000000 		.4byte	.LFB178
 8029 006c D0000000 		.4byte	.LFE178-.LFB178
 8030 0070 00000000 		.4byte	.LFB176
 8031 0074 00010000 		.4byte	.LFE176-.LFB176
 8032 0078 00000000 		.4byte	.LFB167
 8033 007c E0000000 		.4byte	.LFE167-.LFB167
 8034 0080 00000000 		.4byte	.LFB173
 8035 0084 C4000000 		.4byte	.LFE173-.LFB173
 8036 0088 00000000 		.4byte	.LFB171
 8037 008c 70020000 		.4byte	.LFE171-.LFB171
 8038 0090 00000000 		.4byte	.LFB170
 8039 0094 22000000 		.4byte	.LFE170-.LFB170
 8040 0098 00000000 		.4byte	.LFB169
 8041 009c 22000000 		.4byte	.LFE169-.LFB169
 8042 00a0 00000000 		.4byte	0
 8043 00a4 00000000 		.4byte	0
 8044              		.section	.debug_ranges,"",%progbits
 8045              	.Ldebug_ranges0:
 8046 0000 02000000 		.4byte	.LBB138
 8047 0004 0C000000 		.4byte	.LBE138
 8048 0008 10000000 		.4byte	.LBB143
 8049 000c 12000000 		.4byte	.LBE143
 8050 0010 00000000 		.4byte	0
 8051 0014 00000000 		.4byte	0
 8052 0018 02000000 		.4byte	.LBB144
 8053 001c 0C000000 		.4byte	.LBE144
 8054 0020 10000000 		.4byte	.LBB149
 8055 0024 12000000 		.4byte	.LBE149
 8056 0028 00000000 		.4byte	0
 8057 002c 00000000 		.4byte	0
 8058 0030 02000000 		.4byte	.LBB150
 8059 0034 0C000000 		.4byte	.LBE150
 8060 0038 10000000 		.4byte	.LBB155
 8061 003c 12000000 		.4byte	.LBE155
 8062 0040 00000000 		.4byte	0
 8063 0044 00000000 		.4byte	0
 8064 0048 02000000 		.4byte	.LBB165
 8065 004c 04000000 		.4byte	.LBE165
 8066 0050 06000000 		.4byte	.LBB171
 8067 0054 08000000 		.4byte	.LBE171
 8068 0058 0A000000 		.4byte	.LBB172
 8069 005c 0C000000 		.4byte	.LBE172
 8070 0060 00000000 		.4byte	0
 8071 0064 00000000 		.4byte	0
 8072 0068 02000000 		.4byte	.LBB175
 8073 006c 04000000 		.4byte	.LBE175
ARM GAS  /tmp/ccv0K2b2.s 			page 209


 8074 0070 06000000 		.4byte	.LBB181
 8075 0074 08000000 		.4byte	.LBE181
 8076 0078 0A000000 		.4byte	.LBB182
 8077 007c 0C000000 		.4byte	.LBE182
 8078 0080 00000000 		.4byte	0
 8079 0084 00000000 		.4byte	0
 8080 0088 04000000 		.4byte	.LBB198
 8081 008c 06000000 		.4byte	.LBE198
 8082 0090 08000000 		.4byte	.LBB204
 8083 0094 0A000000 		.4byte	.LBE204
 8084 0098 0C000000 		.4byte	.LBB205
 8085 009c 0E000000 		.4byte	.LBE205
 8086 00a0 00000000 		.4byte	0
 8087 00a4 00000000 		.4byte	0
 8088 00a8 00000000 		.4byte	.LFB182
 8089 00ac B0000000 		.4byte	.LFE182
 8090 00b0 00000000 		.4byte	.LFB181
 8091 00b4 22000000 		.4byte	.LFE181
 8092 00b8 00000000 		.4byte	.LFB166
 8093 00bc 22000000 		.4byte	.LFE166
 8094 00c0 00000000 		.4byte	.LFB175
 8095 00c4 2E000000 		.4byte	.LFE175
 8096 00c8 00000000 		.4byte	.LFB180
 8097 00cc 46000000 		.4byte	.LFE180
 8098 00d0 00000000 		.4byte	.LFB179
 8099 00d4 2A000000 		.4byte	.LFE179
 8100 00d8 00000000 		.4byte	.LFB177
 8101 00dc 1E000000 		.4byte	.LFE177
 8102 00e0 00000000 		.4byte	.LFB174
 8103 00e4 1E000000 		.4byte	.LFE174
 8104 00e8 00000000 		.4byte	.LFB172
 8105 00ec 0C000000 		.4byte	.LFE172
 8106 00f0 00000000 		.4byte	.LFB168
 8107 00f4 1E000000 		.4byte	.LFE168
 8108 00f8 00000000 		.4byte	.LFB165
 8109 00fc 0C000000 		.4byte	.LFE165
 8110 0100 00000000 		.4byte	.LFB178
 8111 0104 D0000000 		.4byte	.LFE178
 8112 0108 00000000 		.4byte	.LFB176
 8113 010c 00010000 		.4byte	.LFE176
 8114 0110 00000000 		.4byte	.LFB167
 8115 0114 E0000000 		.4byte	.LFE167
 8116 0118 00000000 		.4byte	.LFB173
 8117 011c C4000000 		.4byte	.LFE173
 8118 0120 00000000 		.4byte	.LFB171
 8119 0124 70020000 		.4byte	.LFE171
 8120 0128 00000000 		.4byte	.LFB170
 8121 012c 22000000 		.4byte	.LFE170
 8122 0130 00000000 		.4byte	.LFB169
 8123 0134 22000000 		.4byte	.LFE169
 8124 0138 00000000 		.4byte	0
 8125 013c 00000000 		.4byte	0
 8126              		.section	.debug_line,"",%progbits
 8127              	.Ldebug_line0:
 8128 0000 B9050000 		.section	.debug_str,"MS",%progbits,1
 8128      02000F02 
 8128      00000201 
ARM GAS  /tmp/ccv0K2b2.s 			page 210


 8128      FB0E0D00 
 8128      01010101 
 8129              	.LASF77:
 8130 0000 7466756E 		.ascii	"tfunc_t\000"
 8130      635F7400 
 8131              	.LASF52:
 8132 0008 72656164 		.ascii	"ready_list_t\000"
 8132      795F6C69 
 8132      73745F74 
 8132      00
 8133              	.LASF19:
 8134 0015 73697A65 		.ascii	"size_t\000"
 8134      5F7400
 8135              	.LASF53:
 8136 001c 7264796D 		.ascii	"rdymsg\000"
 8136      736700
 8137              	.LASF43:
 8138 0023 706F7274 		.ascii	"port_intctx\000"
 8138      5F696E74 
 8138      63747800 
 8139              	.LASF74:
 8140 002f 76746C69 		.ascii	"vtlist\000"
 8140      737400
 8141              	.LASF104:
 8142 0036 6D747835 		.ascii	"mtx5_setup\000"
 8142      5F736574 
 8142      757000
 8143              	.LASF87:
 8144 0041 706F7274 		.ascii	"port_lock\000"
 8144      5F6C6F63 
 8144      6B00
 8145              	.LASF114:
 8146 004b 74687265 		.ascii	"thread4a\000"
 8146      61643461 
 8146      00
 8147              	.LASF113:
 8148 0054 74687265 		.ascii	"thread4b\000"
 8148      61643462 
 8148      00
 8149              	.LASF30:
 8150 005d 6C6F6E67 		.ascii	"long long unsigned int\000"
 8150      206C6F6E 
 8150      6720756E 
 8150      7369676E 
 8150      65642069 
 8151              	.LASF54:
 8152 0074 65786974 		.ascii	"exitcode\000"
 8152      636F6465 
 8152      00
 8153              	.LASF102:
 8154 007d 6D747837 		.ascii	"mtx7_setup\000"
 8154      5F736574 
 8154      757000
 8155              	.LASF71:
 8156 0088 76697274 		.ascii	"virtual_timers_list_t\000"
 8156      75616C5F 
 8156      74696D65 
ARM GAS  /tmp/ccv0K2b2.s 			page 211


 8156      72735F6C 
 8156      6973745F 
 8157              	.LASF115:
 8158 009e 49544D5F 		.ascii	"ITM_RxBuffer\000"
 8158      52784275 
 8158      66666572 
 8158      00
 8159              	.LASF110:
 8160 00ab 6D747831 		.ascii	"mtx1_execute\000"
 8160      5F657865 
 8160      63757465 
 8160      00
 8161              	.LASF2:
 8162 00b8 705F7072 		.ascii	"p_prio\000"
 8162      696F00
 8163              	.LASF129:
 8164 00bf 63684D74 		.ascii	"chMtxUnlock\000"
 8164      78556E6C 
 8164      6F636B00 
 8165              	.LASF18:
 8166 00cb 7369676E 		.ascii	"signed char\000"
 8166      65642063 
 8166      68617200 
 8167              	.LASF81:
 8168 00d7 636F6E64 		.ascii	"condition_variable_t\000"
 8168      6974696F 
 8168      6E5F7661 
 8168      72696162 
 8168      6C655F74 
 8169              	.LASF7:
 8170 00ec 705F7374 		.ascii	"p_state\000"
 8170      61746500 
 8171              	.LASF16:
 8172 00f4 705F6D70 		.ascii	"p_mpool\000"
 8172      6F6F6C00 
 8173              	.LASF100:
 8174 00fc 6D747838 		.ascii	"mtx8_execute\000"
 8174      5F657865 
 8174      63757465 
 8174      00
 8175              	.LASF128:
 8176 0109 74657374 		.ascii	"test_emit_token\000"
 8176      5F656D69 
 8176      745F746F 
 8176      6B656E00 
 8177              	.LASF88:
 8178 0119 706F7274 		.ascii	"port_unlock\000"
 8178      5F756E6C 
 8178      6F636B00 
 8179              	.LASF142:
 8180 0125 474E5520 		.ascii	"GNU C 4.7.4 20130913 (release) [ARM/embedded-4_7-br"
 8180      4320342E 
 8180      372E3420 
 8180      32303133 
 8180      30393133 
 8181 0158 616E6368 		.ascii	"anch revision 202601]\000"
 8181      20726576 
ARM GAS  /tmp/ccv0K2b2.s 			page 212


 8181      6973696F 
 8181      6E203230 
 8181      32363031 
 8182              	.LASF72:
 8183 016e 63685F73 		.ascii	"ch_system\000"
 8183      79737465 
 8183      6D00
 8184              	.LASF26:
 8185 0178 6C6F6E67 		.ascii	"long int\000"
 8185      20696E74 
 8185      00
 8186              	.LASF33:
 8187 0181 74737461 		.ascii	"tstate_t\000"
 8187      74655F74 
 8187      00
 8188              	.LASF41:
 8189 018a 74687265 		.ascii	"thread\000"
 8189      616400
 8190              	.LASF106:
 8191 0191 6D747831 		.ascii	"mtx1_setup\000"
 8191      5F736574 
 8191      757000
 8192              	.LASF29:
 8193 019c 6C6F6E67 		.ascii	"long long int\000"
 8193      206C6F6E 
 8193      6720696E 
 8193      7400
 8194              	.LASF23:
 8195 01aa 75696E74 		.ascii	"uint16_t\000"
 8195      31365F74 
 8195      00
 8196              	.LASF4:
 8197 01b3 705F6E65 		.ascii	"p_newer\000"
 8197      77657200 
 8198              	.LASF146:
 8199 01bb 71756575 		.ascii	"queue_isempty\000"
 8199      655F6973 
 8199      656D7074 
 8199      7900
 8200              	.LASF137:
 8201 01c9 63685363 		.ascii	"chSchRescheduleS\000"
 8201      68526573 
 8201      63686564 
 8201      756C6553 
 8201      00
 8202              	.LASF49:
 8203 01da 725F6E65 		.ascii	"r_newer\000"
 8203      77657200 
 8204              	.LASF40:
 8205 01e2 72656761 		.ascii	"regarm_t\000"
 8205      726D5F74 
 8205      00
 8206              	.LASF66:
 8207 01eb 76745F70 		.ascii	"vt_prev\000"
 8207      72657600 
 8208              	.LASF78:
 8209 01f3 6D757465 		.ascii	"mutex_t\000"
ARM GAS  /tmp/ccv0K2b2.s 			page 213


 8209      785F7400 
 8210              	.LASF94:
 8211 01fb 76616C75 		.ascii	"value\000"
 8211      6500
 8212              	.LASF126:
 8213 0201 6368436F 		.ascii	"chCondSignal\000"
 8213      6E645369 
 8213      676E616C 
 8213      00
 8214              	.LASF145:
 8215 020e 5F5F6675 		.ascii	"__func__.5444\000"
 8215      6E635F5F 
 8215      2E353434 
 8215      3400
 8216              	.LASF17:
 8217 021c 756E7369 		.ascii	"unsigned int\000"
 8217      676E6564 
 8217      20696E74 
 8217      00
 8218              	.LASF65:
 8219 0229 76745F6E 		.ascii	"vt_next\000"
 8219      65787400 
 8220              	.LASF11:
 8221 0231 705F6D73 		.ascii	"p_msgqueue\000"
 8221      67717565 
 8221      756500
 8222              	.LASF85:
 8223 023c 74656172 		.ascii	"teardown\000"
 8223      646F776E 
 8223      00
 8224              	.LASF83:
 8225 0245 6E616D65 		.ascii	"name\000"
 8225      00
 8226              	.LASF24:
 8227 024a 73686F72 		.ascii	"short unsigned int\000"
 8227      7420756E 
 8227      7369676E 
 8227      65642069 
 8227      6E7400
 8228              	.LASF143:
 8229 025d 2E2E2F2E 		.ascii	"../../../test/rt/testmtx.c\000"
 8229      2E2F2E2E 
 8229      2F746573 
 8229      742F7274 
 8229      2F746573 
 8230              	.LASF36:
 8231 0278 6D73675F 		.ascii	"msg_t\000"
 8231      7400
 8232              	.LASF76:
 8233 027e 63685F73 		.ascii	"ch_system_t\000"
 8233      79737465 
 8233      6D5F7400 
 8234              	.LASF141:
 8235 028a 63684D74 		.ascii	"chMtxUnlockAll\000"
 8235      78556E6C 
 8235      6F636B41 
 8235      6C6C00
ARM GAS  /tmp/ccv0K2b2.s 			page 214


 8236              	.LASF32:
 8237 0299 746D6F64 		.ascii	"tmode_t\000"
 8237      655F7400 
 8238              	.LASF37:
 8239 02a1 6576656E 		.ascii	"eventmask_t\000"
 8239      746D6173 
 8239      6B5F7400 
 8240              	.LASF139:
 8241 02ad 63684D74 		.ascii	"chMtxTryLock\000"
 8241      78547279 
 8241      4C6F636B 
 8241      00
 8242              	.LASF124:
 8243 02ba 63685468 		.ascii	"chThdCreateStatic\000"
 8243      64437265 
 8243      61746553 
 8243      74617469 
 8243      6300
 8244              	.LASF10:
 8245 02cc 705F7761 		.ascii	"p_waiting\000"
 8245      6974696E 
 8245      6700
 8246              	.LASF38:
 8247 02d6 73697A65 		.ascii	"sizetype\000"
 8247      74797065 
 8247      00
 8248              	.LASF79:
 8249 02df 636F6E64 		.ascii	"condition_variable\000"
 8249      6974696F 
 8249      6E5F7661 
 8249      72696162 
 8249      6C6500
 8250              	.LASF109:
 8251 02f2 6D747836 		.ascii	"mtx6_execute\000"
 8251      5F657865 
 8251      63757465 
 8251      00
 8252              	.LASF70:
 8253 02ff 76745F6C 		.ascii	"vt_lasttime\000"
 8253      61737474 
 8253      696D6500 
 8254              	.LASF127:
 8255 030b 63684D74 		.ascii	"chMtxLock\000"
 8255      784C6F63 
 8255      6B00
 8256              	.LASF136:
 8257 0315 74657374 		.ascii	"test_wait_threads\000"
 8257      5F776169 
 8257      745F7468 
 8257      72656164 
 8257      7300
 8258              	.LASF5:
 8259 0327 705F6F6C 		.ascii	"p_older\000"
 8259      64657200 
 8260              	.LASF97:
 8261 032f 74687265 		.ascii	"thread1\000"
 8261      61643100 
ARM GAS  /tmp/ccv0K2b2.s 			page 215


 8262              	.LASF48:
 8263 0337 725F6374 		.ascii	"r_ctx\000"
 8263      7800
 8264              	.LASF90:
 8265 033d 63685468 		.ascii	"chThdGetPriorityX\000"
 8265      64476574 
 8265      5072696F 
 8265      72697479 
 8265      5800
 8266              	.LASF105:
 8267 034f 6D747834 		.ascii	"mtx4_setup\000"
 8267      5F736574 
 8267      757000
 8268              	.LASF125:
 8269 035a 5F746573 		.ascii	"_test_assert_sequence\000"
 8269      745F6173 
 8269      73657274 
 8269      5F736571 
 8269      75656E63 
 8270              	.LASF112:
 8271 0370 6D747834 		.ascii	"mtx4_execute\000"
 8271      5F657865 
 8271      63757465 
 8271      00
 8272              	.LASF108:
 8273 037d 7072696F 		.ascii	"prio\000"
 8273      00
 8274              	.LASF50:
 8275 0382 725F6F6C 		.ascii	"r_older\000"
 8275      64657200 
 8276              	.LASF134:
 8277 038a 6368436F 		.ascii	"chCondBroadcast\000"
 8277      6E644272 
 8277      6F616463 
 8277      61737400 
 8278              	.LASF103:
 8279 039a 6D747836 		.ascii	"mtx6_setup\000"
 8279      5F736574 
 8279      757000
 8280              	.LASF98:
 8281 03a5 74687265 		.ascii	"thread10\000"
 8281      61643130 
 8281      00
 8282              	.LASF99:
 8283 03ae 74687265 		.ascii	"thread11\000"
 8283      61643131 
 8283      00
 8284              	.LASF96:
 8285 03b7 74687265 		.ascii	"thread12\000"
 8285      61643132 
 8285      00
 8286              	.LASF84:
 8287 03c0 73657475 		.ascii	"setup\000"
 8287      7000
 8288              	.LASF34:
 8289 03c6 74726566 		.ascii	"trefs_t\000"
 8289      735F7400 
ARM GAS  /tmp/ccv0K2b2.s 			page 216


 8290              	.LASF63:
 8291 03ce 76697274 		.ascii	"virtual_timer_t\000"
 8291      75616C5F 
 8291      74696D65 
 8291      725F7400 
 8292              	.LASF1:
 8293 03de 705F7072 		.ascii	"p_prev\000"
 8293      657600
 8294              	.LASF86:
 8295 03e5 65786563 		.ascii	"execute\000"
 8295      75746500 
 8296              	.LASF35:
 8297 03ed 74707269 		.ascii	"tprio_t\000"
 8297      6F5F7400 
 8298              	.LASF58:
 8299 03f5 6D757465 		.ascii	"mutex\000"
 8299      7800
 8300              	.LASF133:
 8301 03fb 63684D74 		.ascii	"chMtxObjectInit\000"
 8301      784F626A 
 8301      65637449 
 8301      6E697400 
 8302              	.LASF135:
 8303 040b 6368436F 		.ascii	"chCondSignalI\000"
 8303      6E645369 
 8303      676E616C 
 8303      4900
 8304              	.LASF95:
 8305 0419 5F426F6F 		.ascii	"_Bool\000"
 8305      6C00
 8306              	.LASF25:
 8307 041f 696E7433 		.ascii	"int32_t\000"
 8307      325F7400 
 8308              	.LASF21:
 8309 0427 756E7369 		.ascii	"unsigned char\000"
 8309      676E6564 
 8309      20636861 
 8309      7200
 8310              	.LASF59:
 8311 0435 6D5F7175 		.ascii	"m_queue\000"
 8311      65756500 
 8312              	.LASF123:
 8313 043d 70617474 		.ascii	"patternmtx\000"
 8313      65726E6D 
 8313      747800
 8314              	.LASF14:
 8315 0448 705F6D74 		.ascii	"p_mtxlist\000"
 8315      786C6973 
 8315      7400
 8316              	.LASF22:
 8317 0452 73686F72 		.ascii	"short int\000"
 8317      7420696E 
 8317      7400
 8318              	.LASF116:
 8319 045c 74687265 		.ascii	"threads\000"
 8319      61647300 
 8320              	.LASF47:
ARM GAS  /tmp/ccv0K2b2.s 			page 217


 8321 0464 725F7072 		.ascii	"r_prio\000"
 8321      696F00
 8322              	.LASF56:
 8323 046b 65776D61 		.ascii	"ewmask\000"
 8323      736B00
 8324              	.LASF0:
 8325 0472 705F6E65 		.ascii	"p_next\000"
 8325      787400
 8326              	.LASF8:
 8327 0479 705F666C 		.ascii	"p_flags\000"
 8327      61677300 
 8328              	.LASF91:
 8329 0481 63685379 		.ascii	"chSysLock\000"
 8329      734C6F63 
 8329      6B00
 8330              	.LASF140:
 8331 048b 63684D74 		.ascii	"chMtxUnlockS\000"
 8331      78556E6C 
 8331      6F636B53 
 8331      00
 8332              	.LASF80:
 8333 0498 635F7175 		.ascii	"c_queue\000"
 8333      65756500 
 8334              	.LASF111:
 8335 04a0 6D747835 		.ascii	"mtx5_execute\000"
 8335      5F657865 
 8335      63757465 
 8335      00
 8336              	.LASF13:
 8337 04ad 705F6570 		.ascii	"p_epending\000"
 8337      656E6469 
 8337      6E6700
 8338              	.LASF147:
 8339 04b8 63685468 		.ascii	"chThdSleep\000"
 8339      64536C65 
 8339      657000
 8340              	.LASF27:
 8341 04c3 75696E74 		.ascii	"uint32_t\000"
 8341      33325F74 
 8341      00
 8342              	.LASF46:
 8343 04cc 725F7175 		.ascii	"r_queue\000"
 8343      65756500 
 8344              	.LASF67:
 8345 04d4 76745F64 		.ascii	"vt_delta\000"
 8345      656C7461 
 8345      00
 8346              	.LASF118:
 8347 04dd 74657374 		.ascii	"testmtx4\000"
 8347      6D747834 
 8347      00
 8348              	.LASF119:
 8349 04e6 74657374 		.ascii	"testmtx5\000"
 8349      6D747835 
 8349      00
 8350              	.LASF120:
 8351 04ef 74657374 		.ascii	"testmtx6\000"
ARM GAS  /tmp/ccv0K2b2.s 			page 218


 8351      6D747836 
 8351      00
 8352              	.LASF121:
 8353 04f8 74657374 		.ascii	"testmtx7\000"
 8353      6D747837 
 8353      00
 8354              	.LASF122:
 8355 0501 74657374 		.ascii	"testmtx8\000"
 8355      6D747838 
 8355      00
 8356              	.LASF28:
 8357 050a 6C6F6E67 		.ascii	"long unsigned int\000"
 8357      20756E73 
 8357      69676E65 
 8357      6420696E 
 8357      7400
 8358              	.LASF51:
 8359 051c 725F6375 		.ascii	"r_current\000"
 8359      7272656E 
 8359      7400
 8360              	.LASF57:
 8361 0526 63686172 		.ascii	"char\000"
 8361      00
 8362              	.LASF132:
 8363 052b 6368436F 		.ascii	"chCondObjectInit\000"
 8363      6E644F62 
 8363      6A656374 
 8363      496E6974 
 8363      00
 8364              	.LASF61:
 8365 053c 6D5F6E65 		.ascii	"m_next\000"
 8365      787400
 8366              	.LASF39:
 8367 0543 73797374 		.ascii	"systime_t\000"
 8367      696D655F 
 8367      7400
 8368              	.LASF15:
 8369 054d 705F7265 		.ascii	"p_realprio\000"
 8369      616C7072 
 8369      696F00
 8370              	.LASF62:
 8371 0558 76746675 		.ascii	"vtfunc_t\000"
 8371      6E635F74 
 8371      00
 8372              	.LASF92:
 8373 0561 5F5F7365 		.ascii	"__set_BASEPRI\000"
 8373      745F4241 
 8373      53455052 
 8373      4900
 8374              	.LASF107:
 8375 056f 6D747837 		.ascii	"mtx7_execute\000"
 8375      5F657865 
 8375      63757465 
 8375      00
 8376              	.LASF117:
 8377 057c 74657374 		.ascii	"testmtx1\000"
 8377      6D747831 
ARM GAS  /tmp/ccv0K2b2.s 			page 219


 8377      00
 8378              	.LASF144:
 8379 0585 2F686F6D 		.ascii	"/home/joerg/repos/chibios-projects/ChibiOS-RT/demos"
 8379      652F6A6F 
 8379      6572672F 
 8379      7265706F 
 8379      732F6368 
 8380 05b8 2F53544D 		.ascii	"/STM32/RT-STM32F103-OLIMEX_STM32_P103\000"
 8380      33322F52 
 8380      542D5354 
 8380      4D333246 
 8380      3130332D 
 8381              	.LASF42:
 8382 05de 636F6E74 		.ascii	"context\000"
 8382      65787400 
 8383              	.LASF31:
 8384 05e6 7274636E 		.ascii	"rtcnt_t\000"
 8384      745F7400 
 8385              	.LASF130:
 8386 05ee 6368436F 		.ascii	"chCondWait\000"
 8386      6E645761 
 8386      697400
 8387              	.LASF64:
 8388 05f9 76697274 		.ascii	"virtual_timer\000"
 8388      75616C5F 
 8388      74696D65 
 8388      7200
 8389              	.LASF69:
 8390 0607 76745F70 		.ascii	"vt_par\000"
 8390      617200
 8391              	.LASF75:
 8392 060e 6D656173 		.ascii	"measurement_offset\000"
 8392      7572656D 
 8392      656E745F 
 8392      6F666673 
 8392      657400
 8393              	.LASF82:
 8394 0621 74657374 		.ascii	"testcase\000"
 8394      63617365 
 8394      00
 8395              	.LASF44:
 8396 062a 74687265 		.ascii	"threads_queue_t\000"
 8396      6164735F 
 8396      71756575 
 8396      655F7400 
 8397              	.LASF9:
 8398 063a 705F7265 		.ascii	"p_refs\000"
 8398      667300
 8399              	.LASF73:
 8400 0641 726C6973 		.ascii	"rlist\000"
 8400      7400
 8401              	.LASF89:
 8402 0647 63685468 		.ascii	"chThdGetSelfX\000"
 8402      64476574 
 8402      53656C66 
 8402      5800
 8403              	.LASF20:
ARM GAS  /tmp/ccv0K2b2.s 			page 220


 8404 0655 75696E74 		.ascii	"uint8_t\000"
 8404      385F7400 
 8405              	.LASF101:
 8406 065d 6D747838 		.ascii	"mtx8_setup\000"
 8406      5F736574 
 8406      757000
 8407              	.LASF55:
 8408 0668 77746F62 		.ascii	"wtobjp\000"
 8408      6A7000
 8409              	.LASF6:
 8410 066f 705F6E61 		.ascii	"p_name\000"
 8410      6D6500
 8411              	.LASF131:
 8412 0676 6368436F 		.ascii	"chCondWaitTimeout\000"
 8412      6E645761 
 8412      69745469 
 8412      6D656F75 
 8412      7400
 8413              	.LASF138:
 8414 0688 5F746573 		.ascii	"_test_assert\000"
 8414      745F6173 
 8414      73657274 
 8414      00
 8415              	.LASF45:
 8416 0695 74687265 		.ascii	"threads_list_t\000"
 8416      6164735F 
 8416      6C697374 
 8416      5F7400
 8417              	.LASF93:
 8418 06a4 63685379 		.ascii	"chSysUnlock\000"
 8418      73556E6C 
 8418      6F636B00 
 8419              	.LASF12:
 8420 06b0 705F6D73 		.ascii	"p_msg\000"
 8420      6700
 8421              	.LASF60:
 8422 06b6 6D5F6F77 		.ascii	"m_owner\000"
 8422      6E657200 
 8423              	.LASF3:
 8424 06be 705F6374 		.ascii	"p_ctx\000"
 8424      7800
 8425              	.LASF68:
 8426 06c4 76745F66 		.ascii	"vt_func\000"
 8426      756E6300 
 8427              		.comm	__gnu_lto_v1,1,1
 8428              		.ident	"GCC: (GNU Tools for ARM Embedded Processors) 4.7.4 20130913 (release) [ARM/embedded-4_7-br
ARM GAS  /tmp/ccv0K2b2.s 			page 221


DEFINED SYMBOLS
                            *ABS*:00000000 testmtx.c
     /tmp/ccv0K2b2.s:1096   .text.mtx8_execute:00000000 $t
     /tmp/ccv0K2b2.s:1101   .text.mtx8_execute:00000000 mtx8_execute
     /tmp/ccv0K2b2.s:2882   .rodata.str1.4:00000000 .LC0
     /tmp/ccv0K2b2.s:1359   .text.thread11:00000000 thread11
     /tmp/ccv0K2b2.s:2885   .rodata.str1.4:00000004 .LC1
     /tmp/ccv0K2b2.s:1310   .text.thread10:00000000 thread10
     /tmp/ccv0K2b2.s:2888   .rodata.str1.4:00000008 .LC2
     /tmp/ccv0K2b2.s:1222   .text.thread12:00000000 thread12
     /tmp/ccv0K2b2.s:2930   .data.c1:00000000 .LANCHOR0
     /tmp/ccv0K2b2.s:2891   .rodata.str1.4:0000000c .LC3
     /tmp/ccv0K2b2.s:1217   .text.thread12:00000000 $t
     /tmp/ccv0K2b2.s:2872   .data.m2:00000000 .LANCHOR1
     /tmp/ccv0K2b2.s:1261   .text.thread1:00000000 $t
     /tmp/ccv0K2b2.s:1266   .text.thread1:00000000 thread1
     /tmp/ccv0K2b2.s:2862   .data.m1:00000000 .LANCHOR2
     /tmp/ccv0K2b2.s:1305   .text.thread10:00000000 $t
     /tmp/ccv0K2b2.s:1354   .text.thread11:00000000 $t
     /tmp/ccv0K2b2.s:1416   .text.mtx8_setup:00000000 $t
     /tmp/ccv0K2b2.s:1421   .text.mtx8_setup:00000000 mtx8_setup
     /tmp/ccv0K2b2.s:1456   .text.mtx7_setup:00000000 $t
     /tmp/ccv0K2b2.s:1461   .text.mtx7_setup:00000000 mtx7_setup
     /tmp/ccv0K2b2.s:1491   .text.mtx6_setup:00000000 $t
     /tmp/ccv0K2b2.s:1496   .text.mtx6_setup:00000000 mtx6_setup
     /tmp/ccv0K2b2.s:1526   .text.mtx5_setup:00000000 $t
     /tmp/ccv0K2b2.s:1531   .text.mtx5_setup:00000000 mtx5_setup
     /tmp/ccv0K2b2.s:1549   .text.mtx4_setup:00000000 $t
     /tmp/ccv0K2b2.s:1554   .text.mtx4_setup:00000000 mtx4_setup
     /tmp/ccv0K2b2.s:1584   .text.mtx1_setup:00000000 $t
     /tmp/ccv0K2b2.s:1589   .text.mtx1_setup:00000000 mtx1_setup
     /tmp/ccv0K2b2.s:1607   .text.mtx7_execute:00000000 $t
     /tmp/ccv0K2b2.s:1612   .text.mtx7_execute:00000000 mtx7_execute
     /tmp/ccv0K2b2.s:2893   .rodata.str1.4:00000010 .LC4
     /tmp/ccv0K2b2.s:2896   .rodata.str1.4:00000014 .LC5
     /tmp/ccv0K2b2.s:2899   .rodata.str1.4:00000018 .LC6
     /tmp/ccv0K2b2.s:1737   .text.mtx6_execute:00000000 $t
     /tmp/ccv0K2b2.s:1742   .text.mtx6_execute:00000000 mtx6_execute
     /tmp/ccv0K2b2.s:1928   .text.mtx1_execute:00000000 $t
     /tmp/ccv0K2b2.s:1933   .text.mtx1_execute:00000000 mtx1_execute
     /tmp/ccv0K2b2.s:2084   .text.mtx1_execute:000000b4 $d
     /tmp/ccv0K2b2.s:2099   .text.mtx5_execute:00000000 $t
     /tmp/ccv0K2b2.s:2104   .text.mtx5_execute:00000000 mtx5_execute
     /tmp/ccv0K2b2.s:2285   .text.mtx5_execute:000000bc $d
     /tmp/ccv0K2b2.s:2291   .text.mtx4_execute:00000000 $t
     /tmp/ccv0K2b2.s:2296   .text.mtx4_execute:00000000 mtx4_execute
     /tmp/ccv0K2b2.s:2723   .text.mtx4_execute:00000244 $d
     /tmp/ccv0K2b2.s:2783   .text.thread4a:00000000 thread4a
     /tmp/ccv0K2b2.s:2743   .text.thread4b:00000000 thread4b
     /tmp/ccv0K2b2.s:2738   .text.thread4b:00000000 $t
     /tmp/ccv0K2b2.s:2778   .text.thread4a:00000000 $t
     /tmp/ccv0K2b2.s:2920   .rodata.patternmtx:00000000 patternmtx
     /tmp/ccv0K2b2.s:2855   .rodata.testmtx8:00000000 testmtx8
     /tmp/ccv0K2b2.s:2846   .rodata.testmtx7:00000000 testmtx7
     /tmp/ccv0K2b2.s:2837   .rodata.testmtx6:00000000 testmtx6
     /tmp/ccv0K2b2.s:2828   .rodata.testmtx5:00000000 testmtx5
     /tmp/ccv0K2b2.s:2949   .rodata.testmtx4:00000000 testmtx4
ARM GAS  /tmp/ccv0K2b2.s 			page 222


     /tmp/ccv0K2b2.s:2940   .rodata.testmtx1:00000000 testmtx1
     /tmp/ccv0K2b2.s:2825   .rodata.testmtx5:00000000 $d
     /tmp/ccv0K2b2.s:2834   .rodata.testmtx6:00000000 $d
     /tmp/ccv0K2b2.s:2843   .rodata.testmtx7:00000000 $d
     /tmp/ccv0K2b2.s:2852   .rodata.testmtx8:00000000 $d
     /tmp/ccv0K2b2.s:2861   .data.m1:00000000 $d
     /tmp/ccv0K2b2.s:2865   .data.m1:00000000 m1
     /tmp/ccv0K2b2.s:2871   .data.m2:00000000 $d
     /tmp/ccv0K2b2.s:2875   .data.m2:00000000 m2
     /tmp/ccv0K2b2.s:2881   .rodata.str1.4:00000000 $d
     /tmp/ccv0K2b2.s:2917   .rodata.patternmtx:00000000 $d
     /tmp/ccv0K2b2.s:2929   .data.c1:00000000 $d
     /tmp/ccv0K2b2.s:2933   .data.c1:00000000 c1
     /tmp/ccv0K2b2.s:2937   .rodata.testmtx1:00000000 $d
     /tmp/ccv0K2b2.s:2946   .rodata.testmtx4:00000000 $d
                            *COM*:00000001 __gnu_lto_v1
                     .debug_frame:00000010 $d
     /tmp/ccv0K2b2.s:2290   .text.mtx5_execute:000000c4 $t

UNDEFINED SYMBOLS
ch
wa
chThdCreateStatic
threads
chCondSignal
test_wait_threads
_test_assert_sequence
chMtxLock
test_emit_token
chMtxUnlock
chCondWait
chCondWaitTimeout
chCondObjectInit
chMtxObjectInit
chCondBroadcast
chCondSignalI
chSchRescheduleS
_test_assert
chMtxTryLock
chMtxUnlockS
chMtxUnlockAll
chThdSleep
