ARM GAS  /tmp/cccORKxm.s 			page 1


   1              		.syntax unified
   2              		.cpu cortex-m3
   3              		.fpu softvfp
   4              		.eabi_attribute 20, 1
   5              		.eabi_attribute 21, 1
   6              		.eabi_attribute 23, 3
   7              		.eabi_attribute 24, 1
   8              		.eabi_attribute 25, 1
   9              		.eabi_attribute 26, 1
  10              		.eabi_attribute 30, 2
  11              		.eabi_attribute 34, 1
  12              		.eabi_attribute 18, 4
  13              		.thumb
  14              		.file	"testheap.c"
  15              		.text
  16              	.Ltext0:
  17              		.section	.gnu.lto_.jmpfuncs.8a6c082164e4c36e,"",%progbits
  18 0000 789C6362 		.ascii	"x\234cb`d`g\300\016\272\231\031\030d\2014\023\0201I"
  18      60646067 
  18      C00EBA99 
  18      19186481 
  18      34131031 
  19 0015 32A43232 		.ascii	"2\244220\360 \230\334 f\025\303\317\006\216TFF\306L"
  19      30F02098 
  19      DC206615 
  19      C3CF068E 
  19      544646C6 
  20 002a 468663B3 		.ascii	"F\206c\263\2362\202\2641\302\225p\241+\371\243\001R"
  20      9E3282B4 
  20      31C29570 
  20      A12BF9A3 
  20      0152
  21 003c 802AF665 		.ascii	"\200*\366e\305:FL\3217+\266AE!Fq\242+\270\262\202\017"
  21      C53A464C 
  21      D1372BB6 
  21      41452146 
  21      71A22BB8 
  22 0053 621923BA 		.ascii	"b\031#\272\035\363\301\346\201\36511(\300M\340\300\260"
  22      1DF3C1E6 
  22      81F53131 
  22      28C04DE0 
  22      C0B0
  23 0065 783E1FCC 		.ascii	"x>\037\314\271\310\302OP\364\013\240\311\336\221G\225"
  23      B9C8C24F 
  23      50F40BA0 
  23      C9DE9147 
  23      95
  24 0076 8398CD8E 		.ascii	"\203\230\315\216n\366\221\371H\256\203\250aCW\363D\016"
  24      6EF691F9 
  24      48AE83A8 
  24      614357F3 
  24      440E
  25 0088 D3DB0C98 		.ascii	"\323\333\014\230Bg\346\241\273\007b\036+\206\235\363"
  25      4267E6A1 
  25      BB07621E 
  25      2B869DF3 
  26 0098 B0FAE7CB 		.ascii	"\260\372\347\313\\|\376y#\213\220\023\204\233\315\202"
ARM GAS  /tmp/cccORKxm.s 			page 2


  26      5C7CFE79 
  26      238B9013 
  26      849BCD82 
  27 00a8 11DA73E1 		.ascii	"\021\332s\341\376\3010\177\016^\363ep\313=\221\301\346"
  27      FEC1307F 
  27      0E5EF365 
  27      70CB3D91 
  27      C1E6
  28 00ba 2F668C00 		.ascii	"/f\214\000\230\203\323\3567\263\361\331\375D\032O<\342"
  28      9883D3EE 
  28      37B3F1D9 
  28      FD441A4F 
  28      3CE2
  29 00cc 913B321B 		.ascii	"\221;2\0335\355\301\323?\334.\006\206\206\177\377\377"
  29      35EDC1D3 
  29      3FDC2E06 
  29      86867FFF 
  29      FF
  30 00dd F323C52E 		.ascii	"\363#\305.#\206\032\204\237 \321\312\310\300\214\032"
  30      23861A84 
  30      9F20D1CA 
  30      C8C08C1A 
  31 00ed A433206E 		.ascii	"\2443 n\207\21213j3h\2452\2620g22\306\201$N\000\223"
  31      878A3133 
  31      6A3368A5 
  31      32B23067 
  31      3232C681 
  32 0105 3C430727 		.ascii	"<C\007'\302\312\027\300\314'\243\247\247\017A%\251\305"
  32      C2CA17C0 
  32      CC27A3A7 
  32      A70F4125 
  32      A9C5
  33 0117 25FA4525 		.ascii	"%\372E%`:#5\261@/\231\001\000\262\242\226\216"
  33      603A2335 
  33      B1402F99 
  33      0100B2A2 
  33      968E
  34              		.text
  35              		.section	.gnu.lto_.inline.8a6c082164e4c36e,"",%progbits
  36 0000 789C6362 		.ascii	"x\234cb`d\340e\300\016\2663Bh&\006\216\347\214g\201"
  36      6064E065 
  36      C00EB633 
  36      42682606 
  36      8EE78C67 
  37 0015 0A99429A 		.ascii	"\012\231B\232\234\030\330\026\31031\260\360\202\204"
  37      9C18D816 
  37      C83331B0 
  37      F08284
  38 0024 27F8A1D2 		.ascii	"'\370\241\322\014L\334\014\014\214\030\2420.3\017\012"
  38      0C4CDC0C 
  38      0C8C18A2 
  38      302E330F 
  38      0A
  39 0035 17550F8A 		.ascii	"\027U\017\212V\034jP$\2111\007\273\026\312M\307\243"
  39      561C6A50 
  39      24893107 
  39      BB16CA4D 
ARM GAS  /tmp/cccORKxm.s 			page 3


  39      C7A3
  40 0047 837C8D78 		.ascii	"\203|\215x\203\007M\024\252\226\221\013\030=\214\014"
  40      83074D14 
  40      AA96910B 
  40      183D8C0C 
  41 0057 ECFC8C20 		.ascii	"\354\374\214 \036\"j\230A\321\006\000\220\357 \212"
  41      1E226A98 
  41      41D10600 
  41      90EF208A 
  42              		.text
  43              		.section	.gnu.lto_.pureconst.8a6c082164e4c36e,"",%progbits
  44 0000 789C6362 		.ascii	"x\234cb`d`f```e\200\000&\006\011F\011\000\0012\000?"
  44      60646066 
  44      60606065 
  44      80002606 
  44      09460900 
  45              		.text
  46              		.section	.gnu.lto_heap1_execute.8a6c082164e4c36e,"",%progbits
  47 0000 789CCD58 		.ascii	"x\234\315XIlSW\024}\357\017\266\343y\014\231\210C\022"
  47      496C5357 
  47      147DEF0F 
  47      B6E3790C 
  47      99884312 
  48 0014 88438893 		.ascii	"\210C\210\223\020 \255\252\356\333%H]RTEF\200T\024\225"
  48      1020ADAA 
  48      EEDB2548 
  48      5D525445 
  48      46805414 
  49 0029 A86AD9E0 		.ascii	"\250j\331\340\006\026\335TB]Qf:\320\204\316t\202\026"
  49      0616DD54 
  49      425D5166 
  49      3AD084CE 
  49      748216
  50 003c 150A06DA 		.ascii	"\025\012\006\332\310\215PeU,\262@j\324v\341\005\013"
  50      C88D5065 
  50      552CB240 
  50      6AD476E1 
  50      050B
  51 004e 6F2A454D 		.ascii	"o*EM\317\033\376\367\300\377\277!6\252\235\310\307\367"
  51      CF1BFEF7 
  51      C0FFBF21 
  51      36AA9DC8 
  51      C7F7
  52 0060 FD7BEEBB 		.ascii	"\375{\356\273\303\361\177\266\025B\361\367\350\303\203"
  52      C3F17FB6 
  52      1542F1F7 
  52      E8C383
  53 006f C517BB08 		.ascii	"\305\027\273\010y\026\257i\202P\345\370\002!o\364(J"
  53      7916AF69 
  53      8250E5F8 
  53      02216FF4 
  53      284A
  54 0081 F4DA04C9 		.ascii	"\364\332\004\311\246\324B+\311\216\252\322\322\270\245"
  54      A6D4422B 
  54      C98EAAD2 
  54      D2B8A5
  55 0090 494BE796 		.ascii	"IK\347\226.-\027\267\\\322rs\313\255x\337\332\004\313"
ARM GAS  /tmp/cccORKxm.s 			page 4


  55      2E2D17B7 
  55      5CD27273 
  55      CBAD78DF 
  55      DA04CB
  56 00a3 733405CB 		.ascii	"s4\005\313\243\304\037&`y\317?\005+N\275l+\352\225\014"
  56      A3C41F26 
  56      6079CF3F 
  56      052B4EBD 
  56      6C2BEA95 
  57 00b8 1F67F8A4 		.ascii	"\037g\370\244\345\347\226_Z\001n\005\244\025\344VPZ"
  57      E5E7965F 
  57      5A016E05 
  57      A415E456 
  57      505A
  58 00ca 216E85A4 		.ascii	"!n\205\244\025\346VX\211\026F`E\256u\303\212\320\230"
  58      15E65658 
  58      89164660 
  58      45AE75C3 
  58      8AD098
  59 00dd 282A6ABC 		.ascii	"(*j\274\210Q\312^\240!G\024U\323]nO\334\353\363\007"
  59      8851CA5E 
  59      A0214714 
  59      55D35D6E 
  59      4FDCEBF3 
  60 00f2 82A17024 		.ascii	"\202\241p$\032\243G^\340\215\332\334K.d\263o?\2749\323"
  60      1AA3475E 
  60      E08DDADC 
  60      4B2E64B3 
  60      6F3FBC39 
  61 0107 36F36065 		.ascii	"6\363`e%\231a\253{(\231\277\364;m'\031J\211\2070Tj\373"
  61      259961AB 
  61      7B2899BF 
  61      F43B6D27 
  61      194A8987 
  62 011f 6AC3236B 		.ascii	"j\303#k!\025;\236\324V\307o\315<'I*'\345\273\004\253"
  62      21153B9E 
  62      D456C76F 
  62      CD3C2749 
  62      2A27E5BB 
  63 0135 47B2B427 		.ascii	"G\262\264'W\325\232\362+\254o\356\374r\335\315\224\337"
  63      57D59AF2 
  63      2BAC6FEE 
  63      FC72DDCD 
  63      94DF
  64 0147 F18AFC34 		.ascii	"\361\212\3744\205$)\343-\255&\305G\012#O\212\364\177"
  64      852429E3 
  64      2DAD26C5 
  64      470A234F 
  64      8AF47F
  65 015a 0E2BD9DC 		.ascii	"\016+\331\334\371\225\232<\277B\252i\363S\310\000\027"
  65      F9959A3C 
  65      BF42AA69 
  65      F353C800 
  65      17
  66 016b 7B69F653 		.ascii	"{i\366S\272\026\345.\317\006\233\2666\321\373\301\246"
  66      BA16E52E 
  66      CF069BB6 
ARM GAS  /tmp/cccORKxm.s 			page 5


  66      36D1FBC1 
  66      A6
  67 017c CD4F2143 		.ascii	"\315O!C\274\367\213M\226\342\321\254\221\242\256\220"
  67      BCF78B4D 
  67      96E2D1AC 
  67      91A2AE90 
  68 018c 51218F13 		.ascii	"Q!\217\023{W\243\216*\3468g\376\245>6q\007'^\321\377"
  68      7B57A38E 
  68      2AE63867 
  68      FEA53E36 
  68      7107275E 
  69 01a2 9378A392 		.ascii	"\223x\243\222\350R\310\323\234\270|\342\300c3\237\341"
  69      E852C8D3 
  69      9CB87CE2 
  69      C063339F 
  69      E1
  70 01b3 CCFBCEB9 		.ascii	"\314\373\316\271\026O\\T\226\346\\\327\225\033\017V"
  70      164F5C54 
  70      96E65CD7 
  70      951B0F56 
  71 01c3 8E10F21A 		.ascii	"\216\020\362\032%\273\351'\264\227(\300\237\200*\360"
  71      25BBE927 
  71      B49728C0 
  71      9F802AF0 
  72 01d3 3C50035E 		.ascii	"<P\003^\000\352r\335\005|\027\350\006\276\007\364\310"
  72      00EA72DD 
  72      057C17E8 
  72      06BE07F4 
  72      C8
  73 01e4 F516E03C 		.ascii	"\365\026\340<\320\013\314\003}\300\367\201~\340\007"
  73      D00BCC03 
  73      7DC0F781 
  73      7EE007
  74 01f3 C000F022 		.ascii	"\300\000\360\"0(\375C\322?,\375#\300\017\201Q\340,0"
  74      3028FD43 
  74      D23F2CFD 
  74      23C00F81 
  74      51E02C30 
  75 0207 069C03C6 		.ascii	"\006\234\003\306\245\177B\372\267\002/\001\327\001?"
  75      A57F42FA 
  75      B7022F01 
  75      D7013F
  76 0216 02B6013F 		.ascii	"\002\266\001?\006\266K\277\016\340g\300N\340\347\300"
  76      06B64BBF 
  76      0EE067C0 
  76      4EE0E7C0 
  77 0226 6EE017C0 		.ascii	"n\340\027\300$\3602\260\007\370%p\003\360+`/\360k`\237"
  77      24F032B0 
  77      07F82570 
  77      03F02B60 
  77      2FF06B60 
  78 023b E4F7CB7D 		.ascii	"\344\367\313}6\002\277\001n\002~\013\034\000^\001\246"
  78      3602BF01 
  78      6E027E0B 
  78      1C005E01 
  78      A6
  79 024c A4DF20F0 		.ascii	"\244\337 \360*p3\360;\340\020\360{\340\026\3405\340"
ARM GAS  /tmp/cccORKxm.s 			page 6


  79      2A7033F0 
  79      3BE010F0 
  79      7BE016E0 
  79      35E0
  80 025e B0F44B03 		.ascii	"\260\364K\003\177\000\216\000\257\003G\2017\200c\300"
  80      7F008E00 
  80      AF034781 
  80      378063C0 
  81 026e 1F815B81 		.ascii	"\037\201[\2017\201\343\300[\300m\222\277\035\230\003"
  81      3781E3C0 
  81      5BC06D92 
  81      BF1D9803 
  82 027e EE00DE01 		.ascii	"\356\000\336\001N\000\357\002\361\320\311\261l6\254"
  82      4E00EF02 
  82      F1D0C9B1 
  82      6C36AC
  83 028d 8BF8225B 		.ascii	"\213\370\"[\321\303\335t\201?\337\303\363\036\371v\330"
  83      D1C3DD74 
  83      813FDFC3 
  83      F31EF976 
  83      D8
  84 029e C9907DE4 		.ascii	"\311\220}\344\335\005\015\260\027j\236\250\205w\202"
  84      DD050DB0 
  84      176A9EA8 
  84      857782
  85 02ad BBE9AF54 		.ascii	"\273\351\257T\307\245\303\344\357\254'C\335t\017\245"
  85      C7A5C3E4 
  85      EFAC2743 
  85      DD740FA5 
  86 02bd 8292A11E 		.ascii	"\202\222\241\036B\362D\317u\324\370\264\300G\021>LR"
  86      42F244CF 
  86      75D4F8B4 
  86      C047113E 
  86      4C52
  87 02cf 5E7EE5F5 		.ascii	"^~\345\365\014\365Q\261\345}\235\263\375\234\235?)\351"
  87      0CF551B1 
  87      E57D9DB3 
  87      FD9C9D3F 
  87      29E9
  88 02e1 935491FC 		.ascii	"\223T\221\374\000\370j5\237\241\013\032\310\320 !w\270"
  88      00F86A35 
  88      9FA10B1A 
  88      C8D02021 
  88      77B8
  89 02f3 F8184794 		.ascii	"\370\030G\2246\3112\236'G\027\324\302\311\240\021L\305"
  89      36C9329E 
  89      274717D4 
  89      C2C9A011 
  89      4CC5
  90 0305 2A63E93C 		.ascii	"*c\351<N\236\353R\\\321\3446!l\243\225\267Qqc\000-C"
  90      4E9EEB52 
  90      5CD1E436 
  90      216CA395 
  90      B7517163 
  91 031c C384DC26 		.ascii	"\303\204\334&\307\376\244e\002\273\\\375\256\330\305"
  91      C7FEA465 
  91      02BB5CFD 
ARM GAS  /tmp/cccORKxm.s 			page 7


  91      AED8C5
  92 032b 6EB48556 		.ascii	"n\264\205V\364H[<\371jM\375\021\004\326\005\001Idh\224"
  92      F4485B3C 
  92      F96A4DFD 
  92      1104D605 
  92      01496468 
  93 0340 EFBF542E 		.ascii	"\357\277T.Tw.T%\331\177VVBv\305\352\274\330_\324b\271"
  93      54772E54 
  93      25D97F56 
  93      564276C5 
  93      EABCD85F 
  94 0357 581756AD 		.ascii	"X\027V\255\213u\333\025\2530\232E\261n\253bqO\370\331"
  94      8B75DB15 
  94      AB309A45 
  94      B16EAB62 
  94      714FF8D9 
  95 036b A5B25977 		.ascii	"\245\262Yw\332\317Z\256x\351~*F\\5tR1\363\305Sf+<\217"
  95      DACF5AAE 
  95      78E97E2A 
  95      465C3574 
  95      5231F3C5 
  96 0384 B6A232CE 		.ascii	"\266\2422\316\025\335b\370\373\252\373!T\270\324i\204"
  96      15DD62F8 
  96      FBAAFB21 
  96      54B8D469 
  96      84
  97 0395 6CA927E4 		.ascii	"l\251'\344<\017\331\302C\026\315\220\336zB\346yH/\013"
  97      3C0FD9C2 
  97      4316CD90 
  97      DE7A42E6 
  97      79482F0B 
  98 03a9 A9954E39 		.ascii	"\251\225N9\212\305#\305\242-\327\366\271\312\255\305"
  98      8AC523C5 
  98      A22DD7F6 
  98      B9CAADC5 
  99 03b9 70CB7539 		.ascii	"p\313u9\271y\015\351\345O\233J\3619\317\215T\216m\241"
  99      B9790DE9 
  99      E54F9B4A 
  99      F139CF8D 
  99      548E6DA1 
 100 03cd 726C5C72 		.ascii	"rl\\r\246J\374\210$\012\2465\202\013\330\011Ne4\013"
 100      A64AFC88 
 100      240AA635 
 100      820BD809 
 100      4E65340B 
 101 03e1 C105AC04 		.ascii	"\301\005\254\004\207\222J\224\011n\351\264)\225`\375"
 101      87924A94 
 101      096EE9B4 
 101      299560FD 
 102 03f1 52098AB9 		.ascii	"R\011\212\271v\031!C\365K%\304C\226\314\220\341\372"
 102      76192143 
 102      F54B25C4 
 102      4396CC90 
 102      E1FA
 103 0403 A5121612 		.ascii	"\245\022\026\0228\355(\225\260\251\201\365Nn!\303-\357"
 103      38ED2895 
 103      B0A981F5 
ARM GAS  /tmp/cccORKxm.s 			page 8


 103      4E6E21C3 
 103      2DEF
 104 0415 E81634A4 		.ascii	"\350\0264\244R8cJ%\322\030\251D\021\311Z*1;\251h\214"
 104      5238634A 
 104      25D218A9 
 104      4411C95A 
 104      2A313BA9 
 105 042b 66219598 		.ascii	"f!\225\230\225T\\\204\334e\207\225^<cJ%\276\352!D\354"
 105      95545C84 
 105      DC658795 
 105      5E3C634A 
 105      25BEEA21 
 106 0441 A4121773 		.ascii	"\244\022\027s]o\204L\324/\225\204\230\353\031\307\271"
 106      5D6F844C 
 106      D42F9584 
 106      98EB19C7 
 106      B9
 107 0452 C68D49E4 		.ascii	"\306\215I\344\316\232\223hm\314$\326!\222HQ\251\231"
 107      CE9A9368 
 107      6DCC24D6 
 107      21924851 
 107      A999
 108 0464 449BDD24 		.ascii	"D\233\335$8\315b\022mV\223p\023\222`\203\310\2375\007"
 108      38CD6212 
 108      6D569370 
 108      13926083 
 108      C89F3507 
 109 0478 D15EFF7B 		.ascii	"\321^\377{\266]\334\336\313\335\350Xk7n\223\334\037"
 109      B65DDCDE 
 109      CBDDE858 
 109      6B376E93 
 109      DC1F
 110 048a E5123ACA 		.ascii	"\345\022:\312\242,\227\200\263\304\247Vv\246\2631\233"
 110      A22C9780 
 110      B3C4A756 
 110      76A6B331 
 110      9B
 111 049b 7596FB6E 		.ascii	"u\226\373n<v2\211\251t\027;\031\022\352<\231)\226'\325"
 111      3C763289 
 111      A974173B 
 111      1912EA3C 
 111      99299627 
 112 04b0 3DC93E63 		.ascii	"=\311>cU\346\221\264\233\220\213\271[L(Y;\241\337\010"
 112      55E691B4 
 112      9B908BB9 
 112      5B4C2859 
 112      3BA1DF08 
 113 04c4 FFAEABA1 		.ascii	"\377\256\253\241\3428\021\257\210\374N\304\326\334\274"
 113      E23811AF 
 113      88FC4EC4 
 113      D6DCBC
 114 04d3 7E1F21EC 		.ascii	"~\037!\354\234\327Jg\035E\2320\317\251n'\267vS\313\347"
 114      9CD74A67 
 114      1D459A30 
 114      CFA96E27 
 114      B77653CB 
 115 04e8 CCE9F534 		.ascii	"\314\351\3654F\313\033\020\311\372\256\322k\327)7\243"
ARM GAS  /tmp/cccORKxm.s 			page 9


 115      46CB1B10 
 115      C9FAAED2 
 115      6BD72937 
 115      A3
 116 04f9 5974AAD7 		.ascii	"Yt\252\327J\313\330PaBX<gj\271\257~-\367\011-'\215\220"
 116      4ACBD850 
 116      6142583C 
 116      676AB9AF 
 116      7E2DF709 
 117 0511 FDF5DF54 		.ascii	"\375\365\337T\372\371\034\212\347\034\347\325g\014\242"
 117      FAF91C8A 
 117      E71CE7D5 
 117      670CA2
 118 0520 541EC4C6 		.ascii	"T\036\304\306\306\014b\023\"Y\337T\006\354\006\341a"
 118      C60C6213 
 118      2259DF54 
 118      06EC06E1 
 118      61
 119 0531 348B410C 		.ascii	"4\213A\014X\015\"@\010\377 \260\\\036Dj\325]\353\261"
 119      580D2240 
 119      08FF20B0 
 119      5C1E446A 
 119      D55DEBB1 
 120 0545 1B444A1C 		.ascii	"\033DJ\034\235\263\216]K\231gg\312\311\255\337<;g\315"
 120      9DB38E5D 
 120      4B996767 
 120      CAC9ADDF 
 120      3C3B67CD 
 121 0559 E60E36A6 		.ascii	"\346\0166\246\271\233\021\311Z\345Cv\315ma4\213\346"
 121      B99B11C9 
 121      5AE54376 
 121      CD6D6134 
 121      8BE6
 122 056b 0E593517 		.ascii	"\016Y5\027\275\021Ggm\201\253\372X_\223\370\314\363"
 122      BD114767 
 122      6D81ABFA 
 122      585F93F8 
 122      CCF3
 123 057d ECF73463 		.ascii	"\354\3674c\277-\306u\204\337g,\016\257br\240\332\014"
 123      BF2DC675 
 123      84DF672C 
 123      0EAF6272 
 123      A0DA0C
 124 0590 6D98075B 		.ascii	"m\230\007[.w9\335\230.\217 \222\3502\251\351\362\250"
 124      2E7739DD 
 124      982E8F20 
 124      92E832A9 
 124      E9F2A8
 125 05a3 5D97BD8C 		.ascii	"]\227\275\214f\321\345Q\253.\207D\227\265\334\234\243"
 125      66D1E551 
 125      AB2E8744 
 125      97B5DC9C 
 125      A3
 126 05b4 DC864D1D 		.ascii	"\334\206M\035\315\231\025\2165\246\302\255\210d\255"
 126      CD99158E 
 126      35A6C2AD 
 126      8864AD
ARM GAS  /tmp/cccORKxm.s 			page 10


 127 05c3 A371BB0A 		.ascii	"\243q\273\012}\214fQ\341\270U\205aV!S\300\342\240\341"
 127      7D8C6651 
 127      E1B85585 
 127      61562153 
 127      C0E2A0E1 
 128 05d7 B7CD4888 		.ascii	"\267\315H\210-\233\354\355\306\227\301\352\374v\300"
 128      2D9BECED 
 128      C697C1EA 
 128      FC76C0
 129 05e6 1F17AB53 		.ascii	"\037\027\253S\233\260K\315\317\030\026\251MX\245\026"
 129      9BB04BCD 
 129      CF1816A9 
 129      4D58A516 
 130 05f6 11A9DD3C 		.ascii	"\021\251\335<@\0151-\360_Q.g\337\244r\344UW\357\325"
 130      400D312D 
 130      F05F512E 
 130      67DFA472 
 130      E45557EF 
 131 060b 5E1561A2 		.ascii	"^\025a\242\3427\221\372\003\305D\240\005B\251!\006\361"
 131      E23791FA 
 131      03C544A0 
 131      0542A921 
 131      06F1
 132 061d D8C98E7C 		.ascii	"\330\311\216|\\b\267\321\256tzD\374Og\016M\217\2742"
 132      5C62B7D1 
 132      AE747A44 
 132      FC4F670E 
 132      4D8FBC32 
 133 0631 CD715FE6 		.ascii	"\315q_\346\245\251\364$q\357\337;\375\362TzT=\230\036"
 133      A5A9F424 
 133      71EFDF3B 
 133      FDF2547A 
 133      543D981E 
 134 0645 D30E1D4E 		.ascii	"\323\016\035NoU\246\306\224)<\217\323\203\312\241\303"
 134      6F55A6C6 
 134      94293C8F 
 134      D383CAA1 
 134      C3
 135 0656 FF026F3E 		.ascii	"\377\002o>_Z"
 135      5F5A
 136              		.text
 137              		.section	.gnu.lto_heap1_setup.8a6c082164e4c36e,"",%progbits
 138 0000 789C6362 		.ascii	"x\234cb`\004BL \011\304\273\201X\016\210\031\231\031"
 138      6004424C 
 138      2009C4BB 
 138      81580E88 
 138      199919
 139 0013 1899269C 		.ascii	"\030\231&\234c`hT`bd\0041\200Z\352\231\030\353C!:Ou"
 139      63606854 
 139      60626404 
 139      31805AEA 
 139      9918EB43 
 140 002b 3C96BF33 		.ascii	"<\226\2773\203m?\323\201\007\377\353\031\030\230\201"
 140      836D3FD3 
 140      8107FFEB 
 140      19189881 
 141 003b 42AC0C2D 		.ascii	"B\254\014-\015\015\002\014\361P\243\003A4Hc\020#\023"
ARM GAS  /tmp/cccORKxm.s 			page 11


 141      0D0D020C 
 141      F150A303 
 141      41344863 
 141      102313
 142 004e 98C17C86 		.ascii	"\230\301|\206\201\355\312\214u\214\261\214\013\030Y"
 142      81EDCA8C 
 142      758CB18C 
 142      0B1859
 143 005d 8172550C 		.ascii	"\201rU\014?\0338R\201N\211gd\204\350\201\21202f\242"
 143      3F1B3852 
 143      814E8967 
 143      6484E881 
 143      8A303266 
 144 0072 F09918B5 		.ascii	"\360\231\030\265\031\264R\031\231\2313\031\031\343@"
 144      19B45219 
 144      99993319 
 144      19E340
 145 0081 32273881 		.ascii	"2'8\201D\007'\330\311\251\214,\014/x\200\024\320\310"
 145      440727D8 
 145      C9A98C2C 
 145      0C2F7880 
 145      14D0C8
 146 0094 730C8C40 		.ascii	"s\014\214@7\301\314\2079\203\021l;\320\015\0142zz\372"
 146      37C1CC87 
 146      3983116C 
 146      3BD00D0C 
 146      327A7AFA 
 147 00a8 1054925A 		.ascii	"\020T\222Z\\\242_T\002\2463R\023\013\364\222\031\000"
 147      5CA25F54 
 147      02A63352 
 147      130BF492 
 147      1900
 148 00ba 22BF312B 		.ascii	"\"\2771+"
 149              		.text
 150              		.section	.gnu.lto_.cgraph.8a6c082164e4c36e,"",%progbits
 151 0000 789C3D90 		.ascii	"x\234=\220\315JC1\020\205g\222\333\366%J\273\363\245"
 151      CD4A4331 
 151      10856792 
 151      DBF6254A 
 151      BBF3A5
 152 0013 5CD90B2D 		.ascii	"\\\331\013-\264P\301\027\230B@Q\241\212\335\025q\023"
 152      B450C117 
 152      98424051 
 152      A18ADD15 
 152      7113
 153 0025 50FC7F88 		.ascii	"P\374\177\210\354]\266[%\270\364\025\304\314\231k\356"
 153      EC5DB65B 
 153      25B8F415 
 153      C4CC996B 
 153      EE
 154 0036 225FCEFC 		.ascii	"\"_\316\374\234\231\\GL\236\210~\230\354s\017,D\327"
 154      9C995C47 
 154      4C9E887E 
 154      98EC730F 
 154      2C44D7
 155 0049 1F24727B 		.ascii	"\037$r{~\344\356Y\270*~eqP\253\025\3633\213\257\342"
 155      7EE4EE59 
ARM GAS  /tmp/cccORKxm.s 			page 12


 155      B82A7E65 
 155      7150AB15 
 155      F3338BAF 
 156 005e 8DA5A9E2 		.ascii	"\215\245\251\342\205\245W\305\023K\277\212w\226\301"
 156      85A557C5 
 156      134BBF8A 
 156      7796C1
 157 006d BFF0D4A7 		.ascii	"\277\360\324\247\360\371[\350)\202=J\240\243\370\245"
 157      F0F95BE8 
 157      29823D4A 
 157      A0A3F8A5 
 158 007d 6C283F1E 		.ascii	"l(?\036h8\234~7\032\316`)?\333Yy\307p\321i\260\241p"
 158      68389C7E 
 158      371ACE60 
 158      293FDB59 
 158      79C770D1 
 159 0095 698C1D13 		.ascii	"i\214\035\023\350)\203\305~m\365y=T\304+ +J\323\015"
 159      E82983C5 
 159      7E6DF579 
 159      3D54C42B 
 159      202B4AD3 
 160 00aa 900C59E1 		.ascii	"\220\014Y\341)l\206\332\2306\250\014;\217q\2122m\357"
 160      296C86DA 
 160      9836A80C 
 160      3B8F718A 
 160      326DEF
 161 00bd B194A2EC 		.ascii	"\261\224\242\354\270G.nm\242!\036j*\334\3316#\030\217"
 161      B8472E6E 
 161      6DA2211E 
 161      6A2ADCD9 
 161      3623188F 
 162 00d1 E03B86ED 		.ascii	"\340;\206\355\030\256\023\230N\340\331\242\255\205c"
 162      18AE1398 
 162      4EE0D9A2 
 162      AD8563
 163 00e0 0BC329BA 		.ascii	"\013\303)\272p\206\031\2623d\355>\307\013\346\270/\020"
 163      708619B2 
 163      3364ED3E 
 163      C70BE6B8 
 163      2F10
 164 00f2 5FE0314B 		.ascii	"_\3401K\215\244%\306\037\343\355'\236\007\370\361\364"
 164      8DA425C6 
 164      1FE3ED27 
 164      9E07F8F1 
 164      F4
 165 0103 07E67478 		.ascii	"\007\346tx\306"
 165      C6
 166              		.text
 167              		.section	.gnu.lto_.vars.8a6c082164e4c36e,"",%progbits
 168 0000 789C6362 		.ascii	"x\234cb`d`f``\220d\200\000\226\245\214\014,\365\314"
 168      60646066 
 168      60609064 
 168      800096A5 
 168      8C0C2CF5 
 169 0015 1B181919 		.ascii	"\033\030\031\031\352\031V22\261\3263\254`d\006\222\000"
 169      EA195632 
 169      32B1D633 
ARM GAS  /tmp/cccORKxm.s 			page 13


 169      AC606406 
 169      9200
 170 0027 436704E1 		.ascii	"Cg\004\341"
 171              		.text
 172              		.section	.gnu.lto_.refs.8a6c082164e4c36e,"",%progbits
 173 0000 789C6362 		.ascii	"x\234cb`d`f``\210`\200\000I\006V\222!\023#\220dd`ab"
 173      60646066 
 173      60608860 
 173      80004906 
 173      56922113 
 174 001b 6586400E 		.ascii	"e\206@\016f\026F\026\006d\314\000\000RR\001X"
 174      66164616 
 174      0664CC00 
 174      00525201 
 174      58
 175              		.text
 176              		.section	.gnu.lto_.statics.8a6c082164e4c36e,"",%progbits
 177 0000 789C6362 		.ascii	"x\234cb`d`b\300\016@\342\214\020&\000\000\375\000\011"
 177      60646062 
 177      C00E40E2 
 177      8C102600 
 177      00FD0009 
 178              		.text
 179              		.section	.gnu.lto_.decls.8a6c082164e4c36e,"",%progbits
 180 0000 789CAD5A 		.ascii	"x\234\255Z\177p\024\325\035\177\357\355\375$1\242\266"
 180      7F7014D5 
 180      1D7FEFED 
 180      FD2431A2 
 180      B6
 181 0011 4C701C38 		.ascii	"Lp\0348\333\322\242-\011\010\025\254\312\304\342T\354"
 181      DBD2A22D 
 181      090815AC 
 181      CAC4E254 
 181      EC
 182 0022 8CED4C4B 		.ascii	"\214\355LK\377\351\364\346\346\270l\222\323\344\356"
 182      FFE9F4E6 
 182      E6B86C92 
 182      D3E4EE
 183 0031 DCDB40B4 		.ascii	"\334\333@\264\355\314\002V#U\007P4!\"\241\002\002*\032"
 183      EDCC0256 
 183      23550750 
 183      342122A1 
 183      02022A1A 
 184 0045 7F302208 		.ascii	"\1770\"\010\247\004p$R(AD\002(\206\370+\303\210F\321"
 184      A7047024 
 184      52284144 
 184      022886F8 
 184      2BC38846 
 185 005a 319A7EDF 		.ascii	"1\232~\337\333\335wo/\273\267w\011;\331\354\273\335"
 185      DBDD776F 
 185      2FBBB777 
 185      093BD9EC 
 185      BBDD
 186 006c F73EDFCF 		.ascii	"\367>\337\317\367\327\373\265K\020F\364\250\202\313"
 186      F7D7FBB5 
 186      4B1046F4 
 186      A882CB
ARM GAS  /tmp/cccORKxm.s 			page 14


 187 007b 101C5B2A 		.ascii	"\020\034[*\021\372\215\027!\011\356\335\010\247\327"
 187      11FA8D17 
 187      2109EEDD 
 187      08A7D7
 188 008a 38DBE17C 		.ascii	"8\333\341|\006\316\277A\2750\234\264U\004\376\005\340"
 188      06CEBF41 
 188      BD309CB4 
 188      5504FE05 
 188      E0
 189 009b AAC2B509 		.ascii	"\252\302\265\011\316\277\303\271\004\316\373\341|\020"
 189      CEBFC3B9 
 189      04CEFBE1 
 189      7C10
 190 00a9 CE1570AE 		.ascii	"\316\025p\256\204\323\003u\332\340\272\032\3165p\276"
 190      84D30375 
 190      DAE0BA1A 
 190      CE3570BE 
 191 00b9 AC8BE407 		.ascii	"\254\213\344\007m\177\031\\\377\011\3272\270\226\032"
 191      6D7F195C 
 191      FF09D732 
 191      B8961A
 192 00c8 3269BBD9 		.ascii	"2i\273\331\206\334\014<{\030\316\327\261\316\345>\270"
 192      86DC0C3C 
 192      7B18CED7 
 192      B1CEE53E 
 192      B8
 193 00d9 DE03E71B 		.ascii	"\336\003\347\033p>\004\347n8\377\001g'\234K\015|\237"
 193      703E04E7 
 193      6E38FF01 
 193      67279C4B 
 193      0D7C9F
 194 00ec 81BDC2E0 		.ascii	"\201\275\302\340\365\240\301\361~\203\177[\016\017\252"
 194      F5A0C1F1 
 194      7E837F5B 
 194      0E0FAA
 195 00fb 036DB3C7 		.ascii	"\003m\263\307\220a\352J\271<*\350L\214\272+\215\262"
 195      9061EA4A 
 195      B93C2AE8 
 195      4C8CBA2B 
 195      8DB2
 196 010d A99B7894 		.ascii	"\251\233x\224\240\245\232\266Xk\277W\233\373f\331\245"
 196      A0A59AB6 
 196      586BBF57 
 196      9BFB66D9 
 196      A5
 197 011e 68B90647 		.ascii	"h\271\006G\250\371C\2505\0360\313\202\010i\204\025K"
 197      A8F943A8 
 197      351E30CB 
 197      82086984 
 197      154B
 198 0130 A1188206 		.ascii	"\241\030\202\006\223\320:M[\006\265p\030\257\305\227"
 198      93D03A4D 
 198      5B06B570 
 198      18AFC597 
 199 0140 0230C1E8 		.ascii	"\0020\301\350j\264Ic\207\201n\\\306\242\235\307\236"
 199      6AB44963 
 199      87816E5C 
ARM GAS  /tmp/cccORKxm.s 			page 15


 199      C6A29DC7 
 199      9E
 200 0151 9BA0970B 		.ascii	"\233\240\227\013\301&h\026\206\237\353\0016\214\327"
 200      C1266816 
 200      869FEB01 
 200      368CD7
 201 0160 E1AB7561 		.ascii	"\341\253ua\232.\214\336E\306\375\316U\363\321\360C\272"
 201      9A2E8CDE 
 201      45C6FDCE 
 201      55F3D1F0 
 201      43BA
 202 0172 12B58332 		.ascii	"\022\265\2032\313\226hs}\026\275\306\241\225\024\004"
 202      CB966873 
 202      7D16BDC6 
 202      A1951404 
 203 0182 7E68580D 		.ascii	"~hX\015\343\331%\234@\210\313\3670\2100\336\214\307"
 203      E3D9259C 
 203      4088CBF7 
 203      308830DE 
 203      8CC7
 204 0194 E960CC64 		.ascii	"\351`\314d(\210\232\2638\310\241\235h\223gp\020Z\336"
 204      28889AB3 
 204      38C8A19D 
 204      68936770 
 204      105ADE
 205 01a7 8C0DA667 		.ascii	"\214\015\246g\0378~\240\022\031\330\336\240H\227\375"
 205      1F387EA0 
 205      1219D8DE 
 205      A04897FD 
 206 01b7 D66BE9C0 		.ascii	"\326k\351\300\372c\263D\243\374b0e\030\317\223\214\026"
 206      FA63B344 
 206      A3FC6230 
 206      6518CF93 
 206      8C16
 207 01c9 EED237E1 		.ascii	"\356\3227\341\022\220\276\001\233\342\267<v\352mb\343"
 207      1290BE01 
 207      9BE2B73C 
 207      76EA6D62 
 207      E3
 208 01da 695D4F67 		.ascii	"i]Og+t\000\216I\315z\014{F\320Qlzmg\353\313]\222=\252"
 208      2B74008E 
 208      49CD7A0C 
 208      7B46D051 
 208      6C7A6D67 
 209 01f4 59B66A62 		.ascii	"Y\266jb\034\314qZ\373\022\255Y\362]\206VPge|\226H\251"
 209      1CCC715A 
 209      FB12AD59 
 209      F25D8656 
 209      5067657C 
 210 020b E2000126 		.ascii	"\342\000\001&\3634\223\371\022\276\314&R\350]3R\272"
 210      F33493F9 
 210      12BECC26 
 210      52E85D33 
 210      52BA
 211 021d 5B26D844 		.ascii	"[&\330D\012\321#E\027h\2708s\257\326\214\027u\\\341"
 211      0AD12345 
 211      1768B838 
ARM GAS  /tmp/cccORKxm.s 			page 16


 211      73AFD68C 
 211      17755CE1 
 212 0231 245334F3 		.ascii	"$S4\363+\314\311g\271\231\373\326\234z\3130\307\010"
 212      2BCCC967 
 212      B999FBD6 
 212      9C7ACB30 
 212      C708
 213 0243 D0B633B4 		.ascii	"\320\2663\2645\304D;\275\341\334\276\033Lk\007sb&h\215"
 213      35C4443B 
 213      BDE1DCBE 
 213      1B4C6B07 
 213      73622668 
 214 0258 99208F99 		.ascii	"\231 \217\231\240\0213\354\260fy\021\255\010Z-\231\226"
 214      A01133EC 
 214      B0667911 
 214      AD085A2D 
 214      9996
 215 026a DDB9AD63 		.ascii	"\335\271\255c\000\333\323/\300\233\240\334\\\237\221"
 215      00DBD32F 
 215      C09BA0DC 
 215      5C9F91
 216 0279 F5ED5562 		.ascii	"\365\355Ub\362X\241(\275\214m\306g\204\214\357m)s\364"
 216      F258A128 
 216      BD8C6DC6 
 216      67848CEF 
 216      6D2973F4 
 217 028d A3C632DE 		.ascii	"\243\3062\336\210\233v\237s\236R\260\335\266!\263[\010"
 217      889B769F 
 217      739E52B0 
 217      DDB621B3 
 217      5B08
 218 029f 99FE9671 		.ascii	"\231\376\226q\316!3\274s\321m\345,p/\244\213\211\201"
 218      CE2133BC 
 218      73D16DE5 
 218      2C702FA4 
 218      8B8981
 219 02b2 9E64C6A5 		.ascii	"\236d\306\245\322\006Z>\305#\315\024\235E\030\267\263"
 219      D2065A3E 
 219      C523CD14 
 219      9D4518B7 
 219      B3
 220 02c3 6CDFC831 		.ascii	"l\337\3101\007\313G\200\310\271=\313p\250\321;['\214"
 220      07CB4780 
 220      C8B93DCB 
 220      70A8D13B 
 220      5B278C
 221 02d6 969ADE0D 		.ascii	"\226\232\336\015>\307!\273Z\373\212R7\224C\356%\036"
 221      3EC721BB 
 221      5AFB8A52 
 221      379443EE 
 221      251E
 222 02e8 95DDADE3 		.ascii	"\225\335\255\343F\020\223\034h\253dvV=\253\372\\\242"
 222      4610931C 
 222      68AB6476 
 222      563DABFA 
 222      5CA2
 223 02fa 3BE0A8A6 		.ascii	";\340\250\246%\272Cb\304\301\020h6\037\213\254y~\220"
ARM GAS  /tmp/cccORKxm.s 			page 17


 223      25BA4362 
 223      C4C11068 
 223      361F8BAC 
 223      797E90
 224 030d 0D97AF49 		.ascii	"\015\227\257If\236o\335q\374+\243s.\000\211\2403\254"
 224      669E6FDD 
 224      71FC2BA3 
 224      732E0089 
 224      A033AC
 225 0320 E561DB5C 		.ascii	"\345a\333\\9,\344J\367c\276\\\275\2219:\026\234\226"
 225      392CE44A 
 225      F763BE5C 
 225      BD91393A 
 225      169C96
 226 0333 22F1A38C 		.ascii	"\"\361\243\214\370g\234\370\331]'\366J\026\342n\011"
 226      F8679CF8 
 226      D95D27F6 
 226      4A16E26E 
 226      09
 227 0344 FE9E2DE9 		.ascii	"\376\236-\351\367\004\322=\253jlH;f\235\235\301\332"
 227      F704D23D 
 227      AB6A6C48 
 227      3B669D9D 
 227      C1DA
 228 0356 3D5CEECD 		.ascii	"=\\\356\315\314`\217{(\343\223\266\262O\012\262\273"
 228      CC608F7B 
 228      28E393B6 
 228      B24F0AB2 
 228      BB
 229 0367 D6D84D27 		.ascii	"\326\330M'.\265\004\364\011\226kOr\304\3565\243\317"
 229      2EB504F4 
 229      09966B4F 
 229      72C4EE35 
 229      A3CF
 230 0379 5F1D7333 		.ascii	"_\035s3\307\354\2358\202\024\021\020\213\236\254\364"
 230      C7EC9D38 
 230      82141110 
 230      8B9EACF4 
 231 0389 B12CEDF0 		.ascii	"\261,\355\360\360ql_\307G\357\372u\334\242\301>\321"
 231      F0716C5F 
 231      C747EFFA 
 231      75DCA2C1 
 231      3ED1
 232 039b 07454F76 		.ascii	"\007EOv\030;\264\227O}\3749\303\230\337: \371\371\200"
 232      183BB497 
 232      4F7DFC39 
 232      C398DF3A 
 232      20F9F980 
 233 03af E4CF4E7D 		.ascii	"\344\317N}\212n@\320yn\313\263\273\276\337w]~s\346K"
 233      8A6E40D0 
 233      796ECBB3 
 233      BBBEDF77 
 233      5D7E73E6 
 234 03c4 EF254296 		.ascii	"\357%B\226\344\031Q\010\372\201I<k\033cg\205\030\353"
 234      E4195108 
 234      FA81493C 
 234      6B1B6367 
ARM GAS  /tmp/cccORKxm.s 			page 18


 234      8518EB
 235 03d7 5B73747F 		.ascii	"[st\177\271M\224\341\242\"<;_\376\031\223~\257\227J"
 235      B94D94E1 
 235      A2223C3B 
 235      5FFE1993 
 235      7EAF974A 
 236 03eb FFD256FA 		.ascii	"\377\322V\372\227\202\364\315G:\276\3036\322\203\316"
 236      9782F4CD 
 236      473ABEC3 
 236      36D283CE 
 237 03fb A3DA8D3F 		.ascii	"\243\332\215?.\300\347\347Y\004\357\360f'B\273\336\232"
 237      2EC0E7E7 
 237      5904EFF0 
 237      662742BB 
 237      DE9A
 238 040d 68BA6C76 		.ascii	"h\272lv\211(\212\375\266\314\033\367p\362\233\217,\337"
 238      89288AFD 
 238      B6CC1BF7 
 238      70F29B8F 
 238      2CDF
 239 041f B0CA3BDA 		.ascii	"\260\312;\332t\322\311\274\311Q\273n\035]:\231\210\373"
 239      74D2C9BC 
 239      C951BB6E 
 239      1D5D3A99 
 239      88FB
 240 0431 3962B70B 		.ascii	"9b\267\013\242sDY\021\017p\304\236\242\020\2359\036"
 240      A2734459 
 240      110F70C4 
 240      9EA2109D 
 240      391E
 241 0443 E288BD2E 		.ascii	"\342\210\275.\210c\013\344\330\315\021\373\213Bt\346"
 241      88630BE4 
 241      D8CD11FB 
 241      8B4274E6 
 242 0453 7894230E 		.ascii	"x\224#\016\270 \226\027\310\3618G\034,\012\321\231\343"
 242      B8209617 
 242      C8F13847 
 242      1C2C0AD1 
 242      99E3
 243 0465 298ED8F9 		.ascii	")\216\330\371\373\374\210!;\216\303b*w6\370\2058\033"
 243      FBFC8821 
 243      3B8EC362 
 243      2A7736F8 
 243      85381B
 244 0478 3CED35FB 		.ascii	"<\3555\373\216\2765\307\366W\216f\362\326\347\315v|"
 244      8EBE35C7 
 244      F6578E66 
 244      F2D6E7CD 
 244      767C
 245 048a 43C5757C 		.ascii	"C\305u|v\306\320G\246~\016\332\265\321m\264s\017+\035"
 245      76C6D047 
 245      A67E0EDA 
 245      B5D16DB4 
 245      730F2B1D 
 246 049e 73806376 		.ascii	"s\200cvO\036]XY\372+c\264z\177}\246\274E\3500\003\034"
 246      4F1E5D58 
 246      59FA2B63 
ARM GAS  /tmp/cccORKxm.s 			page 19


 246      B47A7F7D 
 246      A6BC45E8 
 247 04b5 8DF67ED9 		.ascii	"\215\366~\331\336\221W\327\312\313\235j\207\361#d\022"
 247      DE9157D7 
 247      CACB9D6A 
 247      87F12364 
 247      12
 248 04c6 FC5F4982 		.ascii	"\374_I\202\234\211Q\346E}\3114\350\245\365\355\372W"
 248      9C8951E6 
 248      457DC934 
 248      E8A5F5ED 
 248      FA57
 249 04d8 F7D6CEA1 		.ascii	"\367\326\316\241\262\202\010\241\262\310\307]q\325\210"
 249      B28208A1 
 249      B2C8C75D 
 249      71D588
 250 04e7 73E7F3C5 		.ascii	"s\347\363\305Z\271OP\335\305RF\037\337J\350\270\336"
 250      5AB94F50 
 250      DDC55246 
 250      1FDF4AE8 
 250      B8DE
 251 04f9 ECCB4E12 		.ascii	"\354\313N\022\016\365\345L\022\012\007{\234\201-\367"
 251      0EF5E54C 
 251      120A077B 
 251      9C812DF7 
 252 0509 6527092F 		.ascii	"e'\011/\177OL[\341\234I\002\266\216\371\230[\017\033"
 252      7F4F4C5B 
 252      E19C4902 
 252      B68EF998 
 252      5B0F1B
 253 051c C62BAE36 		.ascii	"\306+\2566A\255\276l\226\034{\353:{\272\005t\031#3\344"
 253      41ADBE6C 
 253      961C7BEB 
 253      3A7BBA05 
 253      74192333 
 254 0531 5AA6FB5A 		.ascii	"Z\246\373Z\301\220\035\334\220\272e\212\325g\223\240"
 254      C1901DDC 
 254      90BA658A 
 254      D56793A0 
 255 0541 CFB9E2F4 		.ascii	"\317\271\342\364\231<z}60}:\004}\316\215R\237m\202>"
 255      993C7A7D 
 255      36307D3A 
 255      047DCE8D 
 255      529F6D82 
 256 0556 DF15A7CF 		.ascii	"\337\025\247\317TA\237\2426\004\236&v\033\002\364._"
 256      54419FA2 
 256      36049E26 
 256      761B02F4 
 256      2E5F
 257 0568 1E6CB1DB 		.ascii	"\036l\261\333{\360\010\242\230\351\264\"\346\312[\230"
 257      7BF008A2 
 257      98E9B422 
 257      E6CA5B98 
 258 0578 E932624E 		.ascii	"\3512bNY'\336\305\200u0\260\275BN\355\332;\305\264\272"
 258      5927DEC5 
 258      807530B0 
 258      BD424EED 
ARM GAS  /tmp/cccORKxm.s 			page 20


 258      DA3BC5B4 
 259 058d 2FC70B3E 		.ascii	"/\307\013>\253\027\350c*\355\033\266\377\223\335\011"
 259      AB17E863 
 259      2AED1BB6 
 259      FF93DD09 
 260 059d 329FD11F 		.ascii	"2\237\321\037~t! `\326\303\030R\313B\264\356w\031\243"
 260      7E742120 
 260      60D6C318 
 260      52CB42B4 
 260      EE7719A3 
 261 05b1 90C5BB68 		.ascii	"\220\305\273h\230wM\033\036\341\240\203#\031@-#\324"
 261      98774D1B 
 261      1EE1A083 
 261      2319402D 
 261      23D4
 262 05c3 6C3A409D 		.ascii	"l:@\235\344\200\003\257\214v\211W\364\032\352U\246\323"
 262      E48003AF 
 262      8C768957 
 262      F41AEA55 
 262      A6D3
 263 05d5 19212E96 		.ascii	"\031!.\226\177\232M\251Or;\310\302\026E\347\004\273"
 263      7F9A4DA9 
 263      4F723BC8 
 263      C21645E7 
 263      04BB
 264 05e7 6F3F3012 		.ascii	"o?0\022\273\033\007A\337\360\004\035t\301\011\271\370"
 264      BB1B0741 
 264      DFF0041D 
 264      74C109B9 
 264      F8
 265 05f8 AF80C595 		.ascii	"\257\200\305\225h\230\014\241[\020\203\3340\375mFN\026"
 265      68980CA1 
 265      5B1083DC 
 265      30FD6D46 
 265      4E16
 266 060a 80C3B6FD 		.ascii	"\200\303\266\375\210\335\022\211\336\345\033\020mv\033"
 266      88DD1289 
 266      DEE51B10 
 266      6D761B
 267 0619 1078D814 		.ascii	"\020x\330\024&\214Ocb \366\266\215(B\206\037\"\3010"
 267      268C4F63 
 267      6220F6B6 
 267      8D284286 
 267      1F22C130 
 268 062d EE847907 		.ascii	"\356\204y\007\260\333C\256\314Z\376\337~\276K\360\252"
 268      B0DB43AE 
 268      CC5AFEDF 
 268      7EBE4BF0 
 268      AA
 269 063e DB569AD5 		.ascii	"\333V\232\325\366!\213\3555\246\210\276\243\263\222"
 269      F6218BED 
 269      35A688BE 
 269      A3B392
 270 064d 63765F6F 		.ascii	"cv_o\326\256\262\314\022\315\362d\027o\232\331\330\316"
 270      D6AEB2CC 
 270      12CDF264 
 270      176F9AD9 
ARM GAS  /tmp/cccORKxm.s 			page 21


 270      D8CE
 271 065f 1107AECF 		.ascii	"\021\007\256\317\317q\252#\242il=\0276d\365\276\241"
 271      CF71AA23 
 271      A2696C3D 
 271      173664F5 
 271      BEA1
 272 0671 18C4D030 		.ascii	"\030\304\3200\304\234\365-\3351s\216\227\003\342\344"
 272      C49CF52D 
 272      DD31738E 
 272      9703E2E4 
 273 0681 AB8373E8 		.ascii	"\253\203s\350y\315\315\341\263\\\365\3227]\266s\314"
 273      79CDCDE1 
 273      B35CF5D2 
 273      375DB673 
 273      CC
 274 0692 C1D7DCFC 		.ascii	"\301\327\334\3749\313E3\243\347\332\313!\373w\272\321"
 274      39CB4533 
 274      A3E7DACB 
 274      21FB77BA 
 274      D1
 275 06a3 ACCA1397 		.ascii	"\254\312\023\227\316V9a}\365c\246\002\335\307\353\275"
 275      CE563961 
 275      7DF563A6 
 275      02DDC7EB 
 275      BD
 276 06b4 7CB4BDAF 		.ascii	"|\264\275\257\016\336\313\021\373\213B\014\345ja\036"
 276      0EDECB11 
 276      FB8B420C 
 276      E56A611E 
 277 06c4 E2E66318 		.ascii	"\342\346c\030\037\307\223\020\011\343\036\310\3530\356"
 277      1FC79310 
 277      09E31EC8 
 277      EB30EE
 278 06d3 1613EC80 		.ascii	"\026\023\354\200\337\334]\335\272\343\374\333\374-\226"
 278      DFDC5DDD 
 278      BAE3FCDB 
 278      FC2D96
 279 06e2 7D3E14A6 		.ascii	"}>\024\246\015A\357p\320\376\243e\371\325q\333;\310"
 279      0D41EF70 
 279      D0FEA365 
 279      F9D571DB 
 279      3BC8
 280 06f4 09DF8379 		.ascii	"\011\337\203y\303\367\230\030\276'9\211A\1771\034\362"
 280      C3F79818 
 280      BE273989 
 280      417F311C 
 280      F2
 281 0705 98F4B060 		.ascii	"\230\364\260`\322#`R)\214\337a&}\207\320\377\357\212"
 281      D2236052 
 281      298CDF61 
 281      267D87D0 
 281      FFEF8A
 282 0718 863DE3E7 		.ascii	"\206=\343\347\257\007\217\011\257\007s\266\267\305r"
 282      AF078F09 
 282      AF0773B6 
 282      B7C572
 283 0727 411DE67A 		.ascii	"A\035\346z\201\302S:\205\215\214\302\213\354\377\177"
ARM GAS  /tmp/cccORKxm.s 			page 22


 283      81C2533A 
 283      858D8CC2 
 283      8BECFF7F 
 284 0737 31A7E06C 		.ascii	"1\247\340l\246\366\354j\334b\336K\3202\266\367\326R"
 284      A6F6EC6A 
 284      DC62DE4B 
 284      D032B6F7 
 284      D652
 285 0749 A6CF634D 		.ascii	"\246\317cM\204L\015\207\370\270\324\3008A.a%\313\264"
 285      844C0D87 
 285      F8B8D4C0 
 285      38412E61 
 285      25CBB4
 286 075c 8DD57196 		.ascii	"\215\325q\226{RX\024\226\006\305\322G\245\256\244{\262"
 286      7B525814 
 286      9606C5D2 
 286      47A5AEA4 
 286      7BB2
 287 076e BEE57D7A 		.ascii	"\276\345}z\271O'B\320g`mc\346k}\327\236\313\235\240"
 287      B94F2742 
 287      D067606D 
 287      63E66B7D 
 287      D79ECB9D 
 288 0783 2F98633E 		.ascii	"/\230c>\260\235\377~ \314\177\177\030:w\272\311\306"
 288      B09DFF7E 
 288      20CC7F7F 
 288      183A77BA 
 288      C9C6
 289 0795 07848B6F 		.ascii	"\007\204\213o\226|\266\357\367\355\354u\306v$>C\334"
 289      967CB6EF 
 289      F7EDEC75 
 289      C676243E 
 289      43DC
 290 07a7 DEF57945 		.ascii	"\336\365yEi\246\203@\232\3766\226K\374\021\227\370&"
 290      69A68340 
 290      9AFE3696 
 290      4BFC1197 
 290      F826
 291 07b9 31247E3C 		.ascii	"1$~<\002\017}\342\350\241\311\246\366\250%\200\015}"
 291      020F7DE2 
 291      E8A1C9A6 
 291      F6A82580 
 291      0D7D
 292 07cb FA5BC639 		.ascii	"\372[\3069\021"
 292      11
 293 07d0 28643ECB 		.ascii	"(d>\313T\322y\022\324\306Q\007\312\335@\015\025\013"
 293      54D27912 
 293      D4C65107 
 293      CADD400D 
 293      150B
 294 07e2 407D82A3 		.ascii	"@}\202\243\016\272\242.\363\026\212\272\226\243v\216"
 294      0EBAA22E 
 294      F3168ABA 
 294      96A3768E 
 295 07f2 774335A6 		.ascii	"wC5\246\261\005\240\256\343\250]\256\250\355c\354P\271"
 295      B105A0AE 
 295      E3A85DAE 
ARM GAS  /tmp/cccORKxm.s 			page 23


 295      A8ED63EC 
 295      50B9
 296 0804 8B9E0A98 		.ascii	"\213\236\012\230!\336=\336)(\363z(\214Oe\373\262\236"
 296      21DE3DDE 
 296      2928F37A 
 296      288C4F65 
 296      FBB29E
 297 0817 D6C48840 		.ascii	"\326\304\210@&\242'\264\314\347\264\027\2075\222?\347"
 297      26A227B4 
 297      CCE7B417 
 297      8735923F 
 297      E7
 298 0828 6B14C77D 		.ascii	"k\024\307}v*\374+2\316(\231\037\201\020\2649\300\027"
 298      762AFC2B 
 298      32CE2899 
 298      1F8110B4 
 298      39C017
 299 083b 7AFB5EF8 		.ascii	"z\373^\370\360]\363\343\020\364s\264\236\342f\026\227"
 299      F05DF3E3 
 299      10F473B4 
 299      9EE26616 
 299      97
 300 084c 3350DA68 		.ascii	"3P\332h\200L\264\030$\214\277&D\274ae\246\313\2035\025"
 300      804CB418 
 300      248CBF26 
 300      44BC6165 
 300      A6CB8335 
 301 0861 97D0599E 		.ascii	"\227\320Y\236\007\375\233a\350\337\016G\177\177\331"
 301      07FD9B61 
 301      E8DF0E47 
 301      7F7FD9
 302 0870 B225EDC3 		.ascii	"\262%\355\303\365\016\240\373\330f\303\277\264E\370"
 302      F50EA0FB 
 302      D866C3BF 
 302      B445F8
 303 087f CEBC9B0D 		.ascii	"\316\274\233\015F\007\361=\011\000\263\017\002\316;"
 303      4607F13D 
 303      0900B30F 
 303      02CE3B
 304 088e 6DB48669 		.ascii	"m\264\206i|\243\314\213y7\332\006\211\345\223\037\366"
 304      7CA3CC8B 
 304      7937DA06 
 304      89E5931F 
 304      F6
 305 089f F90DE13F 		.ascii	"\371\015\341?t(\341+\034\202>\342\366\371ah\371\331"
 305      7428E12B 
 305      1C823EE2 
 305      F6F96168 
 305      F9D9
 306 08b1 66C9CA63 		.ascii	"f\311\312c\261T\250\021\364\327\344\316\304\356\221"
 306      B154A811 
 306      F4D7E4CE 
 306      C4EE91
 307 08c0 7288B117 		.ascii	"r\210\261\027\376\306\257\234\371@~\244\373\244\022"
 307      FEC6AF9C 
 307      F9407EA4 
 307      FBA412
ARM GAS  /tmp/cccORKxm.s 			page 24


 308 08cf 91A2A0CB 		.ascii	"\221\242\240\313\000\327e\347\246\355\335\026\313\206"
 308      00D765E7 
 308      A6EDDD16 
 308      CB86
 309 08dd 717311AA 		.ascii	"qs\021\252\344\215\343\245\271\232\300\204\025[x,\012"
 309      E48DE3A5 
 309      B99AC084 
 309      155B782C 
 309      0A
 310 08ee 9A3CBA56 		.ascii	"\232<\272V[\336\306\206\361\003E\260\310\373m\327C\371"
 310      5BDEC686 
 310      F10345B0 
 310      C8FB6DD7 
 310      43F9
 311 0900 ECA99B30 		.ascii	"\354\251\2330\307:\017pV\235\253-\313\3030^~\301\334"
 311      C73A0F70 
 311      569DAB2D 
 311      CBC3305E 
 311      7EC1DC
 312 0913 FCB0343C 		.ascii	"\374\2604<\311[\270\340-\217\265\355\273\334*\372\221"
 312      C95BB8E0 
 312      2D8FB5ED 
 312      BBDC2AFA 
 312      91
 313 0924 0BE59647 		.ascii	"\013\345\226G\355\014\"\211N\022\236\331\230g=g\271"
 313      ED0C2289 
 313      4E129ED9 
 313      98673D67 
 313      B9
 314 0935 F3DB6D9D 		.ascii	"\363\333m\2359\301\263\312\312\362'h\255\2269\310zz"
 314      39C1B3CA 
 314      CAF22768 
 314      AD9639C8 
 314      7A7A
 315 0947 4D1B1C1A 		.ascii	"M\033\034\032\222\314\357\007\267\006\263\375\331\027"
 315      92CCEF07 
 315      B706B3FD 
 315      D917
 316 0955 EF55F0F9 		.ascii	"\357U\360\371\241\365\333@\266\245\230E\244h\240\263"
 316      A1F5DB40 
 316      B6A59845 
 316      A468A0B3 
 317 0965 D69E45A3 		.ascii	"\326\236E\243\275<A\231`67\017\275\270\315\357\324a"
 317      BD3C4199 
 317      6036370F 
 317      BDB8CDEF 
 317      D461
 318 0977 53BC27AC 		.ascii	"S\274'\254x\317g\350\352X{\177hh\2421\277\240\2375\360"
 318      78CF67E8 
 318      EA587B7F 
 318      6868A231 
 318      BFA09F35 
 319 098c 3CCB645F 		.ascii	"<\313d_\312\302\230\205\363~\252\261\007X\024\360MG"
 319      CAC29885 
 319      F37EAAB1 
 319      075814F0 
 319      4D47
ARM GAS  /tmp/cccORKxm.s 			page 25


 320 099e 183F29D1 		.ascii	"\030?)\321\345\316:\311nND\357\362\335\011\333o:<\226"
 320      E5CE3AC9 
 320      6E4E44EF 
 320      F2DD09DB 
 320      6F3A3C96 
 321 09b2 25077D61 		.ascii	"%\007}a\000\353\030\335\000\320\266\367\274\313t_?\012"
 321      00EB18DD 
 321      00D0B6F7 
 321      BCCB745F 
 321      3F0A
 322 09c4 5E72D0C1 		.ascii	"^r\320\301\3019\2266I\302\222\3430'\321\177\3247\202"
 322      C1399636 
 322      49C292E3 
 322      3027D17F 
 322      D43782
 323 09d7 659C452F 		.ascii	"e\234E/\212L\3201\0169P\324*f\270Z&\342i\2168\232u\221"
 323      8A4CD031 
 323      0E3950D4 
 323      2A66B85A 
 323      26E2698E 
 324 09ef B91EF684 		.ascii	"\271\036\366\204\361\006\211\256<6\262\377O\263\377"
 324      F10689AE 
 324      3C36B2FF 
 324      4FB3FF
 325 09fe CF4AAEAB 		.ascii	"\317J\256\253\220\034#\377G\312\267\256{N\262\274S\027"
 325      901C23FF 
 325      47CAB7AE 
 325      7B4EB2BC 
 325      5317
 326 0a10 60AB72C8 		.ascii	"`\253r\310\012\021\2547s\252\030\306\317K\305\317\217"
 326      0A11AC37 
 326      73AA18C6 
 326      CF4BC5CF 
 326      8F
 327 0a21 3B24A7F9 		.ascii	";$\247\371\261\330\013d\353\201\271?\025\362\374\177"
 327      B1D80B64 
 327      EB81B93F 
 327      15F2FC7F 
 328 0a31 5B8E059D 		.ascii	"[\216\005\235\011\275`\344\345t\364\202\326\\\005\275"
 328      09BD60E4 
 328      E574F482 
 328      D65C05BD 
 329 0a41 12102459 		.ascii	"\022\020$Y\177\336\215\276\325\312u\2450\315\333\317"
 329      7FDE8DBE 
 329      D5CA75A5 
 329      30CDDBCF 
 330 0a51 0FF2BCD5 		.ascii	"\017\362\274\325\355G\320\327\\\326\300\246\354VHN\366"
 330      ED47D0D7 
 330      5CD6C0A6 
 330      EC56484E 
 330      F6
 331 0a62 51515B41 		.ascii	"QQ[A\324\004\244\215Y\255\005,\")\214\341Q&\316qy\270"
 331      D404A48D 
 331      59AD052C 
 331      22298CE1 
 331      5126CE71 
 332 0a78 525C1E66 		.ascii	"R\\\036f\273\254\311\006\376\366\021\330v\207\243m\177"
ARM GAS  /tmp/cccORKxm.s 			page 26


 332      BBACC906 
 332      FEF611D8 
 332      7687A36D 
 332      7F
 333 0a89 E1124B61 		.ascii	"\341\022Ka\374j6@\360\004\264\002\364j\2512X\014n*c"
 333      FC6A3640 
 333      F004B402 
 333      F46AA932 
 333      580C6E2A 
 334 0a9e 55361A3A 		.ascii	"U6\032:\005\364<\300\372D\256\363j\366\220\206\355\370"
 334      05F43CC0 
 334      FA44AEF3 
 334      6AF69086 
 334      EDF8
 335 0ab0 6C36EB11 		.ascii	"l6\353\021l\255M'\225\335\372\016P\357/\0052\272qy\204"
 335      6CAD4D27 
 335      95DDFA0E 
 335      50EF2F05 
 335      32BA7179 
 336 0ac5 E6C4351D 		.ascii	"\346\3045\035\344\234ig$\373\205\270>\007rn\367\272"
 336      E49C6967 
 336      24FB85B8 
 336      3E07726E 
 336      F7BA
 337 0ad7 63BB87F2 		.ascii	"c\273\207\362\266{\303\261\335`\336Nn\267c\273\245y"
 337      B67BC3B1 
 337      DD60DE4E 
 337      6EB763BB 
 337      A579
 338 0ae9 E5754A96 		.ascii	"\345uJ\226\215\263\234\266\217\346m\273G\310\371\213"
 338      8DB39CB6 
 338      8FE66DBB 
 338      47C8F98B 
 339 0af9 1AE486A4 		.ascii	"\032\344\206\244rW\244N\216\246\"\252\357\226?\374%"
 339      7257A44E 
 339      8EA622AA 
 339      EF963FFC 
 339      25
 340 0b0a 3407852A 		.ascii	"4\007\205***\365\277d\272RQ+\343\211X}c\265\\\031\253"
 340      2A2AF5BF 
 340      64BA5251 
 340      2BE38958 
 340      7D63B55C 
 341 0b20 A3D52AEA 		.ascii	"\243\325*\352P\211\320\312\227\216\337-G\324\277V&S"
 341      5089D0CA 
 341      978EDF2D 
 341      47D4BF56 
 341      2653
 342 0b32 6AE54D7F 		.ascii	"j\345M\177\272\255\2626\026\233\022U\032\246$\222\011"
 342      BAADB236 
 342      169B1255 
 342      1AA62492 
 342      09
 343 0b43 798A1C9D 		.ascii	"y\212\034\235\037\2372#2s\3125S\247M\277sz\345\374x"
 343      1F9F3223 
 343      3273CA35 
 343      53A74DBF 
ARM GAS  /tmp/cccORKxm.s 			page 27


 343      737AE5FC 
 344 0b58 82E2D6C7 		.ascii	"\202\342\326\307\347\323z\225\226z\2253*fV\314\340\322"
 344      E7D37A95 
 344      967A9533 
 344      2A6656CC 
 344      E0D2
 345 0b6a D26A75B5 		.ascii	"\322ju\265\\\003\322JAZ\255\254\3264&b\021\365\247\216"
 345      5C03D24A 
 345      415AADAC 
 345      D6342662 
 345      11F5A78E 
 346 0b7e DCA0562C 		.ascii	"\334\240V,\251\310\320`L]$\245$\027\304\253e\245\204"
 346      A9C8D060 
 346      4C5D24A5 
 346      2417C4AB 
 346      65A584
 347 0b91 2906FFA0 		.ascii	")\006\377\240<&\255\336\021\255\217\327&\"\352\244\034"
 347      3C26ADDE 
 347      11AD8FD7 
 347      2622EAA4 
 347      1C
 348 0ba2 94545251 		.ascii	"\224TRQ\323\224\375\234\333\232\000\312\300\0114\306"
 348      D394FD9C 
 348      DB9A00CA 
 348      C00934C6 
 349 0bb2 13EAB533 		.ascii	"\023\352\2653\"\252z\301\224\343r\341\317\372\\P\033"
 349      22AA7AC1 
 349      94E372E1 
 349      CFFA5C50 
 349      1B
 350 0bc3 A482742F 		.ascii	"\244\202t/\343\352I\310M\252\207j\201\033=\324\324\270"
 350      E3EA49C8 
 350      4DAA876A 
 350      811B3DD4 
 350      D4B8
 351 0bd5 CE5717A9 		.ascii	"\316W\027\251Qd\331\337\320\250\312M\021u\242\263E\324"
 351      5164D9DF 
 351      D0A8CA4D 
 351      1175A2B3 
 351      45D4
 352 0be7 268AC3EA 		.ascii	"&\212\303\352]\254\326)`\205t\344\316F\271\021\374\345"
 352      5DACD629 
 352      608574E4 
 352      CE46B911 
 352      FCE5
 353 0bf9 ECE374AC 		.ascii	"\354\343t\254\256\032\232\371\364\006\276T\2042\200"
 353      AE1A9AF9 
 353      F406BE54 
 353      843280
 354 0c08 4B4A9117 		.ascii	"KJ\221\027\370\325\224\022OF\324\031y\355\227lH\305"
 354      F8D59412 
 354      4F46D419 
 354      79ED976C 
 354      48C5
 355 0c1a EB65255D 		.ascii	"\353e%]y\313\2349\000\250\336\225\222\323\2469\247_"
 355      79CB9C39 
 355      00A8DE95 
ARM GAS  /tmp/cccORKxm.s 			page 28


 355      92D3A639 
 355      A75F
 356 0c2c 13D1C1E2 		.ascii	"\023\321\301\342I\177,\231\000fj\011m\035\201g1\265"
 356      497F2C99 
 356      00666A09 
 356      6D1D8167 
 356      31B5
 357 0c3e E92A77C7 		.ascii	"\351*w\307D\026\314l\240h\212\\\013\026\214\250D\231"
 357      4416CC6C 
 357      A0688A5C 
 357      0B168CA8 
 357      4499
 358 0c50 41945F13 		.ascii	"A\224_\023\345Z\242\314$\312,\242\\')\323\246\3029\215"
 358      E55AA2CC 
 358      24CA2CA2 
 358      5C2729D3 
 358      A6C2398D 
 359 0c64 D42B7099 		.ascii	"\324+p\231\356ME\000\331O\025Y(+pM\326C4xbuQ\205j\027"
 359      EE4D4500 
 359      D94F1559 
 359      282B704D 
 359      D6433478 
 360 0c7e 6D90036A 		.ascii	"m\220\003jZ\215\252`\025?\2458\013\256\251\010\273\343"
 360      5A8DAA60 
 360      153FA538 
 360      0BAEA908 
 360      BBE3
 361 0c90 571B92D5 		.ascii	"W\033\222\3252\373]S\037\255M\373UE\256I3\015h\301\333"
 361      32FB5D53 
 361      1FAD4DFB 
 361      5545AE49 
 361      330D68C1 
 362 0ca5 90AE8587 		.ascii	"\220\256\205\207\246ZJ\365]p# 7\305\325\0304\363-T\223"
 362      A65A4AF5 
 362      5D702320 
 362      37C5D518 
 362      34F32D54 
 363 0cba F36F4F95 		.ascii	"\363oO\225\310\013\344\204\332\020M\337\001U\344\205"
 363      C80BE484 
 363      DA104DDF 
 363      0155E485 
 364 0cca B420A522 		.ascii	"\264 \245\"\215e\246C\352\343i5\242\006S\221\205\321"
 364      8D65A643 
 364      EAE36935 
 364      A2065391 
 364      85D1
 365 0cdc B81A4FD4 		.ascii	"\270\032O\324\216IE\000\205\271\311\313\212pCN\311\011"
 365      8E494500 
 365      85B9C9CB 
 365      8A70434E 
 365      C909
 366 0cee 088B5AA8 		.ascii	"\010\213Z\250\005N\245-\306P\006\321zfG\270\231J&\353"
 366      054EA52D 
 366      C65006D1 
 366      7A6647B8 
 366      994A26EB 
 367 0d02 FD0DBA73 		.ascii	"\375\015\272s\341\232\\\230\220\025_\003s\235\267\216"
ARM GAS  /tmp/cccORKxm.s 			page 29


 367      E19A5C98 
 367      90155F03 
 367      739DB78E 
 368 0d12 B6F1CD6F 		.ascii	"\266\361\315o\254\251\221\225RU\006iz9]\316\215M\357"
 368      ACA99195 
 368      52550669 
 368      7A395DCE 
 368      8D4DEF
 369 0d25 5273D32B 		.ascii	"Rs\323+\330\226\314\233J\346M#\363\256!\363\246\223"
 369      D896CC9B 
 369      4AE64D23 
 369      F3AE21F3 
 369      A693
 370 0d37 7933C8C2 		.ascii	"y3\310\302\350E4\002\247E\344&9\006\321t\205mC\3269"
 370      E8453402 
 370      A745E426 
 370      3906D174 
 370      856D43D6 
 371 0d4c C450895E 		.ascii	"\304P\211^5-\253\215)o\344\267@\2544\302\244F\323iY"
 371      352DAB8D 
 371      296FE4B7 
 371      40AC34C2 
 371      A446D369 
 372 0d61 514B6375 		.ascii	"QKcus\241\302\237\301\274\215\3511\372\217\337A8\227"
 372      73A1C29F 
 372      C1BC8DE9 
 372      31FA8FDF 
 372      413897
 373 0d74 E8C59BEA 		.ascii	"\350\305\233\352\353\2231\2503\007<\255\327\031\253"
 373      EB9331A8 
 373      33073CAD 
 373      D719AB
 374 0d83 3FF8E3FC 		.ascii	"?\370\343\374\333\345\230zk\"\256\006\031\032\225\342"
 374      DBE5987A 
 374      6B22AE06 
 374      191A95E2 
 375 0d93 A1A500FD 		.ascii	"\241\245\000\375\027\213\246e\017u\245\227\311\205{"
 375      178BA665 
 375      0F75A597 
 375      C9857B
 376 0da2 51A51AAC 		.ascii	"Q\245\032\254\3407\030\227\244\242\252*+\011\332*h\222"
 376      E0371897 
 376      A4A2AA2A 
 376      2B09DA2A 
 376      6892
 377 0db4 9D764985 		.ascii	"\235vI\205\222\254\216\252\321\012~g2\025\365\253P\224"
 377      92AC8EAA 
 377      D10A7E67 
 377      3215F5AB 
 377      5094
 378 0dc6 B288AAF1 		.ascii	"\262\210\252\361d\"\024MT\207j\224hm\0038Q\277C+\243"
 378      6422144D 
 378      54876A94 
 378      686D0338 
 378      51BF432B 
 379 0ddb FF031866 		.ascii	"\377\003\030f\245\313"
 379      A5CB
ARM GAS  /tmp/cccORKxm.s 			page 30


 380              		.text
 381              		.section	.gnu.lto_.symtab.8a6c082164e4c36e,"",%progbits
 382 0000 5F746573 		.ascii	"_test_assert\000\000\002\000\000\000\000\000\000\000"
 382      745F6173 
 382      73657274 
 382      00000200 
 382      00000000 
 383 0016 00007B01 		.ascii	"\000\000{\001\000\000chHeapStatus\000\000\002\000\000"
 383      00006368 
 383      48656170 
 383      53746174 
 383      75730000 
 384 002d 00000000 		.ascii	"\000\000\000\000\000\000\000\203\001\000\000chHeapF"
 384      00000083 
 384      01000063 
 384      68486561 
 384      7046
 385 003f 72656500 		.ascii	"ree\000\000\002\000\000\000\000\000\000\000\000\000"
 385      00020000 
 385      00000000 
 385      000000
 386 004e 89010000 		.ascii	"\211\001\000\000chHeapAlloc\000\000\002\000\000\000"
 386      63684865 
 386      6170416C 
 386      6C6F6300 
 386      00020000 
 387 0063 00000000 		.ascii	"\000\000\000\000\000\000\215\001\000\000chCoreStatu"
 387      00008D01 
 387      00006368 
 387      436F7265 
 387      53746174 
 388 0078 73000002 		.ascii	"s\000\000\002\000\000\000\000\000\000\000\000\000\222"
 388      00000000 
 388      00000000 
 388      0092
 389 0086 01000063 		.ascii	"\001\000\000chHeapObjectInit\000\000\002\000\000\000"
 389      68486561 
 389      704F626A 
 389      65637449 
 389      6E697400 
 390 009f 00000000 		.ascii	"\000\000\000\000\000\000\225\001\000\000patternheap"
 390      00009501 
 390      00007061 
 390      74746572 
 390      6E686561 
 391 00b4 00000000 		.ascii	"\000\000\000\000\000\000\000\000\000\000\000\000\237"
 391      00000000 
 391      00000000 
 391      9F
 392 00c1 01000074 		.ascii	"\001\000\000testheap1\000\000\000\000\000\000\000\000"
 392      65737468 
 392      65617031 
 392      00000000 
 392      00000000 
 393 00d5 00000000 		.ascii	"\000\000\000\000\265\001\000\000test\000\000\002\000"
 393      B5010000 
 393      74657374 
ARM GAS  /tmp/cccORKxm.s 			page 31


 393      00000200 
 394 00e5 00000000 		.ascii	"\000\000\000\000\000\000\000\000\235\001\000\000"
 394      00000000 
 394      9D010000 
 395              		.text
 396              		.section	.gnu.lto_.opts,"",%progbits
 397 0000 272D6D63 		.ascii	"'-mcpu=cortex-m3''-mno-thumb-interwork''-mthumb''-g"
 397      70753D63 
 397      6F727465 
 397      782D6D33 
 397      27272D6D 
 398 0033 67646227 		.ascii	"gdb''-O2''-fomit-frame-pointer''-falign-functions=1"
 398      272D4F32 
 398      27272D66 
 398      6F6D6974 
 398      2D667261 
 399 0066 3627272D 		.ascii	"6''-ffunction-sections''-fdata-sections''-fno-commo"
 399      6666756E 
 399      6374696F 
 399      6E2D7365 
 399      6374696F 
 400 0099 6E27272D 		.ascii	"n''-flto'\000"
 400      666C746F 
 400      2700
 401              		.text
 402              		.cfi_sections	.debug_frame
 403              		.section	.text.heap1_execute,"ax",%progbits
 404              		.align	2
 405              		.p2align 4,,15
 406              		.thumb
 407              		.thumb_func
 408              		.type	heap1_execute, %function
 409              	heap1_execute:
 410              	.LFB166:
 411              		.file 1 "../../../test/rt/testheap.c"
 412              		.loc 1 69 0
 413              		.cfi_startproc
 414              		@ args = 0, pretend = 0, frame = 8
 415              		@ frame_needed = 0, uses_anonymous_args = 0
 416 0000 70B5     		push	{r4, r5, r6, lr}
 417              	.LCFI0:
 418              		.cfi_def_cfa_offset 16
 419              		.cfi_offset 4, -16
 420              		.cfi_offset 5, -12
 421              		.cfi_offset 6, -8
 422              		.cfi_offset 14, -4
 423 0002 82B0     		sub	sp, sp, #8
 424              	.LCFI1:
 425              		.cfi_def_cfa_offset 24
 426              		.loc 1 74 0
 427 0004 FFF7FEFF 		bl	chCoreStatus
 428              	.LVL0:
 429              		.loc 1 80 0
 430 0008 01A9     		add	r1, sp, #4
 431 000a 0020     		movs	r0, #0
 432 000c FFF7FEFF 		bl	chHeapStatus
 433              	.LVL1:
ARM GAS  /tmp/cccORKxm.s 			page 32


 434              		.loc 1 81 0
 435 0010 1021     		movs	r1, #16
 436 0012 0020     		movs	r0, #0
 437 0014 FFF7FEFF 		bl	chHeapAlloc
 438              	.LVL2:
 439              		.loc 1 82 0
 440 0018 011C     		adds	r1, r0, #0
 441 001a 18BF     		it	ne
 442 001c 0121     		movne	r1, #1
 443 001e 0446     		mov	r4, r0
 444 0020 0120     		movs	r0, #1
 445              	.LVL3:
 446 0022 FFF7FEFF 		bl	_test_assert
 447              	.LVL4:
 448 0026 0546     		mov	r5, r0
 449 0028 08B1     		cbz	r0, .L7
 450              	.LVL5:
 451              	.L1:
 452              		.loc 1 140 0
 453 002a 02B0     		add	sp, sp, #8
 454 002c 70BD     		pop	{r4, r5, r6, pc}
 455              	.LVL6:
 456              	.L7:
 457              		.loc 1 83 0
 458 002e 2046     		mov	r0, r4
 459 0030 FFF7FEFF 		bl	chHeapFree
 460              	.LVL7:
 461              		.loc 1 84 0
 462 0034 6FF0FF01 		mvn	r1, #255
 463 0038 2846     		mov	r0, r5
 464 003a FFF7FEFF 		bl	chHeapAlloc
 465              	.LVL8:
 466              		.loc 1 85 0
 467 003e D0F10101 		rsbs	r1, r0, #1
 468 0042 38BF     		it	cc
 469 0044 0021     		movcc	r1, #0
 470 0046 0220     		movs	r0, #2
 471              	.LVL9:
 472 0048 FFF7FEFF 		bl	_test_assert
 473              	.LVL10:
 474 004c 0028     		cmp	r0, #0
 475 004e ECD1     		bne	.L1
 476              		.loc 1 88 0
 477 0050 01A9     		add	r1, sp, #4
 478 0052 7E48     		ldr	r0, .L8
 479 0054 FFF7FEFF 		bl	chHeapStatus
 480              	.LVL11:
 481              		.loc 1 91 0
 482 0058 1021     		movs	r1, #16
 483 005a 7C48     		ldr	r0, .L8
 484 005c FFF7FEFF 		bl	chHeapAlloc
 485              	.LVL12:
 486              		.loc 1 92 0
 487 0060 1021     		movs	r1, #16
 488              		.loc 1 91 0
 489 0062 0546     		mov	r5, r0
 490              	.LVL13:
ARM GAS  /tmp/cccORKxm.s 			page 33


 491              		.loc 1 92 0
 492 0064 7948     		ldr	r0, .L8
 493              	.LVL14:
 494 0066 FFF7FEFF 		bl	chHeapAlloc
 495              	.LVL15:
 496              		.loc 1 93 0
 497 006a 1021     		movs	r1, #16
 498              		.loc 1 92 0
 499 006c 0446     		mov	r4, r0
 500              	.LVL16:
 501              		.loc 1 93 0
 502 006e 7748     		ldr	r0, .L8
 503              	.LVL17:
 504 0070 FFF7FEFF 		bl	chHeapAlloc
 505              	.LVL18:
 506 0074 0646     		mov	r6, r0
 507              	.LVL19:
 508              		.loc 1 94 0
 509 0076 2846     		mov	r0, r5
 510              	.LVL20:
 511 0078 FFF7FEFF 		bl	chHeapFree
 512              	.LVL21:
 513              		.loc 1 95 0
 514 007c 2046     		mov	r0, r4
 515 007e FFF7FEFF 		bl	chHeapFree
 516              	.LVL22:
 517              		.loc 1 96 0
 518 0082 3046     		mov	r0, r6
 519 0084 FFF7FEFF 		bl	chHeapFree
 520              	.LVL23:
 521              		.loc 1 97 0
 522 0088 6946     		mov	r1, sp
 523 008a 7048     		ldr	r0, .L8
 524 008c FFF7FEFF 		bl	chHeapStatus
 525              	.LVL24:
 526 0090 B0F1010E 		subs	lr, r0, #1
 527 0094 DEF10001 		rsbs	r1, lr, #0
 528 0098 51EB0E01 		adcs	r1, r1, lr
 529 009c 0320     		movs	r0, #3
 530 009e FFF7FEFF 		bl	_test_assert
 531              	.LVL25:
 532 00a2 0028     		cmp	r0, #0
 533 00a4 C1D1     		bne	.L1
 534              		.loc 1 100 0
 535 00a6 1021     		movs	r1, #16
 536 00a8 6848     		ldr	r0, .L8
 537 00aa FFF7FEFF 		bl	chHeapAlloc
 538              	.LVL26:
 539              		.loc 1 101 0
 540 00ae 1021     		movs	r1, #16
 541              		.loc 1 100 0
 542 00b0 0446     		mov	r4, r0
 543              	.LVL27:
 544              		.loc 1 101 0
 545 00b2 6648     		ldr	r0, .L8
 546              	.LVL28:
 547 00b4 FFF7FEFF 		bl	chHeapAlloc
ARM GAS  /tmp/cccORKxm.s 			page 34


 548              	.LVL29:
 549              		.loc 1 102 0
 550 00b8 1021     		movs	r1, #16
 551              		.loc 1 101 0
 552 00ba 0546     		mov	r5, r0
 553              	.LVL30:
 554              		.loc 1 102 0
 555 00bc 6348     		ldr	r0, .L8
 556              	.LVL31:
 557 00be FFF7FEFF 		bl	chHeapAlloc
 558              	.LVL32:
 559              		.loc 1 103 0
 560 00c2 FFF7FEFF 		bl	chHeapFree
 561              	.LVL33:
 562              		.loc 1 104 0
 563 00c6 2846     		mov	r0, r5
 564 00c8 FFF7FEFF 		bl	chHeapFree
 565              	.LVL34:
 566              		.loc 1 105 0
 567 00cc 2046     		mov	r0, r4
 568 00ce FFF7FEFF 		bl	chHeapFree
 569              	.LVL35:
 570              		.loc 1 106 0
 571 00d2 6946     		mov	r1, sp
 572 00d4 5D48     		ldr	r0, .L8
 573 00d6 FFF7FEFF 		bl	chHeapStatus
 574              	.LVL36:
 575 00da 0138     		subs	r0, r0, #1
 576 00dc 4242     		rsbs	r2, r0, #0
 577 00de 52EB0001 		adcs	r1, r2, r0
 578 00e2 0420     		movs	r0, #4
 579 00e4 FFF7FEFF 		bl	_test_assert
 580              	.LVL37:
 581 00e8 0028     		cmp	r0, #0
 582 00ea 9ED1     		bne	.L1
 583              		.loc 1 109 0
 584 00ec 1121     		movs	r1, #17
 585 00ee 5748     		ldr	r0, .L8
 586 00f0 FFF7FEFF 		bl	chHeapAlloc
 587              	.LVL38:
 588              		.loc 1 110 0
 589 00f4 1021     		movs	r1, #16
 590              		.loc 1 109 0
 591 00f6 0446     		mov	r4, r0
 592              	.LVL39:
 593              		.loc 1 110 0
 594 00f8 5448     		ldr	r0, .L8
 595              	.LVL40:
 596 00fa FFF7FEFF 		bl	chHeapAlloc
 597              	.LVL41:
 598 00fe 0546     		mov	r5, r0
 599              	.LVL42:
 600              		.loc 1 111 0
 601 0100 2046     		mov	r0, r4
 602              	.LVL43:
 603 0102 FFF7FEFF 		bl	chHeapFree
 604              	.LVL44:
ARM GAS  /tmp/cccORKxm.s 			page 35


 605              		.loc 1 112 0
 606 0106 6946     		mov	r1, sp
 607 0108 5048     		ldr	r0, .L8
 608 010a FFF7FEFF 		bl	chHeapStatus
 609              	.LVL45:
 610 010e 831E     		subs	r3, r0, #2
 611 0110 5942     		rsbs	r1, r3, #0
 612 0112 5941     		adcs	r1, r1, r3
 613 0114 0520     		movs	r0, #5
 614 0116 FFF7FEFF 		bl	_test_assert
 615              	.LVL46:
 616 011a 0028     		cmp	r0, #0
 617 011c 85D1     		bne	.L1
 618              		.loc 1 113 0
 619 011e 1021     		movs	r1, #16
 620 0120 4A48     		ldr	r0, .L8
 621 0122 FFF7FEFF 		bl	chHeapAlloc
 622              	.LVL47:
 623              		.loc 1 116 0
 624 0126 6946     		mov	r1, sp
 625              		.loc 1 113 0
 626 0128 0446     		mov	r4, r0
 627              	.LVL48:
 628              		.loc 1 116 0
 629 012a 4848     		ldr	r0, .L8
 630              	.LVL49:
 631 012c FFF7FEFF 		bl	chHeapStatus
 632              	.LVL50:
 633 0130 0128     		cmp	r0, #1
 634 0132 00F08980 		beq	.L5
 635              		.loc 1 116 0 is_stmt 0 discriminator 2
 636 0136 6946     		mov	r1, sp
 637 0138 4448     		ldr	r0, .L8
 638 013a FFF7FEFF 		bl	chHeapStatus
 639              	.LVL51:
 640 013e 0238     		subs	r0, r0, #2
 641 0140 4242     		rsbs	r2, r0, #0
 642 0142 52EB0001 		adcs	r1, r2, r0
 643              	.L3:
 644              		.loc 1 116 0 discriminator 4
 645 0146 0620     		movs	r0, #6
 646 0148 FFF7FEFF 		bl	_test_assert
 647              	.LVL52:
 648 014c 0028     		cmp	r0, #0
 649 014e 7FF46CAF 		bne	.L1
 650              		.loc 1 118 0 is_stmt 1
 651 0152 2846     		mov	r0, r5
 652 0154 FFF7FEFF 		bl	chHeapFree
 653              	.LVL53:
 654              		.loc 1 119 0
 655 0158 2046     		mov	r0, r4
 656 015a FFF7FEFF 		bl	chHeapFree
 657              	.LVL54:
 658              		.loc 1 120 0
 659 015e 6946     		mov	r1, sp
 660 0160 3A48     		ldr	r0, .L8
 661 0162 FFF7FEFF 		bl	chHeapStatus
ARM GAS  /tmp/cccORKxm.s 			page 36


 662              	.LVL55:
 663 0166 B0F1010C 		subs	ip, r0, #1
 664 016a DCF10003 		rsbs	r3, ip, #0
 665 016e 53EB0C01 		adcs	r1, r3, ip
 666 0172 0720     		movs	r0, #7
 667 0174 FFF7FEFF 		bl	_test_assert
 668              	.LVL56:
 669 0178 0028     		cmp	r0, #0
 670 017a 7FF456AF 		bne	.L1
 671              		.loc 1 123 0
 672 017e 1021     		movs	r1, #16
 673 0180 3248     		ldr	r0, .L8
 674 0182 FFF7FEFF 		bl	chHeapAlloc
 675              	.LVL57:
 676              		.loc 1 124 0
 677 0186 1021     		movs	r1, #16
 678              		.loc 1 123 0
 679 0188 0546     		mov	r5, r0
 680              	.LVL58:
 681              		.loc 1 124 0
 682 018a 3048     		ldr	r0, .L8
 683              	.LVL59:
 684 018c FFF7FEFF 		bl	chHeapAlloc
 685              	.LVL60:
 686 0190 0446     		mov	r4, r0
 687              	.LVL61:
 688              		.loc 1 125 0
 689 0192 2846     		mov	r0, r5
 690              	.LVL62:
 691 0194 FFF7FEFF 		bl	chHeapFree
 692              	.LVL63:
 693              		.loc 1 126 0
 694 0198 6946     		mov	r1, sp
 695 019a 2C48     		ldr	r0, .L8
 696 019c FFF7FEFF 		bl	chHeapStatus
 697              	.LVL64:
 698 01a0 B0F1020E 		subs	lr, r0, #2
 699 01a4 DEF10001 		rsbs	r1, lr, #0
 700 01a8 51EB0E01 		adcs	r1, r1, lr
 701 01ac 0820     		movs	r0, #8
 702 01ae FFF7FEFF 		bl	_test_assert
 703              	.LVL65:
 704 01b2 0028     		cmp	r0, #0
 705 01b4 7FF439AF 		bne	.L1
 706              		.loc 1 127 0
 707 01b8 2021     		movs	r1, #32
 708 01ba 2448     		ldr	r0, .L8
 709 01bc FFF7FEFF 		bl	chHeapAlloc
 710              	.LVL66:
 711              		.loc 1 128 0
 712 01c0 FFF7FEFF 		bl	chHeapFree
 713              	.LVL67:
 714              		.loc 1 129 0
 715 01c4 2046     		mov	r0, r4
 716 01c6 FFF7FEFF 		bl	chHeapFree
 717              	.LVL68:
 718              		.loc 1 130 0
ARM GAS  /tmp/cccORKxm.s 			page 37


 719 01ca 6946     		mov	r1, sp
 720 01cc 1F48     		ldr	r0, .L8
 721 01ce FFF7FEFF 		bl	chHeapStatus
 722              	.LVL69:
 723 01d2 0138     		subs	r0, r0, #1
 724 01d4 4242     		rsbs	r2, r0, #0
 725 01d6 52EB0001 		adcs	r1, r2, r0
 726 01da 0920     		movs	r0, #9
 727 01dc FFF7FEFF 		bl	_test_assert
 728              	.LVL70:
 729 01e0 0028     		cmp	r0, #0
 730 01e2 7FF422AF 		bne	.L1
 731              		.loc 1 133 0
 732 01e6 6946     		mov	r1, sp
 733 01e8 1848     		ldr	r0, .L8
 734 01ea FFF7FEFF 		bl	chHeapStatus
 735              	.LVL71:
 736              		.loc 1 134 0
 737 01ee 0099     		ldr	r1, [sp, #0]
 738 01f0 1648     		ldr	r0, .L8
 739 01f2 FFF7FEFF 		bl	chHeapAlloc
 740              	.LVL72:
 741              		.loc 1 135 0
 742 01f6 6946     		mov	r1, sp
 743              		.loc 1 134 0
 744 01f8 0446     		mov	r4, r0
 745              	.LVL73:
 746              		.loc 1 135 0
 747 01fa 1448     		ldr	r0, .L8
 748              	.LVL74:
 749 01fc FFF7FEFF 		bl	chHeapStatus
 750              	.LVL75:
 751 0200 D0F10101 		rsbs	r1, r0, #1
 752 0204 38BF     		it	cc
 753 0206 0021     		movcc	r1, #0
 754 0208 0A20     		movs	r0, #10
 755 020a FFF7FEFF 		bl	_test_assert
 756              	.LVL76:
 757 020e 0028     		cmp	r0, #0
 758 0210 7FF40BAF 		bne	.L1
 759              		.loc 1 136 0
 760 0214 2046     		mov	r0, r4
 761 0216 FFF7FEFF 		bl	chHeapFree
 762              	.LVL77:
 763              		.loc 1 138 0
 764 021a 6946     		mov	r1, sp
 765 021c 0B48     		ldr	r0, .L8
 766 021e FFF7FEFF 		bl	chHeapStatus
 767              	.LVL78:
 768 0222 431E     		subs	r3, r0, #1
 769 0224 5942     		rsbs	r1, r3, #0
 770 0226 5941     		adcs	r1, r1, r3
 771 0228 0B20     		movs	r0, #11
 772 022a FFF7FEFF 		bl	_test_assert
 773              	.LVL79:
 774 022e 0028     		cmp	r0, #0
 775 0230 7FF4FBAE 		bne	.L1
ARM GAS  /tmp/cccORKxm.s 			page 38


 776              	.LVL80:
 777              		.loc 1 139 0
 778 0234 9DE80A00 		ldmia	sp, {r1, r3}
 779 0238 0C20     		movs	r0, #12
 780 023a CA1A     		subs	r2, r1, r3
 781              	.LVL81:
 782 023c 5342     		rsbs	r3, r2, #0
 783 023e 53EB0201 		adcs	r1, r3, r2
 784              	.LVL82:
 785 0242 FFF7FEFF 		bl	_test_assert
 786              	.LVL83:
 787 0246 F0E6     		b	.L1
 788              	.LVL84:
 789              	.L5:
 790              		.loc 1 116 0
 791 0248 0146     		mov	r1, r0
 792 024a 7CE7     		b	.L3
 793              	.L9:
 794              		.align	2
 795              	.L8:
 796 024c 00000000 		.word	.LANCHOR0
 797              		.cfi_endproc
 798              	.LFE166:
 799              		.size	heap1_execute, .-heap1_execute
 800              		.section	.text.heap1_setup,"ax",%progbits
 801              		.align	2
 802              		.p2align 4,,15
 803              		.thumb
 804              		.thumb_func
 805              		.type	heap1_setup, %function
 806              	heap1_setup:
 807              	.LFB165:
 808              		.loc 1 64 0
 809              		.cfi_startproc
 810              		@ args = 0, pretend = 0, frame = 0
 811              		@ frame_needed = 0, uses_anonymous_args = 0
 812              		@ link register save eliminated.
 813              		.loc 1 66 0
 814 0000 40F20000 		movw	r0, #:lower16:.LANCHOR0
 815 0004 40F20001 		movw	r1, #:lower16:test
 816 0008 C0F20000 		movt	r0, #:upper16:.LANCHOR0
 817 000c C0F20001 		movt	r1, #:upper16:test
 818 0010 4FF4CD62 		mov	r2, #1640
 819              		.loc 1 67 0
 820              		.loc 1 66 0
 821 0014 FFF7FEBF 		b	chHeapObjectInit
 822              	.LVL85:
 823              		.cfi_endproc
 824              	.LFE165:
 825              		.size	heap1_setup, .-heap1_setup
 826              		.global	patternheap
 827              		.global	testheap1
 828 0018 AFF30080 		.section	.rodata.patternheap,"a",%progbits
 828      AFF30080 
 829              		.align	2
 830              		.type	patternheap, %object
 831              		.size	patternheap, 8
ARM GAS  /tmp/cccORKxm.s 			page 39


 832              	patternheap:
 833 0000 00000000 		.word	testheap1
 834 0004 00000000 		.word	0
 835              		.section	.rodata.str1.4,"aMS",%progbits,1
 836              		.align	2
 837              	.LC0:
 838 0000 48656170 		.ascii	"Heap, allocation and fragmentation test\000"
 838      2C20616C 
 838      6C6F6361 
 838      74696F6E 
 838      20616E64 
 839              		.section	.rodata.testheap1,"a",%progbits
 840              		.align	2
 841              		.type	testheap1, %object
 842              		.size	testheap1, 16
 843              	testheap1:
 844 0000 00000000 		.word	.LC0
 845 0004 00000000 		.word	heap1_setup
 846 0008 00000000 		.word	0
 847 000c 00000000 		.word	heap1_execute
 848              		.section	.bss.test_heap,"aw",%nobits
 849              		.align	3
 850              		.set	.LANCHOR0,. + 0
 851              		.type	test_heap, %object
 852              		.size	test_heap, 32
 853              	test_heap:
 854 0000 00000000 		.space	32
 854      00000000 
 854      00000000 
 854      00000000 
 854      00000000 
 855              		.text
 856              	.Letext0:
 857              		.file 2 "../../../os/rt/include/chschd.h"
 858              		.file 3 "/opt/ARM/gcc-arm-none-eabi-4_7-2013q3/bin/../lib/gcc/arm-none-eabi/4.7.4/include/stddef.h
 859              		.file 4 "/opt/ARM/gcc-arm-none-eabi-4_7-2013q3/bin/../lib/gcc/arm-none-eabi/4.7.4/../../../../arm-
 860              		.file 5 "../../../os/rt/ports/ARMCMx/compilers/GCC/chtypes.h"
 861              		.file 6 "../../../os/rt/ports/ARMCMx/chcore.h"
 862              		.file 7 "../../../os/rt/ports/ARMCMx/chcore_v7m.h"
 863              		.file 8 "../../../os/rt/include/chmtx.h"
 864              		.file 9 "../../../os/rt/include/chmemcore.h"
 865              		.file 10 "../../../os/rt/include/chheap.h"
 866              		.file 11 "../../../test/rt/test.h"
 867              		.file 12 "../../../os/ext/CMSIS/include/core_cm3.h"